(lp0
(S'Reminder: Back when he was FBI Director, Mueller worked w/ Islamist orgs \xe2\x80\x94 including ISNA & CAIR (unindicted co-conspirators in the HolyLandFoundation terror case) \xe2\x80\x94 to purge the FBI\'s anti-terror training manuals of material deemed "offensive" to Muslims.http://jwatch.us/N1QLHJ\xc2\xa0'
p1
S'7:07 AM - 29 Jan 2018'
p2
tp3
a(S'When Kashmiris living on Indian soil, hoist Pakistani and ISIS flags with the chants of \xe2\x80\x9cDeath to India,\xe2\x80\x9d they are misguided youth and should be counselled.\n\nWhen our kids raise pro-India slogans in minority dominant areas, they are provoking the minorities to shoot them dead. pic.twitter.com/s4qDH6bUzf'
p4
S'12:17 AM - 29 Jan 2018'
p5
tp6
a(S'In this second episode of our Blowback series, @mehdirhasan explains how the U.S. built, ran, and supervised a recruitment center for the men who would go on to create ISIS. https://interc.pt/2DKU2zF\xc2\xa0pic.twitter.com/bH9h8aAPeZ'
p7
S'7:10 AM - 29 Jan 2018'
p8
tp9
a(S'Thank you President Widodo for your visit and your sympathies for the Afghan people -- who have suffered tremendously at the hands of state-sponsored terrorism.'
p10
S'1:44 AM - 29 Jan 2018'
p11
tp12
a(S'If I were advising .@realDonaldTrump on SOTU Address:\n-Begin with staggering success deregulation has had on economy \n-Show tax reform helps every American going forward\n-Pivot to infrastructure, expect bipartisan standing ovation\n-Address opioids\n-Update ISIS fight\n-#MAGA'
p13
S'5:48 AM - 29 Jan 2018'
p14
tp15
a(S'Kerala HC orders NIA probe into forced conversion as Hindu girl complained of plot to sell her to ISIS, alleges PFI members converted her to Islam. There are more than 90 cases of Love Jihad in Kerala, Many linked with PFI. What stopping Govt to ban PFI & its political front SDPI'
p16
S'10:31 AM - 29 Jan 2018'
p17
tp18
a(S'Sad but very important video, the child\xe2\x80\x99s father joined isis and died apparently fighting for them, the kid is mad about what happened and blames Iraqi army for his loss, he says he prefers isis over IQ army, Iraqi govt/coaltion are faced with a tall task to set up psych clinics pic.twitter.com/OJ0aSuJXro'
p19
S'9:26 AM - 29 Jan 2018'
p20
tp21
a(S'Armenian Genocide.\nDersim Genocide.\nInvasion of Cyprus.\nEthnic cleansing of Cypriots, Greek and minorities.\nNow Turkey tries to genocide Kurds in Rojava.\n\nStop Turkish terrorism! #StopAfrinGenocidepic.twitter.com/L2O6ATNhan'
p22
S'10:53 AM - 29 Jan 2018'
p23
tp24
a(S'Terrified.. handling my hair grade at this stage is so much work....wish I could skip 2 years from this point pic.twitter.com/oayltFopDz'
p25
S'3:20 PM - 29 Jan 2018'
p26
tp27
a(S'Today, we commemorate solemnly the first anniversary of the Quebec mosque shooting, one of the worst mass shooting incidents to happen in Canada. We remember the victims (6 killed and 19 injured) and their loved ones and we affirm our unity against terrorism and hate.......'
p28
S'8:36 AM - 29 Jan 2018'
p29
tp30
a(S'"How ISIS was created by the U.S. invasion of Iraq" - the second episode of my new #blowback short video series for @theintercept is now uphttps://twitter.com/theintercept/status/957994267669966848\xc2\xa0\xe2\x80\xa6'
p31
S'9:26 AM - 29 Jan 2018'
p32
tp33
a(S'Hyderabad: Severed head of P Ramesh, a 25 yr old Hindu man kept on the wall of a religious structure. Locals informed the cops, a hunt for his body is now on.\n\nWelcome to the \xe2\x80\x9cSecular Republic of India.\xe2\x80\x9d These ISIS style beheadings are just the beginning.\n\nhttps://www.indiatoday.in/india/story/hyderabad-severed-head-of-man-found-on-compound-wall-of-religious-structure-search-on-for-torso-1156456-2018-01-29\xc2\xa0\xe2\x80\xa6pic.twitter.com/mc4hCfuhQC'
p34
S'8:18 AM - 29 Jan 2018'
p35
tp36
a(S"Yezidi girl sets herself on fire to avoid further rape at hands of ISIS, Swara Bhasker blames Yezidi patriarchal society for this Jauhar of Yezidi girl, asks why can't they accept sex slavery of ISIS pic.twitter.com/u1P0ZVe0Z9"
p37
S'8:41 AM - 29 Jan 2018'
p38
tp39
a(S'This country only need a "french revolution" where all the elite face the Guillotine..\nAfter robbing hundreds of billions & destroying Pak Medical & dental Council & facing trials for corruption & terrorism, this swine has been appointed as head of Sindh Higher education by PPP. pic.twitter.com/qJSLy9cyRn'
p40
S'9:04 AM - 29 Jan 2018'
p41
tp42
a(S'India has its own Taliban group operating under NDS superior. They carry out attacks to blame PAK. ARG has its own Taliban/ISIS too, mostly targeting local opponents such as Jamiyat and Hazara. Then there is Waziristan Taliban led by ISI doing Jihad in AFG. Trump should know this'
p43
S'11:35 AM - 29 Jan 2018'
p44
tp45
a(S'A new Gallup poll found that 78% of Americans approve of the U.S military strength, a 12% increase from last year.  Americans also feel about 13% more secure about terrorism.'
p46
S'8:27 AM - 29 Jan 2018'
p47
tp48
a(S'13 baptisms were held in the #Chaldean #Christian town of #Teleskuf, #Iraq, for the first time since it was liberated from ISIS. Baptisms were held at St. George #Chaldean #Catholic Church & performed by Father Salar. #Victorypic.twitter.com/AqJytx9BDP'
p49
S'2:33 PM - 29 Jan 2018'
p50
tp51
a(S'\xe2\x80\x9cThere, undeniably, would be no ISIS if we hadn\xe2\x80\x99t invaded Iraq,\xe2\x80\x9d says David Kilcullen, a former counter-insurgency adviser to Gen. David Petraeus. https://interc.pt/2BAH9T6\xc2\xa0'
p52
S'8:04 AM - 29 Jan 2018'
p53
tp54
a(S'Trudeau says the horrific mass murder at a Quebec mosque was a "terrorist attack". It may be; but we haven\'t had the trial yet. And police have not laid terrorism charges, let alone hate crime charges. He\'s using a tragedy to scold all Canadians as racist. https://pm.gc.ca/eng/news/2018/01/29/statement-prime-minister-first-anniversary-fatal-shooting-centre-culturel-islamique\xc2\xa0\xe2\x80\xa6'
p55
S'9:56 AM - 29 Jan 2018'
p56
tp57
a(S"Khwaarjis (ISIS), who even bombed the graves of Prophets in Iraq and Syria, will never be allowed to spread their wickedness and satanic agenda in #Kashmir. Khwaarjis have been declared as 'Dogs of hell' by our Holy Prophet (P.B.U.H)."
p58
S'11:24 AM - 29 Jan 2018'
p59
tp60
a(S'Blowback: How ISIS was created by the U.S. invasion of Iraq https://interc.pt/2EmsZYO\xc2\xa0 by @mehdirhasan'
p61
S'6:55 AM - 29 Jan 2018'
p62
tp63
a(S'We have to recognize that a lot of the problem is of our own making. There, undeniably, would be no ISIS if we hadn\xe2\x80\x99t invaded Iraq.\xe2\x80\x9d -\n David Kilcullen https://interc.pt/2GrMAY0\xc2\xa0 by @mehdirhasan'
p64
S'11:28 AM - 29 Jan 2018'
p65
tp66
a(S'Because Obama is black the media pretended he was a good president no matter how obvious it became that he was a traitor to USA (aided Iran, ISIS, Hezbollah).\nWorse, if O had been eligible to run again, he might\'ve won.\nConclusion: the media must be "fundamentally transformed."'
p67
S'9:00 AM - 29 Jan 2018'
p68
tp69
a(S'Meet Gillian \n\nDirector at the Scotland office.\n\nGillian has had roles in the Home Office as head of operational support for immigration and counter terrorism...\n\nIncluding a stint in Northern Ireland...\n\nWhy would a Scotland Office Director require such a skill set? pic.twitter.com/vDZ3I0Jv7p'
p70
S'12:32 PM - 29 Jan 2018'
p71
tp72
a(S'McCabe worked hard for each of his accomplishments. \n\nBolles school \nDuke graduate\nJ.D. from Washington University\nIntern DOJ\nField Office FBI\nSwat team\nFBI counter terrorism unit\nNational security\nInvestigated Marathon bomber \n\nYou? Winning sperm lotto. \n\nPales in compassion.'
p73
S'12:24 PM - 29 Jan 2018'
p74
tp75
a(S'We need programs in place to insure such isis orphans will not be easy future recruits for the terrorists across the globe'
p76
S'9:27 AM - 29 Jan 2018'
p77
tp78
a(S'Watch An injured policeman in Benue State narrates how he narrowly escaped death in the hands of heavily armed Fulani herdsmen who recently attacked the state.\xc2\xa0But the dullards at the presidency said they are not fulani But ISIS. \n\n pic.twitter.com/e2x7o3jWBI'
p79
S'6:04 AM - 29 Jan 2018'
p80
tp81
a(S'Obama, Hillary, Brennan, Clapper, Comey, McCabe, Lynch, Susan Rice etc. should all be facing serious charges of:-\nTreason (arming ISIS)\nSedition (subverting US election)\nIllegal spying\nPerjury\nAbuse of Office\nObstruction of Justice\nCorruption (e.g. #UraniumOne scandal)\n.....'
p82
S'2:42 PM - 29 Jan 2018'
p83
tp84
a(S'Terrorism eyed after driver allegedly targets pedestrians in Philadelphia http://feeds.foxnews.com/~r/foxnews/national/~3/IUNVuFfGfYI/terrorism-eyed-after-driver-allegedly-targets-pedestrians-in-philadelphia.html\xc2\xa0\xe2\x80\xa6'
p85
S'1:20 PM - 29 Jan 2018'
p86
tp87
a(S'@paulwestonlibgb Reading this can get you arrested in Blighty.\nBut being a "former" ISIS terrorist is totally okay. pic.twitter.com/1nrGs29Oti'
p88
S'7:57 AM - 29 Jan 2018'
p89
tp90
a(S"http://www.businessinsider.com/minneapolis-isis-problem-2015-9\xc2\xa0\xe2\x80\xa6 good thing the super bowl isn't there in 6 days. #SuperBowl #isiscrisis #Minneapolis #Muslimdogmillionaire #illuminatihalftimeshow #FalseFlag"
p91
S'7:36 AM - 29 Jan 2018'
p92
tp93
a(S'Children aren\xe2\x80\x99t terrorists, defending aint terrorism. #StopAfrinGenocidepic.twitter.com/P0HG84ZPo9'
p94
S'9:01 AM - 29 Jan 2018'
p95
tp96
a(S" Military defeat of ISIS can be 'measured in weeks,' US general says!\nAMAZING what has happened in just 1 year under @realDonaldTrump \nUnder Obama, Dem. Tulsi Gabbard said we were providing support to terrorists\nWATCH  https://youtu.be/EpzaLCPdbUs\xc2\xa0http://www.foxnews.com/world/2018/01/29/military-defeat-isis-can-be-measured-in-weeks-top-us-general-says.html\xc2\xa0\xe2\x80\xa6"
p97
S'3:17 PM - 29 Jan 2018'
p98
tp99
a(S"Dear ISIS,\n\nI have noticed that you have been kinda chilled recently, that's cool and all you know! But I am just a bit worried that you might be planning a big project that takes a bit longer than your run and dive bombs you know. Like another plane thing? Pls don't.\n\nToon "
p100
S'1:19 PM - 29 Jan 2018'
p101
tp102
a(S'Preventing terrorism will remain core to the mission of @DHSgov, but we are very interested in working with partners from all corners to make the world a safer place. Help us. Work with us.'
p103
S'7:07 AM - 29 Jan 2018'
p104
tp105
a(S'Here is a couple https://youtu.be/ClNnnaX7QX8\xc2\xa0\nhttps://youtu.be/4KGQQ3yCy54\xc2\xa0\nhttps://en.m.wikipedia.org/wiki/2006_Ontario_terrorism_plot\xc2\xa0\xe2\x80\xa6'
p106
S'8:51 AM - 29 Jan 2018'
p107
tp108
a(S'Who do you believe when it comes to ISIS terrorists returning to Canada \xe2\x80\x94 Justin Trudeau or CSIS? #cdnpolipic.twitter.com/6BcUwjICFB'
p109
S'2:05 PM - 29 Jan 2018'
p110
tp111
a(S'Where are the communists fighting the ISIS? Can you say in which area are the communists fighting the ISIS? @RakeshSinha01 , RSS Ideologue, asks @fuadhalim, Spokesperson, CPI(M) #SexJehadCase'
p112
S'8:44 AM - 29 Jan 2018'
p113
tp114
a(S"Afghans have said for 2+ years that IS in Afghanistan is another ISI proxy. I believe them. IS in Afghanistan isn't tied to ISIS; draws from Pak Taliban defectors and SSP fighters. IS is a ghar vapasi program for wayward terrorists killing Pakistan. #KabulMilitaryAcademyAttack"
p115
S'6:10 AM - 29 Jan 2018'
p116
tp117
a(S"Every right wing Hindutva terrorism apologist is asking what is Muslim area? How can we have Muslim area in India. First they stopped giving houses on rent or sale to Muslims saying this is Hindu locality, started #LandJihad. Now asking what's Muslim area? #KasganjTruth"
p118
S'8:28 AM - 29 Jan 2018'
p119
tp120
a(S'Terrorism eyed after driver allegedly targets pedestrians in Philadelphia http://fxn.ws/2GsNIdW\xc2\xa0'
p121
S'12:35 PM - 29 Jan 2018'
p122
tp123
a(S'WHO\'s the colluder?\nJudicial Watch: "As FBI director, Mueller bent over backwards to pls radical Islamist groups & caved to their demands." "He eliminated valuable anti-terrorism training material & curricula after he met w various Islamist organizations."\nhttps://www.cnsnews.com/blog/michael-w-chapman/judicial-watch-mueller-worked-radical-islamists-purge-anti-terror-training\xc2\xa0\xe2\x80\xa6'
p124
S'7:06 AM - 29 Jan 2018'
p125
tp126
a(S'Man who stabbed two last fall at Mall of America tells court ISIS inspired him http://strib.mn/2rRVjj6\xc2\xa0pic.twitter.com/RD3lc9S0t9'
p127
S'8:21 AM - 29 Jan 2018'
p128
tp129
a(S"1/2 Dignity & resilience of Nihad, a Yazidi woman who survived ISIS brutality is awe inspiring. Thanks @NewsX for giving her story a voice. If anyone deserves refuge in India it is Yazidi community. Haven't heard leftist bigots utter a word in support of this endangered community"
p130
S'10:31 AM - 29 Jan 2018'
p131
tp132
a(S"Well, they're at least half right... https://trib.al/DNdb4wE\xc2\xa0"
p133
S'11:15 AM - 29 Jan 2018'
p134
tp135
a(S'Earlier today, @POTUS hosted @UN Security Council members to discuss cooperation on a range of security challenges, including the denuking of #NorthKorea, countering #Iran\xe2\x80\x99s destabilization activities in the Middle East; ending the conflict in #Syria; and confronting terrorism. pic.twitter.com/is6HqHWBJB'
p136
S'1:19 PM - 29 Jan 2018'
p137
tp138
a(S"If New Delhi continues it's Hindi Chauvanism, more and more people in South India will start demanding for a separate South Indian Union or Dravida Nadu. High time New Delhi stops Linguistic Terrorism. #StopHindiImpositionhttps://twitter.com/mkd_ganesan/status/957477407417556993\xc2\xa0\xe2\x80\xa6"
p139
S'8:05 AM - 29 Jan 2018'
p140
tp141
a(S'Indians, Afghans & the Americans have now set the stage for launching their own terror campaign inside Pakistan using old proxies TTP & new proxies ISIS....\nThe bloody Afghan war will now be pushed into Pakistan, as if Pakistan is responsible for US occupation/invasion of Afg. pic.twitter.com/3sG3bV4SmW'
p142
S'6:01 AM - 29 Jan 2018'
p143
tp144
a(S'Wais Ahmed Barmak (Afghan Minister of Interior) says officials from Afghan Army & Afghan Intelligence (NDS) helped Taliban & ISIS in back to back attacks that killed hundreds civilians in kabul.\n\n#Kabul #KabulBlast #KabulAttack\nhttps://timesofislamabad.com/29-Jan-2018/afghan-intelligence-and-security-elements-helped-taliban-in-recent-kabul-attacks-report\xc2\xa0\xe2\x80\xa6https://timesofislamabad.com/29-Jan-2018/afghan-intelligence-and-security-elements-helped-taliban-in-recent-kabul-attacks-report\xc2\xa0\xe2\x80\xa6'
p145
S'10:04 AM - 29 Jan 2018'
p146
tp147
a(S'#KarimSinjari met with @brett_mcgurk today to discuss counter-ISIS measures and the recent talks between Erbil and Baghdad. pic.twitter.com/0zveXzMnyD'
p148
S'2:28 PM - 29 Jan 2018'
p149
tp150
a(S'"The most recent edition of the terrorism index was released Nov 2017. Its data covers 2016 calendar year because its compilation takes time. The report showed that deaths from terrorism in Nigeria peaked at 7,538 in 2014, fell to 4,940 in 2015 & fell further to 1,832 in 2016." https://twitter.com/africacheck/status/957651987712983040\xc2\xa0\xe2\x80\xa6'
p151
S'7:51 AM - 29 Jan 2018'
p152
tp153
a(S'Turkey attacks our best anti-ISIS partner in Syria with al-Qaeda linked groups.\n\nNow the Turkish army is casually driving with THE al-Qaeda linked group in Syria (HTS).\n\nHow long are people going to continue to believe that they are fighting terrorists?'
p154
S'12:40 PM - 29 Jan 2018'
p155
tp156
a(S'2016: U.S. Special Forces wear YPG/YPJ patches fighting ISIS in northern Syria.\n\n2018: Turkish soldiers wear FSA patches fighting YPG/YPJ in Afrin (H/T @Ozkok_ for photos).pic.twitter.com/3hQhmra6D1'
p157
S'3:20 PM - 29 Jan 2018'
p158
tp159
a(S'Danger from white nationalists in North America is real, serious & largely ignored. "The number of attacks carried out by white supremacists were \xe2\x80\x9calmost triple\xe2\x80\x9d those carried out by people who identified with groups such as ISIS."  http://www.newsweek.com/white-nationalism-much-threat-us-isis-fbis-open-investigations-show-672623\xc2\xa0\xe2\x80\xa6 #RememberJan29 #cdnpoli'
p160
S'8:47 AM - 29 Jan 2018'
p161
tp162
a(S'(NEW): Dubbed the "religious leader Dallas needs," Imam @omarsuleiman504 describes the human face of Trump\'s Muslim ban, threats received from ISIS and Islamophobes, and more.\n\nListen here  http://traffic.libsyn.com/channeltherage/Omar_Sulieman.mp3\xc2\xa0\xe2\x80\xa6\n\nPlease help this podcast here \nhttp://www.patreon.com/channeltherage\xc2\xa0pic.twitter.com/tW50HWbQOl'
p163
S'9:56 AM - 29 Jan 2018'
p164
tp165
a(S"Isa Kocoglu, a disability pensioner accused of funding Islamic State fighters in Syria. If this bloke, who looks like he's never gone hungry in his life, can afford to fund ISIS what is he doing on a DISABILITY PENSION? Is our Welfare System being policed? pic.twitter.com/sCFdB6U8uc"
p166
S'1:28 PM - 29 Jan 2018'
p167
tp168
a(S"Erdogan believes he has EU countries leaders in a headlock, that wouldn't dare challenge him as he has threat to let Jihadist in Europe as well Islamist who he believes will rise up for him. It's time for EU to fight/speak up against Erdogan and fight terrorism not just ISIS."
p169
S'10:08 AM - 29 Jan 2018'
p170
tp171
a(S'13 babies, 8 boys and 5 girls, were baptized in St. George\xe2\x80\x99s #Teleskof #Iraq. \n\xe2\x80\x9cThis is the 1st #baptism since #ISIS occupation. This is our response to the violence we faced, and a sign of hope and joy for the future of this land. We are back on track.\xe2\x80\x9d\nhttp://www.victimsofisis.org\xc2\xa0pic.twitter.com/zZrykLFoKH'
p172
S'11:51 AM - 29 Jan 2018'
p173
tp174
a(S"Always a pleasure to meet young, talented Pakistani interns. Miriam Ahmed is just completing an internship at the UN's Counter-Terrorism Committee Executive Directorate (CTED) pic.twitter.com/W2Qe5LeMQs"
p175
S'2:18 PM - 29 Jan 2018'
p176
tp177
a(S'This is not #Syria, #Iraq, #Somalia or #Lybia.. Nor #ISIS, #AlQaeda or #AlShabab. This is #Greece (#Florina) 70 years ago.  Greek soldiers (backed by #UK) posing with heads of killed #macedonian partisans in greek province of #Macedonia. The main reason for #nameissue is #guilt.pic.twitter.com/XI2XvCvktF'
p178
S'2:06 PM - 29 Jan 2018'
p179
tp180
a(S'Today, @POTUS hosted @UN Security Council members to discuss cooperation on a range of security challenges, including the denuking of #NorthKorea; countering #Iran\xe2\x80\x99s destabilization activities; ending the conflict in #Syria; and confronting terrorism. https://go.usa.gov/xnGGT\xc2\xa0'
p181
S'11:30 AM - 29 Jan 2018'
p182
tp183
a(S"SERIOUSLY TRUDEAU........AND YOU'RE REPATRIATING ISIS FIGHTERS TO BE OUR NEIGHBORS..........SERIOUSLY. pic.twitter.com/CmJPGt90gM"
p184
S'9:52 AM - 29 Jan 2018'
p185
tp186
a(S'Zero SCANDALS?  You are so full of crap it isn\'t funny. \n1) Uranium 1\n2) Created ISIS\n3) Illegal "wiretapping" of political opponents\n and those are just the beginning pic.twitter.com/SQjImaaLFe'
p187
S'3:24 PM - 29 Jan 2018'
p188
tp189
a(S'im a waste of time and space'
p190
S'2:43 PM - 29 Jan 2018'
p191
tp192
a(S'UK: Muslim teen leaves flyers and CD\xe2\x80\x99s calling for jihad terrorism in two of London\xe2\x80\x99s biggest hospitals https://wp.me/p4hgqZ-zvo\xc2\xa0pic.twitter.com/DqCsUl19Eo'
p193
S'2:00 PM - 29 Jan 2018'
p194
tp195
a(S"Trump's legacy may not even include his great economic record or ISIS destruction. Bringing down a rogue & corrupt government may end up being his biggest accomplishment. All Americans should unite & pray this Deep State Empire falls. #McCabeResignspic.twitter.com/xIn06vr9XA"
p196
S'1:55 PM - 29 Jan 2018'
p197
tp198
a(S'AMERICA FIRST\nCONSERVATIVES JUDGES\nISIS DECIMATED\nTRAVEL BAN\nDEREGULATIONS\nTAX REFORM\nBONUSES \nSTOCK MARKET \nLOWEST UNEMPLOYMENT/ AFRICAN AMERICANS/ HISPANICS \n2018 - DEBT LIMIT - IMMIGRATION - INFRASTRUCTURE - HEALTH CARE - NK - IRAN - WELFARE REFORM \n\n #sotu'
p199
S'1:13 PM - 29 Jan 2018'
p200
tp201
a(S'ISIS is desperate the gig is up. #GWB should have finished them off years ago but he listened to his Saudi masters and decided to go after Saddam Hussein for his oil which he never took and let ISIS take it. Genius move! #TRUMP taking care of business\n#MAGA\n#GMANFAN45'
p202
S'1:03 PM - 29 Jan 2018'
p203
tp204
a(S"Seventy years ago on January 30, in the first act of terrorism in Independent India, Rightwing bigot and Savarkar's protege, Nathuram Godse, gunned down Father of Nation #MahatmaGandhi\n#RssKilledGandhi\n@Shehla_Rashid @kanhaiyajnusu @RanaAyyub @prakashraaj @TeestaSetalvadpic.twitter.com/BnWLE1h3CE"
p205
S'12:49 PM - 29 Jan 2018'
p206
tp207
a(S"@sardesairajdeep is always desperate to set term'hindu terrorism' and opportunist to call  any fringe element who hv any Hindu identity  a Hindu terrorist! But y he run away to set term ISLAMIC terrorism!! Is he afraid to do that bcz he knows he will mess up with real Terrorist! pic.twitter.com/aRW0AqERVm"
p208
S'12:33 PM - 29 Jan 2018'
p209
tp210
a(S'The @DNC platform for 2020\n\n1. Resist cutting taxes...\n2. Resist job creation...\n3. Resist border security...\n4. Resist strengthening military...\n5. Resist defeating #ISIS\n6. Resist terminating bad trade \xe2\x80\x9cdeals\xe2\x80\x9d...\n7. Trump is bad.\n\nNo platform\nNo message\nNo money\nNo hope \n\n#MAGA'
p211
S'12:14 PM - 29 Jan 2018'
p212
tp213
a(S'We get it... y\xe2\x80\x99all don\xe2\x80\x99t have valentines and you\xe2\x80\x99re unbothered. Please stop reminding everyone you\xe2\x80\x99re single'
p214
S'11:51 AM - 29 Jan 2018'
p215
tp216
a(S'Mr. Altaf Hussain, leader of #MQM is facing illegal ban on Pakistani media as he is vocal against #Taliban , #ISIS and extremist groups. #Pakistan #Kabul #\xd8\xa2\xd8\xa4_\xda\xa9\xd8\xb1\xd8\xa7\xda\x86\xdb\x8c_\xda\xa9\xdb\x8c_\xd8\xa8\xd8\xa7\xd8\xaa_\xda\xa9\xd8\xb1\xdb\x8c\xda\xba'
p217
S'11:12 AM - 29 Jan 2018'
p218
tp219
a(S"They're not my brothers. Also, there is no Islamophobia. People fear Isis fighters, not some manufactured phobia by the government."
p220
S'10:24 AM - 29 Jan 2018'
p221
tp222
a(S'1/6 Intel on latest Taliban #ISIS attacks in #Afghanistan\n#India sent 400 Indian"Muslims"2 Afg 2 join TTP/JuA 2 unleash terror against #Pakistan esp #CPEC projects &stoke insurgency in #Balochistan #GilgitBaltistan\nPakistan must go from\xe2\x80\x9cdefense\xe2\x80\x9d 2\xe2\x80\x9coffensive\xe2\x80\x9dlike #Turkey in #Afrin'
p223
S'9:59 AM - 29 Jan 2018'
p224
tp225
a(S'the new snapchat update was an act of terrorism'
p226
S'9:43 AM - 29 Jan 2018'
p227
tp228
a(S'She ended terrorism\npic.twitter.com/fNT4KhDABu'
p229
S'9:00 AM - 29 Jan 2018'
p230
tp231
a(S'Tremendous pressure on army to handle terrorism with kids gloves says Gen @atahasnain53 the Garhwali troops are benign with our population. @IndiaToday @gauravcsawant'
p232
S'8:47 AM - 29 Jan 2018'
p233
tp234
a(S'Note: The report focused on terrorism issued by the departments of Justice and Homeland Security does not include domestic terrorists, who are less likely to be foreign born.'
p235
S'8:47 AM - 29 Jan 2018'
p236
tp237
a(S'#KasganjTruth now where is prakash raj who was shouting when gauri lankesh died and was saying that hindu terrorism exists in india \nShame a big shame on these creeps like prakash raj '
p238
S'8:03 AM - 29 Jan 2018'
p239
tp240
a(S'Fast and Furious.. Benghazi...the Apology tour...arming ISIS....need I go on?'
p241
S'2:57 PM - 29 Jan 2018'
p242
tp243
a(S'There is absolutely no reason why McCabe was with the FBI this long! They should throw out any charges on @GenFlynn & he should sue the FBI! Never forget, FBI let Obama arm ISIS. Time to put @BarackObama behind bars where he belongs!pic.twitter.com/OwNYKeKNXw'
p244
S'2:39 PM - 29 Jan 2018'
p245
tp246
a(S'#ISIS, OTHER #JIHADISTS INCREASE #BITCOIN USE AFTER FALL OF #CALIPHATE\nhttp://m.jpost.com/Middle-East/ISIS-Threat/ISIS-other-jihadists-increase-Bitcoin-use-after-fall-of-Caliphate-540079\xc2\xa0\xe2\x80\xa6pic.twitter.com/YN4iWzR1kg'
p247
S'1:32 PM - 29 Jan 2018'
p248
tp249
a(S'Amie takes on an ISIS group to rescue her foster child from an uncertain fate. "the author has done a brilliant job in taking the reader feel the wild presence of Africa. It\'s a thriller with plenty of suspense and action."\nhttp://myBook.to/Amie2\xc2\xa0\n#IAN1 #BookWorm #Kindlepic.twitter.com/NySN6Nckgp'
p250
S'1:16 PM - 29 Jan 2018'
p251
tp252
a(S'McCabe deserved those so called attacks. McCabe part of the Palace Coup. Hope his Traitor ass finds its way in a Prison Cell. I say this as a 29 yrs Marine Service. The Lowest of the Low according to CA HS Dem ISIS Teacher.'
p253
S'12:16 PM - 29 Jan 2018'
p254
tp255
a(S'I wanna go to the beach'
p256
S'10:33 AM - 29 Jan 2018'
p257
tp258
a(S"WTF @TwitterIndia ?\nWhy @JagratiShukla29's account has been suspended?\nJust because she spoke against terrorism without taking the name of any community.\nIs speaking against terrorism a crime now? Does Twitter officially supports terrorists? #BringBackJagrati"
p259
S'10:18 AM - 29 Jan 2018'
p260
tp261
a(S'Even the Imam of Peace is concerned about Islamists in Canada....\n\nQ : Why is our own PM making ISIS TERRORISTS feel welcome in CANADA???'
p262
S'10:14 AM - 29 Jan 2018'
p263
tp264
a(S'"Advocacy for human rights is not terrorism" Free our leader Free Bekele Gerba #OromoEthiopia @hrw @FelixHorne1 @Europarl_EN @AnaGomesMEP @Malala @AJEnglish @Smith_JeffreyT @VOANews @StateDept @amnesty @EmmanuelIgunza @KenRothpic.twitter.com/67ZE92xGie'
p265
S'10:00 AM - 29 Jan 2018'
p266
tp267
a(S'Please help raise profile of @Justice4the21 & put pressure on BBC to get families on @MarrShow If he can interview specimen like Adams then they Must give same time & platform to victims\xe2\x80\x99 families & survivors of terrorism! Otherwise BBC are being overtly biased! @BBCNews'
p268
S'9:32 AM - 29 Jan 2018'
p269
tp270
a(S'As per Dainik Bhaskar News Paper the name of three #DeshDrohis who brutally killed #ChandanGupta in #Kasganj are...\n\nNaseem\nWasim\nShamim\n\nBut terrorism has no Religion it just has Islamic Names ....And ALL THE TIME..\n\nhttp://www.dainik-bharat.org/2018/01/blog-post_343.html\xc2\xa0\xe2\x80\xa6pic.twitter.com/Rv8DzrPA6Y'
p271
S'9:18 AM - 29 Jan 2018'
p272
tp273
a(S'Foi know how to write a drama! Loving #siyahbeyaza\xc5\x9fk\xd9\x93 #S\xc3\xb6yleyemediklerim @BrcAkalay @ibrahimcelikkol @KanalD'
p274
S'8:03 AM - 29 Jan 2018'
p275
tp276
a(S'Hoisting a Bhagwa flag is provocative. Hosting ISIS flag is promoting peace.'
p277
S'7:46 AM - 29 Jan 2018'
p278
tp279
a(S'Turkish state once again proved to the world how savage and cruel it is against Kurdish minority population in the Middle East. It has recently launched a military attack against defenseless and oppressed Kurdish minority population in Syria under the excuse of fighting terrorism'
p280
S'6:23 AM - 29 Jan 2018'
p281
tp282
a(S'#EconomicSurvey2018\n#BeatingRetreat\n#Bollywood_StopVulgarity\nSo much of crimes, violence and terrorism are shown in certain movies that are enough to agitate the minds of the youth.\n@aajtak\n@abpnewstv\n@NewsNationTV\n@RamnathKovind1\nWatch ishwar TV 8:30pmpic.twitter.com/NBjBgIXgyf'
p283
S'6:22 AM - 29 Jan 2018'
p284
tp285
a(S'Islamic scholar Tahir ul-Qadri issues terrorism fatwa\nBBC News, 2 March 2010 \nAn influential Muslim scholar has issued a global ruling against terrorism and suicide bombing.\nhttp://www.crescentsofbrisbane.org/00%20Files%20&%20Images/CCN278/Fatwa/BBC.pdf\xc2\xa0\xe2\x80\xa6\n@TahirulQadri\n@AtiqRehmanPAT\n@Arshad_sg\n@waniamustafavi\n@RaheeqAbbasipic.twitter.com/B585anx40i'
p286
S'5:53 AM - 29 Jan 2018'
p287
tp288
a(S'Rape with children is a terrorism and such cases should run in military courts for justice.\n\n#StandUpToFightRapists'
p289
S'5:20 AM - 29 Jan 2018'
p290
tp291
a(S'Turkey is ISIS\n#ErdoganTerrorist #TurkeySupportsISIS #YPG_YPJ\n#BBC #AFP #FoxNewspic.twitter.com/9abIl2fo3u'
p292
S'2:56 PM - 29 Jan 2018'
p293
tp294
a(S'Philadelphia: Driver targets pedestrians, cops say it could be terrorism https://wp.me/p4hgqZ-zvz\xc2\xa0pic.twitter.com/AJCjquN34n'
p295
S'1:38 PM - 29 Jan 2018'
p296
tp297
a(S'You used them, pretending to support them while they fought & sacrificed themselves to defeat ISIS. I hate you!!!! pic.twitter.com/gHYe846rxw'
p298
S'12:34 PM - 29 Jan 2018'
p299
tp300
a(S'i am ALWAYS thinking about food'
p301
S'11:25 AM - 29 Jan 2018'
p302
tp303
a(S"Do u know #British govt is d #ISIS of humanity\nCheck their record in #African #Asia #S America\nEverywhere there's mayhem, they're behind it"
p304
S'10:54 AM - 29 Jan 2018'
p305
tp306
a(S'Slavery was slavery, not servitude. \nThe Confederates committed treason. \nJim Crow was apartheid. \nWhite supremacy was--and is--terrorism.'
p307
S'10:43 AM - 29 Jan 2018'
p308
tp309
a(S'Afghan Minister of Interior, Wais Ahmed Barmak, says officials from Afghan Army & Afghan Intelligence helped Taliban & ISIS in back to back attacks that killed hundreds of innocent Afghan civilians in Kabul. Will shameless Afghan Nationalists introspect ?\nhttps://timesofislamabad.com/29-Jan-2018/afghan-intelligence-and-security-elements-helped-taliban-in-recent-kabul-attacks-report\xc2\xa0\xe2\x80\xa6'
p310
S'9:59 AM - 29 Jan 2018'
p311
tp312
a(S'Breaking: In interview with our reporter, an Islamic woman professor defends ISIS and says that Allah allows muslim men to rape and humiliate non-Muslim women.\nFurther she gave some verses of Quran to justify her stand. pic.twitter.com/1ATvWvKxCM'
p313
S'9:27 AM - 29 Jan 2018'
p314
tp315
a(S'SFS Fellow @CandiceMalcolm discusses the sensitive and unsettling reality that is returning ISIS Jihadist foreign fighters to Canada: http://www.securefreesociety.org/publications/isis-in-canada-the-very-real-threat-of-returned-jihadists/\xc2\xa0\xe2\x80\xa6 #Canada #Jihadists #Securitypic.twitter.com/0PriwYZNp1'
p316
S'9:08 AM - 29 Jan 2018'
p317
tp318
a(S"What day are we going to set aside for the 10s of thousands, including many Canadians, who've been killed by 'other'  terrorism? \n#trudeaumustgo #canpoli #Islam #RememberJan29"
p319
S'8:48 AM - 29 Jan 2018'
p320
tp321
a(S'The Democrats are great at protecting us from straws, but could care less about terrorism, drug dealers, sanctuary cities, crumbling inner cities, and open borders.  #SaveUsFromStraws #MAGA #IllegalAliens #Outnumbered #TheFive #SanctuaryCities'
p322
S'8:23 AM - 29 Jan 2018'
p323
tp324
a(S'Maram Susli aka Partisangirl & suicide bombings:\n\nYes, that is a #Hezbollah flag\n\nAccording to Partisangirl it\'s despicable to carry out a suicide bombing against #TSK/#ISIS jihadists\n\n... but it is okay to carry out a suicide bombing against #Jews while screaming "Allahu Akbar!"pic.twitter.com/xpZtAkR1pW'
p325
S'6:54 AM - 29 Jan 2018'
p326
tp327
a(S'We have reiterated time and again the importance of effective border management to tackle cross border terrorism'
p328
S'6:37 AM - 29 Jan 2018'
p329
tp330
a(S'I\xe2\x80\x99m curious... what exactly are liberals resisting?                                            America first?                                                     Paying less taxes?                                              Destroying Isis?'
p331
S'4:32 AM - 29 Jan 2018'
p332
tp333
a(S'At a closed event on Iraq, woman from Mosul starts crying as she describes how ISIS forced her and her children to leave their home.  At that precise moment, senior Iraqi government official on the panel starts playing dominos on his iPad.  A few minutes later he switched 2 chess'
p334
S'4:09 AM - 29 Jan 2018'
p335
tp336
a(S'We came to the aid of the YPG when they were fighting for their lives against ISIS. Now they are fighting for their lives against Turkey and their mercenaries.\n\nWhat has changed? Are they no longer worth supporting because a NATO member is attacking them?'
p337
S'4:04 AM - 29 Jan 2018'
p338
tp339
a(S'Every light leaves a memory \n#TuesdaySelfie\n@GraysonDolan @EthanDolan pic.twitter.com/GHsdZG1SSN'
p340
S'12:34 PM - 29 Jan 2018'
p341
tp342
a(S"The #Cleaner is coming\n#SuicidalDemocrats think they're immune from the beating @realDonaldTrump administered to 17 primary candidates, 2 political dynasties, the Clinton machine, ISIS and the globalists.\nNow we'll see McCabe's rap sheet. pic.twitter.com/gmqPvdIjmG"
p343
S'12:03 PM - 29 Jan 2018'
p344
tp345
a(S'Millions of Mohajirs from #Karachi & urban Sindh stand with US and International Community in war on terrorism and extremism. #FreeKarachi #Kabul @realDonaldTrump @WhiteHouse @StateDept @SenJohnMcCain @SenFeinstein #Pakistan'
p346
S'11:15 AM - 29 Jan 2018'
p347
tp348
a(S'#Turkey claims they have killed 567 #Kurdish fighters in the past 10 days in #Afrin but they only advanced 200 meters lol seriously beside Turkish and #ISIS fascists does anyone believe this story?\n\n#Kurds\n#PKK #OliveBranch #OperationOliveBranch #YPJ #YPG #Syria #TwitterKurds pic.twitter.com/tWYeQUBMs1'
p349
S'10:38 AM - 29 Jan 2018'
p350
tp351
a(S'Interesting how the Taliban is in the news now that ISIS is out of the news. \n\nMr. President, let\xe2\x80\x99s get the Taliban out of the news.'
p352
S'10:35 AM - 29 Jan 2018'
p353
tp354
a(S'100+ people killed in a blast in Kabul, ISIS takes the responsibility\n\nCongratulations liberals your relatives have reached our neighbourhood'
p355
S'10:29 AM - 29 Jan 2018'
p356
tp357
a(S'#Turkey the new #ISIS ? It recruits old ISIS soldiers to fight in the area of #Afrin (source #Welt ) and it destroys world cultural inheritance. #Bombs just destroyed the remains of a temple complex (Ain Dara). #Christians, #Yezidis again in dangerpic.twitter.com/HVgrzfXwLx'
p358
S'10:22 AM - 29 Jan 2018'
p359
tp360
a(S'Swara bhasker should go to a Taliban/ ISIS camp for a few days and stay there to understand why our Women committed Jauhar ..\n\n#SwaraBhasker'
p361
S'10:19 AM - 29 Jan 2018'
p362
tp363
a(S"'ISIS terrorized minorities, crushed history, and hoped to extinguish the peoples and cultures of Northern #Syria .The world supported Northern Syria against ISIS. Now #Turkey does the same. Where is the world?' @StandWithAfrin Please share! #StopAfrinGenocide #TwitterKurds pic.twitter.com/NzBvm1OpV4"
p364
S'9:57 AM - 29 Jan 2018'
p365
tp366
a(S'\xe2\x98\x85\xe2\x98\x85\xe2\x98\x85\xe2\x98\x85\xe2\x98\x85\nSix Minutes Early\nWith the help of a traitor, ISIS plots to attack the American heartland with a WMD\nhttp://amzn.to/2fmAxyF\xc2\xa0\n#suspense #action #fiction #FWRT #espionage #murder #terrorism #conspiracy #crime #military #thriller #intrigue #treason @authorsdb #Goodreadspic.twitter.com/E0ls0mv4tN'
p367
S'6:09 AM - 29 Jan 2018'
p368
tp369
a(S'Brilliant piece by @defenseunitsYPJ commander in today\'s @nytimes: To Western powers: "Why are you not condemning a flagrant and unprovoked assault on the very men and women who stood shoulder to shoulder with you against the darkness of ISIS?" @hevallohttp://nyti.ms/2DYWkLb\xc2\xa0'
p370
S'5:45 AM - 29 Jan 2018'
p371
tp372
a(S'Kurdish women killing ISIS\nhow I admire them pic.twitter.com/oNgZ15tdqn'
p373
S'4:00 AM - 29 Jan 2018'
p374
tp375
a(S'Trolls keep saying, \xe2\x80\x9cWhen are you going to stand up against Islamist terrorism?!\xe2\x80\x9d\xe2\x80\x9d\n\nJust to be clear, I stand against ALL terrorism, but that doesn\xe2\x80\x99t mean I\xe2\x80\x99m foolish enough to blame all Muslims for the actions of Isis any more than I\xe2\x80\x99d blame all whites people for Vegas.'
p376
S'3:18 AM - 29 Jan 2018'
p377
tp378
a(S'Isis, gilded tamarix wood, incrusted\nwith bronze and glass, 50 cm high.\nMus\xc3\xa9e du Louvre\nE 17495\n#ancientEgypt #Isis #museum #egyptologypic.twitter.com/kftMhZkJpm'
p379
S'3:06 AM - 29 Jan 2018'
p380
tp381
a(S'Rape with children is a terrorism and such cases should run in military courts for justice.\n\n#StandUpToFightRapists'
p382
S'2:28 AM - 29 Jan 2018'
p383
tp384
a(S'#StandUpToFightRapists\nCiting the\xc2\xa0example of the Kasur child pornography scandal, he said giving the\xc2\xa0benefit of the doubt, an anti-terrorism court had acquitted four suspects in August last year.\n@ImranKhanPTI\n@MuradSaeedPTI\n@iamhamzaabbasi'
p385
S'2:26 AM - 29 Jan 2018'
p386
tp387
a(S'A second death threat to behead me & cut my kids head off. Isn\xe2\x80\x99t @TRobinsonNewEra so caring & lovely, they remind me of ISIS. Thanks @MetCC for dealing with this also. Mark my words tommy will be intellectually challenged for all this .pic.twitter.com/LLpLgvlkGr'
p388
S'2:42 AM - 29 Jan 2018'
p389
tp390
a(S'#StandUpToFightRapists\nCiting the example of the Kasur child pornography scandal, he said giving the benefit of the doubt, an anti-terrorism court had acquitted four suspects in August last year.'
p391
S'2:15 AM - 29 Jan 2018'
p392
tp393
a(S'stans saying zayn wearing a white rose in solidarity with the Times Up movement is bare minimum as if he isn\xe2\x80\x99t the ambassador for the british asian trust that supplies girls with education, donated thousands to help girls escape ISIS sex slavery, and paid for classrooms in syria pic.twitter.com/4smZxyzZN4'
p394
S'2:00 AM - 29 Jan 2018'
p395
tp396
a(S'Taliban must choose between Islam and terrorism, between humanity and barbarism, between Afghaniat and stogies.'
p397
S'1:53 AM - 29 Jan 2018'
p398
tp399
a(S"EXACTLY LIKE ISIS Turkish state targets 'false prophets' like this 3,000-year-old Hittite temple built by the Arameans in Syria during the first millennium BC. ISIS & Erdogan share the same ideology.  #DefendAfrin https://www.i24news.tv/en/news/international/middle-east/166284-180128-ancient-syria-temple-60-destroyed-by-turkish-air-strike\xc2\xa0\xe2\x80\xa6pic.twitter.com/5iewVGHuPQ"
p400
S'1:40 AM - 29 Jan 2018'
p401
tp402
a(S'first, he fought the USA! \nthen he defeated ISIS!\nand he always loved his mother \n#\xd9\x85\xd9\x86_\xd8\xb9\xd8\xa7\xd8\xb4\xd9\x82_\xd9\x82\xd8\xa7\xd8\xb3\xd9\x85_\xd8\xb3\xd9\x84\xdb\x8c\xd9\x85\xd8\xa7\xd9\x86\xdb\x8c_\xd9\x87\xd8\xb3\xd8\xaa\xd9\x85pic.twitter.com/71W1vhdywS'
p403
S'1:20 AM - 29 Jan 2018'
p404
tp405
a(S'Tragic\n#AfghanistanIsBleeding\n#ISIS chased from #Iraq #Syria now shelter within #Afghanistan in bed w/#Taliban\nThe bastardized reincarnation=#ISKP\n#intercontinental #KabulAttack & #Military Academy prove it\n\n@OzerKhalid Warned in 2017\n\nRead http://www.criterion-quarterly.com/isis-pakistan-afghanistan-rhetoric-reality/\xc2\xa0\xe2\x80\xa6\nIn @CriterionQ pic.twitter.com/2eDAeb44YU'
p406
S'1:16 AM - 29 Jan 2018'
p407
tp408
a(S'#Ethiopia-Zelalem Workagegnehu, a co-blogger at @DeBirhaner, who also regularly contributed to many diaspora based websites, and was jailed for 5 years & 4 months on charges of "supporting terrorism", has finished his term & is released from Batu (Ziway) prison, accrdg to @befeqepic.twitter.com/DADM2qcN67'
p409
S'1:00 AM - 29 Jan 2018'
p410
tp411
a(S'Youths in Peshawar protesting against the Pakistani-sponsored terrorism in Afghanistan. @afghan_tariqpic.twitter.com/87TKaY9NLW'
p412
S'12:25 AM - 29 Jan 2018'
p413
tp414
a(S'What Exactly You Or Me Or Any Indian Have To Do With Palestinian Struggle?You Are Appealing To Donate Them Only Cos They Are Muslims?How Will You Make Sure That The Donated Money will Not Be Misused For Terrorism?Why Dont You Be Our Donation To Them And Leave This Country? https://twitter.com/ReallySwara/status/384407684595728384\xc2\xa0\xe2\x80\xa6'
p415
S'12:25 AM - 29 Jan 2018'
p416
tp417
a(S"Kerala High Court orders NIA probe into 'forced conversion' | Hindu girl complained of plot to 'sell' her to ISIS, alleges PFI members converted her to Islam pic.twitter.com/PY6XiMHKWc"
p418
S'12:13 AM - 29 Jan 2018'
p419
tp420
a(S"Alright!! So Vande matram,bharat mata ki jai r problematic slogans n saffron flag offends dem..These jihdis don't hav prob wt pak zindabad slogans or ISIS/Pak flags..These live n reside wt hindus bt can't respect their faith.\nIs it justification 4 killing #ChandanGuptapic.twitter.com/fOITqbkxOU"
p421
S'12:07 AM - 29 Jan 2018'
p422
tp423
a(S'How do you defeat terrorism? Don\xe2\x80\x99t be terrorized. - Salman Rushdie #ALDUBLoveNeverDies'
p424
S'12:04 AM - 29 Jan 2018'
p425
tp426
a(S'#USinAfghanistan\nthey have created #ISIS in Afghanistan so that they can stay thr n can counter China pic.twitter.com/OAbt9BGjgQ'
p427
S'11:38 PM - 28 Jan 2018'
p428
tp429
a(S'She was sold eight times by Isis & raped 100 times during 10 months.\nHow can humankind be so evil?\n\n"A Yazidi girl who was repeatedly raped by Isis fighters set herself on fire to make herself unattractive to the men." \n#Shame\n#Yazidi #Rapedpic.twitter.com/iSDno7D0HU'
p430
S'10:45 PM - 28 Jan 2018'
p431
tp432
a(S"Chandan & Rahul 'asked for it' bcoz they raised the tricolor in 'Muslim areas'!\nCharlie Hebdo 'asked for it' by drawing cartoons.\nBut if cow smugglers are even touched by Gaurakshaks, call it Hindu terrorism, bcoz, hey.. the smugglers didn't 'ask for it'.\n#LibbieLogic"
p433
S'10:37 PM - 28 Jan 2018'
p434
tp435
a(S"Someone called me & asked Why I said Islam is not terrorism.\n\nI replied.\nMosques are bombed\nImams are murdered\nEven Ka'aba is targeted.\nAnyone who says terror war is anti Islam or dt terrorism is pro Islam is not different from those who say Anticorruption war is anti opposition!"
p436
S'10:38 PM - 28 Jan 2018'
p437
tp438
a(S'No hype but Im just so weird lol. I get asked out on dates plenty of times which is nice but Im not one of those girls who is all about that stuff. Im not interested in wasting time or anything that comes along w it. I\xe2\x80\x99m hard to talk to but theres good reasons behind it'
p439
S'10:06 PM - 28 Jan 2018'
p440
tp441
a(S'The @DNC platform for 2020\n\n1. Resist cutting taxes...\n2. Resist job creation...\n3. Resist border security...\n4. Resist strengthening military...\n5. Resist defeating #ISIS\n6. Resist terminating bad trade \xe2\x80\x9cdeals\xe2\x80\x9d...\n7. Trump is bad.\n\nNo platform\nNo message\nNo money\nNo hope \n\n#MAGA'
p442
S'9:38 PM - 28 Jan 2018'
p443
tp444
a(S'Obama....ISIS\nBush.....9/11'
p445
S'9:30 PM - 28 Jan 2018'
p446
tp447
a(S'Canada lists 53 recognized terrorist organizations 45 are based in Islam.\n85% of "official" terror groups this country acknowledges are Muslim. A stat like that says it\'s ok to be wary and criticize what causes the abnormal spike in terrorism versus other belief structures.'
p448
S'9:29 PM - 28 Jan 2018'
p449
tp450
a(S'Attention all student-athletes at OSU. Your strength inspired me tonight and I\xe2\x80\x99m incredibly grateful to be part of such an empowering and supportive community. #GoBeavs '
p451
S'9:27 PM - 28 Jan 2018'
p452
tp453
a(S'#ISIS claims responsibility for the attack on the Marshal Fahim National Defense University in Kabul. 5 Afgan soldiers dead, 10 injured.'
p454
S'9:21 PM - 28 Jan 2018'
p455
tp456
a(S"apparently transgenders fixing people's haircut is a worse threat than terrorism when you have a really, really fragile masculinity"
p457
S'9:13 PM - 28 Jan 2018'
p458
tp459
a(S'Pistol has been found in Chief accused in #ChandanGupta\nMurder case #WasimJaved.He is yet not arrested.\nLiberandus who found terrorism in bus attack n ganga jamuna tehzib in Amarnath attack,wil u arrange #NotInMyName again for #JusticeForChandan\n#Kasganjpic.twitter.com/KM7pCbWAr7'
p460
S'8:12 PM - 28 Jan 2018'
p461
tp462
a(S"All women questioning Rani Padmavati's jauhar should be sent immediately to ISIS camps.\nPractical experience will help them convince us their point properly."
p463
S'8:10 PM - 28 Jan 2018'
p464
tp465
a(S"Terrorism is an Act of Waging War against India: Gun-Wielders & Stone-Pelters r acting in Aid, Abetment & Conspiracy among Themselves. They hv 2 meet same Fate under Law: that's Death. Its Highly Demoralising 2 register FIR against Army Officer in Kashmir where AFSPA is in vogue."
p466
S'7:58 PM - 28 Jan 2018'
p467
tp468
a(S"Seventy years ago on January 30, in the first act of terrorism in Independent India, Rightwing bigot and Savarkar's protege, Nathuram Godse, gunned down a man called Mohandas Karamchand Gandhi."
p469
S'7:39 PM - 28 Jan 2018'
p470
tp471
a(S'>Biggest sporting event of the year in US is being held in the #1 Islamic terror recruitment state in the country. \n\n> @NFL \xe2\x80\x9cHey let\xe2\x80\x99s hire a security company that has a record of training and employing ISIS terrorists.\xe2\x80\x9d\n\nWhat could possibly go wrong?'
p472
S'7:10 PM - 28 Jan 2018'
p473
tp474
a(S'ISLAMIC TERROR THREAT AT THE #SUPERBOWL?\n\nGS4 is the security company that will be providing security for the Super Bowl in Minnesota next weekend. \n\nGS4 is the SAME COMPANY that employed Omar Mateen, the #ISIS terrorist who murdered 49 people in Orlando, FL at Pulse nightclub. pic.twitter.com/WbBLDgPCxu'
p475
S'6:59 PM - 28 Jan 2018'
p476
tp477
a(S'I\xe2\x80\x99m too confident & love myself too much to ever be worrying or insecure over another girl  could never be me lol never'
p478
S'6:01 PM - 28 Jan 2018'
p479
tp480
a(S'In Sant Asaram Bapu Ji case, 4+ yrs of intense investigation, till now Not a single Charge proved yet.\n\n#PaidJournalist Nikhil Wagle Barking, spreading lies to Malign the Image of Hindu Saints.\n\n#SupariJournalism by Forien funded agent @waglenikhil\nis not less than Terrorism . pic.twitter.com/T2a6L5Iuu1'
p481
S'5:50 PM - 28 Jan 2018'
p482
tp483
a(S"Never thought I'd see:\n\n1) Our Gov't being controlled by the Muslim Brotherhood/Islam\n2) Our Country being invaded By ISIS\n3) Our RCMP/Police Trusted & True Pledged to Corruption.\n4) Our Beautiful Country in such Disarray\n5) Canada being Broken\n\nCan We Make Canada Canadian Again?"
p484
S'5:49 PM - 28 Jan 2018'
p485
tp486
a(S'#MannKiBaat\n#Bollywood_\xe0\xa4\xb8\xe0\xa5\x81\xe0\xa4\xa7\xe0\xa4\xb0_\xe0\xa4\x9c\xe0\xa4\xbe\xe0\xa4\x93\nSo much of crimes, violence and terrorism are shown in certain movies that are enough to agitate the minds of the youth.\n@siddh\n@sidmallya\n@ritesh_sidpic.twitter.com/1gP6V5cS37'
p487
S'5:39 PM - 28 Jan 2018'
p488
tp489
a(S'Tried to give him the world but instead he gave me my world now imma give her the world Dahlia Makyrah Evans pic.twitter.com/z2tfHsnvjf'
p490
S'5:29 PM - 28 Jan 2018'
p491
tp492
a(S"- Number of murders by white supremacists in 2017: 18 (over 50% of all domestic terrorism)\n- Rise in overall hate crimes in 2017: 20%\n- Number of Trump tweets against kneeling for equality in the NFL in 2017: 21\n\nYou could almost say the president's running interference for Nazis pic.twitter.com/aY6U2xlI0u"
p493
S'5:03 PM - 28 Jan 2018'
p494
tp495
a(S"Of many Nigerians like me. I still believe you're the best person to lead us out of the mess corruption and terrorism has put us in but sir, you need to take decisions faster and communicate better to Nigerians, this I think will help to calm already frayed nerves."
p496
S'9:25 PM - 28 Jan 2018'
p497
tp498
a(S'This may come as a shock so please sit down: Isa Kocoglu who has been accused of funding ISIS is on a disability pension due to his obesity and mental health! He has however been able to father children'
p499
S'9:13 PM - 28 Jan 2018'
p500
tp501
a(S'Discrimination, @PMOIndia , @narendramodi_in filling #FakeCasesinIndia  by Daughter-In-Law is another social issue and need your attention towards #Scrap498A, #498aJailsInnocent destroying family, had become legal terrorism & weapon for "desh ki Beti" destroying family. https://twitter.com/SwapnilATalekar/status/957693576644845574\xc2\xa0\xe2\x80\xa6'
p502
S'9:05 PM - 28 Jan 2018'
p503
tp504
a(S"I'm not letting #Benghazi fade away. #Hillary & #Obama using False Propaganda & Obama's PSD-11 Agenda attacked an Allied Nation (#Libya) orchestrated the death of its Leader. Raided Libya's armories & national reserves. stole the gold & sent the arms to ISIS for attacking #Syriapic.twitter.com/PkuoIVJRXq"
p505
S'8:49 PM - 28 Jan 2018'
p506
tp507
a(S'Were it not for the ISIS today, no one would believe or be able to imagine the HORRORS India went thru for 1200years!! The shock is that @SwaraBhaskar types STILL don\xe2\x80\x99t know about it.'
p508
S'8:40 PM - 28 Jan 2018'
p509
tp510
a(S'Then jay had the same face when the ransom ain\xe2\x80\x99t come throughpic.twitter.com/3nKe5Oy6Nt'
p511
S'8:39 PM - 28 Jan 2018'
p512
tp513
a(S'#Kasganj\n#Bollywood_\xe0\xa4\xb8\xe0\xa5\x81\xe0\xa4\xa7\xe0\xa4\xb0_\xe0\xa4\x9c\xe0\xa4\xbe\xe0\xa4\x93\nSo much of crimes, violence and terrorism are shown in certain movies that are enough to agitate the minds of the youth.\nShradha MH1 02:00 PM pic.twitter.com/Eai9TwGEJV'
p514
S'8:04 PM - 28 Jan 2018'
p515
tp516
a(S"Trump's Presidency is ruining the United States for me.  Wanna trade?"
p517
S'8:03 PM - 28 Jan 2018'
p518
tp519
a(S'Democrat platform for 2020\n\n1. Resist cutting taxes\n2. Resist job creation\n3. Resist border security\n4. Resist strengthening military\n5. Resist defeating Isis\n6. Resist terminating bad trade \xe2\x80\x9cdeals\xe2\x80\x9d\n7. Trump is mean'
p520
S'7:19 PM - 28 Jan 2018'
p521
tp522
a(S'Hope y\xe2\x80\x99all are as excited as I am for this tutorial. pic.twitter.com/8m7TQh9JWJ'
p523
S'7:10 PM - 28 Jan 2018'
p524
tp525
a(S"Jesus, Traitor Tot, you're having quite the TwitterTantrum tonight.  Scared of Mueller? By the way, that orange moron has done nada. Mexico didn't pay for the wall, ACA wasn't fixed, ISIS was not defeated. His only record is guilty pleas & indictments."
p526
S'7:08 PM - 28 Jan 2018'
p527
tp528
a(S"I make sure all my neighborhood know the lyrics of @30SECONDSTOMARS Dangerous Night   don't blame me!!  I just can't stop listening to that masterpiece and am sure they LOVE IT  @ShannonLeto @JaredLeto @tomofromearthpic.twitter.com/6CSlliFHE8"
p529
S'7:06 PM - 28 Jan 2018'
p530
tp531
a(S'Boy are these ISIS fighters ever in for a surprise when they get to Canada and we thwart their attacks with poetry. \n#cdnpolihttps://twitter.com/amike4761/status/957642649158279170\xc2\xa0\xe2\x80\xa6'
p532
S'6:24 PM - 28 Jan 2018'
p533
tp534
a(S'Moral? Abortion? Illegals over citizens? Uranium to Russia? 24(or is it more?) genders? Selling weapons to ISIS? Morals???? The Left has no morals!!!!'
p535
S'6:22 PM - 28 Jan 2018'
p536
tp537
a(S'Tomorrow\xe2\x80\x99s the day. I start Basic Training. 9 weeks. I\xe2\x80\x99m so fucking ready to make it my bitch. I got God and my future to think of. Gonna get a good nights sleep. See y\xe2\x80\x99all after I defeat ISIS  pic.twitter.com/oM1gowcCSh'
p538
S'6:00 PM - 28 Jan 2018'
p539
tp540
a(S'Those are not the #Syrian Revolutionist who started a movement against the dictatorship regime of Syria Assad, those are #ISIS remaining militants who are now fighting Kurdish Forces in #Afrin alongside #Turkish troops. #AfrinOperationpic.twitter.com/7uRVpSovns'
p541
S'4:34 PM - 28 Jan 2018'
p542
tp543
a(S'Court Records: Mall of America Stabbing Suspect Pleads Guilty, Calls it Act of Jihad \n\nhttp://kstp.com/news/mahad-abdiaziz-abdiraham-mall-of-america-guilty-plea-jihad/4760698/#.Wm5njiYoeut.twitter\xc2\xa0\xe2\x80\xa6\n#immigration\n#MAGA\n#resist the #resistance\n#Terrorism pic.twitter.com/kqJaJLVmOg'
p544
S'4:27 PM - 28 Jan 2018'
p545
tp546
a(S"The #PLO had a fully operational $86 million airport in Gaza 4 almost 2 years until...\n\n#Arafat waged the 2nd intifada \n\nResult: It's radar station & control tower were destroyed by the IAF \n#Palestinian #ISIS #Palestinianspic.twitter.com/aHIvUpu4Sp"
p547
S'4:16 PM - 28 Jan 2018'
p548
tp549
a(S'\xe2\x80\x9cMost people don\xe2\x80\x99t realise that most victims of terrorism are Muslims themselves.\xe2\x80\x9d By @foad190 in @theage\n#KabulAttack #KabulBlast #extremismpic.twitter.com/qsXr24PkN3'
p550
S'4:06 PM - 28 Jan 2018'
p551
tp552
a(S'BOOK\xe2\x80\x99T!!!pic.twitter.com/3UBGLntrAX'
p553
S'8:30 PM - 28 Jan 2018'
p554
tp555
a(S'Kendrick\xe2\x80\x99s flow is so beautiful'
p556
S'8:08 PM - 28 Jan 2018'
p557
tp558
a(S'The #USFA is surprised that #BHO is not fighting with ISIS. He must be a coward. Enlist in our patriot army at http://USFREEDOMARMY.COM\xc2\xa0.\xc2\xa0 #freedomarmy #constitution #freedom #volunteer #conservative #libertypic.twitter.com/80YMd7kw2u'
p559
S'8:05 PM - 28 Jan 2018'
p560
tp561
a(S'Yes president Trump I need to teach you this lesson.....obama did a lot he created Isis he also made the mess in all Middle East #syria he paid billions to #iranian terrorist regime he did a lot for people who he represented.....\nYou see he wasn\xe2\x80\x99t American and didn\xe2\x80\x99t represent uspic.twitter.com/mGueHxVa2I'
p562
S'8:05 PM - 28 Jan 2018'
p563
tp564
a(S'For those wondering: 1-800-273-8255 is the National Suicide Prevention Hotline. #Grammys'
p565
S'7:59 PM - 28 Jan 2018'
p566
tp567
a(S"Other than being in the hands of ISIS, or in a awful prison, I think the  #GRAMMYs may be the last place I'd want to be."
p568
S'7:53 PM - 28 Jan 2018'
p569
tp570
a(S"#cdnpoli It is absolutely all decent people, against extremists  if you want a safe civil society free of prejudice , hate   racism & terrorism- think FLQ-and tanks in the streets. This is no joke , The formula of how to destroy a society  is well known-Hitler didn't care either pic.twitter.com/vTDOhoJTD8"
p571
S'7:49 PM - 28 Jan 2018'
p572
tp573
a(S'Isis members dont even tweet anymore all they all dead.'
p574
S'7:41 PM - 28 Jan 2018'
p575
tp576
a(S'\xe2\x80\x9cWe won\xe2\x80\x99t rest until we burn this entire rotten settler colony called Australia\xe2\x80\x9d \n\nWow, doesn\xe2\x80\x99t this sounds familiar!! Their new statement sounds very ISIS like. Home grown terrorists in the making. https://twitter.com/newscomauhq/status/957819516381212677\xc2\xa0\xe2\x80\xa6'
p577
S'7:41 PM - 28 Jan 2018'
p578
tp579
a(S'Its being repeated by ISIS monsters with yazidi women. These #libtards are no less of threat to civilaztion than the ideology follwed by the desert cult jihadists'
p580
S'7:16 PM - 28 Jan 2018'
p581
tp582
a(S'lol i guess she think she grown pic.twitter.com/7tCrSJNJ26'
p583
S'6:53 PM - 28 Jan 2018'
p584
tp585
a(S'Like releasing his taxes, having Mexico pay for the wall, locking Hillary up, defeating ISIS in 30 days. Labeling China as a currency manipulator??'
p586
S'6:50 PM - 28 Jan 2018'
p587
tp588
a(S'Okay Sheeple, time for reprogramming your thoughts.  Now bleat (Sheeple tweet) after me. Saudi Wahhabi Terrorists (ISIS, Al Qaeda, 9/11 guys....) are our allies [they are now good guys].  You need to fear and loathe Russians/Iran/Syria for killing our ISIS allies.'
p589
S'6:25 PM - 28 Jan 2018'
p590
tp591
a(S'White guys killing people in pa by a white terroist homegriwn Isis trumps'
p592
S'5:38 PM - 28 Jan 2018'
p593
tp594
a(S'Pizza w ranch is the bestttt'
p595
S'5:13 PM - 28 Jan 2018'
p596
tp597
a(S'8. #ISIS/#MS13 are supported by #DeepState to terrorize citizens, allow government to militarize while disarming/spying on citizens, creating police state. We enabled #NK and #Iran by providing materials and tech while defunding #NASA to make us vulnerable (space defense/war).'
p598
S'4:59 PM - 28 Jan 2018'
p599
tp600
a(S'#RHETORIC & #HATE & #BRAINWASHING #IDEOLOGY\n#CHILLING: Mall of America stabbing suspect pledges his support to ISIS as he pleads guilty. \n\nSays more attacks to Come \npic.twitter.com/TS4DtfCABX'
p601
S'4:56 PM - 28 Jan 2018'
p602
tp603
a(S'Keep that drama shit the hell away w me & leave me the hell alone too'
p604
S'4:46 PM - 28 Jan 2018'
p605
tp606
a(S'Turkish forces clear Bursaya Mt. The operation reveals YPG/PKK\xe2\x80\x99s ISIS type defenses. pic.twitter.com/yJjkyGCt2v'
p607
S'7:32 PM - 28 Jan 2018'
p608
tp609
a(S'But U.S. used Kurdish people to get rid of Isis and now they dump them? Over 80 years, any move by Kurds to set up an independent state has been  brutally squashed, Turkey commits crimes against humanity. This is all nonsense is all about U.S. and Russia'
p610
S'7:23 PM - 28 Jan 2018'
p611
tp612
a(S'The Nandi are said to have descended from the ancient Egyptians. Both communities worshipped the sun god who in the north is known as Isis and to the Nandi, Asis\n\n#KeFacts #KeSafari #Nandipic.twitter.com/aKTgZMRCdR'
p613
S'7:19 PM - 28 Jan 2018'
p614
tp615
a(S'If an individual is foreign-born, the likelihood that person has engaged in terrorism-related activities is nearly zero. Thus, it\xe2\x80\x99s a non-factor. (About 41M foreign-born people living in US; 402 out of 41M is miniscule proportion\xe2\x80\x94less than 0.001 percent.) https://www.politico.com/magazine/story/2018/01/28/trump-administration-terror-statistics-216541\xc2\xa0\xe2\x80\xa6'
p616
S'7:09 PM - 28 Jan 2018'
p617
tp618
a(S'That was a moving performance by @MarenMorris, @BrothersOsborne, and @EricChurch to honor the victims lost to gun violence and terrorism at various live music events over the course of the past year! #GRAMMYs'
p619
S'6:28 PM - 28 Jan 2018'
p620
tp621
a(S'Anti Hinduism is a stronger sentiment among Muslims than all other sentiments put together. India has the problem to fight Islamic terrorism from both inside and outside (Pakistan).'
p622
S'6:23 PM - 28 Jan 2018'
p623
tp624
a(S'Operation T Bone: DEA/Homeland Security;Arrested 35 distributing Drugs &Cigarettes 20 Illegals.NOT IN NEWS ALL MUSLIMS ALL WITH (ISIS) All Had convenient stores in NY NJ IL MO NC Thank U Democratic Party 4 letting this scum in the USA'
p625
S'6:15 PM - 28 Jan 2018'
p626
tp627
a(S'Terrorism is a menace and a threat to civilisation. #Maldives is strong in its commitment in stopping, defeating, and eliminating terrorism #WhyTheMaldives #MV4UNSC #SharedSolutions #SharedDestiny'
p628
S'5:46 PM - 28 Jan 2018'
p629
tp630
a(S'@SenSchumer @RepDuncanHunter @SenCoryGardner @RepAbraham Turkey continues 2attack one of our best &faithful allies. The Kurds fought along-side our US military 2defeat ISIS n Syria. Please help the Kurds. NoFlyZone4Afrin  NoFlyZone4Rojava. #SaveAfrinFromTurkishTerrorism'
p631
S'5:15 PM - 28 Jan 2018'
p632
tp633
a(S'Two epochs. Two reactions. Have we gone stark raving mad? #Islam #Muslim #Islamophobia #ISIS http://www.ntdwi.com\xc2\xa0pic.twitter.com/d98crcQnAr'
p634
S'5:10 PM - 28 Jan 2018'
p635
tp636
a(S'The whole world must support the Kurds against the first supporter of terrorism, Erdogan, because they have broken the tyranny of Isis\nThe Kurds are killed under international silence pic.twitter.com/9C98scpUp0'
p637
S'4:46 PM - 28 Jan 2018'
p638
tp639
a(S'1. I decided to clear my head of all things ISIS-related tonight, and thanks to the talented & generous @rothjodi, ended up at the 60th #Grammys, as Lady Gaga, dressed like an angel, just lit up Madison Square Garden:pic.twitter.com/DDNCSw7WMl'
p640
S'4:44 PM - 28 Jan 2018'
p641
tp642
a(S'How many ISIS did Turdeau bring to Canada? They should be arrested and charged with genocide atrocities, TY #cdnpoli #polqc #ableg #polmtl #onpoli #ResignNow #TrudeauMustGo2018 #LIBERALSMUSTGO #Canada #TrudeauForTreason #MorneauMustGo #MCGA #MAGA #FuQTrudeau #TrudeauMustGo'
p643
S'4:35 PM - 28 Jan 2018'
p644
tp645
a(S'After the Last Photograph I fully expect pink haired-slightly overweight-glasses wearer female white bloggers to call him an Isis supporter, a terrorist fan and the true mind behind 9/11 pic.twitter.com/aFk2MLtEvR'
p646
S'4:15 PM - 28 Jan 2018'
p647
tp648
a(S"When you sleep with Bill KKKlinton you're sleeping with everyone Bill KKKlinton has slept with.pic.twitter.com/lsaVJe3O6v"
p649
S'4:13 PM - 28 Jan 2018'
p650
tp651
a(S'The difference between DEMACRATS & ISIS? ISIS is honest about their objective. To destroy AMERICA.'
p652
S'4:00 PM - 28 Jan 2018'
p653
tp654
a(S'**when you post too much pro Trump bs and ISIS says foh and hijacks your facebook** pic.twitter.com/F1TopeoNFM'
p655
S'5:42 PM - 28 Jan 2018'
p656
tp657
a(S'It takes a special kind of evil government to slash foreign aid, imprison those who flee war & terrorism, & then boast about plans to spend billions boosting the global arms trade.'
p658
S'5:35 PM - 28 Jan 2018'
p659
tp660
a(S'This #Turkish #ISIS was captured by #YPG a short while a go in #Afrin. \n\n#OliveBranchOperation #YPJ #TwitterKurds #SDF #PKK #AfrinNotAlone #NoFlyZoneAfrin #FSA #Daesh pic.twitter.com/YHHFShWBhY'
p661
S'5:35 PM - 28 Jan 2018'
p662
tp663
a(S'Then they need to stop paying bounty\xe2\x80\x99s for those that kill\nothers,the money they spend on terrorism,delay the new \nPresidential plane & spend all that income on feeding \ntheir people.Priorities.'
p664
S'5:34 PM - 28 Jan 2018'
p665
tp666
a(S"Iran spends billions on weapons programs, terrorism while ignoring Iranians' basic needs, report finds http://fxn.ws/2DK8jsE\xc2\xa0"
p667
S'5:34 PM - 28 Jan 2018'
p668
tp669
a(S'FUCK ME UP GAMBINO!'
p670
S'5:26 PM - 28 Jan 2018'
p671
tp672
a(S"AWARD WINNING UK journalist Robert Fisk is the first 'Western' journalist into #Afrin . His report reveals that the true victims of #Turkey's attack is refugees, babies, women and children link: http://www.independent.co.uk/news/world/middle-east/afrin-turkey-invasion-syria-enclave-kurds-ypg-airstrike-war-civil-a8182266.html\xc2\xa0\xe2\x80\xa6 #AfrinOperation #ISIS pic.twitter.com/1oY0UYNlzG"
p673
S'5:22 PM - 28 Jan 2018'
p674
tp675
a(S'ISIS praising the LIBERALS for Islamization of Canada  \nPLEASE WATCH THIS VIDEO AND SHARE \nIT IS A MESSAGE FROM ISIS thanking the Liberals and what they are going to do to Canada. SHOCKING. \nhttps://www.youtube.com/watch?v=df8v00MenXw&feature=youtu.be\xc2\xa0\xe2\x80\xa6https://twitter.com/Smadello69/status/957510024187691009\xc2\xa0\xe2\x80\xa6'
p676
S'5:21 PM - 28 Jan 2018'
p677
tp678
a(S'Brave #Kurdish #YPJ girls fighting #ISIS while  #Erdogan #Turkey attacking them #TurkeyHandsOffAfrin #Turkish #afrin #Efrine #YPG #SDF #RoyalRumble #saveafrin #NoFlyZone4Afrin #PYD #Kurdistan #Kurds #TwitterKurds #Syrian #Manbij #GRAMMYs #receptayyiperdoganpic.twitter.com/32JuVx69at'
p679
S'5:18 PM - 28 Jan 2018'
p680
tp681
a(S'CBC: \nCanada not invited to anti-ISIS coalition meeting in Paris\n\nhttp://www.NewsWatchCanada.ca\xc2\xa0'
p682
S'5:01 PM - 28 Jan 2018'
p683
tp684
a(S'Jay Z was a drug dealer. As if he has any credibility or legs to stand on when criticising someone else. He fed drugs, participated in a crime cycle and contributed to broken homes, extortion, murder and terrorism- all this is linked to drugs.'
p685
S'4:59 PM - 28 Jan 2018'
p686
tp687
a(S"For the last 5 yrs I've had to listen to @LiberalAus harp on about Islamic Terrorism, and now you want to go and sell arms to the Middle East. We've been fighting the Taliban for over a decade now - a group whose weapons were supplied by US. LNP is beneath contempt #auspol"
p688
S'4:55 PM - 28 Jan 2018'
p689
tp690
a(S'Well maybe they should STOP spending so much on terrorism & start feeding their people. JUST LIKE ILLEGALS, WE OWE THE PALESTINIANS NOTHING. Maybe they should ask their terrorist buddies for some money. https://twitter.com/starcrosswolf/status/957757177518735360\xc2\xa0\xe2\x80\xa6'
p691
S'4:55 PM - 28 Jan 2018'
p692
tp693
a(S"So great that Obama sent $100s of billions to Iran!\nIran spends billions on weapons programs, terrorism while ignoring Iranians' basic needs, report finds\n@alfoytjr\n@ChuckNASCAR\n@bbodine18457\n@jstines3\n@CruzinAhead\n@Conservative_VW\n@PJNET_CO\nhttp://www.foxnews.com/world/2018/01/28/iran-spends-billions-on-weapons-programs-terrorism-while-ignoring-iranians-basic-needs-report-finds.html\xc2\xa0\xe2\x80\xa6 via @FoxNews"
p694
S'4:52 PM - 28 Jan 2018'
p695
tp696
a(S'I believe Mayor of London was elected because he was known as an active supporter of terrorism. The destructive left and Muslims joined together to elect someone who would oppose British people who love Britain and British culture.'
p697
S'4:36 PM - 28 Jan 2018'
p698
tp699
a(S'The word is out, Trudeau, PMO and Cabinet have too much love for ISIS. It is a danger to Canadians and its embarrassing internationally that government could be that corrupt #IdentityPolitics #cdnpoli #polqc #ableg #polmtl #onpoli #TrudeauMustGo2018 #FuQTrudeau #TrudeauMustGo'
p700
S'4:25 PM - 28 Jan 2018'
p701
tp702
a(S'These ladies r true hero. I hope All these fu**edup ISiS be burnt alive.'
p703
S'4:16 PM - 28 Jan 2018'
p704
tp705
a(S"Tehran spends money on wars, not on its people, I argued 4 years\nI told @FoxNews  today that the cause of 2009 uprising was middle-class anger against regime's support of Hezbollah & Hamas. The cause of 2018 workers protests is the same. Read @BenEvansky http://www.foxnews.com/world/2018/01/28/iran-spends-billions-on-weapons-programs-terrorism-while-ignoring-iranians-basic-needs-report-finds.html\xc2\xa0\xe2\x80\xa6"
p706
S'4:10 PM - 28 Jan 2018'
p707
tp708
a(S'I strongly recommend the show \xe2\x80\x9cChain of Command\xe2\x80\x9d on NatGeo!  These are true American hero\xe2\x80\x99s who spend each day helping the Iraqis defeat ISIS!  These are the soldiers the Left despise who put their lives on the line for this country daily! Land of the free because of the brave!'
p709
S'4:08 PM - 28 Jan 2018'
p710
tp711
a(S'I AM FAMOUS!pic.twitter.com/qoej1JZZUG'
p712
S'5:10 PM - 28 Jan 2018'
p713
tp714
a(S'Alessia Cara congrats on your first grammy and your last bitch isis is coming for you'
p715
S'5:09 PM - 28 Jan 2018'
p716
tp717
a(S'Since Sept 11, 2001, 95 Americans have been killed by terrorists on U.S. soil & every one of the murderers was a citizen or legal resident of the United States, 68 was murdered by far right extremists, this report was done before the Las Vegas 58 Massacrehttp://www.newsweek.com/america-safer-16-years-after-911-662936\xc2\xa0\xe2\x80\xa6'
p718
S'4:49 PM - 28 Jan 2018'
p719
tp720
a(S"WHO'S MINDING AMERICA? @dagsnotes knows! http://amzn.to/1OZ9PIz\xc2\xa0 NEW RELEASE! Grab your copy now! #NorthKorea #Terrorism #iTunes #Kindle #Nook #Kobo #BookBoost #IndieBooksPromo #SNRTG #iartg #authorRT :-)pic.twitter.com/xcjvB6LN4O"
p721
S'4:48 PM - 28 Jan 2018'
p722
tp723
a(S'Reported for terrorism. https://twitter.com/yankees/status/957765729696305158\xc2\xa0\xe2\x80\xa6'
p724
S'4:41 PM - 28 Jan 2018'
p725
tp726
a(S'The Anti-ISIS coalition knows that Trudeau is a supporter of ISIS. pic.twitter.com/K99IqdTvGM'
p727
S'4:40 PM - 28 Jan 2018'
p728
tp729
a(S'Turkish government is ISIS unmasked'
p730
S'4:39 PM - 28 Jan 2018'
p731
tp732
a(S'Nice of Jay-Z to take some time out from punching little girls in the face to tell us what is wrong with our president.'
p733
S'4:38 PM - 28 Jan 2018'
p734
tp735
a(S"Sis, I keep getting \nTHANK YOU NOTES\nFROM TWITTER SAFETY \nfor turning in the asses. \nIt's not like I had Twitter come to a party of mine"
p736
S'4:36 PM - 28 Jan 2018'
p737
tp738
a(S"Iran spends billions on weapons programs, terrorism while ignoring Iranians' basic needs, \xe2\x80\x94let\xe2\x80\x99s recall who coddled to this Rogue Regime by structuring what history will confirm was the worst Nuclear Agreement, in addition Kerry&Obama funded them  http://www.foxnews.com/world/2018/01/28/iran-spends-billions-on-weapons-programs-terrorism-while-ignoring-iranians-basic-needs-report-finds.html\xc2\xa0\xe2\x80\xa6"
p739
S'4:35 PM - 28 Jan 2018'
p740
tp741
a(S'Reminder: Back when he was FBI Director, Mueller worked w/ Islamist orgs \xe2\x80\x94 including ISNA & CAIR (unindicted co-conspirators in the HolyLandFoundation terror case) \xe2\x80\x94 to purge the FBI\'s anti-terror training manuals of material deemed "offensive" to Muslims.http://jwatch.us/N1QLHJ\xc2\xa0'
p742
S'4:07 PM - 28 Jan 2018'
p743
tp744
a(S'Absolutely, but watch terrorism climb the ladder once we are in full weapons production. #auspol'
p745
S'4:04 PM - 28 Jan 2018'
p746
tp747
a(S'Your periodic reminder that the morally bankrupt woman trying to blackmail Karzai into remaining silent about US killing Afghani children in this excerpt, serves on the board of @Dropbox, despite protests, and is faculty at @Stanford. Dropbox has many competitors. I use @Sync.pic.twitter.com/jYW60w2lwH'
p748
S'4:02 PM - 28 Jan 2018'
p749
tp750
a(S'I have so much energy right now I could single handily take down ISIS'
p751
S'4:01 PM - 28 Jan 2018'
p752
tp753
a(S'I\xe2\x80\x99m progressing w shit & continuing staying lowkey'
p754
S'4:01 PM - 28 Jan 2018'
p755
tp756
a(S'Kurdish women killing ISIS\nhow I admire them pic.twitter.com/TsjklMefWn'
p757
S'4:00 PM - 28 Jan 2018'
p758
tp759
a(S"Listen to the story of Diane Foley, mother of ISIS-slain journalist James Foley, and learn of her journey \xe2\x80\x9cFrom Darkness Into the Light\xe2\x80\x9d at this year's #WomensConference. Visit https://www.arlingtondiocese.org/women/\xc2\xa0\n\nHe has called you out of darkness into His marvelous light (Ephesians 5:8).pic.twitter.com/dHMSoQmOVq"
p760
S'4:00 PM - 28 Jan 2018'
p761
tp762
a(S'THIS BOY WAS SOLD TO ISIS - SOMEHOW HE GOT AWAY AND FOUND HIS GRANDMOTHER - HOW LONG CAN THIS GO ON?\nhttp://americanpolitics.com/2017/02/11/the-white-house-the-only-items-worth-reporting/\xc2\xa0\xe2\x80\xa6pic.twitter.com/5lV7DkXXF1'
p763
S'4:33 PM - 28 Jan 2018'
p764
tp765
a(S'Anyone recall a single Democrat cry-baby complaining about the Electoral College when every pundit from Maine to Mexico said there was no way 4 @realDonaldTrump 2 win the electoral vote? \n\nDems: a bunch of phonies resisting a great economy, secure borders & the defeat of Isis. pic.twitter.com/IVfcdbKm6P'
p766
S'4:25 PM - 28 Jan 2018'
p767
tp768
a(S"Iran spends billions on weapons programs, terrorism while ignoring Iranians' basic needs http://www.foxnews.com/world/2018/01/28/iran-spends-billions-on-weapons-programs-terrorism-while-ignoring-iranians-basic-needs-report-finds.html\xc2\xa0\xe2\x80\xa6"
p769
S'4:23 PM - 28 Jan 2018'
p770
tp771
a(S'BREAKING : Study Confirms More Islamic Refugees Equals More Terrorism http://crwd.fr/2qa6QHv\xc2\xa0pic.twitter.com/XcozCxhZtg'
p772
S'4:20 PM - 28 Jan 2018'
p773
tp774
a(S'And this is a surprise? \nhttp://www.foxnews.com/world/2018/01/28/iran-spends-billions-on-weapons-programs-terrorism-while-ignoring-iranians-basic-needs-report-finds.html\xc2\xa0\xe2\x80\xa6'
p775
S'4:16 PM - 28 Jan 2018'
p776
tp777
a(S'RT we are still waiting for all the proofs you were going to publish documenting Turkey\xe2\x80\x99s support to ISIS! Now you have become a tool and  mouthpiece for Turkish regime! What exactly Russia has done to stop the civilian carnage in Afrin! https://twitter.com/rt_com/status/957757683733479424\xc2\xa0\xe2\x80\xa6'
p778
S'4:08 PM - 28 Jan 2018'
p779
tp780
a(S'Thanks BO http://www.foxnews.com/world/2018/01/28/iran-spends-billions-on-weapons-programs-terrorism-while-ignoring-iranians-basic-needs-report-finds.html\xc2\xa0\xe2\x80\xa6'
p781
S'4:07 PM - 28 Jan 2018'
p782
tp783
a(S'Our babies killed by PKK! \nPKK is not romantic club! PKK is a terrorist organisation..\nAnd US supporter to PKK terrorism..\nTurkish Army will destroye PKK/YPG from #Afrin and all Syria!\n\n@StateDept @WhiteHouse #GeceninS\xc3\xb6z\xc3\xbcn\xc3\xbcYaz #Afrin Efrinpic.twitter.com/SXTim0vprm'
p784
S'4:06 PM - 28 Jan 2018'
p785
tp786
a(S"Hang on Barny told us ISIS isn't a threat anymore. We have new people to be frightened of."
p787
S'4:06 PM - 28 Jan 2018'
p788
tp789
a(S"Spoiler. Here's how SOTU will go (order may vary): the stock market, the tax cut, cutting regs, bringing back jobs, build a wall, defeat ISIS, Gorsuch, end bad trade deals, open Anwar, end Ocare mandate, Dems & Hillary bad & he's done amazing things like no other president, etc."
p790
S'4:04 PM - 28 Jan 2018'
p791
tp792
a(S"London's terrorist mayor compares Trump to ISIS. What a stupid man! https://twitter.com/viking_tiger/status/957319681861476353\xc2\xa0\xe2\x80\xa6"
p793
S'4:02 PM - 28 Jan 2018'
p794
tp795
a(S'The ABS stats are a bit dodgy. Stats between 2003 -2012 Then they use terrorism stats from 1978-2014 and include stats from overseas. #auspolhttps://twitter.com/deniseshrivell/status/957763055395287040\xc2\xa0\xe2\x80\xa6'
p796
S'4:02 PM - 28 Jan 2018'
p797
tp798
a(S'Kiss cam is domestic terrorism.'
p799
S'4:02 PM - 28 Jan 2018'
p800
tp801
a(S'Iran\xe2\x80\x99s Citizens are in desperate need, while Mullahs\xe2\x80\x99 export terror!! Likely connected to North Korea as well!!  http://www.foxnews.com/world/2018/01/28/iran-spends-billions-on-weapons-programs-terrorism-while-ignoring-iranians-basic-needs-report-finds.html\xc2\xa0\xe2\x80\xa6'
p802
S'4:02 PM - 28 Jan 2018'
p803
tp804
a(S'He treats me like child saying he heard many people speak about me & want to hurt me. His speech in Arabic is bad and his name is strange.(Ethry Gillerson)\nThe problem is that I am in my city and I am subjected to terrorism from an African who lives in the cities of Tripoli! https://twitter.com/Hiba76Sh/status/957765124584067072\xc2\xa0\xe2\x80\xa6'
p805
S'4:02 PM - 28 Jan 2018'
p806
tp807
a(S"I'll save you guys 7 days Siri took over his Isis camp"
p808
S'4:01 PM - 28 Jan 2018'
p809
tp810
a(S'abbey brooks old lady porn monster sex isis love indian girl fucking lesbian fisting swedish party sex indian sex \n https://twitter.com/tbahacerpha1982/status/940006188573376512\xc2\xa0\xe2\x80\xa6'
p811
S'4:01 PM - 28 Jan 2018'
p812
tp813
a(S'@DunyaNews @Dawn_News @aaj_urdu  "Pakistan s  worst biggest problem is DR SHAHID MASSOD NOW not Terrorism or corruption lanti whores of Paki media got PAID to attack an HONEST man but Paki media know awam will nvr rise4their rights its chotia awam of Pak pic.twitter.com/Bla8bv15QG'
p814
S'4:01 PM - 28 Jan 2018'
p815
tp816
a(S'Omg! You people are truly brain dead. Bush created ISIS when he destabilized the region. Just because you don\xe2\x80\x99t like it doesn\xe2\x80\x99t make it untrue. Moron'
p817
S'4:01 PM - 28 Jan 2018'
p818
tp819
a(S"New ISIS Video Sings to U.S. Jihadists: 'Now Time to Rise, Slit Throats'. https://tiny.iavian.net/lb6d\xc2\xa0"
p820
S'4:01 PM - 28 Jan 2018'
p821
tp822
a(S'Jeff Sessions Caught Issuing a Fake DHS Document Blaming Immigrants For Terrorism: Report http://votyus.me/usb/posts/993850\xc2\xa0\xe2\x80\xa6'
p823
S'4:01 PM - 28 Jan 2018'
p824
tp825
a(S'This would silence a lot of very important voices, like people who tweeted anonymously from ISIS-held Mosul. https://twitter.com/mcuban/status/957686987229618176\xc2\xa0\xe2\x80\xa6'
p826
S'4:01 PM - 28 Jan 2018'
p827
tp828
a(S'London mosque launches legal case to be taken off terrorism database | Middle East Eye http://ref.gl/vDjyQj4v\xc2\xa0'
p829
S'4:00 PM - 28 Jan 2018'
p830
tp831
a(S'Iran spends massive amount of cash on rockets, terror while turning blind eye to its citizens, bombshell report findshttp://www.foxnews.com/world/2018/01/28/iran-spends-billions-on-weapons-programs-terrorism-while-ignoring-iranians-basic-needs-report-finds.html\xc2\xa0\xe2\x80\xa6'
p832
S'4:00 PM - 28 Jan 2018'
p833
tp834
a(S'Yes exactly!  He just thinks Muslims = terrorism and reacts, but the ironic thing Dutch video wasn\xe2\x80\x99t even a Muslim man, it was a Dutch national.  It is just frightening he doesn\xe2\x80\x99t check things out before the tweets and retweets.'
p835
S'4:00 PM - 28 Jan 2018'
p836
tp837
a(S"West-Germany's war guilt is causing them submit to an essentially East-German programme of cultural terrorism delivered by Merkel, which is an extraordinary situation. https://reaction.life/angela-merkels-communist-roots-caused-downfall/\xc2\xa0\xe2\x80\xa6"
p838
S'4:00 PM - 28 Jan 2018'
p839
tp840
a(S'I really hope so....  c this video of @AngelaMerkeICDUhttps://freespeechtime.blogspot.com/2018/01/angela-merkel-declares-islam-is-not.html\xc2\xa0\xe2\x80\xa6'
p841
S'4:00 PM - 28 Jan 2018'
p842
tp843
a(S'Targeted #ISIS accounts\nhttps://twitter.com/intent/user?user_id=955960346593853441\xc2\xa0\xe2\x80\xa6\nhttps://twitter.com/intent/user?user_id=955901507714670592\xc2\xa0\xe2\x80\xa6\nhttps://twitter.com/intent/user?user_id=954340456011313152\xc2\xa0\xe2\x80\xa6\n#targets #iceisis #opiceisis'
p844
S'4:00 PM - 28 Jan 2018'
p845
tp846
a(S"Anyone with a BRAIN bigger than a peanut should know this!!!  Explains why liberals are so clueless.\n\nIran spends billions on weapons programs, terrorism while ignoring Iranians' basic needs, report finds http://fxn.ws/2nlP1CN\xc2\xa0 #FoxNews"
p847
S'4:00 PM - 28 Jan 2018'
p848
tp849
a(S'Que dor no meu pesco\xc3\xa7o '
p850
S'4:00 PM - 28 Jan 2018'
p851
tp852
a(S'"We should all bring a good amount of humility to the project of developing CT strategies touching on conflict zones... because... it\xe2\x80\x99s still quite difficult to deliver outcomes... such that the terrorism threat will be eliminated." @CTCWPhttps://ctc.usma.edu/view-ct-foxhole-nicholas-rasmussen-former-director-national-counterterrorism-center/\xc2\xa0\xe2\x80\xa6'
p853
S'4:00 PM - 28 Jan 2018'
p854
tp855
a(S'https://twitter.com/LatirSagrado/status/957740372750368768\xc2\xa0\xe2\x80\xa6'
p856
S'4:00 PM - 28 Jan 2018'
p857
tp858
a(S'That is not fair at all. Trump has done a great job in his first year. Economic policies are solid. ISIS after 8 years are almost destroyed. Jobs are back. Like I said not even close.'
p859
S'4:00 PM - 28 Jan 2018'
p860
tp861
a(S"Every single one of you has used that excuse, as if no one else is around, even when the post-death glory pics show several people.\nYou know the reason: it'll make you look like an ISIS Jihadi"
p862
S'4:00 PM - 28 Jan 2018'
p863
tp864
a(S'T\xc3\xb4 muito cansada'
p865
S'4:00 PM - 28 Jan 2018'
p866
tp867
a(S'Targeted #ISIS accounts\nhttps://twitter.com/intent/user?user_id=1008761329\xc2\xa0\xe2\x80\xa6\nhttps://twitter.com/intent/user?user_id=957227323509628928\xc2\xa0\xe2\x80\xa6\nhttps://twitter.com/intent/user?user_id=957195619973586944\xc2\xa0\xe2\x80\xa6\n#targets #iceisis #opiceisis'
p868
S'4:00 PM - 28 Jan 2018'
p869
tp870
a(S'O destino n\xc3\xa3o quis a gente junto pra sempre, mas foi um privil\xc3\xa9gio me encontrar com voc\xc3\xaa'
p871
S'4:00 PM - 28 Jan 2018'
p872
tp873
a(S"Carme Chaparro: 'A la xarxa han desitjat que em violessin els de l'ISIS' | Via @en_blauhttp://bit.ly/2BzjNgz\xc2\xa0"
p874
S'4:00 PM - 28 Jan 2018'
p875
tp876
a(S'Pensando si dejar de usar Snapchat'
p877
S'4:00 PM - 28 Jan 2018'
p878
tp879
a.