(lp0
(S'As a former U.S. Attorney and federal terrorism prosecutor with considerable FISA experience, I am more than just troubled by the revelations outlined in this memo. \n\nRead my full statement: https://ratcliffe.house.gov/media-center/press-releases/rep-ratcliffe-source-documents-confirm-potential-fisa-abused-highlighted\xc2\xa0\xe2\x80\xa6pic.twitter.com/IWDmJFx7sh'
p1
S'2:22 PM - 2 Feb 2018'
p2
tp3
a(S'Last year was the most dangerous year ever for journalists around the world. Many of the threats they face including surveillance, terrorism accusations, and prosecution under obscure laws are increasing. https://www.washingtonpost.com/news/worldviews/wp/2018/02/01/2017-was-the-most-dangerous-year-ever-for-journalists-2018-might-be-even-worse\xc2\xa0\xe2\x80\xa6'
p4
S'1:22 PM - 2 Feb 2018'
p5
tp6
a(S'Reminder: Back when he was FBI Director, Mueller worked w/ Islamist orgs \xe2\x80\x94 including ISNA & CAIR (unindicted co-conspirators in the HolyLandFoundation terror case) \xe2\x80\x94 to purge the FBI\'s anti-terror training manuals of material deemed "offensive" to Muslims.http://jwatch.us/N1QLHJ\xc2\xa0'
p7
S'10:30 AM - 2 Feb 2018'
p8
tp9
a(S'3 ISIS style beheadings of Hindu men in India in last 4 days:\n\n1. Ramesh in Hyderabad: Killers on the run.\n\n2. Manjunath in Bangalore: Beheaded by Syed Altaf (tenant) and his two sons for demanding rent.\n\n3. Ankit in Delhi: Beheaded by his Muslim girlfriend\xe2\x80\x99s mother and uncle. pic.twitter.com/AIlotdI6hM'
p10
S'10:10 AM - 2 Feb 2018'
p11
tp12
a(S'Spoke w/ Afghan Pres. @ashrafghani & expressed condolences for the recent terrorist attacks against the Afghan people. Barbaric attacks like these only STRENGTHEN our resolve to support Afghanistan & win the fight against terrorism.'
p13
S'8:42 AM - 2 Feb 2018'
p14
tp15
a(S'The existence of #Pakistan is the root cause of all evils on planet earth.\n#Terrorism pic.twitter.com/eBVqwPkVjP'
p16
S'6:47 AM - 2 Feb 2018'
p17
tp18
a(S'Today @USTreasury issued sanctions targeting individuals and entities supporting the Hizballah financial networks which support terrorists and acts of terrorism in Africa and the Middle East.'
p19
S'8:17 AM - 2 Feb 2018'
p20
tp21
a(S'In 2016 my beloved cousin was defending Iraq against ISIS. He was kidnapped and burnt alive by ISIS Jihadists. My uncles and I had to receive his burnt body from Baghdad. This is one example of what my family has endured. pic.twitter.com/jIozGLY8to'
p22
S'11:36 AM - 2 Feb 2018'
p23
tp24
a(S'How can we have faith in the state\xe2\x80\x99s ability to tackle terrorism when people like Max Hill, head of anti extremism watchdog, won\xe2\x80\x99t even call it what it is?  https://www.standard.co.uk/news/uk/don-t-refer-to-islamist-terrorism-says-watchdog-a3755701.html\xc2\xa0\xe2\x80\xa6'
p25
S'2:09 PM - 2 Feb 2018'
p26
tp27
a(S'#JustinTrudeau \nThese two idiots took our jets out of the Isis fight.I guess we know why now,they won\xe2\x80\x99t help our Vets yet Billions will be spent on illegal immigrants in Canada.  \nPlus spending millions on Isis rehabilitation programs,true  POS right there pic.twitter.com/17W84rNPiV'
p28
S'3:31 PM - 2 Feb 2018'
p29
tp30
a(S"#Turkish aggression in #Afrin continues, besides aiming at peaceful Kurdish people, it's an attack on another country. This helps #ISIS re-emerge and the Int. coalition which defeated ISIS with #Kurds should not stay silent. US & #Russia have a responsibility to stop the attacks."
p31
S'5:35 AM - 2 Feb 2018'
p32
tp33
a(S'Our crowdfunding campaign for our youth opera about terrorism\xe2\x80\x99s impact is live! Please visit, RT and share widely. Oh, and donate if you can!  https://yustart.hubbub.net/p/identity-crisis/\xc2\xa0\xe2\x80\xa6'
p34
S'8:37 AM - 2 Feb 2018'
p35
tp36
a(S"Pakistan Army has won World's largest counter terrorism war with 202,000 soldiers in area bigger than many EU... https://fb.me/1vNno7KLZ\xc2\xa0"
p37
S'11:44 AM - 2 Feb 2018'
p38
tp39
a(S'What does ISIS, the Talibans and Turkey have in common?\n\n#SpeakUpForAfrinpic.twitter.com/x7F9NJUZ1k'
p40
S'12:05 PM - 2 Feb 2018'
p41
tp42
a(S"Pakistan for many is about Terrorist and Terrorism. But it's not just that, Pakistan is also about this  pic.twitter.com/TzXhjbia5s"
p43
S'5:06 AM - 2 Feb 2018'
p44
tp45
a(S'Compromised ex-FBI #2 McCabe messed with counter-terrorism event to punish Comey critic. http://thehill.com/opinion/judiciary/371902-my-call-with-andrew-mccabe-proves-he-should-have-left-the-fbi-long-ago\xc2\xa0\xe2\x80\xa6'
p46
S'7:54 AM - 2 Feb 2018'
p47
tp48
a(S'Wow. If the question was about ISIS then he just offended every ethnic group that has ever come to Canada. People coming here escaping persecution and ISIS fighters are not the same!'
p49
S'9:00 AM - 2 Feb 2018'
p50
tp51
a(S'UK: Govt\xe2\x80\x99s \xe2\x80\x9cterror watchdog\xe2\x80\x9d: \xe2\x80\x9cFundamentally wrong to attach the word terrorism to any of the world religions\xe2\x80\x9d http://dlvr.it/QDmW7s\xc2\xa0pic.twitter.com/YqmFe5sMoy'
p52
S'1:12 PM - 2 Feb 2018'
p53
tp54
a(S'They defeated al-Qaeda.\nThey defeated ISIS.\nThey defended hundreds of thousands refugees and IDPs from the war.\n\n#SpeakUpForAfrinpic.twitter.com/yY4uTFtK4b'
p55
S'12:10 PM - 2 Feb 2018'
p56
tp57
a(S'Now that Syrian civil war is over and ISIS have been thrown out,\nthe 4000+ Syrian refugees in the UK should go home to help re-build their country.\nTheir reason for being here has now gone.\nWe certainly should not allow in any more Syrian migrants.\n@AMDWaters\n@ForBritainParty'
p58
S'12:11 PM - 2 Feb 2018'
p59
tp60
a(S'@JustinTrudeau \n\nNow trudeau is comparing Isis killers to the Italians that came to Canada after WW2\nBut we ended up being a great asset to Canada.\nLet me get this straight,first he insulted Asian people and now Italians.who\xe2\x80\x99s next.\nWow,This guy is an idiot.'
p61
S'7:53 AM - 2 Feb 2018'
p62
tp63
a(S'Apparently Trinidad and tobago had one of the highest rates of ISIS recruitment in the world...'
p64
S'8:37 AM - 2 Feb 2018'
p65
tp66
a(S'In a telephone call, @VP Pence shared with me his deepest condolences on behalf of the American people for the latest heinous attacks in #Kabul and #Jalalabad. He assured me that the American military and will is with the Afghan people in the fight against terrorism.'
p67
S'8:14 AM - 2 Feb 2018'
p68
tp69
a(S"Know The Game Plan: If you're heading out to watch the football or rugby this weekend, have a great time and look out for each other. These tactics help improve stadium security  #ActionCountersTerrorismpic.twitter.com/IAlCHogoXy"
p70
S'11:20 AM - 2 Feb 2018'
p71
tp72
a(S'if ISIS is IS, USSR is'
p73
S'11:29 AM - 2 Feb 2018'
p74
tp75
a(S'When  U have the FBI, DHS, DOJ & BLM trying 2 murder 3000 Americans w/fully auto weapons @Bunkerville,\nWhat do you need ISIS for?'
p76
S'3:44 PM - 2 Feb 2018'
p77
tp78
a(S"I'm Italian Canadian and very offended that in Edmonton townhall  Justin Trudeau compared me and my family to returning ISIS combatants?  Trudeau is truly deluded! He should really quit using the weed!! pic.twitter.com/4R2pE2rf4U"
p79
S'12:25 PM - 2 Feb 2018'
p80
tp81
a(S'Yeah the Greeks & Italians were not coming here to try to take over the country or kill Canadians like Isis'
p82
S'7:22 AM - 2 Feb 2018'
p83
tp84
a(S'My question for Trump and his fool ass followers is, how can you be all about \xe2\x80\x98Fighting Terrorism\xe2\x80\x99 when you fighting and undermining the Bureau that\xe2\x80\x99s FIGHTING TERRORISM?? #MemoDay'
p85
S'9:44 AM - 2 Feb 2018'
p86
tp87
a(S'BBC concerned with the rise of the right wing but not the 450 Isis fighters let back in this country FFS!!!'
p88
S'3:29 AM - 2 Feb 2018'
p89
tp90
a(S"Here's PM Stoner (just look at his eyes) comparing ISIS head-choppers returning to Canada to Vietnamese boat... https://fb.me/9mPeBbT7L\xc2\xa0"
p91
S'9:18 AM - 2 Feb 2018'
p92
tp93
a(S'For saffie Roussos never forget xxx veterans against terrorism pic.twitter.com/N2BDNp4MMI'
p94
S'3:03 PM - 2 Feb 2018'
p95
tp96
a(S'If NATO supports Turkey\'s attack on Afrin, NATO membership has increased to include AQ & ISIS & other terror grps who fight alongside Turkish troops. Thanks to Turkey, they now have a "NATO voice" as they continue "Jihad" against Kurds, Yezidis, Armenians, etc.\n#SpeakUpForAfrin'
p97
S'1:52 PM - 2 Feb 2018'
p98
tp99
a(S"LIVE: Finsbury Park attacker jailed for life . https://news.sky.com/story/live-finsbury-park-attacker-to-be-sentenced-11232977\xc2\xa0\xe2\x80\xa6. 43 years. Let's hope this sentence is emulaled in all acts of terrorism and to all who carry out terrorism., No more mentally ill rubbish."
p100
S'5:01 AM - 2 Feb 2018'
p101
tp102
a(S"There's just not as much terrorism humor in baseball these days. pic.twitter.com/deztXOhvGx"
p103
S'10:23 AM - 2 Feb 2018'
p104
tp105
a(S"Dear @BowenBBC @BBC Your constant distortion, bias and anti-factual attitude towards reporting on #Israel is sickening. FYI. If a British girl was caught openly supporting / inciting terrorism - she'd face arrest and a trial too.  http://www.bbc.co.uk/news/av/world-middle-east-42884885/ahed-tamimi-was-palestinian-teenager-s-slap-terrorism\xc2\xa0\xe2\x80\xa6"
p106
S'9:24 AM - 2 Feb 2018'
p107
tp108
a(S'Erdogan wants all jihadists to eventually unite under the leadership of him: ISIS-2 is on the way: "Jihad is non-negotiable. Every muslim is a muslim before they are anything else; allegiance to Islam comes before allegiance to any flag of any nation,before allegiance to family.'
p109
S'5:36 AM - 2 Feb 2018'
p110
tp111
a(S'The SDF defeated ISIS in northern Syria. The US and its allies should support them in Afrin \xe2\x80\x93 @sinam56 \xe2\x80\xa2 https://thedefensepost.com/2018/02/02/opinion-us-allies-support-sdf-afrin-syria/\xc2\xa0\xe2\x80\xa6pic.twitter.com/mfvUicz7ry'
p112
S'10:38 AM - 2 Feb 2018'
p113
tp114
a(S"Real people understand that homosexuality is an UNNATURAL act. It's only people who think that homosexuality is normal that are too blind to grasp the obvious falsehood of that belief."
p115
S'10:58 AM - 2 Feb 2018'
p116
tp117
a(S'Scott Pruitt, head of the EPA, to @mikiebarb, on The Daily: "If climate change is more important than ISIS, I want to know about it. Hahaha!" \n\nThen study up, Scott.'
p118
S'5:36 AM - 2 Feb 2018'
p119
tp120
a(S'UK govt\xe2\x80\x99s \xe2\x80\x9cterror watchdog\xe2\x80\x9d: \xe2\x80\x9cFundamentally wrong to attach the word terrorism to any of the world religions\xe2\x80\x9d https://wp.me/p4hgqZ-zAN\xc2\xa0pic.twitter.com/qngRXSfkle'
p121
S'5:26 AM - 2 Feb 2018'
p122
tp123
a(S'Honduras: the American emergency faith delegation was yesterday denied access to political prisoner Edwin Espinal. Scores of post-election protesters arrested under the murky new terrorism law are languishing in jails across the country'
p124
S'7:40 AM - 2 Feb 2018'
p125
tp126
a(S"Money for ISIS rehab and reintegration (when they really need some 'lead poisoning') \n\nNothing for our veterans. https://twitter.com/SheilaGunnReid/status/959302301230886912\xc2\xa0\xe2\x80\xa6"
p127
S'6:03 AM - 2 Feb 2018'
p128
tp129
a(S'While Libertarians worry about misuse of #FISA Warrants, properly used as the Law was written, they can prevent Terrorism. But what Comey & Co. did had nothing to do with the Law\xe2\x80\x99s intent. It\xe2\x80\x99s misuse to take down a Political Candidate should worry Liberals & Conservatives alike. pic.twitter.com/wihvLbOSk3'
p130
S'2:34 PM - 2 Feb 2018'
p131
tp132
a(S"This is 2018: @realDonaldTrump declassifies a Top Secret @FBI memo because he's at war with the agency, and in Missouri, @EricGreitens won't tell us when he downloaded @confide on his phone because ... terrorism."
p133
S'9:30 AM - 2 Feb 2018'
p134
tp135
a(S'They seek to stop us naming the evil amongst us.https://www.rt.com/uk/417704-islamist-terrorism-hill-stop/\xc2\xa0\xe2\x80\xa6'
p136
S'9:14 AM - 2 Feb 2018'
p137
tp138
a(S'Turkey and some so called US academics are engaged in a propaganda war to make the YPG out as aggressors. Turkey is flooding ISIS and al-Qaeda into Syria and the YPG have not rockets and to heavy artillery. IMO These lies are actionable as terrorist support for ISIS and AQ.'
p139
S'7:12 AM - 2 Feb 2018'
p140
tp141
a(S'"Afghanistan has become a country of mercenaries," @ArsalaiH tells me.\n\n-ANA pay $250 per month salary\n-Taliban pay up to $500\n-ISIS up to $600\n-Iran up to $1000\n\nListen here : http://traffic.libsyn.com/channeltherage/Husan_Arsalai.mp3\xc2\xa0\xe2\x80\xa6\n\nSubscribe here \nhttp://www.patreon.com/channeltherage\xc2\xa0pic.twitter.com/qWKLqirQfd'
p142
S'8:53 AM - 2 Feb 2018'
p143
tp144
a(S"Audience asked the ISIS terrorists returning to Cnd and this poolhead talking abt Greeks and Italians' contribution to this country?    Wow !! ??\nIs she/he still high on drug or just confused?"
p145
S'9:40 AM - 2 Feb 2018'
p146
tp147
a(S"One important thing, Italians and other nationalities did not leave their country by choice to go and join a group of terrorists to rape, murder, torture people on purpose, the Canadian ISIS scum did. That's a big difference to me."
p148
S'4:31 AM - 2 Feb 2018'
p149
tp150
a(S'January sucked so much but I have a good ass feeling about February & so on'
p151
S'10:55 AM - 2 Feb 2018'
p152
tp153
a(S'ISIS-inspired terrorist convicted of attempted murder in ambush of Philly police officer\n#ThinBlueLine #BackTheBlue #BlueLivesMatter #MemoDay\nhttp://dlvr.it/QDlYhQ\xc2\xa0 pic.twitter.com/Yzgc43IQtm'
p154
S'10:34 AM - 2 Feb 2018'
p155
tp156
a(S'Sentencing remarks which should be read far and wide: Mrs Justice Cheema Grubb in the Darren Osborne Finsbury Park Mosque terrorism case: http://bit.ly/2DTbv9c\xc2\xa0pic.twitter.com/crJoELL80Y'
p157
S'6:55 AM - 2 Feb 2018'
p158
tp159
a(S"The two greatest threats to America isn't Russia, or even ISIS.\nIt's Pedophile Democrats and the Communist Intelligence Community.\n\n#MemoDay"
p160
S'1:52 PM - 2 Feb 2018'
p161
tp162
a(S'LATEST: 18 injured, including driver, after burning van jumps curb in Shanghai. Chinese authorities do not believe the crash was an act of terrorism. http://abcn.ws/2GETKIB\xc2\xa0pic.twitter.com/SsYm4hGtRp'
p163
S'4:37 AM - 2 Feb 2018'
p164
tp165
a(S'\xe2\x80\x9c....Not everyone has it in them to do what the Kurds are doing out here, but I know that I do and I am good at it. So, it\xe2\x80\x99s hard for me to leave it behind and forget about the people and the situation here, knowing I can be helping.\xe2\x80\x9d #JackHolmeshttps://www.theguardian.com/uk-news/2018/feb/02/anti-isis-fighters-gather-in-dorset-for-funeral-of-uk-sniper-jac-holmes\xc2\xa0\xe2\x80\xa6'
p166
S'12:01 PM - 2 Feb 2018'
p167
tp168
a(S'Hey Haters of Trump! I mean Democrats on Twitter, of course. \nTrump has:\nPassed the Tax Reform Bill.\nKilled job regulations.\n#ReleasedTheMemo\nCombatted ISIS and OPIOIDS! \nFought against CORRUPT FBI and MEDIA!\nEconomy boost.\nImmigration reform. \n------\nBye! '
p169
S'3:10 PM - 2 Feb 2018'
p170
tp171
a(S"Trudeau tried to imply that Italians were negatively viewed as they immigrated to NA. They turned out to be a great part of Cdn culture. He wants us to believe ISIS murderers will turn out the same. I don't think so Jr Trudeau."
p172
S'6:21 AM - 2 Feb 2018'
p173
tp174
a(S'First the Asians are maligned via #HijabHoax and now our Italian immigrants are being likened to ISIS pic.twitter.com/y6Ly8CFAgE'
p175
S'9:40 AM - 2 Feb 2018'
p176
tp177
a(S'The people they are looking for are one of two things: you are either a member of ISIS or you are suspected of being an agent or  asset of a foreign intelligence agency & that is what FISA court handles @MalcolmNance on @TheBeatWithAri #FISAMemopic.twitter.com/wBzF0wpYm1'
p178
S'3:38 PM - 2 Feb 2018'
p179
tp180
a(S'\xc2\xabYPJ heroines who are underlining the finest epics of redemption and bravity, renew the promise to the martyrs to walk in their path until achieving their dreams of triumph and defeating the terrorism and the invaders\xc2\xbb\n\nPic AFP @Delilsouleman\n#SpeakUpForAfrinpic.twitter.com/p73voUeAhY'
p181
S'2:47 PM - 2 Feb 2018'
p182
tp183
a(S'Eva Savelsberg from European Center for Kurdish Studies: "#PYD established a dictotarial rule. There is no opposition at all in Kurdish areas. This is something which is very often not seen in Western media which likes to see #YPG as heroes fighting  with Americans against ISIS\xe2\x80\x9d pic.twitter.com/S5lKnDaPlC'
p184
S'1:18 PM - 2 Feb 2018'
p185
tp186
a(S'#SpeakUpForAfrin \n\nIf #Turkey refuses to fight jihadists but fights #Kurds instead - who lost their lives fighting #ISIS - we have to see #T\xc3\xbcrkiye as enemy of the free world.'
p187
S'12:15 PM - 2 Feb 2018'
p188
tp189
a(S'"WE HAVE THE LEADERs OF ISIS!" pic.twitter.com/orw3sEZcDq'
p190
S'11:28 AM - 2 Feb 2018'
p191
tp192
a(S'What is Fulani Terrorism?\nFulani terrorism is the alliance between Fulani militia, Hausa-Fulani politicians, Miyetti Allah and their  silence, to justify their effort in their systematic ethic cleansing and colonization campaign being carried out through massacres across  Nigeria pic.twitter.com/UYnFS7uAKi'
p193
S'11:04 AM - 2 Feb 2018'
p194
tp195
a(S'Oh. @cjwerleman did u not read the news of ISIS style beheadings of Hindus in India overt the last week by the one should not name. Community? What atrocities against r u talking about? U hv no idea n r simply peddling ur agenda'
p196
S'11:01 AM - 2 Feb 2018'
p197
tp198
a(S'Please @jack @TwitterSupport @TwitterSafety help him recover the account that he is fighting terrorism\n @YAZahraa954'
p199
S'10:43 AM - 2 Feb 2018'
p200
tp201
a(S'So, the earth shaking "intelligence" the Nunes\' Memo is based on isn\'t actual intelligence at all. It\'s just conspiracy theories skimmed from Breitbart and Infowars\n\nBut, yeah, we can trust these people to have ground truth on ISIS, Iran, North Korea... \n\nSure.'
p202
S'10:35 AM - 2 Feb 2018'
p203
tp204
a(S'@TuckerCarlson @Steeper33 @jordanbpeterson @GadSaad @realDailyWire @RealAlexJones @benshapiro @GatestoneInst @TomTSEC Italians and Greeks are now horrified at being equivocated to ISIS on this Trudeau Edmonton Townhall clip @MIGSinstitute'
p205
S'9:49 AM - 2 Feb 2018'
p206
tp207
a(S'.\nJEWISH ZIONIST TERRORISM and the ESTABLISHMENT of ISRAEL\n\nLINK >> http://www.dtic.mil/dtic/tr/fulltext/u2/a047231.pdf\xc2\xa0\xe2\x80\xa6pic.twitter.com/mBi8UgKBi0'
p208
S'9:38 AM - 2 Feb 2018'
p209
tp210
a(S'Do you have ears, Trudeau just granted ISIS with equivalency to all immigrants who came to this country'
p211
S'9:19 AM - 2 Feb 2018'
p212
tp213
a(S'This photo story inspired by the Egyptian goddess Isis is enchanting: http://bit.ly/2hL5D4O\xc2\xa0pic.twitter.com/faMJgXR7Uj'
p214
S'9:01 AM - 2 Feb 2018'
p215
tp216
a(S'HE COMPARED "ISIS" TO OUR WONDERFUL ITALIAN CANADIANS....DOES HE REALLY THINK CANADIANS ARE GOING TO KEEP LISTENING AND TAKING THIS KIND OF TALK.? https://twitter.com/themadsloth/status/959441455445168129\xc2\xa0\xe2\x80\xa6'
p217
S'7:56 AM - 2 Feb 2018'
p218
tp219
a(S'Today, we updated our ISIS in America tracker. 157 individuals have been charged with offenses related to ISIS. pic.twitter.com/7oqSdnd9eS'
p220
S'7:45 AM - 2 Feb 2018'
p221
tp222
a(S"#MemoDay\n@BarackObama couldn't stop ISIS for five years, couldn't even contain them. @realDonaldTrump, with the same military, wiped out ISIS in nine months. Obama was only competent when it came to SPYING on Americans! pic.twitter.com/bddt54C33T"
p223
S'7:34 AM - 2 Feb 2018'
p224
tp225
a(S'Joy Reid just admitted that if you watch the typical mainstream media networks, you\xe2\x80\x99ll think drug cartels and islamic terrorism doesn\xe2\x80\x99t exist, until they kill you #WhatILearnedToday @DocThompsonShow'
p226
S'5:18 AM - 2 Feb 2018'
p227
tp228
a(S"I love how democrats are touting national security with the memo release, but fought  to take ISIS refugees.  They don't care about security for anyone other than themselves #freedomday #releasethememo #qanon"
p229
S'4:25 AM - 2 Feb 2018'
p230
tp231
a(S'We want peace and we are peace loving people terrorism is imposed on us by the state.\n#PashtunLongMarch\n#PashtunRejectStateTerrorism'
p232
S'4:05 AM - 2 Feb 2018'
p233
tp234
a(S"We are affected by state sponsored terrorism from two decades, now it's time to stop this proxy war #PashtunLongMarch\n#PashtunRejectStateTerrorism"
p235
S'4:02 AM - 2 Feb 2018'
p236
tp237
a(S'The Turkish state\xe2\x80\x99s invasion attacks against Afrin together with gangs derived from ISIS and Al Nusra have entered day 14. In the invasion attacks that target civilian residential areas, 127 civilians have been martyred to date. #SpeakUpForAfrin'
p238
S'1:20 PM - 2 Feb 2018'
p239
tp240
a(S"Turkey's jihadis killed and insulted a YPJ heroine who fought and pushed ISIS all the way from Kobane to Raqqa and from there to hell. Are you fine with that? #SpeakUpForAfrin"
p241
S'11:56 AM - 2 Feb 2018'
p242
tp243
a(S'i wanna get over the fear that i\xe2\x80\x99ll never be good enough'
p244
S'10:43 AM - 2 Feb 2018'
p245
tp246
a(S'The mission of the FBI\xe2\x80\x99s domestic terrorism program is to identify, prevent, and defeat terrorist operations before they occur, and in the event of an act of terrorism, to fulfill its role as the lead federal agency for crisis response, functioning as the on-scene manager for the'
p247
S'10:36 AM - 2 Feb 2018'
p248
tp249
a(S'If all these has mindset of hatred. \n\nDoes ISIS, Al quida, Lashkar e toiba, PFI has mindset of Loving!?\n\nRIP your Knowledge'
p250
S'10:36 AM - 2 Feb 2018'
p251
tp252
a(S'Missed my party at Mara Lago\nOne hundred grand a couple\nhad to fix a Budget Crisis\nwatch for immigrants diguised as Isis\nBut I still get all the money\nAll that tax free doe for me\nBeing POTUS is cool indeed\nThe Secret Service ate for free\nPeople of America paid their fee pic.twitter.com/qrU44gQgVZ'
p253
S'7:32 AM - 2 Feb 2018'
p254
tp255
a(S"Republicans have no issue with fisa when it's used to listen to Americans who are having conversations with the Taliban or Isis. But talk to Russia about undermining the US and it's a big no no for the GOP. Isis or Russia both are hostile."
p256
S'7:32 AM - 2 Feb 2018'
p257
tp258
a(S"Good Morning America:\n@realDonaldTrump wants you to side with Putin's FSB (ex-KGB)\nover the F.B.I. that fights terrorism to keep you safe\nWhy? Because the FBI knows Trump would not be POTUS without the FSB\nTHE TRUMP TRAIN IS OFFICIALLY THE TREASON TRAIN\n#MemoDay\n#RemoveNunespic.twitter.com/RV8rX04SFc"
p259
S'7:27 AM - 2 Feb 2018'
p260
tp261
a(S'I want members of Congress to take this seriously: @RealDonaldTrump deal with Erdogan is facilitating a resurgence of #ISIS in Syria and signs of activity of increased recruitment are clearly present on @Twitter. @SenFeinstein @SenJackReed @sethmoulton @LindseyGrahamSC'
p262
S'7:26 AM - 2 Feb 2018'
p263
tp264
a(S'Armed forces cut, poorly equipped, under paid\nMain threat to UK is terrorism\nUS president - who has some control over UK nukes - is himself a danger \n\nNot to mention destructive effects of austerity\n\nTIME for grown up national debate about #tridentrenewal & UK defence capability'
p265
S'5:51 AM - 2 Feb 2018'
p266
tp267
a(S'Turks Jihadsim (ISIS-2) Rises from Middle East. Led by Erdogan, all jihadists have gathered to win last phase .. "FSA" is a disinformation.'
p268
S'5:05 AM - 2 Feb 2018'
p269
tp270
a(S'The word is coming from an indian,india a hub of terrorism..get ready to give up kashmir.\n#IndiaGiveUpKashmirpic.twitter.com/2jxWAeCttS'
p271
S'4:10 AM - 2 Feb 2018'
p272
tp273
a(S'Please @jack @Support @TwitterSafety  help him recover the account that he is fighting terrorism .\n@YAZahraa954pic.twitter.com/Uxm4YBz6JA'
p274
S'4:07 AM - 2 Feb 2018'
p275
tp276
a(S'So people think #DarrenOsborne was "pushed into the corner" due to "islamification" and "terrorists" (by people I mean Tommy Robinson and co followers) yet ISIS have killed more Muslims then non Muslims? These people are nothing but terrorist sympathisers in my eyes.'
p277
S'3:20 AM - 2 Feb 2018'
p278
tp279
a(S'I WILL DEFEND MY RIGHTS AGAINST ALL ENEMIES BOTH FOREIGN AND LIBERAL DEMOCRAT! DEMOCRATS, MORE DANGEROUS THAN ISIS! pic.twitter.com/HdwlW3j1XF'
p280
S'3:19 AM - 2 Feb 2018'
p281
tp282
a(S'.@charliekirk11: "I think Republicans are going to win big in November...You look at the economy. It\'s going wonderful. But, also you look foreign policy wise. ISIS is on the run. They\'re being slaughtered. America is back." pic.twitter.com/FIvqLeh9Di'
p283
S'3:10 AM - 2 Feb 2018'
p284
tp285
a(S"Terrorism has no religion, terrorists have no religion and they are friends of no religion. Say 'No' to Terrorism. #KABIR #April2018pic.twitter.com/P31uzIGlH1"
p286
S'3:09 AM - 2 Feb 2018'
p287
tp288
a(S'Please @jack @Support @TwitterSafety  help him recover the account that he is fighting terrorism .\n@YAZahraa954'
p289
S'5:38 AM - 2 Feb 2018'
p290
tp291
a(S"One of my favorite images from #Iraq's victory against #ISIS. A photo that'll set Takfiri souls on fire. Shi'a & Sunni Iraqi warriors praying together before a battle near Mosul. pic.twitter.com/eMw5ejdFKh"
p292
S'3:07 AM - 2 Feb 2018'
p293
tp294
a(S'Her: Why are you cooking bacon at 4:30 in the morning?\n\nMe: Cause Fuck ISIS, that\xe2\x80\x99s why.'
p295
S'1:30 AM - 2 Feb 2018'
p296
tp297
a(S'#StopAfrinGenocide \nTo all honorable Italians : It is big shame for Italy and Vatican to receive head of terrorism while GENOCIDE is on Afrin.'
p298
S'1:23 AM - 2 Feb 2018'
p299
tp300
a(S'Once Used as Sex Slaves by ISIS, These #Yazidi Women Are Rebuilding Their Lives\n#YazidiGenocide https://www.nbcnews.com/storyline/isis-uncovered/once-used-sex-slaves-isis-these-yazidi-women-are-rebuilding-n801226\xc2\xa0\xe2\x80\xa6 pic.twitter.com/Okksj0JNEZ'
p301
S'1:04 AM - 2 Feb 2018'
p302
tp303
a(S'That moment you realize the world is run by Luciferian globalist neoliberals  who want to create a new world order and reduce the world\xe2\x80\x99s population through manufactured wars, diseases, terrorism, and abortion. pic.twitter.com/0eJ4U4iqnu'
p304
S'1:01 AM - 2 Feb 2018'
p305
tp306
a(S'New research is complete!\nApproximately 28% of ISIS remains, 57% of Al Qaeda and 75% of NUSRA have joined the new Turkish JIHAD organization, called "FSA".\nThe aim is to attack the Americans at MANBIJ.'
p307
S'12:55 AM - 2 Feb 2018'
p308
tp309
a(S'"ISIS" killed 73 innocent Tiv peoole and the President deployed the police. Then ISIS killed 7 innocent Fulani people and they deployed the army. Apparently the "ISIS" that is killing Tiv people is different from the one killing Fulanis.\nI\'m just tired of Nigeria.'
p310
S'11:28 PM - 1 Feb 2018'
p311
tp312
a(S'MAX HILL QC \nThis man is paid \xc2\xa31,200 a day to review Britain\'s terror laws, and declares that it is "fundamentally wrong to attach the word terrorism to any of the world religions". He wants attacks perpetrated by Muslim extremists to be referred to as "Daesh-inspired terrorism". pic.twitter.com/qdqlht0qzQ'
p313
S'11:16 PM - 1 Feb 2018'
p314
tp315
a(S'Oh! Dear world stand by us to eliminate the menace of terrorism.\n#PashtunRejectStateTerrorism'
p316
S'11:05 PM - 1 Feb 2018'
p317
tp318
a(S'#Biafra OPEN LETTER TO AMERICAN GOVERNMENT: NIGERIA DOES NOT NEED FIGHTER JETS TO END TERRORISM IN WEST AFRICA: OPEN LETTER TO AMERICAN GOVERNMENT: NIGERIA DOES NOT NEED FIGHTER JETS TO END TERRORISM IN WEST AFRICA Written By Mazi Onyebuchi Eze, For\xe2\x80\xa6 http://dlvr.it/QDgJ3Z\xc2\xa0pic.twitter.com/93TXPTviKH'
p319
S'11:05 PM - 1 Feb 2018'
p320
tp321
a(S'Look at the crowd in front of Islamabad Press club against Pashtoon Genocide and killing of Naqib by Pakistani state but no media coverage. State terrorism, state control media, \n#PashtunRejectStateTerrorismpic.twitter.com/qrfDdeZ3EE'
p322
S'10:50 PM - 1 Feb 2018'
p323
tp324
a(S'No more blood for $. No more state terrorism\n#PashtunRejectStateTerrorism'
p325
S'10:41 PM - 1 Feb 2018'
p326
tp327
a(S'OPEN LETTER TO AMERICAN GOVERNMENT: NIGERIA DOES NOT NEED FIGHTER JETS TO END TERRORISM IN WEST AFRICA http://dlvr.it/QDgJ1V\xc2\xa0pic.twitter.com/RjBvtbRhlP'
p328
S'11:05 PM - 1 Feb 2018'
p329
tp330
a(S'Maldives court throws out "terrorism" case against former President Mohamed Nasheed http://aje.io/m58hc\xc2\xa0pic.twitter.com/bUa6sVPUQS'
p331
S'10:04 PM - 1 Feb 2018'
p332
tp333
a(S'Look at the crowd in front of Islamabad Press club against Pashtoon Genocide and killing of Naqib by Pakistani state but no media coverage. State terrorism, state control media,\n#PashtunRejectStateTerrorism'
p334
S'9:52 PM - 1 Feb 2018'
p335
tp336
a(S'ISIS-Inspired Shooter Convicted For Shooting Philly Officer\n#BlueLivesMatter #BackTheBlue\nFull Story: https://buff.ly/2GE6ZJn\xc2\xa0pic.twitter.com/29uKPbJpNu'
p337
S'8:16 PM - 1 Feb 2018'
p338
tp339
a(S"CONTRAST: At Nation Center the other day, the Kalenjin Guys were denied access into the building and they didn't FORCE their way in. Early this morning, they BLEW UP Gen. Dr. Miguna Miguna's gates and door to arrest him. Domestic terrorism by Jubilee.\n#MigunaMigunaArrested"
p340
S'8:02 PM - 1 Feb 2018'
p341
tp342
a(S'The Finsbury Park murder of Muslims was due to the government not doing anything about the Muslim rooming Gangs operating online . The Finsbury Park murder was due to government inaction over Islamic terrorists and allowing back ISIS fighters .'
p343
S'7:31 PM - 1 Feb 2018'
p344
tp345
a(S'There\xe2\x80\x99s no bad blood... just sometimes you gotta let people go.'
p346
S'6:41 PM - 1 Feb 2018'
p347
tp348
a(S'BREAKING: The white supremacist terrorist radicalized online by anti-Muslim bigots & google scholars to "kill as many Muslims as possible" -- has been convicted of murder.\n\nI\'m hoping those who radicalized him are also held accountable for their terrorism promotion. https://twitter.com/metpoliceuk/status/959101029198516224\xc2\xa0\xe2\x80\xa6'
p349
S'6:34 PM - 1 Feb 2018'
p350
tp351
a(S'Jr is asked about his stance on ISIS returning to Canada. He compares them to Italians after WW2. Says the usual "diversity strength BS". He didn\'t answer in fact.'
p352
S'6:33 PM - 1 Feb 2018'
p353
tp354
a(S'.@charliekirk11: "I think Republicans are going to win big in November...You look at the economy. It\'s going wonderful. But, also you look foreign policy wise. ISIS is on the run. They\'re being slaughtered. America is back." pic.twitter.com/x3osVzw9LI'
p355
S'6:05 PM - 1 Feb 2018'
p356
tp357
a(S'Tucker Carlson mentioned that Chain Migration people should be vetted to make sure they don\xe2\x80\x99t have any ties with Isis, yet trudeau welcomes Isis killers to Canada with open arms. \nWhy does USA realize the threat, but trudeau puts all Canadians in danger. pic.twitter.com/oHwQUbcqLq'
p358
S'5:48 PM - 1 Feb 2018'
p359
tp360
a(S"....does Obama say he's training ISIL (ISIS) here? ....nah... couldn't be.... \n#WorstWaysToGetDumped #ReleaseTheMemo #FullofSchiffpic.twitter.com/T9xEe0mCtI"
p361
S'5:48 PM - 1 Feb 2018'
p362
tp363
a(S"THIS...\n\nIs Real...#OperationCasandra\n\nThis makes #FastAndFurious look like child's play\n\nHolder Running Guns & Ammo By M-13 Thru Columbia, Etc To ISIS To Shoot Our Military\n\nRecall DHS buying up all ammo???\n\nhttp://www.tampabay.com/news/politics/national/before-fast-amp-furious-florida-had-operation-castaway/1255064\xc2\xa0\xe2\x80\xa6 pic.twitter.com/esqpYAoJW3"
p364
S'5:17 PM - 1 Feb 2018'
p365
tp366
a(S"The head of Germany's domestic intelligence agency has warned of 'massive danger' posed by returning  ISIS brainwashed women & children."
p367
S'4:07 PM - 1 Feb 2018'
p368
tp369
a(S'"The main difference between decapitations in Syria and Mexico is that Mexicans also behead women, children, and innocent bystanders. Why are the media obsessed with ISIS\'s beheadings but not the more frequent head-chopping right next door?"'
p370
S'7:47 PM - 1 Feb 2018'
p371
tp372
a(S'A recent interview given by @BBhuttoZardari to @IndiaToday, where he touches upon several important issues, has been a breath of fresh air.\nHe touches on several important issues, such as terrorism and the army\xe2\x80\x99s role in Pakistan, amongst others.\nhttps://blogs.tribune.com.pk/story/63404/the-rise-of-bilawal-bhutto-zardari-much-more-than-a-poster-boy-of-pakistans-family-dominated-politics/\xc2\xa0\xe2\x80\xa6pic.twitter.com/QMBKlRVwKm'
p373
S'7:46 PM - 1 Feb 2018'
p374
tp375
a(S'@JustinTrudeau answer was pathetic. The Omar Khadr trial judge and jury was JT and Trudeau made it clear he has ISIS fighters back and not the vets who fought for our country against Isis, Disgraceful'
p376
S'7:42 PM - 1 Feb 2018'
p377
tp378
a(S'#Syria & #Iraq War Last 20 Months - 6 June 2016 to 2 February 2018 #Lebanon #ISIL #ISIS #KRG #SDFpic.twitter.com/YPKvKzl5fI'
p379
S'7:34 PM - 1 Feb 2018'
p380
tp381
a(S'Q: Why is Justyn disrespecting our REAL Canadian Heroes/Veterans??? This Veteran deserves respect, not a lecture  \n\nA: Our tax $$ is for thousands of refugee/invaders, Clinton Foundation, Aga Khan(over 100 MILLION) , Omar Kadr and other ISIS TERRORISTS, and #FakeNewsCBC #Cdnpolihttps://twitter.com/davidakin/status/959259025043988480\xc2\xa0\xe2\x80\xa6'
p382
S'7:30 PM - 1 Feb 2018'
p383
tp384
a(S'Wow! There are 1.6 million Canadians of Italian descent and our PM just drew a parallel between them and ISIS beheading rapist torturers?\n\nWay to alienate voters, Trudeau! Keep it up until 2019!!'
p385
S'7:29 PM - 1 Feb 2018'
p386
tp387
a(S'RESISTANCE is NOT terrorism!\nNO ONE can take away your RIGHT to FIGHT and to NEVER SURRENDER! #FreePalestinepic.twitter.com/CzMwkuJsA1'
p388
S'7:18 PM - 1 Feb 2018'
p389
tp390
a(S"I don't just, you know, randomly draw. Inaaral ko rin ng maigi.pic.twitter.com/ylhnjIROJG"
p391
S'7:08 PM - 1 Feb 2018'
p392
tp393
a(S'Malaysian education: Western countries have misconceptions about Islam being a religion that promotes terrorism and violence. It is not fair to generalise a whole civilisation based on the acts of a few individuals.\n\nAlso Malaysian education: ORANG BARAT ADALAH PEMUJA SYAITAN!!'
p394
S'7:02 PM - 1 Feb 2018'
p395
tp396
a(S'Yo if you know somebody going to Super Bowl show them about G4S security and show all the false flags they have been involved with. This is no joke we got domestic terrorism being carried out on our own soil by goverment CIA'
p397
S'6:59 PM - 1 Feb 2018'
p398
tp399
a(S"FBI investigates:\n1. Terrorism\n2. Counterintelligence \n3. Cyber Crime \n4. Public Corruption\n5. Civil Rights\n6. Organized Crime\n7. White Collar Crime\n8. Violent Crime \n9. Human Trafficking \n10. Child Pornog.\nLet's not throw the credibility baby out w/ the political bathwater."
p400
S'6:37 PM - 1 Feb 2018'
p401
tp402
a(S'Releasing the memo does not jeopardize national security. Starting a phony investigation based on lies, and using the investigation to prevent the President from cooperating with Russia against Isis, jeopardize our national security #ReleaseTheMemo now! @potus'
p403
S'6:31 PM - 1 Feb 2018'
p404
tp405
a(S"Defeating ISIS was too easy. Now he's going to destroy communism."
p406
S'6:21 PM - 1 Feb 2018'
p407
tp408
a(S'The regime in #Iran uses terrorism very strategically to create an international crisis. https://www.youtube.com/watch?v=luOSK2wXHAM&feature=youtu.be\xc2\xa0\xe2\x80\xa6pic.twitter.com/uuhxMwVQ1p'
p409
S'5:42 PM - 1 Feb 2018'
p410
tp411
a(S'.@charliekirk11: "I think Republicans are going to win big in November...You look at the economy. It\'s going wonderful. But, also you look foreign policy wise. ISIS is on the run. They\'re being slaughtered. America is back." pic.twitter.com/bkvB62tkoI'
p412
S'5:26 PM - 1 Feb 2018'
p413
tp414
a(S'Trump said he will wipe ISIS of the map did he first check with John McCain and the CIA pic.twitter.com/CMQlf6eXA6'
p415
S'4:54 PM - 1 Feb 2018'
p416
tp417
a(S'We are not terrorists. Terrorism has been imposed on us. #PashtunRejectStateTerrorism #PashtunLongMarch'
p418
S'4:53 PM - 1 Feb 2018'
p419
tp420
a(S'This President is not dumb. When he equates terrorism with immigration he is indulging in divisive speech. His parents came to this country the same exact way. He has been terrorizing people since his inauguration.He can see who the terrorist are really. pic.twitter.com/LaiN8rFym1'
p421
S'4:47 PM - 1 Feb 2018'
p422
tp423
a(S'On the left is Barin Kobane. A Kurdish warrior who fought against ISIS savagery & liberated Raqqa, the capital of ISIS\xe2\x80\x99 self-declared caliphate. On the right is how the world expressed gratitude to her bravery. pic.twitter.com/OK2NO9b2Wp'
p424
S'4:27 PM - 1 Feb 2018'
p425
tp426
a(S'I. Never Fold \nII. Dont Get Your Hopes Up \nIII. Survive Out The Mud\nIV. Control Your Existence \nV. You Must Lose To Gain \nVI.\nVII. Always Come Back Home'
p427
S'4:15 PM - 1 Feb 2018'
p428
tp429
a(S'Omits his best point about the spending on "reintegrating" ISIS: that when Trudeau promised to take care of "the vets", he didn\'t realize it was to take care of the enemy\'s... https://twitter.com/davidakin/status/959259025043988480\xc2\xa0\xe2\x80\xa6'
p430
S'7:27 PM - 1 Feb 2018'
p431
tp432
a(S'Also Italian WWII fighters fought with their country not against their country. Returning ISIS fighters are traitors and should stand trial as such. @JustinTrudeau wants to hug them and give them a bonus'
p433
S'6:45 PM - 1 Feb 2018'
p434
tp435
a(S'Justin Trudeau is giddy to hold a day of mourning for the victims of a single anti-Muslim terrorist, but he will never acknowledge the presence of Islamic terrorism, which kills thousands per day and keeps millions more in servitude to a creed of warped, psychotic savagery.'
p436
S'6:42 PM - 1 Feb 2018'
p437
tp438
a(S"Italians! Really? They came here and HELPED build up Canada, worked their hands to the bone and refused to take a dime they didn't earn.  I don't think these ISIS fighters could claim that, not one of them !"
p439
S'6:38 PM - 1 Feb 2018'
p440
tp441
a(S'4th question from a man wearing a \xe2\x80\x9cmake America great again\xe2\x80\x9d cap asking about isis and what the pm is doing to keep Canada safe.  #yeg @GlobalEdmonton'
p442
S'6:28 PM - 1 Feb 2018'
p443
tp444
a(S'Defence getting 1.58 % of GDP when we are located facing largest conventional army and another epicentre of terrorism n both nuc power. No other country is challenged more. Interesting to see its impact on geo strategy and diplomacy. #Budget2018'
p445
S'6:20 PM - 1 Feb 2018'
p446
tp447
a(S' and  Defence Ministers meet in Perth with partners from      to discuss the important contribution militaries and defence organisations make to national and regional counter terrorism efforts pic.twitter.com/3be6fG8bCH'
p448
S'6:16 PM - 1 Feb 2018'
p449
tp450
a(S"They didn't even acknowledge the families who lost Loved ones due to illegal aliens. How does one justify not acknowledging those who lost Loved ones? They didn't even cheer ISIS being defeated. They took an oath to protect, defend, &serve the people of the USA yet they boo &hate https://twitter.com/CoreyLMJones/status/959212197405700096\xc2\xa0\xe2\x80\xa6"
p451
S'5:31 PM - 1 Feb 2018'
p452
tp453
a(S'To be clear, US intel chiefs from previous administrations also met with Russian officials to exchange intelligence on terrorism and other shared priorities.'
p454
S'5:25 PM - 1 Feb 2018'
p455
tp456
a(S'I have a young yezidi girl just recently escaped ISIS in hospital with heart problem needs urgent treatment outside of Kurdistan where they don\xe2\x80\x99t have the capability to help cure her ...please can anyone help #TwitterKurds #YazidiPlight #Yezidi #@NadiaMuradBasee #Medical'
p457
S'5:05 PM - 1 Feb 2018'
p458
tp459
a(S'.@charliekirk11: "I think Republicans are going to win big in November...You look at the economy. It\'s going wonderful. But, also you look foreign policy wise. ISIS is on the run. They\'re being slaughtered. America is back." pic.twitter.com/VA3IIlEr2S'
p460
S'5:04 PM - 1 Feb 2018'
p461
tp462
a(S'#ISIS Chief Executioner Lost His Head \xe2\x80\x94 to a British Sniper \nHead shot: SAS sniper kills ISIS decapitation boss with single bullet to the back of his head!\n\nhttps://youtu.be/Xtk_5atPyrg\xc2\xa0 via @YouTubepic.twitter.com/BnxifdHYC5'
p463
S'4:55 PM - 1 Feb 2018'
p464
tp465
a(S'3) Not only you get the chance to be yourself in a country that does not fundamentally embrace your beliefs but DEMAND on top of that , that the voice of those not aligning with your ideology be suppressed! Thx you for showing ur true color\nDaesh or isis or brotherhood cult much?'
p466
S'4:50 PM - 1 Feb 2018'
p467
tp468
a(S'For your fans who think Israel is \xe2\x80\x9ccool\xe2\x80\x9d for deporting non-citizens, just know they\xe2\x80\x99re deporting them to Europe, Canada, and Australia. Another example of off-shoring their problems onto Whites, like Syrian refugees (which they caused thru support of ISIS).'
p469
S'4:40 PM - 1 Feb 2018'
p470
tp471
a(S'Barin\xe2\x80\x99s dead, naked body has been horrifyingly mutilated. Her breasts have been cut off. It is the type of barbaric savagery that she fought against. The catch: this was not the works of ISIS. It was done by the TURKISH state. A NATO member. A US ally.'
p472
S'4:34 PM - 1 Feb 2018'
p473
tp474
a(S'This is outrageous. Some of these prisoners were kids when kidnapped . No charges. No proof. Humiliation and torture. Do you believe you are keeping America safe. No you are creating the biggest army of haters way beyong Isis. Please give these people due process. Fair treatment.'
p475
S'4:31 PM - 1 Feb 2018'
p476
tp477
a(S'Why\xe2\x80\x99s that?  I\xe2\x80\x99m not condoning any sort of terrorism. But ask yourself. Is that the primary problem.  Or a secondary 1. How do you explain the AFD party in Germany forming.  Look at what\xe2\x80\x99s happening in Sweden. France. Italy.'
p478
S'4:12 PM - 1 Feb 2018'
p479
tp480
a(S'Trying to join ISIS sounds like a bad idea.'
p481
S'4:11 PM - 1 Feb 2018'
p482
tp483
a(S'& the Kurds who liberated these ladies from ISIS are  being killed by Turkey\nSecular & inclusive, Erdogan sees them as "Crusader"\n\nToday Barin Kobane was murdered & her body defiled by new ISIS in #Afrin\nPlease #SaveAfrinFromTurkishTerroristspic.twitter.com/SajVibFxk5'
p484
S'4:04 PM - 1 Feb 2018'
p485
tp486
a(S'Do you resist kids from bad neighborhoods having access to better schools?\n\nDo you resist saving thousands of women & children from being raped & tortured by ISIS!\n\nDo you resist running ISIS out of the territory it occupied in Iraq & Syria & giving land back to the people?'
p487
S'4:01 PM - 1 Feb 2018'
p488
tp489
a(S'I love making my mom proud'
p490
S'6:15 PM - 1 Feb 2018'
p491
tp492
a(S'also this one, they ( ypg media channel) deleted the news after they targeted being just like ISIS pic.twitter.com/a3mf7GP6Ar'
p493
S'6:12 PM - 1 Feb 2018'
p494
tp495
a(S'Look at Erykah Badu and Jay Electronica\xe2\x80\x99s daughter  literally the cutestpic.twitter.com/stWkyZvysW'
p496
S'5:49 PM - 1 Feb 2018'
p497
tp498
a(S'JIHADI JOHN IN HELL!\n#IslamicState #IS #ISIS #ISIL #daash #daesh #daeshbags #dawlah #dawlapic.twitter.com/R17rZJtIp7'
p499
S'5:34 PM - 1 Feb 2018'
p500
tp501
a(S'I LOOK AT @NATO THE SAME AS #ISIS AND #AlQaeda ALL THREE ARE  #Turks  TERRORIST WHO KILL #KURDS'
p502
S'5:27 PM - 1 Feb 2018'
p503
tp504
a(S'Obama-era counter-terrorism training purge of "offensive" material.\nReport by Patrick Poole: (PDF document )\nhttp://unconstrainedanalytics.org/wp-content/uploads/2017/02/CT-Training-Purge-w70217.pdf\xc2\xa0\xe2\x80\xa6pic.twitter.com/GQvt7kwn5m'
p505
S'5:27 PM - 1 Feb 2018'
p506
tp507
a(S'It really concerns me that this administration and its supporters repeatedly attack and undermine the FBI who are responsible for protecting us from acts of terrorism. \nThis is NOT putting America first.'
p508
S'5:24 PM - 1 Feb 2018'
p509
tp510
a(S'Even w/o the Russia election con job Trump should be locked up for environmental terrorism alone.\n\nDecades of positive improvement in air & water quality, wildlife conservation and reduced contaminant exposure flushed away for big biz $ in the blink of an eye'
p511
S'5:11 PM - 1 Feb 2018'
p512
tp513
a(S'*Campaign Pledges*\n\nObama:\n\xe2\x80\xa2Close Gitmo\n\xe2\x80\xa2Make healthcare affordable\n\xe2\x80\xa2Reform the criminal justice system\n\nTrump:\n\xe2\x80\xa2Defeat ISIS\n\xe2\x80\xa2Tax reform\n\xe2\x80\xa2Cut out onerous regulation\n\xe2\x80\xa2Make NATO pay their fair share\n\xe2\x80\xa2Declare Jerusalem the capitol of Israel'
p514
S'5:02 PM - 1 Feb 2018'
p515
tp516
a(S"Turkish terrorist soldiers mutilated a kurdish woman's body who fighted before again ISIS\n#Afrin\n#stopAfrinGenocidepic.twitter.com/hWDltP61wx"
p517
S'4:49 PM - 1 Feb 2018'
p518
tp519
a(S'1st Feb 2018 #Listenlive 2 the best in  current & future #RnB #Neosoul #Jazz #Gospel & #Spokenword #newadd 2 #DJNiceness @floradiouk playlist #MixbagofMusic show  Isis Damil @isis_damil Love Purgatory #inthemix http://bit.ly/2b26UkB\xc2\xa0pic.twitter.com/u4eJQtAMf4'
p520
S'4:45 PM - 1 Feb 2018'
p521
tp522
a(S'On #MixbagofMusic show #PlayList2day are @isis_damil @Ajiamusic @MKmajor @birthdayboy5000 @trish @kardanski @ANDROMACHE_sl @SARAHANGELSTYLE @thisisminarose @sanuraharris @whoisumi @jdanielleharris @Kymlacolemusic @livmeanspic.twitter.com/4foU6svwWh'
p523
S'4:45 PM - 1 Feb 2018'
p524
tp525
a(S'@POTUS you stood in front of the American people at the #SOTU & took credit  for \xe2\x80\x9cextinguishing ISIS from the face of the earth.\xe2\x80\x9d In reality, you did nothing. It was the Kurdish fighters on the ground, including Barin, that destroyed ISIS.'
p526
S'4:44 PM - 1 Feb 2018'
p527
tp528
a(S'I say this every few months, but if you REALLY wanna understand racism and the many layers of it, PLEASE read The Isis Papers by Dr. Frances Cress Welsing.'
p529
S'4:43 PM - 1 Feb 2018'
p530
tp531
a(S'why do random weird white people always have "anti ISIS" in their bio? are they just making sure we dont mistake them for being "pro ISIS"? are they actually pro ISIS and trying to throw us off their trail? are they constantly being trolled by ISIS and want to give ample warning?'
p532
S'4:42 PM - 1 Feb 2018'
p533
tp534
a(S'Angry Today! So we let Russian Spies, 3 of them, into our Country to collaborate "Terrorism" strategies?! Oh please, it\'s called Treason. More Conspiring against the USA for Bob Mueller to investigate. Growing impatient, what will remain of Our Country?!'
p535
S'4:33 PM - 1 Feb 2018'
p536
tp537
a(S"'#Qatar funds terrorism, #Israel is a righteous democracy that promotes human rights': @RabbiShmuley accuses @AlanDersh of 'shilling' for the Gulf kingdom |   @DavidShuster & @TalHeinrichpic.twitter.com/2GmqyO2CeY"
p538
S'4:22 PM - 1 Feb 2018'
p539
tp540
a(S'If an ISIS terrorist had committed a terror attack and then named someone in court to have inspired them to commit these this attack that person would most DEFINITELY not be sitting on @BBCNewsnight mouthing off to a journalist. But alas, Tommy Robinson is a white male.'
p541
S'4:19 PM - 1 Feb 2018'
p542
tp543
a(S'I look at the attitudes of Trump voters, the rise of absolutist attitudes on both the right and left in this country, the FEAR that seems to drive it all, keeping us from being the moral nation that helps the world & think... damn. This is what it looks like when terrorism works.'
p544
S'4:12 PM - 1 Feb 2018'
p545
tp546
a(S'Wow a school that supports "terrorism"'
p547
S'4:11 PM - 1 Feb 2018'
p548
tp549
a(S'Meagan just dosent like Jason ! He can sing and that\xe2\x80\x99s facts !!  #TheFourOnFox'
p550
S'5:22 PM - 1 Feb 2018'
p551
tp552
a(S"A Canadian is a Canadian until you support ISIS and openly sympathize with terrorists then you're an enemy of the state and should be arrested and charged with TREASON! #TrudeauForTreason #TrudeauMustGo2018pic.twitter.com/3Ho3qV2MiR"
p553
S'5:17 PM - 1 Feb 2018'
p554
tp555
a(S'BBC should apply the ISIS standard to Stephen Yaxley-Lennon and refer to him only as "so-called Tommy Robinson"'
p556
S'5:14 PM - 1 Feb 2018'
p557
tp558
a(S'@StockholmCF @TurkeyDeeply @TurkeyPurge @TurkeyUntold @TurkishMinuteTM So while the YPG & PKK are ideologically linked, the Turkish government has never been able to identify a single act of terrorism the YPG has ever committed, not in Turkey, not in Syria, nor anywhere else.'
p559
S'5:02 PM - 1 Feb 2018'
p560
tp561
a(S'He is an ISIS supporter and a traitor to our people.  His waning years should be spent riding off into the sunset of a prison chow line and mopping floors for a nickel a day.'
p562
S'4:57 PM - 1 Feb 2018'
p563
tp564
a(S'Now, while @POTUS gets applauded, the real fighters that protected the world from ISIS, are having their breasts cut off by Turkish military forces. I hang my head in shame. As a human. As a woman. As an American. @IvankaTrump @statedeptspox @FLOTUS'
p565
S'4:54 PM - 1 Feb 2018'
p566
tp567
a(S"Selig and Burkman were raising money for Gates Legal Funds, Selig was murdered in the Hotel in Afghanistan by ISIS two weeks ago. Burkman didn't even know Selig was going to be in Afghanistan. Prior to that Burkman was attacked in his driveway. #SethRich"
p568
S'4:48 PM - 1 Feb 2018'
p569
tp570
a(S"The #BBC selling us #FarRight terrorism as what we should all be frightened of, when EVERY statistic says otherwise.\n\nThe vile left normalise murderous #jihadis and actual #HatePreachers while slandering @TRobinsonNewEra because they're seditious, appeasing, cowards.https://twitter.com/BBCNewsnight/status/959197070493040642\xc2\xa0\xe2\x80\xa6"
p571
S'4:40 PM - 1 Feb 2018'
p572
tp573
a(S'Trust is EVERYTHING with me. If you ruin it, you\xe2\x80\x99re never gaining it back'
p574
S'4:37 PM - 1 Feb 2018'
p575
tp576
a(S'When they do it, it\xe2\x80\x99s terrorism. When we do it, it\xe2\x80\x99s \xe2\x80\x9clow-intensity warfare\xe2\x80\x9d\n\nis there anything more America than this kind of thinking pic.twitter.com/jMri6nUkrG'
p577
S'4:35 PM - 1 Feb 2018'
p578
tp579
a(S"The Supreme Court of the Maldives also lifted exiled former president Mohamed Nasheed's terrorism conviction \nhttps://www.yahoo.com/news/maldives-court-orders-release-political-prisoners-185624038.html\xc2\xa0\xe2\x80\xa6"
p580
S'4:33 PM - 1 Feb 2018'
p581
tp582
a(S"This is what terrorism in America looks like!\nVermont is proudly flying the flag of a terrorist orginazation that takes pleasure in murdering police!\n\nWhat's next for Vermont? An ISIS flag? Maybe a Swastika? https://twitter.com/selene_colburn/status/959086352947204096\xc2\xa0\xe2\x80\xa6"
p583
S'4:31 PM - 1 Feb 2018'
p584
tp585
a(S'In prison for helping minorities to own homes, protecting veterans from shoddy healthcare, beating ISIS, reducing unemployment, protecting working family investments, simplifying the tax code & letting folks keep more of their earnings? Why do you hate #America so much?'
p586
S'4:28 PM - 1 Feb 2018'
p587
tp588
a(S"Showing up with a decapitated (likeness) of POTUS' head dripping blood can be interpreted as an ISIS type call to violence against Trump. Such an act should not lead to popularity but rather to jail  https://twitter.com/education4libs/status/958943802684686336\xc2\xa0\xe2\x80\xa6"
p589
S'4:23 PM - 1 Feb 2018'
p590
tp591
a(S'i still think that ISIS should create a rap group Iraq-A-Fella and diss the US'
p592
S'4:13 PM - 1 Feb 2018'
p593
tp594
a(S'No it is not terrorism. Israel should be a shame if it\xe2\x80\x99s out for treating a teenagers girl like that.'
p595
S'4:13 PM - 1 Feb 2018'
p596
tp597
a(S'\xe2\x80\x98murder\xe2\x80\x99.\nIf it sounds like terrorism and it looks like terrorism, it\xe2\x80\x99s bloody terrorism. https://twitter.com/pa/status/959092462244507653\xc2\xa0\xe2\x80\xa6'
p598
S'4:10 PM - 1 Feb 2018'
p599
tp600
a(S'Do you resist efforts to prevent nuclear material being sold to 2 regimes who support terrorism & threaten USA daily?\n\nDo you resist making sure our veterans have access to quality health care?\n\nDo you resist people getting raises?\n\nDo you resist better benefits for employees?'
p601
S'4:09 PM - 1 Feb 2018'
p602
tp603
a(S'I don\'t know anything about the "black queen", all I see is a great American showing respect for the Leader of the Free World. '
p604
S'4:00 PM - 1 Feb 2018'
p605
tp606
a(S'My favorite thing about Degrassi: Next Class is that the show writers were like, "Hmmm...what\'s relatable to Canadian teens? Oh yeah, ISIS!"'
p607
S'4:00 PM - 1 Feb 2018'
p608
tp609
a(S'Whats the difference between the FBI and ISIS............ Only the lettering'
p610
S'4:39 PM - 1 Feb 2018'
p611
tp612
a(S"Canada wants to hold up rule of law & freedom of speech in Cambodia\n\nWhile ignoring CDA's anti-terrorism laws by NOT SECURING OUR BORDERS & arresting ISIS terrorists\n\n& imposing speech restrictions by enforcing gender pronouns & using undefined word 'islamophobia' in  #m103https://twitter.com/canadafp/status/959184339740381184\xc2\xa0\xe2\x80\xa6"
p613
S'4:36 PM - 1 Feb 2018'
p614
tp615
a(S'Professor Claire Smith from @Flinders University will now discuss The Impact of Cultural Values on Socially Mediated #Terrorism #HeritageUnderFire'
p616
S'4:33 PM - 1 Feb 2018'
p617
tp618
a(S'Can\xe2\x80\x99t relate'
p619
S'4:32 PM - 1 Feb 2018'
p620
tp621
a(S'Not today ISIS pic.twitter.com/9pc0Y011D2'
p622
S'4:30 PM - 1 Feb 2018'
p623
tp624
a(S"We READ Hillary's DKIM verified emails.  Unless she's Russian, I'm not under Russian Influence. \n\nI don't support terrorists or people like Hillary, that fund them!\n\nFunding and weaponizing ISIS has left 460k Syrians DEAD!  Anyone supporting that needs to seek professional help. pic.twitter.com/sqn1D9z5zk"
p625
S'4:29 PM - 1 Feb 2018'
p626
tp627
a(S'It might have had something to do with the 521 innocent children killed by coalition forces in Syria in 2017, which is more than ISIS or Russia by the way. Just a thought '
p628
S'4:26 PM - 1 Feb 2018'
p629
tp630
a(S'.@RT_Erdogan is not America\xe2\x80\x99s friend often refusing to help the #US fight #ISIS while the Kurds have been a great ally to the #US in the fight against #ISIS. https://www.nytimes.com/2018/01/31/opinion/editorials/us-allies-isis-turkey.html\xc2\xa0\xe2\x80\xa6'
p631
S'4:26 PM - 1 Feb 2018'
p632
tp633
a(S'You\xe2\x80\x99re joking, of course. The \xe2\x9d\x9dSDF\xe2\x9d\x9e in #Manbij, #Raqqa, #Hasakah and #Deir_ez_Zor east of the River has recently not been killing #ISIS so much as RECRUITING and TRAINING them. In effect, the #UShitholes_of_A are using their #ISISDF boots on the ground to fight the Syrian army.'
p634
S'4:23 PM - 1 Feb 2018'
p635
tp636
a(S'As a registered Democrat, I can honestly say the Dems suck! I will never vote Democrat again.'
p637
S'4:21 PM - 1 Feb 2018'
p638
tp639
a(S'Sure! Can\xe2\x80\x99t be worse than what you and your buddy Obama did against us all. You should be in prison together with Obama. #ISIS #IranDeal #FastandFurious #Benghazi #Extortion17 #FISAabuse #Collusionhttps://twitter.com/ericholder/status/958757841116057600\xc2\xa0\xe2\x80\xa6'
p640
S'4:18 PM - 1 Feb 2018'
p641
tp642
a(S'\xe2\x80\x98Gunman who pledged ISIS allegiance convicted in 2016 shooting of Philly cop\xe2\x80\x99 http://www.philly.com/philly/news/crime/isis-inspired-gunman-guilty-shooting-philadelphia-cop-jesse-hartnett-20180201.html\xc2\xa0\xe2\x80\xa6'
p643
S'4:18 PM - 1 Feb 2018'
p644
tp645
a(S"A comparison between tbe Teutonic Knights' theocratic terrorist state and ISIS is particularly compelling."
p646
S'4:15 PM - 1 Feb 2018'
p647
tp648
a(S"The problem of course is that laws aren't fair, they're racist and classist, and the unofficial role of law enforcement is terrorism, when it comes marginalized groups. Voila, BLM movement."
p649
S'4:13 PM - 1 Feb 2018'
p650
tp651
a(S'2 Muslim Jihadis from Murshidabad arrested for planting explosives in Bodhgaya temple and spreading Terrorism\n\nBoth were working for Jihadi organisation Jamatul Mujahidin of Bangladesh\n\nhttp://indianexpress.com/article/cities/kolkata/jmb-arrest-stf-bodh-gaya-blast-nia-kolkata-police-5048030/\xc2\xa0\xe2\x80\xa6'
p652
S'4:11 PM - 1 Feb 2018'
p653
tp654
a(S"#Venezuela #regime is killing people by hunger, lack of medicine, blocking humanitarian aid, assassination. Maduro's regime is extremely oppressive and is involved in #Terrorism #DrugTrafficking #ArmsTrafficking #Intervenci\xc3\xb3nHumanitariaVzlaYA WE NEED #HumanitarianInterventionNow"
p655
S'4:06 PM - 1 Feb 2018'
p656
tp657
a(S'So now schools celebrate terrorist organizations what month will they be flying the Isis flag?'
p658
S'4:00 PM - 1 Feb 2018'
p659
tp660
a(S'Kurdish women killing ISIS\nhow I admire them pic.twitter.com/kBXg3F1QS2'
p661
S'4:00 PM - 1 Feb 2018'
p662
tp663
a(S'Ok. This account is a repository for ISIS media. Same user, William something and other accounts.\n\nhttps://twitter.com/intent/user?user_id=946227542813536257\xc2\xa0\xe2\x80\xa6\n\nThis is no Doctor\n\nhttps://twitter.com/intent/user?user_id=946213921484140544\xc2\xa0\xe2\x80\xa6'
p664
S'4:00 PM - 1 Feb 2018'
p665
tp666
a(S'Yes we did, took 10 years of battling with ECJ to extradite Abu Hamza to USA to face terrorism charges.'
p667
S'4:22 PM - 1 Feb 2018'
p668
tp669
a(S'I\xe2\x80\x99m so done with my family. Blood ain\xe2\x80\x99t shit.'
p670
S'4:21 PM - 1 Feb 2018'
p671
tp672
a(S'Some good fellas looking to kick some ISIS ass. pic.twitter.com/fjONWxOs1q'
p673
S'4:18 PM - 1 Feb 2018'
p674
tp675
a(S'Feds add gun charges to man facing terrorism charges in Nebraska Amtrak incident - Lincoln Journal Star http://dlvr.it/QDdbww\xc2\xa0 #PreventTerrorismpic.twitter.com/FWxqqtVOhd'
p676
S'4:15 PM - 1 Feb 2018'
p677
tp678
a(S"(ISIS,GLOPAL SERVERS,NAKENAMED AS BLKHAWKDOWN,)\nDROBDOWN NOW (500SERVER'S=500TLCMS CODES\xc2\xa4\n@DefenceHQ\n@BritishArmy\n@DefenceOps\n@WorldBank"
p679
S'4:12 PM - 1 Feb 2018'
p680
tp681
a(S'#Taliban exposed in great details by Younus AlGohar https://goo.gl/RxAHHu\xc2\xa0 Videos mostly in #Urdu some with #English subtitles #Afghanistan #Kabul #Kandahar #ISIS #Daesh #IslamicState #Pakistan #India #Bangladesh #SriLanka #Iran http://www.goharshahi.us\xc2\xa0http://bit.ly/2j1nW9v\xc2\xa0'
p682
S'4:11 PM - 1 Feb 2018'
p683
tp684
a(S'Top Secret White House Convos? Like Trump revealing the identity of an Israeli spy embedded within ISIS? Or whatever was discussed with Kislyak & Labrov that only TASS was privy to? I can\'t recall any "top secret" leaked WH convos.'
p685
S'4:10 PM - 1 Feb 2018'
p686
tp687
a(S'y\xe2\x80\x99all my mom really just called the state police department and asked to speak with ISIS'
p688
S'4:09 PM - 1 Feb 2018'
p689
tp690
a(S'Might as well run up the ISIS flag too while you are at it.'
p691
S'4:05 PM - 1 Feb 2018'
p692
tp693
a(S"When you're so ignorant you equate femism to terrorism. A prime example of why we need feminism. https://twitter.com/Haqiqatjou/status/957749808701345797\xc2\xa0\xe2\x80\xa6"
p694
S'4:05 PM - 1 Feb 2018'
p695
tp696
a(S'Melbourne nurse faces trial accused of working in Syria with IS, Chechen rebels http://dlvr.it/QDdYR1\xc2\xa0 #security #terrorism pic.twitter.com/me2AsehM4R'
p697
S'4:04 PM - 1 Feb 2018'
p698
tp699
a(S'2 more pals\n\nhttps://twitter.com/intent/user?user_id=954477931304243200\xc2\xa0\xe2\x80\xa6\nhttps://twitter.com/intent/user?user_id=959093064592773121\xc2\xa0\xe2\x80\xa6'
p700
S'4:02 PM - 1 Feb 2018'
p701
tp702
a(S"But that would bring the racism and xenophobia of British tabloids, primarily Evening Standard, Murdoch's The Sun and Daily Mail into the spotlight. Remember, billionaire-owned media companies are always blameless. \n\nEven when they directly inspire terrorism and violence. https://twitter.com/MrBrendanCox/status/959106766205325314\xc2\xa0\xe2\x80\xa6"
p703
S'4:02 PM - 1 Feb 2018'
p704
tp705
a(S'Pakhtunwali is the religion of Awghani Fascism. It warrants violence and killing of innocent people. To end terrorism, USA should purge Awghan fascists from Arg in Kabul.'
p706
S'4:01 PM - 1 Feb 2018'
p707
tp708
a(S"(Obviously I'm super glad they tackled Islamophobia but never would I have imagined there would be a Degrassi ISIS storyline.)"
p709
S'4:01 PM - 1 Feb 2018'
p710
tp711
a(S'Executive Order to Keep #Guantanamo Bay Open Is Trump\xe2\x80\x99s Gift to ISIS https://buff.ly/2E6Vjkc\xc2\xa0 #gitmopic.twitter.com/v4fQjQ0oL8'
p712
S'4:05 PM - 1 Feb 2018'
p713
tp714
a(S'#Trump #Censorship on @Youtube #youtube run by #Israel is #ISIS is #Mossad #CIA why shut me down so much, am I such a #Threat to #Elite @realDonaldTrump & his #Zionist #Friends? http://po.st/BBttl4\xc2\xa0 via @po_st'
p715
S'4:05 PM - 1 Feb 2018'
p716
tp717
a(S'To end terrorism, people of Afghanistan and the USA government should purge Ghani and his fascist circles from Arg Kabul.'
p718
S'4:04 PM - 1 Feb 2018'
p719
tp720
a(S'Yeah she did it to stop being raped by Turks and ISIS. If she was captured they would have raped her and bahead her. Just like today one of the female fighter YPJ was raped and her boobs were cut of by Turks'
p721
S'4:03 PM - 1 Feb 2018'
p722
tp723
a(S'SIMILARITIES BETWEEN TORIES & ISIS, BOTH RELY ON PROPAGATION OF FEAR!  #?ingToryMotives #trust'
p724
S'4:03 PM - 1 Feb 2018'
p725
tp726
a(S'lois giffin nude isis nude pic.twitter.com/huAOLbSLdp'
p727
S'4:03 PM - 1 Feb 2018'
p728
tp729
a(S'#Interpol circulates list of suspected #Tunisian #IslamicState #Terrorists believed to be in #Italyhttps://www.theguardian.com/world/2018/jan/31/interpol-circulates-list-of-suspected-isis-fighters-believed-to-be-in-italy?CMP=share_btn_tw\xc2\xa0\xe2\x80\xa6'
p730
S'4:03 PM - 1 Feb 2018'
p731
tp732
a(S'There is no offence of "terrorism"...'
p733
S'4:03 PM - 1 Feb 2018'
p734
tp735
a(S'I have come to the conclusion that all these domestic killings are nothing more than #second amendment terrorism'
p736
S'4:02 PM - 1 Feb 2018'
p737
tp738
a(S'well i was craving bdubs at 10am'
p739
S'4:02 PM - 1 Feb 2018'
p740
tp741
a(S'Planning, prevention and strong systems are needed for global health security. \xe2\x80\x9cLike terrorism, you can\xe2\x80\x99t fight [dangerous pathogens] just within our borders. You\xe2\x80\x99ve got to fight epidemic diseases where they emerge.\xe2\x80\x9d - @DrFriedenhttps://twitter.com/DrFrieden/status/959168181058326528\xc2\xa0\xe2\x80\xa6'
p742
S'4:02 PM - 1 Feb 2018'
p743
tp744
a(S'First #BlackLivesMatter flag next month they\xe2\x80\x99ll fly the #isis flag to show solidarity with Muslims https://twitter.com/abbymynbc5/status/959072238699012096\xc2\xa0\xe2\x80\xa6'
p745
S'4:02 PM - 1 Feb 2018'
p746
tp747
a(S"I might have missed this 'terrorism', I expect I was too distracted by children being nail bombed by the people he's speaking against."
p748
S'4:02 PM - 1 Feb 2018'
p749
tp750
a(S"Did you explain how you're giving more money to people walking over our boarder illegally than them? How about almost 11 million to a convicted terrorist? How about Isis fighters roaming our streets?"
p751
S'4:01 PM - 1 Feb 2018'
p752
tp753
a(S'"... in the pursuit of political aims"\n\na lot of this whinging that takes place after some lone white gunman slaughters people is based on the fact that they weren\'t labelled terrorists, with a complete ignorance as to what constitutes terrorism. pic.twitter.com/U2pRCHEfS1'
p754
S'4:01 PM - 1 Feb 2018'
p755
tp756
a(S"They didn't suffer from our religion. Islam 100% forbids killing any innocent person. They suffered from these vile extremists like ISIS who misinterpret and scrutinize certain Quran verses to fit their own terrorists ideologies. Similar to the way Tommy misinterprets it. pic.twitter.com/F3efGXK0Iy"
p757
S'4:01 PM - 1 Feb 2018'
p758
tp759
a(S"#Kurdish people always sacrifices in battles that is not their, they fought #ISIS 4 american &West & wasn't their fight, today fighting #Turkey 4 benifit of #Syrian regime & fought #Saddam 4  benifits of #Iran & #US , tomorrow they will fight #Iranian regime 4 benifit of #Turkey"
p760
S'4:01 PM - 1 Feb 2018'
p761
tp762
a(S'Genuinely don\xe2\x80\x99t understand why racist hate crime murderer isn\xe2\x80\x99t a strong enough description?\n\nWeird attempt to widen the definition of terrorism. https://twitter.com/Kevin_Maguire/status/959094486147182593\xc2\xa0\xe2\x80\xa6'
p763
S'4:00 PM - 1 Feb 2018'
p764
tp765
a(S'US is Redeploying ISIS to Afghanistan to Justify Continued Presence in Region - Iranian MP http://en.farsnews.com/newstext.aspx?nn=13961111000860\xc2\xa0\xe2\x80\xa6'
p766
S'4:00 PM - 1 Feb 2018'
p767
tp768
a(S'Can you even give me a reason why Russia is worst than Iran ? Cause last I check Russia was also fighting Isis as well while Iran is one of the biggest sponsors of Terrorism Worldwide yet that didn\xe2\x80\x99t stop OBUNGO from lifting Nuclear Sanctions and giving them Billions in Cash pic.twitter.com/P7YBJSynyM'
p769
S'4:00 PM - 1 Feb 2018'
p770
tp771
a(S'\xc2\xa1\xc2\xbfALGUIEN RECUERDA EL COMERCIAL DE ANDA?! \xc2\xa1\xc2\xbfALGUIEN?!'
p772
S'4:02 PM - 1 Feb 2018'
p773
tp774
a(S'YOU HAVE GOT TO BE KIDDING!!!!  . White Evangelicals spreading doctrine of domestic terrorism, pedophilia, rape, theft and weaponizing false info to further commit theft of resources just to name a few things!!! '
p775
S'4:02 PM - 1 Feb 2018'
p776
tp777
a(S'"The reporter who broke the story of the terrorism charges on Thursday evening, Lori Pilger of the Lincoln Journal Star, told HuffPost that she spotted the unsealed case when checking the federal court docket online." \nLOCAL NEWS REPORTING, FOLKS. https://www.huffingtonpost.com/entry/jeff-sessions-domestic-terrorism-white-supremacist_us_5a510cc2e4b01e1a4b157ae9?ncid=engmodushpmg00000004\xc2\xa0\xe2\x80\xa6'
p778
S'4:02 PM - 1 Feb 2018'
p779
tp780
a(S'Turks are so desptret to make up lies so they can gain support but your wasting your time the world knows ISIS was founded by Turkey'
p781
S'4:02 PM - 1 Feb 2018'
p782
tp783
a(S'Obama & Hillary worked with ISIS & Al Queda to take out Gahdaffi & tried to take down Syria. Both bad moves. https://twitter.com/NewsHour/status/959209217969160192\xc2\xa0\xe2\x80\xa6'
p784
S'4:02 PM - 1 Feb 2018'
p785
tp786
a(S'I liked a @YouTube video http://youtu.be/bSBwMzyBJAQ?a\xc2\xa0 Smashing 50,000 Orbeez!'
p787
S'4:01 PM - 1 Feb 2018'
p788
tp789
a(S"I have already clearly stated that if I ever get married it will be to another Homosexual man. If you are trying to make me think of a female instead just don't bother talking to me. #EIKK #HIKK #PIotGIR My identity is not for sale or a terrorism game show prize."
p790
S'4:01 PM - 1 Feb 2018'
p791
tp792
a(S'#BesariaACupidoSi fuera real y me trajera a el amor de mi vida'
p793
S'4:01 PM - 1 Feb 2018'
p794
tp795
a(S'In combination , the 12 degrees of perception = True reality. It\xe2\x80\x99s the place where man knows he is god, and can appropriately communicate to men. Examples: Jesus, Buddha, Isis , Moses, Muhammad'
p796
S'4:01 PM - 1 Feb 2018'
p797
tp798
a(S'The Tories are selling weapons to the worlds biggest sponsors of terrorism who in turn arm ISIS an al qaeda . I cant wait for your tweet on that subject.'
p799
S'4:01 PM - 1 Feb 2018'
p800
tp801
a(S'Me arrebataste el cielo y lo adornaste!'
p802
S'4:01 PM - 1 Feb 2018'
p803
tp804
a(S'Yet not one terrorism related crime conviction #DarrenOsborne https://twitter.com/lizziedearden/status/959211503499886594\xc2\xa0\xe2\x80\xa6'
p805
S'4:01 PM - 1 Feb 2018'
p806
tp807
a(S'Did he actually say a 16year old girl slapping an armoured soldier holding an AK47 is terrorism? After her teenage cousin was shot point blank with rubber bullet which was lodged in his head. I think he did...#ahedtamini #israelhttps://twitter.com/bowenbbc/status/958840720307228672\xc2\xa0\xe2\x80\xa6'
p808
S'4:00 PM - 1 Feb 2018'
p809
tp810
a(S'pic.twitter.com/AR4W1ibIvk'
p811
S'4:00 PM - 1 Feb 2018'
p812
tp813
a(S'Its two completely different forms if you look carefully... We have nothing against your people. We are protecting Christians from ISIS zombies here.'
p814
S'4:00 PM - 1 Feb 2018'
p815
tp816
a(S"The vast majority of Muslims are in denial. Islamic terrorists, ISIS etc. don't consider the vast majority to be Muslims and will destroy them too. We're ALL in danger while hate preachers and Imams routinely rule mosques and faith schools in Britain."
p817
S'4:00 PM - 1 Feb 2018'
p818
tp819
a(S'One step away from raising the ISIS flag.\n\nBlack Lives Matter flag flies over Vermont school despite backlash http://fxn.ws/2DTbySG\xc2\xa0 #FoxNews'
p820
S'4:00 PM - 1 Feb 2018'
p821
tp822
a(S'Blowback: How ISIS became the result of the US invasion of Iraq https://www.sott.net/article/376048-Blowback-How-ISIS-became-the-result-of-the-US-invasion-of-Iraq\xc2\xa0\xe2\x80\xa6'
p823
S'4:00 PM - 1 Feb 2018'
p824
tp825
a(S'Targeted #ISIS accounts\nhttps://twitter.com/intent/user?user_id=958401553475473409\xc2\xa0\xe2\x80\xa6\nhttps://twitter.com/intent/user?user_id=958400752602484737\xc2\xa0\xe2\x80\xa6\nhttps://twitter.com/intent/user?user_id=958395574377680897\xc2\xa0\xe2\x80\xa6\n#targets #iceisis #opiceisis'
p826
S'4:00 PM - 1 Feb 2018'
p827
tp828
a(S'Tratamiento para ni\xc3\xb1os con TDAH-hiperactividad.\nPsic\xc3\xb3loga Isis Estrada, especializada en Espa\xc3\xb1a.\nColonia Roma, #CDMX\nhttp://psicologa-df.weebly.com/hiperactividad-y-deacuteficit-de-atencioacuten-tratamiento-con-psicoterapia-y-sin-medicamentos.html\xc2\xa0\xe2\x80\xa6'
p829
S'4:00 PM - 1 Feb 2018'
p830
tp831
a(S'Me gustar\xc3\xada dormir todo el dia hasta volver a la normalidad'
p832
S'4:00 PM - 1 Feb 2018'
p833
tp834
a(S'Seria meu sonho ver a minha filha dan\xc3\xa7ando peek a boo??????https://twitter.com/eunhyuckul/status/959213833272397825\xc2\xa0\xe2\x80\xa6'
p835
S'4:00 PM - 1 Feb 2018'
p836
tp837
a(S'Voy princesa'
p838
S'4:00 PM - 1 Feb 2018'
p839
tp840
a(S'Targeted #ISIS accounts\nhttps://twitter.com/intent/user?user_id=958448752011939840\xc2\xa0\xe2\x80\xa6\nhttps://twitter.com/intent/user?user_id=958411128987635713\xc2\xa0\xe2\x80\xa6\nhttps://twitter.com/intent/user?user_id=958409669348864001\xc2\xa0\xe2\x80\xa6\n#targets #iceisis #opiceisis'
p841
S'4:00 PM - 1 Feb 2018'
p842
tp843
a.