(lp0
(S'Iran spends almost a billion dollars a year sponsoring terrorism in Lebanon, Israel and West Bank/Gaza.  This blood money only increases violence and does nothing to help the Palestinian people.'
p1
S'10:39 AM - 4 Feb 2018'
p2
tp3
a(S"#Idlib tonight.\nSons mourn their fathers.\nFathers their sones.\n#Putin's terror is as bad as the one from #ISIS and #AlQaeda.\nWith only one major difference: #Putin kills 10 times as many civilians per month.\n#Syriapic.twitter.com/KTsqRCftJi"
p4
S'1:28 PM - 4 Feb 2018'
p5
tp6
a(S'Trump Attacks the FBI as \xe2\x80\x98corrupt\xe2\x80\x99 for investigating him.\n\nThe FBI wasn\xe2\x80\x99t \xe2\x80\x9ccorrupt\xe2\x80\x9d when they foiled an ISIS-inspired terrorist attack in San Fransisco last year\n\nThe FBI wasn\xe2\x80\x99t \xe2\x80\x9ccorrupt\xe2\x80\x9d when they foiled an Al-qaeda-inspired subway attack in NYC/NJ in 2006\n\nWAKE UP America!!'
p7
S'9:40 AM - 4 Feb 2018'
p8
tp9
a(S'Trudeau Logic: \n\nTwo Canadians leave Canada, one with the Armed Forces, the other to join ISIS. The Trudeau liberals cut support for the soldier and created a new program to welcome the radical ISIS fighter.'
p10
S'3:00 PM - 4 Feb 2018'
p11
tp12
a(S'Liberals be like..\n\nGenocide: normal\nState sponsored terrorism: normal\nRapist president: normal (and printed on currency)\nWhite nationalist heroes: normal\nDemocrat-enabled mass deportation: normal\nWar crimes: normal\nRigging foreign elections: normal\n\nTrump: NOT NORMAL!!!!'
p13
S'10:59 AM - 4 Feb 2018'
p14
tp15
a(S'.@charliekirk11: "I think Republicans are going to win big in November...You look at the economy. It\'s going wonderful. But, also you look foreign policy wise. ISIS is on the run. They\'re being slaughtered. America is back." pic.twitter.com/RCa3ZHQILP'
p16
S'7:30 AM - 4 Feb 2018'
p17
tp18
a(S'This is how #JihadiJustin justified doing nothing against ISIS\n#cdnpolipic.twitter.com/0S81Us8tBI'
p19
S'10:29 AM - 4 Feb 2018'
p20
tp21
a(S'For what reason did Barry Soetoro change his name to Barack Hussein Obama?\nAnd why did he then aid Iran, ISIS, Hezbollah, & CAIR, and help unvettable immigrants enter USA?\nAnd why did he abhor Israel?\nO lied about EVERYTHING.\nInvestigate this fraud down to his cells. pic.twitter.com/dU7NOoHIrk'
p22
S'6:30 AM - 4 Feb 2018'
p23
tp24
a(S'Real feminism is risking arrest and torture for removing your hijab in public.\n\nReal feminism is strapping on a machine gun to kick some ISIS ass.\n\nNot rolling around in a basement in your sweaty underpants in an east London hipster enclave.\n\nhttps://www.youtube.com/watch?v=ocs5O2Gu7BU\xc2\xa0\xe2\x80\xa6'
p25
S'2:21 PM - 4 Feb 2018'
p26
tp27
a(S"8 Misconceptions about Islam:\n\n1) Muslims are Arabs\n2) Muslims hate Jesus\n3) Children have no rights\n4) Islam is intolerable to other religions\n5) Jihad is terrorism\n6) Muslims don't believe in Mary Mother of Jesus\n7) Women have no rights\n8) Islam was spread by the sword"
p28
S'2:03 PM - 4 Feb 2018'
p29
tp30
a(S'Supporting ISIS is not allowed on Twitter, but supporting war criminal regimes that destroyed far more lives than ISIS did is not only allowed, they get verified accounts. This is our world. This is how ugly statism is.'
p31
S'3:46 AM - 4 Feb 2018'
p32
tp33
a(S'Reminder: Back when he was FBI Director, Mueller worked w/ Islamist orgs \xe2\x80\x94 including ISNA & CAIR (unindicted co-conspirators in the HolyLandFoundation terror case) \xe2\x80\x94 to purge the FBI\'s anti-terror training manuals of material deemed "offensive" to Muslims.http://jwatch.us/N1QLHJ\xc2\xa0'
p34
S'7:07 AM - 4 Feb 2018'
p35
tp36
a(S'RETWEET: This week @JustinTrudeau was asked about his ISIS reintegration policy. Trudeau defended his ongoing reintegration of ISIS supporters by comparing them to Italian immigrants. Has he lost mind?\n\nRETWEET to let Trudeau know you don\xe2\x80\x99t support ISIS reintegration. pic.twitter.com/rJ8d03cgeD'
p37
S'3:42 PM - 4 Feb 2018'
p38
tp39
a(S'This FISA Court was established to oversee wiretapping of FOREIGNERS in America that were suspected of terrorism.\nTrump is not a terrorist, nor is he a foreigner.\nSo why did you grant the warrant, Obama-appointed FISA Judge Rudolph Contreras? pic.twitter.com/KtVSq0tE1i'
p40
S'8:48 AM - 4 Feb 2018'
p41
tp42
a(S"Unfortunately, it's the ugly truth, do you know that #ISIS are relying on fatwas of major Sunni scholars that allows them to kill non-muslims and rape women, the problem is they are considered as moderate muslims! Do you want some names? \n#Islamophobicpic.twitter.com/BF5f2ZFOzX"
p43
S'12:46 PM - 4 Feb 2018'
p44
tp45
a(S'In 1 yr the Trump Presidency has destroyed ISIS, grown economy, created jobs, reduced taxes, increased wages, grown retirement accounts, passed pipelines, got out of TPP & Paris Accord, exposed corruption at the FBI & DOJ & exposed media bias. Imagine 7 more years! #SundayMorning'
p46
S'4:29 AM - 4 Feb 2018'
p47
tp48
a(S'Pakistan will have to push the Durand line westwards.....capture the cities of Asmar, Jalalabad, Khost, Gardez & Kandhar & annex the Wakahn strip.....\nThis is the only way to secure our borders from ISIS/TTP being created inside Afg by RAW/CIA/NDS. \nDirty wars need brutal replies'
p49
S'5:21 AM - 4 Feb 2018'
p50
tp51
a(S'Ukrainian \xe2\x80\x9cnationalists\xe2\x80\x9d linked to Svoboda party set St. Vladimir Orthodox Church in Lvov on fire, per official site. What\xe2\x80\x99s the difference between them and ISIS again? \n\nhttp://upc.lviv.ua/novini/novini-eparkhiji/772-vnochi-goriv-khram-sv-rivnoapostolnogo-knyazya-volodimira-v-mikrorajoni-sikhiv\xc2\xa0\xe2\x80\xa6pic.twitter.com/E8ZzIkM7jp'
p52
S'12:25 PM - 4 Feb 2018'
p53
tp54
a(S'MI5 fear returning ISIS fighters are recruiting across the UK to carry out terror attacks here. Intelligence agents say there are more Islamic State fanatics living in the UK than there are Brits fighting in Iraq and Syria.\n\nhttps://www.dailystar.co.uk/news/latest-news/679413/ISIS-Daesh-Islamic-State-fighters-make-Britain-breeding-ground-for-jihad-nuts-Syria\xc2\xa0\xe2\x80\xa6'
p55
S'11:53 AM - 4 Feb 2018'
p56
tp57
a(S'BREAKING: Actual Nazi Arthur Jones & former head of American Nazi Party is the @GOP nominee for Congress in IL-3. Republicans will vote for Jones\xe2\x80\x94a white supremacist & Holocaust denier.\n\xe2\x80\xa2Is this \xe2\x80\x9cradical Christian Terrorism?\xe2\x80\x9d\n\xe2\x80\xa2#WhereWasHeRadicalized?http://bit.ly/2FJFVqZ#.Wnd7_R4X1CI.twitter\xc2\xa0\xe2\x80\xa6'
p58
S'3:18 PM - 4 Feb 2018'
p59
tp60
a(S"Which country supplied the man-portable air defense system (MANPAD) with which a Syrian jihadist group shot down Russia's SU-25 and killed its pilot on the ground? The funneling of lethal weapons to jihadists indicates that no lessons have been learned from the rise of terrorism."
p61
S'7:25 AM - 4 Feb 2018'
p62
tp63
a(S'UK Terror Watchdog: Don\xe2\x80\x99t Call it \xe2\x80\x9cIslamist Terrorism\xe2\x80\x9d https://bluntforcetruth.com/uk-terror-watchdog-dont-call-it-islamist-terrorism/\xc2\xa0\xe2\x80\xa6pic.twitter.com/hvkQz7KfJs'
p64
S'1:00 PM - 4 Feb 2018'
p65
tp66
a(S'If you opened fire on Italian civilians while draped in ISIS\xe2\x80\x99s flag, it would be terrorism. Politicians would warn you of danger.\n\nBut since the civilians are immigrants, and the flag is Italian, it\xe2\x80\x99s just \xe2\x80\x9csocial strife\xe2\x80\x9d. Politicians are silent.\n\nhttps://www.cbsnews.com/news/italy-macerata-attack-luca-traini-gunman-targets-black-foreigners-shooting-live-updating/\xc2\xa0\xe2\x80\xa6'
p67
S'4:39 AM - 4 Feb 2018'
p68
tp69
a(S'a few points on the attempted drive-by massacre of people of color in Macerata during Italy\'s electoral campaign: 1) the six wounded victims of the shooter are and remain just "6 Africans" in most media account. No names, no stories. 2. The words terror & terrorism are avoided >'
p70
S'9:31 AM - 4 Feb 2018'
p71
tp72
a(S'The Obama administration focused more on weaponizing government agencies against Americans than weaponizing the US Military against Isis.\n\nTell me who the real enemy was. pic.twitter.com/AnioH5d5JG'
p73
S'1:55 PM - 4 Feb 2018'
p74
tp75
a(S'The last Green Book was printed in 1967. It provided guidelines for black travelers hoping to stay safe from racial terrorism in the country our ancestors helped build for free. As @Rho_Co details, the need for such warnings remains in Trump\xe2\x80\x99s America.https://www.washingtonpost.com/classic-apps/traveling-while-black-why-some-americans-are-afraid-to-explore-their-own-country/2018/01/25/451582ae-feeb-11e7-9d31-d72cf78dbeee_story.html\xc2\xa0\xe2\x80\xa6'
p76
S'10:43 AM - 4 Feb 2018'
p77
tp78
a(S'Today, we buried a dozen of our officers & troops.....we will keep burying them ever week unless we destroy the center of gravity of the enemy -- the TTP/ISIS bases in Afg.\nPakistan need to learn from Turkey. For God sake, be pro-active & hit the enemy on its ground in Afg.'
p79
S'5:23 AM - 4 Feb 2018'
p80
tp81
a(S'As far as, \xe2\x80\x9cWar replaced with free everything?\xe2\x80\x9d \n\nThat\xe2\x80\x99s not a hypothetical choice. For the cost of our hunt for imaginary weapons of destruction in Iraq we all could have had free health care and free college. And ISIS wouldn\xe2\x80\x99t have formed. \n\nCount me in for \xe2\x80\x9cfree everything.\xe2\x80\x9d'
p82
S'7:17 AM - 4 Feb 2018'
p83
tp84
a(S'A beautiful sight to behold: Church services return to Syria\xe2\x80\x99s Deir Ezzor after 6 years of terrorism at the hands of the \xe2\x80\x9cmoderate rebels\xe2\x80\x9d and ISIS. http://u.afp.com/ooRD\xc2\xa0'
p85
S'12:29 PM - 4 Feb 2018'
p86
tp87
a(S'A very worrisome trend @arunjaitley Tax terrorism one of key reasons,also negative attitude towards wealth creators. @adhia03 @PMOIndia @narendramodi @sureshpprabhu @RajivKumar1http://www.moneycontrol.com/news/business/economy/wealth-migration-7000-super-rich-indians-shifted-base-last-year-2499261.html\xc2\xa0\xe2\x80\xa6'
p88
S'8:44 AM - 4 Feb 2018'
p89
tp90
a(S"Islamist extremists don't need terrorism anymore when they are allowed to just take over countries through immigration helped and funded by the @EUCouncil and @DNC"
p91
S'1:26 PM - 4 Feb 2018'
p92
tp93
a(S'In 2014 the Pakistani Taliban announced that Khan should represent them in negotiations with the govt. \xe2\x80\x9cAll terrorism is politics,\xe2\x80\x9d he says. \xe2\x80\x9cAll this nonsense of religious terrorism. There\xe2\x80\x99s no such thing as religious terrorism. It\xe2\x80\x99s politics behind it\xe2\x80\x9d https://www.thetimes.co.uk/article/the-magazine-interview-imran-khan-the-former-playboy-cricketer-and-would-be-pm-of-pakistan-lswtpthpz\xc2\xa0\xe2\x80\xa6'
p94
S'9:44 AM - 4 Feb 2018'
p95
tp96
a(S'#WhoHas2019Edge | "It was your government who coined the term \'saffron terrorism\'," says Senior Journalist Kanchan Gupta.'
p97
S'9:02 AM - 4 Feb 2018'
p98
tp99
a(S'Demonstrating the security threats created by the nation\xe2\x80\x99s immigration system, the vast majority convicted of terrorism are foreigners who entered the U.S. legally, w/ 3 of every 4 convicted terrorists between 9/11/2001 & 12/31/2016 being foreign born. http://jwatch.us/4rod3m\xc2\xa0'
p100
S'1:07 PM - 4 Feb 2018'
p101
tp102
a(S'Then #JihadiJustin insisted to reintegrate ISIS terrorists. The arrogance that it takes to negligently subject Cdns to these ticking time bombs, & the stupidity that one must expect of #cdnpoli to believe that group hugs will cure their neck-slicing, infidel-raping ways...\n28/'
p103
S'10:13 AM - 4 Feb 2018'
p104
tp105
a(S'You can make a difference during a gun or knife terror attack - remember this expert advice: Run, Hide, Tell. #ActionCountersTerrorism http://www.gov.uk/ACT\xc2\xa0pic.twitter.com/DiCcdibxOx'
p106
S'9:45 AM - 4 Feb 2018'
p107
tp108
a(S'A NATO member is leading a force of extremist child killers, war criminals and Al-Qaeda affiliates against the heroes who defeated ISIS. #Afrin #DefendAfrinhttps://twitter.com/CivilWarMap/status/960117939423862784\xc2\xa0\xe2\x80\xa6'
p109
S'4:37 AM - 4 Feb 2018'
p110
tp111
a(S'Statistics on terrorism:\n- Terrorism in the UK during 2010s is lower than before the N. Ireland peace process\n- Terrorism in Afghanistan & Iraq surged after US-UK led invasions of both the countries\n- Before 2001, terrorism was more prevalent in the UK than in Iraq or Afghanistan pic.twitter.com/2ibdNRxx9f'
p112
S'12:47 PM - 4 Feb 2018'
p113
tp114
a(S'Also killed 3.5 Syrian by colluding wid ISIS pic.twitter.com/wy7w5YsFOT'
p115
S'9:05 AM - 4 Feb 2018'
p116
tp117
a(S'My advice to the Syrian resistance: Follow the example of ISIS: go underground.\nIn fact, it is the same way the North Vietnamese defeated the USA.\nLive in underground cities, hold your ground. And stay alive and well ;)'
p118
S'12:24 PM - 4 Feb 2018'
p119
tp120
a(S'#JihadiJustin rebrands ISIS Returnees as   "Foreign Terrorist Travellers"the description has TERRORIST in it! He\'s an apologist and a Canadian is a Canadian is a Canadian is BS if it pertains to people who want to do harm to us!A homegrown terrorist has no loyalty to Canada fact!'
p121
S'1:45 PM - 4 Feb 2018'
p122
tp123
a(S'MAKE NO MISTAKE #JihadiJustin \nTRUDEAU SUPPORTS TERRORISTS FIRST \n\nIN THE BLINK OF AN EYE - PAYMENT TO OMAR KHADR\nISIS TERRORISTS GET TO KEEP THEIR CANADIAN CITIZENSHIPS\nPROGRAMS FOR TERRORISTS\n$49 GIVEN PER MOSQUE IN CANADA FOR PROTECTION\nBLESS OUR VETERANS! \n#cdnpoli #Veteranpic.twitter.com/YpCMhN0PDt'
p124
S'8:27 AM - 4 Feb 2018'
p125
tp126
a(S'I can\xe2\x80\x99t believe it has been one year since we have been together. I couldn\xe2\x80\x99t have asked for a better partner and best friend. One year full of adventures and memories that only marks the beginning to much more. I love you  @logan_hernpic.twitter.com/KjYJh0JRIM'
p127
S'10:35 AM - 4 Feb 2018'
p128
tp129
a(S'Funny, how if "Putin wins," Trump is breaking the Russian oil industry with new American energy dominance.\n\nFunny, if "Putin wins," how Trump has the Russians spending blood & treasure to eliminate OUR enemy, ISIS'
p130
S'3:21 PM - 4 Feb 2018'
p131
tp132
a(S'Soooooo many Canadians are soooooooo ashamed of what Justin and his minions have done to our armed forces personnel... their service is deminshed while ISIS fighters are given 10 million dollar rewards! It\xe2\x80\x99s unconcionable!'
p133
S'3:25 PM - 4 Feb 2018'
p134
tp135
a(S'This @UKLabour member has some rather disturbing views. We don\xe2\x80\x99t believe that people who think that \xe2\x80\x9cJews harvest organs\xe2\x80\x9d, \xe2\x80\x9cJews run Isis\xe2\x80\x9d or that \xe2\x80\x9cmurderous Zionist Israelis are scum Nazi excrement\xe2\x80\x9d, should have any place in a mainstream political party, do you @jeremycorbyn ?pic.twitter.com/NHxjtTdEjl'
p136
S'7:34 AM - 4 Feb 2018'
p137
tp138
a(S"Our CT Internet Referral Unit work with internet service providers to remove extremist and terrorist online content. Play your part and report content. We'll sort it. #ActionCountersTerrorismpic.twitter.com/U3puAkR1iE"
p139
S'5:15 AM - 4 Feb 2018'
p140
tp141
a(S'Their attacks on Islam & Muslims are lame excuses for their racism, apartheid and evil deeds. They came in our land, covered us with war & killing, then they created ISIS & other terror organization to blame us for their own evil. Here is a very new example pic.twitter.com/UQJAwZEyIM'
p142
S'6:42 AM - 4 Feb 2018'
p143
tp144
a(S"Don't we keep hearing often ....Terrorism is because of lack education & unemployment? https://twitter.com/IndiaTodayFLASH/status/959827505015267329\xc2\xa0\xe2\x80\xa6"
p145
S'6:23 AM - 4 Feb 2018'
p146
tp147
a(S'.@BDSmovement nominated for @NobelPrize in Peace? \n\nWhat next ... \n\nNominating Assad for commitment to ending use of chemical weapons? Maybe ISIS for advancing children\xe2\x80\x99s rights? How about Iran for promoting gender equality? #BDS\nhttp://i24ne.ws/uL2v30ibLJe\xc2\xa0pic.twitter.com/1GsQ8l74gR'
p148
S'6:17 AM - 4 Feb 2018'
p149
tp150
a(S'ISIS Cube'
p151
S'6:17 AM - 4 Feb 2018'
p152
tp153
a(S'Saw #Padmavat\nPadmavati had to choose between repeated rape by a monster all thru her life & ending her life with dignity&respect. She chose latter. This is what Yazidi women are choosing everyday being assaulted at the hands of ISIS\nhttps://youtu.be/puL4gwNhXMI\xc2\xa0'
p154
S'8:53 AM - 4 Feb 2018'
p155
tp156
a(S'Once again, an attack that was portrayed by officials as \xe2\x80\x9cinspired\xe2\x80\x9d by the Islamic State with little connective tissue to the group was in fact perpetrated by a man who, it now appears, was chatting directly with high-level ISIS operatives. https://twitter.com/f_reinares/status/959868726417018881\xc2\xa0\xe2\x80\xa6'
p157
S'9:23 AM - 4 Feb 2018'
p158
tp159
a(S'if your man ever cuts his beautiful hair it\xe2\x80\x99s because he\xe2\x80\x99s being recruited for isis. you heard it here first ladies'
p160
S'10:29 AM - 4 Feb 2018'
p161
tp162
a(S'debates I thought why is HC poking the bear so much?-Then IPutin say O didn\xe2\x80\x99t want 2 work 2gether 2 help fight ISIS at boarder-Then HC connection w/Ukraine Who is fighting Russia Then Dr Jill-Make no mistake-We were going there folks pic.twitter.com/0bKzQPIxrF?ssr=true'
p163
S'8:52 AM - 4 Feb 2018'
p164
tp165
a(S'This is what happens when you adjust for votes by illegals & dead people. Boom!\n\n#WarriorMikepic.twitter.com/Ug0vJTOFCU'
p166
S'1:07 PM - 4 Feb 2018'
p167
tp168
a(S'Hope Graeme Souness gets kidnapped and beheaded by ISIS. What a fucking tosser.'
p169
S'5:58 AM - 4 Feb 2018'
p170
tp171
a(S'Ask yourself, can guy I\xe2\x80\x99m dating/interested in even handle just standing in a room with Isis with Venus with Aphrodite. If answer is no, you might want to rethink that. '
p172
S'7:51 AM - 4 Feb 2018'
p173
tp174
a(S'Those who support integration of returning ISIS terrorists: I sincerely hope they are settled next to you and your loved ones. Any objection would surely be \xe2\x80\x9cIslamiphobic\xe2\x80\x9d'
p175
S'2:46 PM - 4 Feb 2018'
p176
tp177
a(S'Killing and wounding of innocent women, men and children by airstrikes with napalm, cluster, bunker-buster and chemical bombs is terrorism, not a war against terrorism. pic.twitter.com/hmrjpmvIsU'
p178
S'3:40 PM - 4 Feb 2018'
p179
tp180
a(S'Turkish Airlines sponsoring #SuperBowl pre-game show. \n          #TURKISHAIRLINE \n COME FLY WITH #ISIS  \n#Turkey #Patriots #GoPats #NotDone #SuperBowl2018 #NFL #SuperBowlLll #SB52 #SBLll #TomBrady #NewEnglandPatriots #Eagles #SuperBowl #SuperBowlSunday #SuperBowl52pic.twitter.com/fIbo6yMpCW'
p181
S'3:06 PM - 4 Feb 2018'
p182
tp183
a(S'Turkish Airlines: Y\'know, the premier airline of the country that\'s regressing at an astounding rate. The one that openly colluded with ISIS, basically invaded the US-protected Iraq, actively oppresses its Kurdish minority, and is the worst "ally" in US history.'
p184
S'2:55 PM - 4 Feb 2018'
p185
tp186
a(S'4) The next update we get is on January 24th. Grassley informs us that the DOJ has agreed to let full committees* review the #GrassleyMemo but NOT the underlying classified documentation. He is pushing for more. \n*Senate Judiciary and Subcommittee on Crime and Terrorism pic.twitter.com/qnh366BoQm'
p187
S'1:44 PM - 4 Feb 2018'
p188
tp189
a(S'\xe2\x80\x9cLet\xe2\x80\x99s go Patriots!\xe2\x80\x9d - Kim Jong-Un, ISIS, guys who watch \xe2\x80\x9cThe Bachelor\xe2\x80\x9d, Duke basketball fans, Logan Paul, people who eat Tide Pods, Lord Voldemort, Iggy Azalea, Satan'
p190
S'1:41 PM - 4 Feb 2018'
p191
tp192
a(S'Praying  that this event is terrorism free & that all get in and out safely \n@USCG #CoastGuard K9 teams are now conducting security sweeps in the #Minneapolis Convention Center leading up to the #SuperBowlpic.twitter.com/rEmcCZVJlr'
p193
S'12:47 PM - 4 Feb 2018'
p194
tp195
a(S'@POTUS @realDonaldTrump\nYou are the Leader of terrorism and your terrosits are killed by us.\nYour terrorists are going by bus under controll of your other terortists.\ntowers of Devil Will be destroyed bu us. @NATO is the army of Devil.\n@turgayguler @hikmetgenc @ersoydede @mkulunkpic.twitter.com/lj0m1wogMC'
p196
S'12:33 PM - 4 Feb 2018'
p197
tp198
a(S'Well then we should get rid of the agency. Besides running drugs and creating terrorism which we don\xe2\x80\x99t need, either of oh and starting wars. Which we don\xe2\x80\x99t need either what do we need them for. They assassinated Kennedy helped Bush Sr get his drug business up & running Opioids.'
p199
S'12:01 PM - 4 Feb 2018'
p200
tp201
a(S'Will someone please arrest @RepAdamSchiff   for sedition and terrorism for planning an attack on Americans.'
p202
S'11:50 AM - 4 Feb 2018'
p203
tp204
a(S'ISIS terrorists - welcome back to Canada, reintegration\nHamas - Here\'s $\n"Former" terrorists - here\'s $\n"A Cdn is a Cdn is a Cdn"\n...\nCdn Vets - "You\'re asking for more than we can give"\n#JihadiJustin #cdnpolipic.twitter.com/kyfkBjYb8O'
p205
S'11:36 AM - 4 Feb 2018'
p206
tp207
a(S"Several of #JihadiJustin Liberal MPs have direct terrorism ties....\n\nHe doesn't care. pic.twitter.com/C6sAmBLMqo"
p208
S'11:36 AM - 4 Feb 2018'
p209
tp210
a(S'If the @FA do not revisit the blatant dives from Tottenham today, after banning Lanzini last week, then the corruption is in the same bracket as USA supplying ammunition to ISIS.'
p211
S'11:25 AM - 4 Feb 2018'
p212
tp213
a(S'Sick of Trudeau\xe2\x80\x99s Lalaland false glitz and glamour ! No ISIS fighters reinsertion in our Canada! ENOUGH! Make you voice known - call your MP\n#JihadiJustin\n#Trudeaumustgo\n#FuqTrudeau\n#worstpmeverpic.twitter.com/rQVidVtqFl'
p214
S'10:52 AM - 4 Feb 2018'
p215
tp216
a(S'#JihadiJustin should be the first canadaite for his isis reintegration plan.. Fuker needs help pic.twitter.com/BbOFe23ynX'
p217
S'10:40 AM - 4 Feb 2018'
p218
tp219
a(S"#JihadiJustin cares more for ISIS TERRORISTS who raped, killed, tortured & terrorized innocent people than Canada's safety pic.twitter.com/SUvjeMCAUp"
p220
S'10:39 AM - 4 Feb 2018'
p221
tp222
a(S"Republicans will spend TRILLIONS to go over-seas to fight terrorism... but not only IGNORE our home-grown terrorists, they actually defend and encourage them. One of Trump's first acts was to remove white supremacist groups from domestic terror watchlists. How is this okay?!? pic.twitter.com/bMig36YLzJ"
p223
S'9:02 AM - 4 Feb 2018'
p224
tp225
a(S"Justyn, why don't you treat our Canadian VETERANS as well as you treat returned ISIS TERRORISTS??? #JihadiJustin #cdnpoli #Trudeaumustgopic.twitter.com/c6tJN8m2Va"
p226
S'8:22 AM - 4 Feb 2018'
p227
tp228
a(S'State terrorism that India unleashed on unarmed defenceless Kashmiris has adversely affected mire than a million Kashmiris.\n\n#KashmirSolidarityDaypic.twitter.com/aXCi5GuZhI'
p229
S'7:20 AM - 4 Feb 2018'
p230
tp231
a(S'Here to remind everyone that yes, CNN is still ISIS #CNNSOTUpic.twitter.com/ymzTAXWzqV'
p232
S'6:20 AM - 4 Feb 2018'
p233
tp234
a(S"Whilst we are hiding behind walls. \nAs we are closing our airports.\nThe biggest threat to America is here. \n\nAmerica has already lost the war to cyber terrorism and most don't even know it. \n\nOr at worst ignoring it."
p235
S'5:33 AM - 4 Feb 2018'
p236
tp237
a(S'#SerenaShim exposed the ruth #ISIS #Turkey #Syria the price was her life. #BootsOnTheGround @VanessaBeeley @EvaKBartlett @Osman_Marwa1 @JaniceKortkamppic.twitter.com/q9mNQZ64Pb'
p238
S'4:49 AM - 4 Feb 2018'
p239
tp240
a(S'The world knows Turkey = ISIS\n#Unite4Afrin\n#AfrinUnderAttack\n#SaveAfrin\n#TurkeyMassacresAfrin\n#TurkeyKillsCivilians\n#Afrin\n#StopAfrinGenocide\n#HangKirkukTraitors\n#rojavapic.twitter.com/C5ViL5X37o'
p241
S'2:39 PM - 4 Feb 2018'
p242
tp243
a(S'Trudeau rants that  Sheer is using Fear to Scare Canadians. I\xe2\x80\x99m more Scared after Watching Liberals vote Against Prosecuting ISIS and passing 103M motion\n\nPlan to deal with returning ISIS fighters sparks fiery exchange between Scheer, PM https://www.ctvnews.ca/politics/plan-to-deal-with-returning-isis-fighters-sparks-fiery-exchange-between-scheer-pm-1.3698183\xc2\xa0\xe2\x80\xa6'
p244
S'1:54 PM - 4 Feb 2018'
p245
tp246
a(S'\xe2\x80\x9cHe (dictator Jimenez)persecuted and jailed his enemies, but he had no links to drug trafficking or international terrorism and did not bow to any foreign government.\xe2\x80\x9d Unlike Present dictatorship of Venezuela says Enrique Aristeguieta Gramcko pic.twitter.com/kpiplf7KYC'
p247
S'1:52 PM - 4 Feb 2018'
p248
tp249
a(S'An archival image @DumbartonOaks by American archaeologist, Thomas Whittemore who in 1923, captured on film, an exceptional monochromatic photo of the Temple of Isis on the island of Delos. pic.twitter.com/po318gN1yX'
p250
S'12:53 PM - 4 Feb 2018'
p251
tp252
a(S'.@charliekirk11 tweets "I don\xe2\x80\x99t understand how the entire Democrat party refused to stand during mentions of God, our flag, black unemployment rate going down, wages going up, and ISIS being killed"'
p253
S'12:46 PM - 4 Feb 2018'
p254
tp255
a(S'"we are afflicted in every way but not crushed,we are perplexed but not in despair, we are persecuted but not abandoned,we are struck down but not destroyed." 2 corinthians 4:8-9\n\nfirst mass at virgin mary syriac orthodox church in deir ezzor syria after being liberated from isis pic.twitter.com/QuzpMWUrMi'
p256
S'12:16 PM - 4 Feb 2018'
p257
tp258
a(S'#jihadiJustin tells us that terrorism has nothing to do with Islam...\n\nBUT hires & is working w imams to help "de-radicalize" Islamic State of Syria/Iraq Terrorists?'
p259
S'12:15 PM - 4 Feb 2018'
p260
tp261
a(S'Besides terrorism creators they also big into Drug Smuggling & Dealing. How do U think Bush Sr got started ?'
p262
S'12:04 PM - 4 Feb 2018'
p263
tp264
a(S'Philly sports fanbase could defeat isis'
p265
S'12:04 PM - 4 Feb 2018'
p266
tp267
a(S'MAKE NO MISTAKE #JihadiJustin\nTRUDEAU SUPPORTS TERRORISTS FIRST\n\nIN THE BLINK OF AN EYE - PAYMENT TO OMAR KHADR\nISIS TERRORISTS GET TO KEEP THEIR CANADIAN CITIZENSHIPS\nPROGRAMS FOR TERRORISTS\n$49 GIVEN PER MOSQUE IN CANADA FOR PROTECTION\nBLESS OUR VETERANS! #cdnpoli #Veteran\xe2\x80\xa6'
p268
S'11:03 AM - 4 Feb 2018'
p269
tp270
a(S'#JihadiJustin labels Canadians Racists & Islamophobes, who are against ILLEGAL IMMIGRATION & his pathetic ISIS reintegration program of songs/podcasts pic.twitter.com/heziCJ2yTY'
p271
S'10:19 AM - 4 Feb 2018'
p272
tp273
a(S'I realized something....ppl want to see you happy, until they see you happy! Be happy regardless '
p274
S'10:11 AM - 4 Feb 2018'
p275
tp276
a(S'Since getting elected, Trudeau/LPC prioritized lslamists/Jihadis interests, while jeopardizing the interests of moderate MusIims & Cdns\n- Refugees\n- Welcome to Canada Tweet / Border Security\n- BillC6\n- M103\n- Terrorist Payouts\n- ISIS Reintegration\n...\n#JihadiJustin #cdnpoli\n3/'
p277
S'9:59 AM - 4 Feb 2018'
p278
tp279
a(S'Electrifying!!!\nhttp://amazon.com/s/ref=nb_sb_noss_1?url=search-alias%3Daps&field-keywords=john+maszka\xc2\xa0\xe2\x80\xa6\n#islamic #state #isis #alqaeda #jamaatislami #periscope #golive #muslims #terrorism #CIA #religion #earthquake #geostrategic #contents #blogspot #AP #HomelandSecurity #Amasya #RezaZarrab #Erdogan #BasbakanY\xc4\xb1ld\xc4\xb1r\xc4\xb1m #AKParti #AKP #NYT #Terrorpic.twitter.com/jXs9fWtvnf'
p280
S'7:53 AM - 4 Feb 2018'
p281
tp282
a(S'Fascinating!!!\nhttp://amazon.com/s/ref=nb_sb_noss_1?url=search-alias%3Daps&field-keywords=john+maszka\xc2\xa0\xe2\x80\xa6\n#AlShabaab #BokoHaram #Book #Terrorism #AljazeeraNews #Wsj #fox #UN #CNN #MSNBC #RT #CBS #newyorkTimes #ABC #GMA #USAToday #AP #NATO #InternationalNews #Media #MediaShow #MediaExpoUG #MediaWatch #India #Pakistan #Cambridge #Princeton #Todaypic.twitter.com/RMlHhgWAMv'
p283
S'7:51 AM - 4 Feb 2018'
p284
tp285
a(S'Shocking!!!\nhttp://amazon.com/s/ref=nb_sb_noss_1?url=search-alias%3Daps&field-keywords=john+maszka\xc2\xa0\xe2\x80\xa6\n#alshabaab #bokoharam #terrorism #guerrillainsurgency #somalia #Nigeria #RT #NYT #CNN #ABC #CBS #GMA #MTV #VH1 #MSNBC #Yale #Oxford #Cambridge #Fox #GWOT #Trump #Obama #Drones #Obama #warcrimes #genocide #murder #politics #BBC #NBC #Time #YALEpic.twitter.com/pI0T3JWOrS'
p286
S'7:44 AM - 4 Feb 2018'
p287
tp288
a(S'Why is the left so angry? Stock market at record highs, jobless rate at an 18 yr low, taxes cut, Isis on the run, bonuses being handed out, and libs are angry and vulgar. They hate it when America is doing well. '
p289
S'7:04 AM - 4 Feb 2018'
p290
tp291
a(S'Rick Leventhal, terrorism reporter par excellence, has been at the Super Bowl reporting for three days. Don\xe2\x80\x99t wear white Melania. Watch out for retired \xe2\x80\x9cFBI\xe2\x80\x9d cuff links.'
p292
S'6:45 AM - 4 Feb 2018'
p293
tp294
a(S'Damn, if I didn\xe2\x80\x99t know any better I\xe2\x80\x99d almost think that the definition for government and terrorism are the same damn thing. Mind control of the masses through fear. pic.twitter.com/H4GgZdEeNu'
p295
S'6:09 AM - 4 Feb 2018'
p296
tp297
a(S'.@nytimes Why is a piece about #Egypt and #Israel co-op against #ISIS in Sinai headed by a pic of #Netanyahoo pointing at the "Shia Crescent"?pic.twitter.com/guugxxLY0s'
p298
S'6:07 AM - 4 Feb 2018'
p299
tp300
a(S'I feel personally attacked by thispic.twitter.com/NUKuyXeYmS'
p301
S'1:35 PM - 4 Feb 2018'
p302
tp303
a(S'Ain\xe2\x80\x99t no forcing relationships,, if we don\xe2\x80\x99t vibe off top I can\xe2\x80\x99t entertain you '
p304
S'1:04 PM - 4 Feb 2018'
p305
tp306
a(S'This is how #JihadiJustin justified doing nothing against ISIS#cdnpoli pic.twitter.com/pU9mDOSOVI\n\n\xe2\x80\x94 DeplorableDave (IamPopTheNarrat) February 4, 2018'
p307
S'12:38 PM - 4 Feb 2018'
p308
tp309
a(S'If I leave my house; kill, rape and commit treason- I should never see the inside of my Home again. So why not ISIS? #JihadiJustin #TrudeauMustGo #cdnpoli'
p310
S'12:33 PM - 4 Feb 2018'
p311
tp312
a(S'A very sweet child who suffered a lot in war against terrorism.  We are proud of you dear Ahmad Nawaz'
p313
S'11:42 AM - 4 Feb 2018'
p314
tp315
a(S'Minn Health department is warning Health care providers to be on the look out for bio-terrorism during super bowl.\n"  In addition, because of the high profile nature of the event, vigilance is needed for any illnesses or clusters of illness that could be related to terrorism. "'
p316
S'11:00 AM - 4 Feb 2018'
p317
tp318
a(S'Stop Terrorism\nGo back india. \nIt is right of every Kashmiri to get FREEDOM\n#EmancipateKashmir'
p319
S'10:19 AM - 4 Feb 2018'
p320
tp321
a(S'Meanwhile @liberal_party insiders, while not breaching ethics laws & billing taxpayers half a million $ to move up the 401, are cutting multimillion $ cheques to terrorist scumbags and welcoming home #ISIS fighters as \xe2\x80\x9cextraordinarily powerful voices\xe2\x80\x9d pic.twitter.com/P3of2dDkOY'
p322
S'10:13 AM - 4 Feb 2018'
p323
tp324
a(S'#JihadiJustin went to China late in 2017...\n\nDid not bring back Canadian citizens held in Chinese prison...\n\nHe however, has brought back hundreds of ISIS terrorists despite Liberals LIES of 60 pic.twitter.com/1zNulXcNXj'
p325
S'10:11 AM - 4 Feb 2018'
p326
tp327
a(S'With guns you can Kill Terrorists. With Education you can kill Terrorism. #KABIR #APRIL2018pic.twitter.com/dWDngVc7v2'
p328
S'8:18 AM - 4 Feb 2018'
p329
tp330
a(S'Thrilling!!!\nhttp://amazon.com/s/ref=nb_sb_noss_1?url=search-alias%3Daps&field-keywords=john+maszka\xc2\xa0\xe2\x80\xa6\n#Wahhabism #Salafism #Deobandi #Somalia #Islam #Quran #Muhammad #Koran #Muslim #ExMuslim #ISIS #Taliban #AlQaeda #AlNusrah #BokoHaram #AlShabab #SaudiArabia #Qatar #Kuwait #UAE #Oman #Bahrain #Egypt #Pakistan #India #USA #NYT #Time #Peoplepic.twitter.com/E9YrYYmc2F'
p331
S'7:47 AM - 4 Feb 2018'
p332
tp333
a(S'#BoycottIsrael \nthe system of terrorism\nBrutal apartheid\n\n#\xd8\xa7\xd9\x84\xd9\x82\xd8\xaf\xd8\xb3_\xd8\xaa\xd9\x88\xd8\xad\xd8\xaf\xd9\x86\xd8\xa7\n#\xd9\x82\xd8\xb1\xd9\x88\xd8\xa8_\xd8\xac\xd8\xb2\xd8\xa7\xd8\xa6\xd8\xb3\xd8\xb7\xd9\x8a\xd9\x86 #\xd9\x82\xd8\xb1\xd9\x88\xd8\xa8_\xd9\x81\xd9\x84\xd8\xb3\xd8\xb7\xd9\x8a\xd9\x86\xd9\x8a #\xd8\xab\xd8\xa7\xd8\xa6\xd8\xb1\xd9\x88\xd9\x86_\xd9\x81\xd9\x84\xd8\xb3\xd8\xb7\xd9\x8a\xd9\x86\xd9\x8a\xd9\x88\xd9\x86\n#JerusalemIsTheCapitalOfPalestine #United4AlQuds\n#PalestineImmortal\xe2\x81\xa9 #BDS #StopArmingIsrael #GroupPalestine #micropoetry #haiku #haikuchallenge #amwritingpic.twitter.com/PvepxAN4mX'
p334
S'6:07 AM - 4 Feb 2018'
p335
tp336
a(S'Muslim Man Riyaz Forced & Converted Hindu women after Marriage .. He was Planning to sell her to ISIS as Sex Slave\nNIA Finally arrested Riyaz\nThe Lutyens..Dalals & Urban naxals will not Talk about this Love Jihad cases as they get Petro dollars from Arab based NGOs ..#AnkitSaxena pic.twitter.com/tjnkUnp9PQ'
p337
S'5:21 AM - 4 Feb 2018'
p338
tp339
a(S'Indian state sponsored terrorism in Kashmir has made the life of innocent Kashmiris miserable. #HumanityCriesInKashmir @OfficialDGISPR @appcsocialmedia @UNHumanRights @antitorture_WCL @FOXNews @pid_gov @Forbes @PTVNewsOfficialpic.twitter.com/jwO2NFbT4p'
p340
S'5:19 AM - 4 Feb 2018'
p341
tp342
a(S'Trudeau\'s ISIS fighters committed crimes against humanity: murder, extermination, enslavement, inhumane acts against civilians systematically. As well as "barbarous cruelty" in kidnapping, unlawful confinement, robbery and manslaughter,. It Is time to charge them. pic.twitter.com/OOB8gxp8Yk'
p343
S'3:32 AM - 4 Feb 2018'
p344
tp345
a(S"#AnkitSaxena was Liberal and secular.\n\nHe was friends with peacefuls and used to visit mosques, do namaj.\n\nHe had defended peaceful's violence and believed terrorism has no religion\n\nHe was not bigoted RW. But only RW is in grief after his death.\n\nOpen your eyes and choose wisely pic.twitter.com/ekL8ZcHGkW"
p346
S'11:35 PM - 3 Feb 2018'
p347
tp348
a(S'OoooohRah!\nAREA DENIAL  . . . . \nU.S. Marines with Task Force Spartan, 26th Marine Expeditionary Unit, on Fire Base Bell, Iraq, fire an M777A2 Howitzer at an ISIS infiltration route  . . . . pic.twitter.com/6v3sHg7NKe'
p349
S'11:44 AM - 4 Feb 2018'
p350
tp351
a(S"India is the spine of terrorism in the world. Either they attacked Kashmiri boys physically or the girls have been assaulted sexually. @UN can't this illegal war be brought to an end with dialogue????\n#Emancipatekashmirpic.twitter.com/qTfL87a8cg"
p352
S'11:00 AM - 4 Feb 2018'
p353
tp354
a(S"Here's a thought, maybe if the FBI wasn't spending so much time on political intrigue and more on investigating terrorism, we would be safer."
p355
S'10:28 AM - 4 Feb 2018'
p356
tp357
a(S'#KashmirSolidarityDay\nState terrorism in Indian Occupied Kashmir.. pic.twitter.com/iuYCTEa8Jt'
p358
S'9:24 AM - 4 Feb 2018'
p359
tp360
a(S'We strongly condemn the continued terrorism by India in the #Kashmir valley.\n#KashmirNeedsFreedompic.twitter.com/GH07bmxOFT'
p361
S'7:21 AM - 4 Feb 2018'
p362
tp363
a(S'The Indian forcs reportedly committed genocide by killing 1000 of Kashmiris. An estimated ovr 25000 Kashmiri women hv been raped r injured by thm. By repeating the mantra of \xe2\x80\x98cross-border terrorism\xe2\x80\x99, India has tried to blame Pakistan 4 its crimes in Kashmir\n#kashmirsolidaritydaypic.twitter.com/H52Xg0yh2j'
p364
S'7:05 AM - 4 Feb 2018'
p365
tp366
a(S"To understand the connection between UK foreign policy and terrorism start with the updated edition of @markcurtis30 'Secret Affairs.' pic.twitter.com/2G3qn5YpyI"
p367
S'6:19 AM - 4 Feb 2018'
p368
tp369
a(S'#ISIS executing a journalist.\nhttps://www.iraqinews.com/iraq-war/isis-executes-3-journalist-brothers-mosul/\xc2\xa0\xe2\x80\xa6pic.twitter.com/kuiqgUgPpz'
p370
S'4:28 AM - 4 Feb 2018'
p371
tp372
a(S"Everyone is quite. No one is here to raise voice against barbarism. USA always spread news against terrorism but now when INDIA is killing innocent KASHMIRIS, why he's quite ? \n#KashmirNeedsFreedom"
p373
S'3:16 AM - 4 Feb 2018'
p374
tp375
a(S"Erdogan's regime recruited all former ISIS & Al-Qaeeda terrorists to attack Kurds in Afrin\n\n#JihadistTurkishStatepic.twitter.com/wUEPbp3tgI"
p376
S'11:52 PM - 3 Feb 2018'
p377
tp378
a(S'How Incompatible Immigration & Multiculturalism Has Blighted Britain:\n\nIslamic terrorism\nBlack knife gangs\nDrug gangs\nSex slave traffickers\nRadical mosques\nRadical schools\nNo go zones\nSlavery\nFGM \nSo Called Honour Killings\nBenefit fraud\nScruffy Ghettoes\nTraitorous Immigrants'
p379
S'11:37 PM - 3 Feb 2018'
p380
tp381
a(S'Horrified that 11 of r brave jawans were killed and many injured in #Swat by a suicide bomber.Heartfelt condolences to the families of victims and thoughts with the injured.The sheer havoc such terror wreaks must prompt a holistic rethink about our action/responses on terrorism'
p382
S'11:37 PM - 3 Feb 2018'
p383
tp384
a(S'498A legal terrorism Martyrs of Marriage. A law made to save life, has taken many innocent life. @PMOIndia, @narendramodi_in @narendramodi, @rsprasad, @LawComIndia @rashtrapatibhvn. Why support to legal terrorism and life taking law #498aJailsInnocent, #Scrap498A #NoRepublic4Menpic.twitter.com/D0t15eW6fV'
p385
S'11:28 PM - 3 Feb 2018'
p386
tp387
a(S'Our values and way of life will prevail - Terrorism will not.\n\n#KABIR #April2018.pic.twitter.com/y9Ovs9H6aG'
p388
S'10:42 PM - 3 Feb 2018'
p389
tp390
a(S'The Arch of Triumph a major Roman monument in the city of Palmyra. Confirmed to have been destroyed by ISIS. pic.twitter.com/JJ34XkzY2X'
p391
S'9:11 AM - 4 Feb 2018'
p392
tp393
a(S"'Saffron Terrorism' has been exposed! #Kasganj #SardarBannedRSSpic.twitter.com/BvtG63DPRY"
p394
S'8:43 AM - 4 Feb 2018'
p395
tp396
a(S'India is the spine of terrorism in the world. Either they attacked Kashmiri boys physically or the girls have been assaulted sexually. \n#FreeKashmir\n#KashmirSolidarityDaypic.twitter.com/p2N8gWjkoY'
p397
S'6:29 AM - 4 Feb 2018'
p398
tp399
a(S' | #Turkey\'s Ambassador to Washington Serdar Kilic [ @serdarkilic9 ]: \n\n"The terrorist organization PYD/PKK is killing civilians by using weapons of the U.S, the U.S has lost its principles on terrorism." \n\npic.twitter.com/ijUgF0qhdo'
p400
S'4:15 AM - 4 Feb 2018'
p401
tp402
a(S'Israel is #1 in terrorism'
p403
S'12:50 AM - 4 Feb 2018'
p404
tp405
a(S'Shocked to learn that 11 security men were killed and many injured in swat by suicide bomber. My condolences to the family of the victims and speedy recovery of those injured. Terrorism cannot prevail!'
p406
S'11:02 PM - 3 Feb 2018'
p407
tp408
a(S'For the civilians (#Resistance)\nin the room\n@GenFlynn used the @FBI to lift his gag\nHE knew they would falsify their 302\xe2\x80\x99s\nThe moment He got himself indicted\nHe was legally required tell #WhatHappened\nThe same GENERAL who blew the whistle on BO for using ur tax $ to fund isis\nK?! pic.twitter.com/4lSv7D8rD4'
p409
S'9:18 PM - 3 Feb 2018'
p410
tp411
a(S'Wore braces for 2years for this smile  #BlackWomenSmilingpic.twitter.com/pfl2n0jIJd'
p412
S'9:08 PM - 3 Feb 2018'
p413
tp414
a(S'On June 4, 2017 #WikiLeaks tweeted the email that proves Hillary Clinton and John Podesta knew Saudi Arabia and Qatar were funding ISIL (ISIS \xe2\x80\x93 Israeli Secret Intelligence Service). The Clinton email dated August 19'
p415
S'8:55 PM - 3 Feb 2018'
p416
tp417
a(S'#WorldCancerDay Cancer is terroristic disease and just as terrorism is increasing, the incidence of cancer is also increasing every year. In western countries it is second leading cause of death in adults. Buy online book about cancer remedy @ https://sanatanshop.com/shop/en/ayurveda-/476-conquer-your-cancer.html?search_query=Cancer&results=2\xc2\xa0\xe2\x80\xa6pic.twitter.com/C4jIKASICN'
p418
S'8:51 PM - 3 Feb 2018'
p419
tp420
a(S'I find it very interesting at #ISIS has reportedly run out of money and that @BarackObama is no longer in office. Coincidence?'
p421
S'7:43 PM - 3 Feb 2018'
p422
tp423
a(S"Akhlaq murder = Hindu terrorism\nPehlu Khan murder = Hindutva intolerance\nJunaid Khan killing = Saffron terror\n#ChandanGupta murder = Faux Hindu nationalism\n#AnkitSaxena murder = Honour killing.\nWhere's Islamic terror, Islamist terror, Green terror, etc? Peace!\n@sanjeevrsingh"
p424
S'7:32 PM - 3 Feb 2018'
p425
tp426
a(S'I don\xe2\x80\x99t understand how the entire Democrat party refused to stand during mentions of God, our flag, black unemployment rate going down, wages going up, and ISIS being killed https://twitter.com/sensanders/status/958553676423094277\xc2\xa0\xe2\x80\xa6'
p427
S'6:52 PM - 3 Feb 2018'
p428
tp429
a(S"For 5 years Obama could not stop ISIS, couldn't even contain them.\nTrump, with the same military, wiped out ISIS in 10 months.\nObama was not incompetent.\nObama was a traitor."
p430
S'6:43 PM - 3 Feb 2018'
p431
tp432
a(S"I'd much rather be there for myself than to have to rely on someone who will stop giving me their time at their own convenience.. it's mentally exhausting to be constantly let down by people you love."
p433
S'6:32 PM - 3 Feb 2018'
p434
tp435
a(S'Tenzin Delek Rinpoche (1950-2015) - acted for the good of his nation, was accused of terrorism #100Victimspic.twitter.com/MA7Mh3FOvI'
p436
S'11:26 PM - 3 Feb 2018'
p437
tp438
a(S'I wish to express my most profound condolences for all who were martyred &  injured in this outrageous attack in Swat. \n\nSacrifices rendered by the sons of soil in the war against terrorism would not go in vein. IA.'
p439
S'10:07 PM - 3 Feb 2018'
p440
tp441
a(S'I Would Of Done The Very Same Thing.\n\nRather Than Be Captured & Beheaded On Video For My Family Having To See.\n\nI\'d Take As Many ISIS Along With Me.\n\nThey\'ll All Go Straight To Hell.\n\nI\'m Ready To Come Home Father\n\n          "Roger That"\n\nYou Will Be Home In A Second My Son.'
p442
S'9:24 PM - 3 Feb 2018'
p443
tp444
a(S'He most certainly was.....\nThat was Obama  and Farrakhans plan from the beginning to have there  own private army.....\nIsis and blm.....'
p445
S'9:21 PM - 3 Feb 2018'
p446
tp447
a(S'@JustinTrudeau  You know, when someone enters the world of ISIS Terrorists, they initiate these men by having them prove themselves. Torture & Decapitate men, women & children. The minds of these men are beyond repair. Decapitated by ISIS you can google it. pic.twitter.com/63g9YcisKQ'
p448
S'8:42 PM - 3 Feb 2018'
p449
tp450
a(S'Obama never had the intention of stopping ISIS. He was on their team during his entire 8 yr tenure.'
p451
S'7:45 PM - 3 Feb 2018'
p452
tp453
a(S'For better or for worse if John Tortorella was coaching this game he\xe2\x80\x99d be in fucking federal custody on terrorism charges by now with this shit #NYR'
p454
S'6:40 PM - 3 Feb 2018'
p455
tp456
a(S'\xe2\x9d\x9dYou make me feel like a teenager in love and you make me feel like I\xe2\x80\x99ll be forever young.\xe2\x9d\x9epic.twitter.com/Hw6UMjYC93'
p457
S'5:51 PM - 3 Feb 2018'
p458
tp459
a(S"Today a Russian pilot died in Syria killed by terrorists supported by the West.\n\nFor decades, many Russian police and soldiers have been dying to fight against terrorism.\n\nHere a tribute made a few years ago to tribute to Russia's police force. Putin appears to become emotional pic.twitter.com/mR1Yv36UHR"
p460
S'5:39 PM - 3 Feb 2018'
p461
tp462
a(S'\xe2\x80\x9cPpl who\xe2\x80\x99ve done you wrong, always think your posts is about them\xe2\x80\x9d is soooo true lol'
p463
S'5:34 PM - 3 Feb 2018'
p464
tp465
a(S'You wanna talk statistics alt right?\n\nFascists are statistically more likely to commit terrorism than blacks\nFascists are statistically more likely to commit terrorism than muslims\nFascists are statistically more likely to commit terrorism than left wingers'
p466
S'5:29 PM - 3 Feb 2018'
p467
tp468
a(S'(21) Contemplate THIS: Strzok and Campbell were in counter-terrorism.\n\nCan people obsessed with diversity be effective in counter-terrorism?'
p469
S'5:23 PM - 3 Feb 2018'
p470
tp471
a(S'Pictures of the first holy mass held in #DeirEzzor after liberation from terrorism .. From here passed the West-backed rebels. \n@BLIKOPENER333pic.twitter.com/Y4LAxR0Ho5'
p472
S'5:09 PM - 3 Feb 2018'
p473
tp474
a(S'(10) This guy has a head full of mush.\n\nMy guess is that he quit because he was told, "Diversity isn\'t a main priority, sonny. Fighting terrorism is much of what we do."'
p475
S'5:08 PM - 3 Feb 2018'
p476
tp477
a(S'The best revenge is no revenge. Move on.. be happy'
p478
S'4:43 PM - 3 Feb 2018'
p479
tp480
a(S"Women's in Syria.\n\nThe happiness getting freedom from ISIS so called Islamic State.\n\nWomen's taking off burning #Niqab, #Hijab & #Burqa.\n\nThe same has reached in Islamic Republic of #Iran.\n\nIranian women's are protesting to get freedom from #Hijab.pic.twitter.com/yp4OldX7M5"
p481
S'4:43 PM - 3 Feb 2018'
p482
tp483
a(S'Fox News: \n\n\xe2\x80\x9cBusinesses, schools and places of worship seek out active shooter training\xe2\x80\x9d\n\nAlternative solution:\n\nDon\xe2\x80\x99t let anyone with a history of mental illness or ties to terrorism have access to military grade firearms.\n\nBut what do we know \xc2\xaf\\_(\xe3\x83\x84)_/\xc2\xaf pic.twitter.com/x7pbp9c44X'
p484
S'4:33 PM - 3 Feb 2018'
p485
tp486
a(S"Bird flu has joined killers in #Yemen. You know other killers? \nSaudi-led coalition, Houthi militants, US, UK, French, Canadian, Italian and others' bombs & weapons, UN failure, hunger, malnutrition, cholera, diphtheria, AQAP, ISIS and pro-Govt extremists."
p487
S'4:22 PM - 3 Feb 2018'
p488
tp489
a(S".@BeaverGym's Isis Lowery showed off her skills on the floor. She got a . to earn the @OpusBank #12Best moment.pic.twitter.com/ph6hlVY7aC"
p490
S'4:19 PM - 3 Feb 2018'
p491
tp492
a(S"The kind of people that the Kurds are up against in Afrin. These are Turkish jihadi volunteers, most of them have fought alongside al-Qaeda and ISIS against Kurds and Syrian army. Turkey knows these people are veteran jiahdis but doesn't care because they kill Kurds. pic.twitter.com/BWxow8i2Gx"
p493
S'4:02 PM - 3 Feb 2018'
p494
tp495
a(S"4. 'member when Mark Burnett's super-Christian friends got caught laundering money for ISIS?\nThat was fun. pic.twitter.com/m94m4SgRlv"
p496
S'6:56 PM - 3 Feb 2018'
p497
tp498
a(S'That is because ISIS was created and funded by Hussain. He never wanted to defeat them. He used them for strategic means to cultivate his social engineering and globalization goals.'
p499
S'6:51 PM - 3 Feb 2018'
p500
tp501
a(S'His response is unfathomable. Apples & oranges. The ideologies of ISIS mirror those of the WWII Axis powers. We certainty were not welcoming former Nazi after the war. His loyalties are skewed & dangerous. His duty is to serve Canada. Violent radicals are not immigrants we want.'
p502
S'6:50 PM - 3 Feb 2018'
p503
tp504
a(S'Still?\n\nWe the people of India?\n\nDo you all remember this tagline of Indian constitution?\n\nOr\n\nWe the Indian State of ISIS Sympathizer ? (ISIS)\n\n@HMOIndia will come frwd & will tell  No its not\n@mssirsa @OmMathur_bjp\n@ShefVaidya @KapilMishra_IND\nhttps://twitter.com/AsYouNotWish/status/959494830886809606\xc2\xa0\xe2\x80\xa6'
p505
S'6:43 PM - 3 Feb 2018'
p506
tp507
a(S'If Hillary Clinton or JebBush were President right now, the southern border would be faced with an absolute stampede of illegal aliens. Refugees would be pouring in, tax cuts would be tax hikes, MS13 & ISIS would be growing NOT disappearing.\n\nThat alone is VICTORY.\n\n#MAGA'
p508
S'6:37 PM - 3 Feb 2018'
p509
tp510
a(S'Obama spent years and deployed the full force and intelligence service to spy on Trump, and not one-minute defeating ISIS'
p511
S'6:26 PM - 3 Feb 2018'
p512
tp513
a(S'Cultural terrorism #committed by Black Lives Matter and antifa democrats is no different than cultural terrorism by ISIS or the Taliban.'
p514
S'6:25 PM - 3 Feb 2018'
p515
tp516
a(S'More historic days that congress should celebrate. 26/11 termed as Saffron terrorism, 31Oct as Sikh massacre day, 4Dec as Warren escape day'
p517
S'6:20 PM - 3 Feb 2018'
p518
tp519
a(S"Trudeau's compassion for ISIS could cost him his political future.  Though Trudeau's IQ isn't on the high side,  I'm surprised at his lack of discipline of late."
p520
S'6:13 PM - 3 Feb 2018'
p521
tp522
a(S'The U.S. Military has dealt a lethal and impressive blow to ISIS in a remarkably short time. Impressive Campaign Promise Executed by the Trump administration by the awesome Men and Women of the finest military in the World: pic.twitter.com/0XlTd8yzfk'
p523
S'6:00 PM - 3 Feb 2018'
p524
tp525
a(S'FELLOW EL PASOANS if you are interested in a CrossFit gym with a welcoming environment minus the intimidation PLEASE come check out Forge Factory Gym Grand Opening February 9th!!! For more information please check out Forge Factory on Facebookpic.twitter.com/fEW1PAohjb'
p526
S'5:40 PM - 3 Feb 2018'
p527
tp528
a(S'I got tired of seeing bs so I had to make a change & do what\xe2\x80\x99s best for me'
p529
S'5:39 PM - 3 Feb 2018'
p530
tp531
a(S'Terrorism against random people is "justice" to these sickos pic.twitter.com/cIVq3aNV5q'
p532
S'5:36 PM - 3 Feb 2018'
p533
tp534
a(S'Totally agree! During 8 years of Obama they armed ISIS. Armed drug cartels of mexico. Allowed MS13 to grow to 10 thousands or more. Protected illegal criminals and fave the hiding sanctuary. Fought against 1st, 2nd ammendments. Wake up people!'
p535
S'5:24 PM - 3 Feb 2018'
p536
tp537
a(S'So well said. Abbott pivot reframed \xe2\x80\x9cprotecting ppl\xe2\x80\x9d as war & counter terrorism & worked hard to make them problems. Now pivot from Ice Scourge to over-the-counter codeine.???  (sales of ibuprofen too low?)'
p538
S'5:21 PM - 3 Feb 2018'
p539
tp540
a(S'2/ But then the most wonderful feeling came over me, as our strong community raised their voice together. A vet held @JustinTrudeau accountable; a brave hero. Another citizen made him respond for his harbouring of ISIS criminals, and his response drew gasps from all around me.'
p541
S'5:20 PM - 3 Feb 2018'
p542
tp543
a(S'From COINTELPRO to "Black Identity Extremists," Black activists face state suppression when fighting for their rights. Angela Davis argues that the rhetoric of terrorism often \xe2\x80\x9cattempts to discredit anti-racist movements in the United States." https://injusticetoday.com/from-cointelpro-to-black-identity-extremists-black-activists-face-state-suppression-when-f2531d6efbc8\xc2\xa0\xe2\x80\xa6 by @prshakur'
p544
S'5:00 PM - 3 Feb 2018'
p545
tp546
a(S"Comparing this Islamic ISIS terrorist trash to Greek & Italian Cdn' is an insult to all Cdn'! Trudeau' love of Islam is dividing & destroying Ca."
p547
S'4:59 PM - 3 Feb 2018'
p548
tp549
a(S'The UK\xe2\x80\x99s anti-terrorism watchdog wants to see the term \xe2\x80\x9cIslamist terrorism\xe2\x80\x9d stamped out, saying it is \xe2\x80\x9cfundamentally wrong\xe2\x80\x9d to associate religion with terrorism. Max Hill QC wants the term \xe2\x80\x9cDaesh-inspired terrorism\xe2\x80\x9d used instead.\n\nhttps://www.rt.com/uk/417704-islamist-terrorism-hill-stop/\xc2\xa0\xe2\x80\xa6pic.twitter.com/9LzjozisKh'
p550
S'4:36 PM - 3 Feb 2018'
p551
tp552
a(S'apparently Putin is very good at fixing the US economy, lowering taxes, bringing jobs back, creating new jobs, appointing judges, and fighting ISIS. I say let him keep doing it, seems to work out real well for us'
p553
S'6:23 PM - 3 Feb 2018'
p554
tp555
a(S"Can you imagine all the terrorists and spies currently applauding @DevinNunes destruction of the FBI's counter terrorism court?\n\nHave an issue with #FISA? He could get every single terrorist let go."
p556
S'6:22 PM - 3 Feb 2018'
p557
tp558
a(S'Trudeau also said, \xe2\x80\x9cIsis can be a powerful voice\xe2\x80\x9d and will re-integrate Isis into communities, we fu*ked!'
p559
S'6:12 PM - 3 Feb 2018'
p560
tp561
a(S"RT ASJBaloch: Women's in Syria.\n\nThe happiness getting freedom from ISIS so called Islamic State.\n\nWomen's taking off burning #Niqab, #Hijab & #Burqa.\n\nThe same has reached in Islamic Republic of #Iran.\n\nIranian women's are protesting to get freedom from\xe2\x80\xa6pic.twitter.com/HllP573mPN"
p562
S'6:11 PM - 3 Feb 2018'
p563
tp564
a(S'Even Fox News is referring to Isis as \xe2\x80\x9cSyrian Rebels.\xe2\x80\x9d They\xe2\x80\x99re not Syrian Rebels, they\xe2\x80\x99re Isis. Instead of working with Russia to defeat them, we\xe2\x80\x99re busy continuing Obama\xe2\x80\x99s misguided policy of arming them because it is taboo to work with Russia, not after they colluded with Trump'
p565
S'6:02 PM - 3 Feb 2018'
p566
tp567
a(S'One of the most treacherous and dangerous things we face today. Right up there with NoKo and Isis.'
p568
S'5:43 PM - 3 Feb 2018'
p569
tp570
a(S'Who allowed and helped Isis to grow and heroin to flood the world.. pic.twitter.com/5K0COim3TQ'
p571
S'5:32 PM - 3 Feb 2018'
p572
tp573
a(S'Does this FISA judge know that he enabled criminal players to undermine an American presidential election based on materials that had their primary source in Russia?\n\nHas he told us whether he is corrupt or that dumb?\n\nA few more FISA judges like him & Russia will own us.'
p574
S'5:31 PM - 3 Feb 2018'
p575
tp576
a(S'When the US air-force massacred the SAA and gave air support to ISIS you lied about it. You sell wars of aggression as humanitarian interventions. Get off your moral high horse. https://twitter.com/SamanthaJPower/status/959955933207068672\xc2\xa0\xe2\x80\xa6'
p577
S'5:11 PM - 3 Feb 2018'
p578
tp579
a(S"I need a bff to travel the world and make memories with, hmu if you're interested"
p580
S'5:09 PM - 3 Feb 2018'
p581
tp582
a(S' CALLING ALL "FEMINISTS" \n\nInstead of whining about the \'white male patriarchy\', turn your attentions to REAL issues affecting REAL women!\n\nSupport the cause of young European women who have had enough of migration-fuelled sexual violence: #120dbhttps://www.defendevropa.org/2018/migrants/migrant-crime/120db-true-metoo-a-hashtag-fight-migrant-violence-abuse-women/\xc2\xa0\xe2\x80\xa6'
p583
S'4:49 PM - 3 Feb 2018'
p584
tp585
a(S"Europe and the West were overjoyed when the Kurds sacrificed themselves to fight #ISIS so as to keep the West free from Islamist terrorism. Now Europe is pretending to know nothing while NATO member #Turkey and Obama's favourites The Free Syrian Army slaughter noble #Kurdistan.https://twitter.com/Expressen/status/959883672534110210\xc2\xa0\xe2\x80\xa6"
p586
S'4:46 PM - 3 Feb 2018'
p587
tp588
a(S"\xe2\x9d\x9dIn the name of heaven, I'll punish you!\xe2\x9d\x9epic.twitter.com/XoEuAUotnJ"
p589
S'4:41 PM - 3 Feb 2018'
p590
tp591
a(S'Isis Lowery owned the floor today for @BeaverGym. #BeaverNation sure did love those moves as she came away with a 9.925.  #Pac12Gympic.twitter.com/Gs8WDYBkgI'
p592
S'4:39 PM - 3 Feb 2018'
p593
tp594
a(S'Remember when Obama said electing him would cause the world to respect America again?https://fb.me/8Kr4J0Y9D\xc2\xa0'
p595
S'4:31 PM - 3 Feb 2018'
p596
tp597
a(S'The Portal: \nSituation Update: February 3, 2018\nIsis Astara, my beloved soulmate, has left the physical plane. She was often brutally attacked with directed energy weapons and the attack on January 25th was one attack too many. \nhttp://2012portal.blogspot.com/2018/02/situation-update.html\xc2\xa0\xe2\x80\xa6pic.twitter.com/PXB2F01VUC'
p598
S'4:25 PM - 3 Feb 2018'
p599
tp600
a(S"Again, white supremacy is a violent, ideological movement that uses terrorism to advance its agenda. It's not any less violent or terroristic in its history than ISIS or Al-Qaeda & the fact that the US president is an adherent to it doesn't change that reality https://twitter.com/AJENews/status/959810358742601728\xc2\xa0\xe2\x80\xa6"
p601
S'4:15 PM - 3 Feb 2018'
p602
tp603
a(S'The US-led battles against ISIS in the remaining villages of Deir Ezzor are probably the slowest in about two years, despite the scattered buildings and rural environment. \n\nWhat might be the reason? \n\nStretched too thin, or deliberately slowed down? Pick one. pic.twitter.com/ZIFmjRKt2S'
p604
S'4:08 PM - 3 Feb 2018'
p605
tp606
a(S'This is more FAKE News from the Failing New York Times, and I told you all it was coming. Kash Petal, was working in Counter Terrorism and had to fly 27 hours to an unscheduled Court Hearing in Houston, TX to put away a Terrorist who planned to blow up Malls, you left that out.. https://twitter.com/tripgabriel/status/959632423242747904\xc2\xa0\xe2\x80\xa6'
p607
S'4:05 PM - 3 Feb 2018'
p608
tp609
a(S'Kurdish women killing ISIS\nhow I admire them pic.twitter.com/MeyMDcNodS'
p610
S'4:00 PM - 3 Feb 2018'
p611
tp612
a(S'But when Trump practically started a nuclear war on Twitter or retweeted ISIS training videos, it was all fine & dandy.'
p613
S'5:29 PM - 3 Feb 2018'
p614
tp615
a(S'my left brow always comes out better than my right'
p616
S'5:20 PM - 3 Feb 2018'
p617
tp618
a(S'Vladimir Putin uses trained birds of prey to take down drones sent ISIS\nhttps://www.thesun.co.uk/news/5466103/vladimir-putin-trained-birds-prey-drones-isis-kremlin-hq/\xc2\xa0\xe2\x80\xa6pic.twitter.com/Pt3UYCZ55n'
p619
S'5:19 PM - 3 Feb 2018'
p620
tp621
a(S'Getting drunk tonight alone because what are friends? ..'
p622
S'5:19 PM - 3 Feb 2018'
p623
tp624
a(S"When I asked that question I wasn't expecting an intelligent answer, but to compare ISIS fighters to legal immigrants fleeing Europe after world war 2 is appauling, this guy lives in a fantasy world, reality is he's not the right guy for the job #TrudeauMustGo"
p625
S'5:16 PM - 3 Feb 2018'
p626
tp627
a(S"Amen. Much of Donald Trump's rhetoric actually is true, the list is endless. No BS collusion, more jobs for Americans, stock market, yeah wow, isis- where? NK play nice or else. Hmm, I believe @SenateDems should be midterm nervous. Thank you @realDonaldTrumphttps://twitter.com/ConservaMomUSA/status/959893120686182406\xc2\xa0\xe2\x80\xa6"
p628
S'5:04 PM - 3 Feb 2018'
p629
tp630
a(S"The memo says no such thing. \nThere is no indication the FBI became political in any way.\nThere is no evidence they were anti-Trump\n\nThere is evidence that you are paranoid and insane. \n\nTRUMP'S DESTRUCTION OF THE FBI MAKES THE USA MORE VULNERABLE TO TERRORISM!!"
p631
S'5:01 PM - 3 Feb 2018'
p632
tp633
a(S'All media against Turkey because of its war against terrorists(PYD,PKK)!!\nWhat about Russian terrorism in Syria with Assad chemical,Iran,and..?\nThe world is ethically distorted....\nThe dirty political media pic.twitter.com/AHZyou6Fzq'
p634
S'4:50 PM - 3 Feb 2018'
p635
tp636
a(S"Iran's Mullahs re-exploit ISIS card https://youtu.be/VL2F5RRiZ_A\xc2\xa0 via @YouTube"
p637
S'4:37 PM - 3 Feb 2018'
p638
tp639
a(S'Barin Kobane fought furiously against evil #ISIS  to protect #womens rights & while #NATO watched silently, as she gt mutilated by their member #Turkey @jensstoltenberg\n#SpeakUpForAfrin\n@UN @AmnestyUN\n@UN\n@hrwpic.twitter.com/EO8XwsQNbC'
p640
S'4:33 PM - 3 Feb 2018'
p641
tp642
a(S'Veterans in the UK are marching in the streets against terrorism. It would be better if they were called Veterans Against Jihad, but that is probably politically unwise in the UK right now... https://www.chroniclelive.co.uk/news/north-east-news/military-veterans-march-through-newcastle-14234105\xc2\xa0\xe2\x80\xa6'
p643
S'4:32 PM - 3 Feb 2018'
p644
tp645
a(S'The Turkish Commander also states that the FSA Jihadists are using child soldiers in the attempted invasion of Afrin / NW Syria and that the Turkish Army is partnered with members of ISIS to whom they are giving houses that local people near the front lines have abandoned. pic.twitter.com/m2xv4Ydq5A'
p646
S'4:25 PM - 3 Feb 2018'
p647
tp648
a(S'Those "israeli" neighborhoods where made by terrorism if terrorism stoped in that region israel would cease to exist.'
p649
S'4:24 PM - 3 Feb 2018'
p650
tp651
a(S'TELL ISIS cardi b is short for cardiovascular bronchitis. pic.twitter.com/FPTWZGk1Sz'
p652
S'4:24 PM - 3 Feb 2018'
p653
tp654
a(S"Sir, I think it's also an act of terrorism...isn't it???"
p655
S'4:23 PM - 3 Feb 2018'
p656
tp657
a(S'It could be that every single indicator of growth and prosperity is rising and ISIS is chum. Just sayin\xe2\x80\x99. https://twitter.com/benjaminwittes/status/959772802265047040\xc2\xa0\xe2\x80\xa6'
p658
S'4:12 PM - 3 Feb 2018'
p659
tp660
a(S'Isis Lowery absolutely nailed it. Holy cow. 9.925. Just awesome. #GoBeavs'
p661
S'4:09 PM - 3 Feb 2018'
p662
tp663
a(S"Let's not forget that before the Deep State attacked him, General Flynn wanted to work with the Russians to end ISIS."
p664
S'4:08 PM - 3 Feb 2018'
p665
tp666
a(S'#SDF Commander: "The Afrin attacks are to keep ISIS standing."\nRojava fought ISIS for the world. Now Turkey invades Afrin to strengthen ISIS- will the world stand with Rojava?  \nhttps://anfenglishmobile.com/features/sdf-commander-the-afrin-attacks-are-to-keep-isis-standing-24688\xc2\xa0\xe2\x80\xa6'
p667
S'4:07 PM - 3 Feb 2018'
p668
tp669
a(S'Perhaps you should tell your readers Katie that Kash Petal was working in Counter Terrorism and flew 27 hours back to Houston, TX for a trial of a now Convicted Terrorist who was planning to blow up Malls? You seem to have left that out of your NY Times Story #NunesMemo'
p670
S'4:06 PM - 3 Feb 2018'
p671
tp672
a(S"It takes GUTS to speak with, admit, seek out the VICTIMS of Illegal Immigration. This has gone on LONG ENOUGH. Those that promote Illegal Immigration can't even agree to SECURE OUR BORDER to prevent terrorism. That SPEAKS VOLUMES! This MESS has gone on SINCE REAGAN gave AMNESTY"
p673
S'4:36 PM - 3 Feb 2018'
p674
tp675
a(S'CIA threatening Trump now? The Deep State is coming unglued on them.\nFormer CIA Counter terrorism Official Threatens Trump, Saying \xe2\x80\x9cWe\xe2\x80\x9d Are Going To Win'
p676
S'4:35 PM - 3 Feb 2018'
p677
tp678
a(S'Pissssst  Sis Not one kiss all day'
p679
S'4:32 PM - 3 Feb 2018'
p680
tp681
a(S'Certainly easier to justify continued US presence in Kurdish areas as long as ISIS is still around...'
p682
S'4:31 PM - 3 Feb 2018'
p683
tp684
a(S'My financial aid needs to come in smhhhhh'
p685
S'4:28 PM - 3 Feb 2018'
p686
tp687
a(S"Pea brain: AVALANCHE are the heroes!\nBig brain: AVALANCHE have good intentions but kill innocents so are bad\nShine brain: AVALANCHE are justified in terrorism against the capitalists\nSpace brain: AVALANCHE's radicalism is connected to their personal issues, devoid of class consci"
p688
S'4:20 PM - 3 Feb 2018'
p689
tp690
a(S"Don't bother. You lost me at ISIS neighbours."
p691
S'4:19 PM - 3 Feb 2018'
p692
tp693
a(S'Americans can get out in front of this. Be proud. Be fierce. You enjoy the protection of the FBI. Cyber and terrorism and natural disasters are huge threats to your way of life. Only the American institutions like the DOJ, FBI, NSA, DIA. Etc. And your common sense can guide you.'
p694
S'4:15 PM - 3 Feb 2018'
p695
tp696
a(S'The FISA warrant generated surveillance on individuals that spread like rat carried plague in the bowels of the @FBI swamp.\n\nIt was never about Page.  It was about the fact that a Title I warrant can be used against any & all that come into contact with him; i.e. entire campaign.'
p697
S'4:15 PM - 3 Feb 2018'
p698
tp699
a(S'Trump\xe2\x80\x99s defenders are mostly uneducated, beaten down red necks.  They have the same attributes as the ISIS recruits - limited education, poverty, hopelessness.  When Trump shows up speaking their language they follow.  He gives them hope, where none exists.'
p700
S'4:15 PM - 3 Feb 2018'
p701
tp702
a(S"Hey guys, here's a little secret. The upper echelons of intelligence and counterterrorism agencies are actually the ones creating and perpetuating the conditions that spread terrorism or, worse directly funding/hiring/supplying terrorists. Whodathunk. Dam."
p703
S'4:10 PM - 3 Feb 2018'
p704
tp705
a(S'Turkish police detain 82 people in raids targeting ISIS: Report https://www.ndtv.com/world-news/turkish-police-detain-82-people-in-raids-targeting-isis-report-1808254\xc2\xa0\xe2\x80\xa6pic.twitter.com/yTKRa0EAPM'
p706
S'4:10 PM - 3 Feb 2018'
p707
tp708
a(S'Open borders is the reason I gave up voting for the Green Party in 2014. Never again! Lee Rigby\xe2\x80\x99s enough! Then I voted for Brexit & closed borders and eventually a proper immigration plan. The world can keep its ISIS types & I\xe2\x80\x99d gladly see the home grown deported from the .'
p709
S'4:08 PM - 3 Feb 2018'
p710
tp711
a(S'The harvest of the Mujahideen operations of the Islamic Emirate in January 2018. Material and corporeal losses of invaders and hirelings in  Afghanistan: 853 operations, 354 vehicles destroyed... #Terrorism #Propaganda #IEA #IO #IntelProfile #CRIPRO ID-5a2046d6251966001143664cpic.twitter.com/6njWgMIchS'
p712
S'4:04 PM - 3 Feb 2018'
p713
tp714
a(S'rebels are in their countries, Turkey is a bordering country. US come for the other side of the globe.If you think rebels are mercenaries because they cooperate with Turkey, we must apply this definition to all groups fighting with foreign help. It let us with Isis non mercenary'
p715
S'4:02 PM - 3 Feb 2018'
p716
tp717
a(S"#PopeRefuseKillerErdogan \nYour excellency, please be with, the Kurds, those, brutally repressed 4 decades in Syria and subject to a 'political genocide' in Turkey. While Erdogan labels a people's legitimate struggle for basic rights as 'terrorism' to justify war crimes"
p718
S'4:00 PM - 3 Feb 2018'
p719
tp720
a(S'How the hell does someone join the military as an illegal. So technically ISIS could enter the US, obtain military training, then form a para military group within or out of the US. It\xe2\x80\x99s crazy..........'
p721
S'4:14 PM - 3 Feb 2018'
p722
tp723
a(S'#arts Funding for arts can be messy but at least the ideas keep flowing - The National http://dlvr.it/QDvnNH\xc2\xa0pic.twitter.com/DZK1PAoutl'
p724
S'4:14 PM - 3 Feb 2018'
p725
tp726
a(S"Turkish Jihadist State's war crimes continues as always. This terror state must be stopped with its proxies like Da'ish/ISIS #Afrinpic.twitter.com/0cbIb1Na36"
p727
S'4:13 PM - 3 Feb 2018'
p728
tp729
a(S"Tell me I'm wrong."
p730
S'4:12 PM - 3 Feb 2018'
p731
tp732
a(S"If a fraction of the people I know IRL were as intellectually engaged and politically informed as most of the people I know on twitter, I'd be in clover as the old timers used to say"
p733
S'4:10 PM - 3 Feb 2018'
p734
tp735
a(S"He's mad at Trump because he blew the hell out of ISIS. Slowing down the voters he was bringing into the country.\n\nNo need for Syrians to leave now.\n\nThat and Trump that's him like a pansy."
p736
S'4:09 PM - 3 Feb 2018'
p737
tp738
a(S'Went to a CVS today, & the check out guy looked like an actual ISIS fighter, the hair, the accent, the nose! Foreigner!!\nHe had the job while Citizens swelter on Bus bench homeless beds'
p739
S'4:07 PM - 3 Feb 2018'
p740
tp741
a(S'Just to be clear, the Russians got rid of ISIS'
p742
S'4:07 PM - 3 Feb 2018'
p743
tp744
a(S"#AMJoy @amjoyshow @JoyAnnReid #NunesMemo #ReleaseTheMemo #FISAMemo #SteeleDossier\n\nImagine #CarterPage were Muslim; recruited by 3 ISIS membrs under FBI investigation (later convicted of terror attack) 3yrs & he's back on FBI radar. Would GOP would care where info came from?"
p745
S'4:05 PM - 3 Feb 2018'
p746
tp747
a(S'I can\xe2\x80\x99t wait till I am 21 like no restrictions in my life bettttt'
p748
S'4:04 PM - 3 Feb 2018'
p749
tp750
a(S'UK terror watchdog defends stance on Isis returnees https://buff.ly/2GG9D1j\xc2\xa0pic.twitter.com/3WafKaOJ4e'
p751
S'4:04 PM - 3 Feb 2018'
p752
tp753
a(S'How anyone can support Labour in their current form is a mystery. \nClearly people have very little self respect. \nBullying, racism, anti Semetism, supporting violence and terrorism, power before the people. All ignored by millions, who prefer a weak lie, over the hard truth.'
p754
S'4:03 PM - 3 Feb 2018'
p755
tp756
a(S'Like, whatcha gonna do when they come for u! Bad lice ,bad licepic.twitter.com/b2EDEx358g'
p757
S'4:03 PM - 3 Feb 2018'
p758
tp759
a(S"Too bad they aren't playing tomorrow. I'd root for them over either of the ones playing - not REAL hard, cuz foosball, but..."
p760
S'4:02 PM - 3 Feb 2018'
p761
tp762
a(S'shall be fined under this title, imprisoned not more than 5 years or, if the offense involves international or domestic terrorism (as defined in section 2331), imprisoned not more than 8 years, or both.'
p763
S'4:01 PM - 3 Feb 2018'
p764
tp765
a(S'Ugghhhhh! Icky , I\xe2\x80\x99m itchy! Those r so gross!pic.twitter.com/Fqt2KoTpeX'
p766
S'4:01 PM - 3 Feb 2018'
p767
tp768
a(S'cursed imagepic.twitter.com/eYZZfakZ6s'
p769
S'4:01 PM - 3 Feb 2018'
p770
tp771
a(S'The latest  DnNet Daily  ! https://paper.li/DnNet_Info/1310601605?edition_id=e22184f0-093e-11e8-8810-0cc47a0d1605\xc2\xa0\xe2\x80\xa6 #terrorism #terrorist'
p772
S'4:03 PM - 3 Feb 2018'
p773
tp774
a(S'The Volkswagen story (a German company gassing people to rebut claims of fraudulent emissions readings) and HSBC escaping indictment (for money laundering for drug cartels responsible for more deaths than Al Qaeda and ISIS combined)...\n\n*This* is public service television.'
p775
S'4:03 PM - 3 Feb 2018'
p776
tp777
a(S'Ethnic conflict, religious strife, terrorism...And with asymmetrical conflict, deterrence is a joke.'
p778
S'4:03 PM - 3 Feb 2018'
p779
tp780
a(S'a phobia is not hate, it is a fear and islamophobia is a fear of terrorism. islam is not a race.'
p781
S'4:03 PM - 3 Feb 2018'
p782
tp783
a(S'Sounds like Obama not calling Isis by their name.'
p784
S'4:03 PM - 3 Feb 2018'
p785
tp786
a(S'ISIS IS A FIREND TO YOU'
p787
S'4:03 PM - 3 Feb 2018'
p788
tp789
a(S'ISIS AWAN/SHULTZ DEM TECH GHOST PAYROLL REVIEW STATE DEPARTMENT HANDLING ON PRIVATE SERVER>GLOBAL FOUNDATION CLINTON 145 MILLION + STEVE KONDIC ICE AGENT SERBIAN TOLD ME CLINTON HIDING ZILLION IN SERBIAN & NAZI DEUTCH BANK RUSSIAN BANKS URANIUM ONE 20% TREASON CIFUS CRIME REVIEW'
p790
S'4:03 PM - 3 Feb 2018'
p791
tp792
a(S'Sorry to break it to you, sir." Judge Aquilina to disgraced ex-USA Gymnastics coach Larry Nassar molested over 156 girls/women. He deserves to be had. Anyone who puts this on the #WarRoomShow command center. More on protester arrested at Trump\'s success against ISIS vs. President'
p793
S'4:03 PM - 3 Feb 2018'
p794
tp795
a(S"#StormFaith Obama's 'cultural terrorism' left trust deficit abroad - The United States needs to do much work to repair relations with Slovakia and other members of the Visegrad Four, European nations where traditional family values and morals were\xc2\xa0und... http://ow.ly/1YXj50gmvGF\xc2\xa0"
p796
S'4:02 PM - 3 Feb 2018'
p797
tp798
a(S'White supremist is euphemism for Christian terrorists.\n\nKind of important to distinguish where the idea of racism and tribal dogshit dogma repeating terrorism superstition comes from.\nWe give it 86 billion dollars in tax subsidies every year.\n\nWhat a disgrace Christianity is. https://twitter.com/secularstudents/status/959939444001341445\xc2\xa0\xe2\x80\xa6'
p799
S'4:02 PM - 3 Feb 2018'
p800
tp801
a(S"I'm sure all terrorist Acts from here on out will have been done by Al-Qaeda the Taliban or any other terrorist link organization since mr. Trump has defeated Isis"
p802
S'4:02 PM - 3 Feb 2018'
p803
tp804
a(S"Obama's 'cultural terrorism' left trust deficit abroad http://ift.tt/2nCrzSH\xc2\xa0"
p805
S'4:02 PM - 3 Feb 2018'
p806
tp807
a(S'when isis do my makeup on Thursday ima blow sc up omg'
p808
S'4:01 PM - 3 Feb 2018'
p809
tp810
a(S'Underground News Inc.: Militant Islamic Group ISIS Trained at U.S. Base i... http://undergroundnewzinc.blogspot.com/2017/04/militant-islamic-group-isis-trained-at.html?spref=tw\xc2\xa0\xe2\x80\xa6'
p811
S'4:01 PM - 3 Feb 2018'
p812
tp813
a(S'I never said it was only the West, I said all of them have evil people, even Muslims. Btw they did seize some weapons that\xe2\x80\x99s true, but some Americans were also caught aiding isis .'
p814
S'4:01 PM - 3 Feb 2018'
p815
tp816
a(S'The US has not equipped any partner forces in Syria with surface-to-air weapons and has no intention to do so in the future. Our operations are geographically focused on ongoing combat operations against ISIS  Eric Pahon.\nEmphatic and good enough for me. #Syria #Russia'
p817
S'4:01 PM - 3 Feb 2018'
p818
tp819
a(S"She's ripping off her covering after being liberated from ISIS. Super happy"
p820
S'4:00 PM - 3 Feb 2018'
p821
tp822
a(S'They are btec isis BANZAI!'
p823
S'4:00 PM - 3 Feb 2018'
p824
tp825
a(S'ISIS releases images of gun store in Mosul | Daily Mail Online http://ref.gl/KaHDB5ro\xc2\xa0'
p826
S'4:00 PM - 3 Feb 2018'
p827
tp828
a(S'New post: Terrorism \xe2\x80\x93 A Threat to Global Peace http://www.nafassinews.com/terrorism-a-threat-to-global-peace-9/\xc2\xa0\xe2\x80\xa6'
p829
S'4:00 PM - 3 Feb 2018'
p830
tp831
a(S'Tantas veces no s\xc3\xa9 hacer con lo que me dices, s\xc3\xb3lo puedo almacenarlo en el coraz\xc3\xb3n e ir aliment\xc3\xa1ndome cuando llega el fr\xc3\xado.'
p832
S'4:02 PM - 3 Feb 2018'
p833
tp834
a(S'Please RT #interiordesign #homedecor #decoration The Greatest Architectural Disasters not Connected with... http://bit.ly/2DZC5xx\xc2\xa0'
p835
S'4:01 PM - 3 Feb 2018'
p836
tp837
a(S'Hace rato que llegu\xc3\xa9 Ian me pregunt\xc3\xb3 que qu\xc3\xa9 cosa buena me hab\xc3\xada pasado en la semana y me qued\xc3\xa9 pasmada. Me acorrol\xc3\xb3pic.twitter.com/Y4ukjVdWwH'
p838
S'4:01 PM - 3 Feb 2018'
p839
tp840
a(S'Eu mesma, chorei horrores!'
p841
S'4:01 PM - 3 Feb 2018'
p842
tp843
a(S'Se compra unos aud\xc3\xadfonos inal\xc3\xa1mbricos. Se le enredan.'
p844
S'4:01 PM - 3 Feb 2018'
p845
tp846
a(S'AAAAAAAAAAAAAAAAAAAAAH https://twitter.com/paixaofla22/status/959936365327798272\xc2\xa0\xe2\x80\xa6'
p847
S'4:01 PM - 3 Feb 2018'
p848
tp849
a(S'T\xc3\xa1 maluco nunca mais vou nesse bloco de nova Igua\xc3\xa7u'
p850
S'4:01 PM - 3 Feb 2018'
p851
tp852
a(S'A DROGA DO AMORRRRR'
p853
S'4:00 PM - 3 Feb 2018'
p854
tp855
a(S'\xe7\xa7\x81\xe3\x81\xaf\xe3\x80\x81\xe3\x82\x82\xe3\x81\x86\xe8\xbf\xb7\xe3\x82\x8f\xe3\x81\xaa\xe3\x81\x84\xe3\x80\x82\n\xe3\x81\x93\xe3\x81\xae\xe5\x8a\x9b\xe3\x82\x92\xe3\x80\x81\xe3\x81\x93\xe3\x81\xae\xe4\xb8\x96\xe7\x95\x8c\xe3\x81\xae\xe4\xba\xba\xe9\x81\x94\xe3\x82\x92\xe5\xae\x88\xe3\x82\x8b\xe7\x82\xba\xe3\x81\xab\xe4\xbd\xbf\xe3\x81\x86 #persona3'
p856
S'4:00 PM - 3 Feb 2018'
p857
tp858
a(S'Chorei com eles'
p859
S'4:00 PM - 3 Feb 2018'
p860
tp861
a(S'#Muhajir Genocide continues. By Pakistan military, a supporter, promoter & harborer of terrorism. #FreeKarachi\nhttps://youtu.be/kQs3znUxphM\xc2\xa0\n@theresa_may @WhiteHouse @Cabinet @cabinetofficeuk @StateDept @USTreasury @hrw @HouseGOP'
p862
S'4:00 PM - 3 Feb 2018'
p863
tp864
a(S"Terrorismo in Italia, dove non pu\xc3\xb2 l'Isis, ci pensa la Lega.\n\n#Macerata"
p865
S'4:00 PM - 3 Feb 2018'
p866
tp867
a(S'Shum\xc3\xab interesant! ISIS ka vrar\xc3\xab tri fish m\xc3\xab pak civil\xc3\xab p\xc3\xabr 4-5 vite, se sa q\xc3\xab ka vra S\xc3\xabrbia civil\xc3\xab n\xc3\xab Kosov\xc3\xab brenda 2 viteve. Terorista? Cili ma shum\xc3\xab e cili ma pak?'
p868
S'4:00 PM - 3 Feb 2018'
p869
tp870
a(S'   '
p871
S'4:00 PM - 3 Feb 2018'
p872
tp873
a(S'Quien conoce a @sebastiansibila  :v?'
p874
S'4:00 PM - 3 Feb 2018'
p875
tp876
a(S'Targeted #ISIS accounts\nhttps://twitter.com/intent/user?user_id=956922319221518336\xc2\xa0\xe2\x80\xa6\nhttps://twitter.com/intent/user?user_id=956516781300047872\xc2\xa0\xe2\x80\xa6\nhttps://twitter.com/intent/user?user_id=956512398755721218\xc2\xa0\xe2\x80\xa6\n#targets #iceisis #opiceisis'
p877
S'4:00 PM - 3 Feb 2018'
p878
tp879
a(S'#Libro #Kindle #Amazon\n#REIKI: Curso completo con los tres niveles, de Isis Estrada (versi\xc3\xb3n Kindle eBook) \nhttps://www.amazon.com/Reiki-completo-niveles-ense%C3%B1anza-tradicional-ebook/dp/B074BHK1CF/ref=sr_1_1?ie=UTF8&qid=1513177025&sr=8-1&keywords=reiki+isis+estrada\xc2\xa0\xe2\x80\xa6'
p880
S'4:00 PM - 3 Feb 2018'
p881
tp882
a(S'New York attack: Truck terrorist left behind an ISIS flag | Daily Mail Online http://ref.gl/37uldOpk\xc2\xa0'
p883
S'4:00 PM - 3 Feb 2018'
p884
tp885
a(S'@INTERPOL_Cyber Along w/ cyber-terrorism, subliminal messaging, words of hate fill my browser window suggestions. Torment serves no purpose.'
p886
S'4:00 PM - 3 Feb 2018'
p887
tp888
a.