(lp0
(S'Chief of Staff John Kelly on dealing with ISIS pic.twitter.com/IjFB7g4mPw'
p1
S'11:26 AM - 12 Oct 2017'
p2
tp3
a(S'Report: ISIS "White Widow" killed overseas. pic.twitter.com/fj74NiIajk'
p4
S'5:15 AM - 12 Oct 2017'
p5
tp6
a(S'Terrorism suspected in Edmonton attack that leaves 5 injured http://fxn.ws/2fB924J\xc2\xa0pic.twitter.com/NNn6OQAnF2'
p7
S'6:57 AM - 1 Oct 2017'
p8
tp9
a(S'Coalition forces capture one of the last ISIS strongholds inside Iraq; @JohnHuddyFNC reports. pic.twitter.com/IbfnPUYGTb'
p10
S'7:01 AM - 5 Oct 2017'
p11
tp12
a(S"ISIS recruiter 'White Widow' believed dead after US strike in Syria http://www.foxnews.com/world/2017/10/12/top-british-isis-recruiter-white-widow-believed-to-be-dead-after-us-strike-in-syria.html\xc2\xa0\xe2\x80\xa6"
p13
S'5:30 AM - 12 Oct 2017'
p14
tp15
a(S'.@BuckSexton: "The Trump administration certainly accelerated the anti-ISIS campaign." pic.twitter.com/MSjArUD29o'
p16
S'7:28 AM - 9 Oct 2017'
p17
tp18
a(S'Sexton: "You have [ISIS] on its heels, so desperate for attention,they\'re trying to latch onto something that has nothing to do with them." pic.twitter.com/6DKr13VZ5t'
p19
S'7:29 PM - 5 Oct 2017'
p20
tp21
a(S'London police say vehicle ramming into museum crowd is not terrorism related: report     http://www.foxnews.com/world/2017/10/07/car-rams-into-crowd-outside-london-museum-several-injured-police-say.html\xc2\xa0\xe2\x80\xa6'
p22
S'9:33 AM - 7 Oct 2017'
p23
tp24
a(S'French lawmakers approve tough counter-terrorism bill after string of fatal attacks (via @luciasuarezsang) http://fxn.ws/2xhrUMp\xc2\xa0pic.twitter.com/CWGyX1lUix'
p25
S'11:25 AM - 4 Oct 2017'
p26
tp27
a(S'Tillerson: "ISIS\'s fraudulent caliphate in Iraq and Syria is on the brink of being completely extinguished." pic.twitter.com/riebWkptxH'
p28
S'8:01 AM - 4 Oct 2017'
p29
tp30
a(S"Las Vegas shooting: From ISIS to gambling debts, theories abound for shooter's motive http://fxn.ws/2xZ5GTt\xc2\xa0"
p31
S'8:20 PM - 3 Oct 2017'
p32
tp33
a(S'ISIS claims responsibility for Marseille train station attack; 2 women killed http://www.foxnews.com/world/2017/10/01/isis-claims-responsibility-for-marseille-train-station-attack-2-women-killed.html\xc2\xa0\xe2\x80\xa6'
p34
S'3:28 PM - 1 Oct 2017'
p35
tp36
a(S'.@KayaJones on @foxandfriends: \xe2\x80\x9cWe cannot allow any kind of terrorism, whether it\xe2\x80\x99s foreign or domestic, to take control of our mind.\xe2\x80\x9d pic.twitter.com/ODseZbd4EQ'
p37
S'3:25 AM - 3 Oct 2017'
p38
tp39
a(S'ISIS releases alleged al-Baghdadi tape, as shadowy leader appears to again escape death\nhttp://www.foxnews.com/world/2017/09/28/is-releases-purported-audio-message-from-top-leader.html\xc2\xa0\xe2\x80\xa6'
p40
S'10:46 AM - 28 Sep 2017'
p41
tp42
a(S'Chief of Staff John Kelly: "The United States will stand with any country against terrorism." pic.twitter.com/yHXHEXJ9pU'
p43
S'11:29 AM - 12 Oct 2017'
p44
tp45
a(S'.@POTUS: "America greatly appreciates Spain\'s contribution to the coalition to defeat ISIS." pic.twitter.com/qutPBylsrD'
p46
S'11:09 AM - 26 Sep 2017'
p47
tp48
a(S'ISIS, private militias threaten Libyan recovery, says former prime minister http://www.foxnews.com/world/2017/09/28/isis-private-militias-threaten-libyan-recovery-says-former-prime-minister.html\xc2\xa0\xe2\x80\xa6'
p49
S'2:11 PM - 29 Sep 2017'
p50
tp51
a(S'How to successfully sue ISIS, Hezbollah or the regimes of Iran, Syria and North Korea http://fxn.ws/2wjE9bU\xc2\xa0 via @holliesmckay'
p52
S'10:15 PM - 26 Sep 2017'
p53
tp54
a(S'Kevin McMahill on ISIS claiming responsibility for #LasVegas shooting: "We have no known nexus to [these claims]."pic.twitter.com/icXIhEwoH6'
p55
S'1:20 PM - 6 Oct 2017'
p56
tp57
a(S'Aaron Rouse: "We have found no evidence to indicate that this was terrorism. But this is an ongoing investigation." #LasVegaspic.twitter.com/hwOVqsIW3p'
p58
S'5:52 PM - 4 Oct 2017'
p59
tp60
a(S'London police say vehicle ramming into crowd is not terrorism related, 11 people injured\nhttp://www.foxnews.com/world/2017/10/07/car-rams-into-crowd-outside-london-museum-several-injured-police-say.html\xc2\xa0\xe2\x80\xa6'
p61
S'11:32 AM - 7 Oct 2017'
p62
tp63
a(S'Terrorism suspected in Edmonton attack that leaves 5 injured http://fxn.ws/2fB924J\xc2\xa0'
p64
S'4:26 AM - 1 Oct 2017'
p65
tp66
a(S'.@holliesmckay: ISIS, private militias threaten Libyan recovery, says former prime minister http://fxn.ws/2xDzntL\xc2\xa0'
p67
S'10:15 PM - 29 Sep 2017'
p68
tp69
a.