(lp0
(S'.@adrienneelrod: "[@POTUS] owes this to the American people to explain, in his own words, what happened. If there really was no collusion with Russia, then sitting down with special counsel Mueller should not even be an issue with him." http://fxn.ws/2qOedqz\xc2\xa0 #FoxNewsSundaypic.twitter.com/tzppLFfVki'
p1
S'12:30 PM - 14 Jan 2018'
p2
tp3
a(S'.@CLewandowski_: "There was no collusion, cooperation, or coordination between the Trump campaign and Russia." #OutnumberedOTpic.twitter.com/NjEzW6nHsz'
p4
S'10:37 AM - 16 Jan 2018'
p5
tp6
a(S"Trump slams 'phony' book as distraction from Russia collusion 'hoax' http://fxn.ws/2AxNJcl\xc2\xa0"
p7
S'10:40 AM - 5 Jan 2018'
p8
tp9
a(S'.@POTUS on the Russia investigation: "There absolutely was no collusion. Everybody knows it." pic.twitter.com/oddH3s8YZ9'
p10
S'12:44 PM - 10 Jan 2018'
p11
tp12
a(S'.@RepMattGaetz: "As we continue to connect the dots we\'ll see that there was no collusion between the Trump campaign and Russia but that there was tremendous collusion with the Democratic Party and the FBI to dig up these false facts." pic.twitter.com/hGbBjCM8ZU'
p13
S'8:55 AM - 10 Jan 2018'
p14
tp15
a(S'.@PressSec on if @DonaldJTrumpJr committed treason: "I think that is a ridiculous accusation... and if that\'s in reference to comments made by Mr. Bannon, I\'d refer you back to the ones he made on 60 Minutes where he called the collusion with Russia and [#Trump] a total farce."pic.twitter.com/A6VxoE6Z0w'
p16
S'12:32 PM - 3 Jan 2018'
p17
tp18
a(S'.@bevhallberg on Russia probe: "The lack of evidence of collusion isn\'t because of a lack of investigation. There have now been six investigations against @realDonaldTrump and yet they have found nothing."pic.twitter.com/BoOBDDbI1O'
p19
S'11:49 AM - 6 Jan 2018'
p20
tp21
a(S".@TuckerCarlson sat down with former @HillaryClinton adviser @PhilippeReines on #Tucker to discuss Mueller's Russia probe & whether there is any evidence of collusion pic.twitter.com/YwFxgeXlzE"
p22
S'5:20 PM - 5 Jan 2018'
p23
tp24
a(S"Trump slams 'phony' book as distraction from Russia collusion 'hoax' - via @brookefoxnewshttp://www.foxnews.com/politics/2018/01/05/trump-slams-phony-book-as-distraction-from-russia-collusion-hoax.html\xc2\xa0\xe2\x80\xa6"
p25
S'7:30 AM - 5 Jan 2018'
p26
tp27
a.