(lp0
(S".@SarahHuckabee: The only thing I see misleading is year's worth of stories that have been fueling a false narrative about Russia collusion. pic.twitter.com/BDzIaiHzNU"
p1
S'11:56 AM - 1 Aug 2017'
p2
tp3
a(S'.@LindseyGrahamSC on Russia probe: "I haven\'t seen any evidence of collusion." http://fxn.ws/2fhr4MC\xc2\xa0pic.twitter.com/2d1jw8cODU'
p4
S'12:04 PM - 5 Aug 2017'
p5
tp6
a(S"Podesta's think tank declares 'clear collusion' between Trump campaign, Russia - via @brookefoxnewshttp://www.foxnews.com/politics/2017/08/02/podestas-think-tank-declares-clear-collusion-between-trump-campaign-russia.html\xc2\xa0\xe2\x80\xa6"
p7
S'1:53 PM - 2 Aug 2017'
p8
tp9
a(S'.@POTUS: "They\'re investigating something that never happened. There was no collusion between us and Russia." pic.twitter.com/kB9V4dnQqE'
p10
S'1:49 PM - 10 Aug 2017'
p11
tp12
a(S'On WattersWorld, @DiamondandSilk gave their take on the Russia collusion narrative dogging @POTUS.pic.twitter.com/DHsuWZkIbL'
p13
S'11:16 AM - 6 Aug 2017'
p14
tp15
a.