(lp0
(S"Notorious ISIS recruiter Sally Jones reportedly 'wants to get back to Britain'  http://fxn.ws/2sFWWeE\xc2\xa0pic.twitter.com/QGjn9jXhiC"
p1
S'10:23 PM - 3 Jul 2017'
p2
tp3
a(S'Top US admiral warns: ISIS-linked militants seek new fronts in Asia http://fxn.ws/2s17khG\xc2\xa0'
p4
S'2:46 AM - 28 Jun 2017'
p5
tp6
a(S'MORNING BRIEF: Author says US missed chance to kill ISIS leader Baghdadi http://fxn.ws/2slyuPz\xc2\xa0'
p7
S'2:37 AM - 28 Jun 2017'
p8
tp9
a(S'Yesterday, @USMC explained how "Marines in Syria show ISIS why artillery is the king of battle." pic.twitter.com/NVZu3skUEa'
p10
S'10:34 AM - 2 Jul 2017'
p11
tp12
a(S'ISIS gunned down pregnant women, babies, former Navy SEAL recalls  http://fxn.ws/2t9txgJ\xc2\xa0 via @holliesmckay #FOXNewsWorldpic.twitter.com/L9yH7L6Xsp'
p13
S'9:20 AM - 3 Jul 2017'
p14
tp15
a(S'Last ISIS escape route in Raqqa hub cut off, Syrian monitors say  http://fxn.ws/2sUZiK0\xc2\xa0 #FOXNewsWorldpic.twitter.com/ln8uMx6MLX'
p16
S'12:55 PM - 29 Jun 2017'
p17
tp18
a(S'WATCH: US Aid Worker Risks Life to Rescue Iraqi Girl from ISIS Firefight\nhttp://insider.foxnews.com/2017/07/02/war-terror-man-saves-iraqi-girl-isis-battle-mosul\xc2\xa0\xe2\x80\xa6'
p19
S'8:11 AM - 2 Jul 2017'
p20
tp21
a(S'Shooting outside France mosque injures 8, police rule out terrorism http://fxn.ws/2tC1EP0\xc2\xa0 #FOXNewsWorld'
p22
S'7:09 PM - 2 Jul 2017'
p23
tp24
a(S"ISIS brides explain why they left their home countries to join the 'Caliphate' | #FOXNewsWorld http://fxn.ws/2ulNHlZ\xc2\xa0pic.twitter.com/4PZeeHCyvn"
p25
S'9:24 AM - 4 Jul 2017'
p26
tp27
a(S'New ISIS video shows kids as young as 8 executing prisoners http://fxn.ws/2si5BE0\xc2\xa0'
p28
S'7:29 AM - 27 Jun 2017'
p29
tp30
a(S".@TheDroneWarrior: Obama's team had the chance to kill ISIS leader Al Baghdadi http://fxn.ws/2tVX3Vi\xc2\xa0pic.twitter.com/LrEVmmRWiZ"
p31
S'7:55 PM - 27 Jun 2017'
p32
tp33
a(S"Iraqi prime minister hails 'big victory in Mosul' over ISIS http://fxn.ws/2tnbxO3\xc2\xa0 #FOXNewsWorld"
p34
S'9:00 PM - 4 Jul 2017'
p35
tp36
a(S'#LittleRock Authorities: "All of the victims are expected to survive... This was not an act of terrorism." http://fxn.ws/2ubon1Y\xc2\xa0pic.twitter.com/NAxZfDq4tp'
p37
S'1:01 PM - 1 Jul 2017'
p38
tp39
a(S'.@POTUS on ISIS being driven out of Mosul: http://fxn.ws/2t6p1Mw\xc2\xa0pic.twitter.com/nK76q3ewFq'
p40
S'4:27 PM - 10 Jul 2017'
p41
tp42
a(S'.@greggutfeld: What Happens When ISIS Returns to Europe  #TheFivepic.twitter.com/g5ANpGi0BN'
p43
S'6:52 PM - 29 Jun 2017'
p44
tp45
a(S'How the US Air Force takes on ISIS one jet at a time | @FoxNewsOpinion #ProudAmerican #USAF http://fxn.ws/2tNoLGX\xc2\xa0pic.twitter.com/Z9GZ5eDkfy'
p46
S'11:24 AM - 4 Jul 2017'
p47
tp48
a(S'Mosul reclaimed: ISIS routed from Iraqi city, US-led coalition says http://fxn.ws/2t6p1Mw\xc2\xa0'
p49
S'10:35 AM - 10 Jul 2017'
p50
tp51
a(S'.@ProfHughDugan: A Russian as @UN counter-terrorism czar? Bad idea\nhttp://www.foxnews.com/opinion/2017/06/24/russian-as-un-counter-terrorism-czar-bad-idea.html\xc2\xa0\xe2\x80\xa6'
p52
S'11:26 AM - 24 Jun 2017'
p53
tp54
a(S'.@POTUS considering Camp David-style summit to unite Arab leaders to fight terrorism\nhttp://www.foxnews.com/politics/2017/06/23/trump-considering-camp-david-style-summit-to-unite-arab-leaders-to-fight-terrorism.html\xc2\xa0\xe2\x80\xa6'
p55
S'10:28 AM - 24 Jun 2017'
p56
tp57
a(S'Female Kurdish Fighter Smiles, Sticks Her Tongue Out After ISIS Bullet Misses Her Head \nhttp://insider.foxnews.com/2017/06/28/isis-terrorism-female-kurdish-fighter-smiles-sticks-tongue-bullet-misses-head\xc2\xa0\xe2\x80\xa6'
p58
S'3:46 PM - 28 Jun 2017'
p59
tp60
a(S"Sally Jones: UK-born ISIS recruiter 'wants to get back to Britain'\n http://fxn.ws/2ujbcME\xc2\xa0"
p61
S'4:06 PM - 3 Jul 2017'
p62
tp63
a(S'Trump considering Camp David-style summit to unite Arab leaders to fight terrorism\nhttp://www.foxnews.com/politics/2017/06/23/trump-considering-camp-david-style-summit-to-unite-arab-leaders-to-fight-terrorism.html\xc2\xa0\xe2\x80\xa6'
p64
S'12:13 PM - 24 Jun 2017'
p65
tp66
a(S'ISIS defeated, but not destroyed, as terror group still holds strategic swaths of Iraq  http://fxn.ws/2tlQSvG\xc2\xa0 via @holliesmckaypic.twitter.com/GvMPmtfYr8'
p67
S'8:15 PM - 6 Jul 2017'
p68
tp69
a(S'JUST IN: #Hawaii-based soldier arrested for alleged ties to ISIS, official says\nhttp://www.foxnews.com/us/2017/07/10/hawaii-based-soldier-arrested-for-alleged-ties-to-isis-official-says.html\xc2\xa0\xe2\x80\xa6'
p70
S'3:01 PM - 10 Jul 2017'
p71
tp72
a(S'.@SarahHuckabee on terrorism: "I think that our goal every day is to do what we can to protect life in all forms." http://fxn.ws/2sNJaKj\xc2\xa0pic.twitter.com/OVPewzhvlF'
p73
S'12:26 PM - 27 Jun 2017'
p74
tp75
a(S'.@IngrahamAngle on @POTUS/Putin meeting: "We\'d both like to get rid of ISIS, which is a big deal." #Hannitypic.twitter.com/4ITwemz5fU'
p76
S'7:24 PM - 7 Jul 2017'
p77
tp78
a(S'"We are fighting hard against radical Islamic terrorism and we will prevail. We cannot accept those who reject our values." - @POTUSpic.twitter.com/ExOWJD8s6F'
p79
S'4:53 AM - 6 Jul 2017'
p80
tp81
a(S'.@KellyannePolls: "We know the stock market loves that this man is president, ISIS is on the run, jobs are being produced." pic.twitter.com/iJI5ZMXGis'
p82
S'5:48 AM - 3 Jul 2017'
p83
tp84
a.