(lp0
(S".@POTUS turns collusion charge on Obama for doing 'nothing' on Russia | Read more: http://fxn.ws/2sTjmLh\xc2\xa0pic.twitter.com/YJC4EAbOG5"
p1
S'7:07 PM - 26 Jun 2017'
p2
tp3
a(S'Hume: @DonaldJTrumpJr Meeting Is Evidence of Russia Contact, But Not Collusion http://bit.ly/2v3UQXG\xc2\xa0'
p4
S'3:04 PM - 10 Jul 2017'
p5
tp6
a(S'Russia probe pile-on: No fewer than 9 teams investigating collusion, meddling http://fxn.ws/2sqUJnu\xc2\xa0 #Hannity'
p7
S'7:35 PM - 29 Jun 2017'
p8
tp9
a(S'.@realamymholmes on Russia collusion story: "That\'s the mainstream media\'s obsession of course, and still there\'s no smoking gun." pic.twitter.com/66AYWYzD3U'
p10
S'1:56 PM - 5 Jul 2017'
p11
tp12
a(S".@POTUS turns collusion charge on @BarackObama for doing 'Nothing' on Russia http://fxn.ws/2sTjmLh\xc2\xa0 #Hannity"
p13
S'7:27 PM - 27 Jun 2017'
p14
tp15
a.