(lp0
(S'.@MarkSteynOnline on Trump/Russia collusion: "There is still no there there." #Outnumberedpic.twitter.com/svJASzS0gh'
p1
S'9:36 AM - 14 Jul 2017'
p2
tp3
a(S"MORNING BRIEF: Conway responds to Russia 'collusion' reports http://fxn.ws/2ulm2EY\xc2\xa0"
p4
S'2:18 AM - 13 Jul 2017'
p5
tp6
a(S".@ericbolling: None of the Russia Collusion 'Bombshells' Are Panning Out\nhttp://insider.foxnews.com/2017/07/13/eric-bolling-rep-brad-sherman-article-impeachment-against-trump-democrats\xc2\xa0\xe2\x80\xa6"
p7
S'3:23 PM - 13 Jul 2017'
p8
tp9
a(S".@dbongino: 'X-files' Russia Collusion Investigation Like Living in 'Banana Republic' http://bit.ly/2gSVKE3\xc2\xa0pic.twitter.com/06LF9R1Rx8"
p10
S'2:33 PM - 22 Jul 2017'
p11
tp12
a(S'.@JudgeJeanine said she is sick of the Russia collusion narrative preventing @POTUS from enacting his agenda. http://bit.ly/2vrc5T5\xc2\xa0pic.twitter.com/BXdu1uzBIM'
p13
S'11:04 AM - 16 Jul 2017'
p14
tp15
a(S"On @MediaBuzzFNC, @KatrinaPierson slammed the Russia collusion story she says is a hoax that's inhibiting @POTUS from doing his job.pic.twitter.com/k18iofPhZJ"
p16
S'2:41 PM - 23 Jul 2017'
p17
tp18
a.