(lp0
(S'.@mschlapp on FISA: "It would be a big mistake for us to not give [the intel community] the tools to stop terrorism, because we will have dead Americans if we don\'t."  #SpecialReport http://fxn.ws/2CQfMWn\xc2\xa0pic.twitter.com/SmopCbcVzZ'
p1
S'4:00 PM - 11 Jan 2018'
p2
tp3
a(S'Senior Pentagon soldier to ISIS: Surrender or get beaten with entrenchment tool http://fxn.ws/2AQxk2I\xc2\xa0'
p4
S'12:57 PM - 11 Jan 2018'
p5
tp6
a(S".@realDonaldTrump accused @BarackObama administration Tuesday of helping fund Iran's 'terrorism,' praised protests http://bit.ly/2CHdtpp\xc2\xa0pic.twitter.com/qmjoEB8Xxs"
p7
S'9:30 PM - 2 Jan 2018'
p8
tp9
a(S"NYPD investigating 'ISIS selfies' outside NYC museum: report http://fxn.ws/2Aitmjo\xc2\xa0"
p10
S'8:13 AM - 3 Jan 2018'
p11
tp12
a(S'"Together, we have fought against fascism and communism and terrorism, and we face threats always together. We\'re partners." pic.twitter.com/6oihlovGB6'
p13
S'12:27 PM - 10 Jan 2018'
p14
tp15
a(S'.@leezeldin on @POTUS\' first year successes: "ISIS is getting wiped off the map all across Iraq and Syria, our military is feeling good about it." @JudgeJeaninepic.twitter.com/DvE4lUNtix'
p16
S'6:22 PM - 30 Dec 2017'
p17
tp18
a(S'.@PressSec on Pakistan: "We know that they can do more to stop terrorism and we want them to do that." pic.twitter.com/mCWpDNj80B'
p19
S'11:58 AM - 2 Jan 2018'
p20
tp21
a(S'Dreaded, sadistic ISIS executioner reportedly captured in Iraq; could be executed himself http://fxn.ws/2lH4Zr3\xc2\xa0'
p22
S'6:06 PM - 2 Jan 2018'
p23
tp24
a(S'.@RandPaul: "There are so many millions of Americans in the database. We should not be searching Americans if you\'re not involved with terrorism or nor not connected to a terror target." pic.twitter.com/HdIT1RZ3VH'
p25
S'6:11 AM - 11 Jan 2018'
p26
tp27
a(S'.@POTUS: "Norway is also a vital and valued member of the campaign to defeat ISIS. Because of us, ISIS has now lost almost 100 percent of the territory it previously held not so long ago." pic.twitter.com/zNKn9DfAVN'
p28
S'12:20 PM - 10 Jan 2018'
p29
tp30
a(S'.@KellyannePolls: "ISIS is in retreat, the caliphate is destroyed." pic.twitter.com/DB3bym0Sim'
p31
S'4:39 AM - 2 Jan 2018'
p32
tp33
a(S"Trump accuses Obama administration of helping fund Iran's 'terrorism,' praises protests - via @brookefoxnewshttp://www.foxnews.com/politics/2018/01/02/trump-accuses-obama-administration-helping-fund-irans-terrorism-praises-protests.html\xc2\xa0\xe2\x80\xa6"
p34
S'5:22 AM - 2 Jan 2018'
p35
tp36
a(S'Wendy Osefo on @POTUS taking on ISIS: "When [Obama] was looking at Afghanistan and Iran, he had bipartisan support and that is the big needle in the side of this president is that he lacks that bipartisan support." #TheStorypic.twitter.com/oWWYhJpmEM'
p37
S'4:53 PM - 29 Dec 2017'
p38
tp39
a(S'Senior Pentagon soldier to ISIS: Surrender or get beaten with entrenchment tool - via @luciasuarezsanghttp://www.foxnews.com/us/2018/01/11/senior-pentagon-soldier-to-isis-surrender-or-get-beaten-with-entrenchment-tool.html\xc2\xa0\xe2\x80\xa6'
p40
S'11:23 AM - 11 Jan 2018'
p41
tp42
a.