(lp0
(S'VA man pleads guilty to terrorism charges. http://fxn.ws/2fMtdjq\xc2\xa0pic.twitter.com/ELsiZ9fUBb'
p1
S'11:58 AM - 16 Aug 2017'
p2
tp3
a(S"ISIS, squeezed out of Iraq and Syria, now 'regrouping' in Libya, analysts say http://fxn.ws/2uORA3u\xc2\xa0"
p4
S'4:05 AM - 31 Jul 2017'
p5
tp6
a(S'ISIS used eBay to funnel terror cash to US, feds say http://fxn.ws/2uu9j3p\xc2\xa0'
p7
S'9:45 PM - 10 Aug 2017'
p8
tp9
a(S'Turkish police officer stabbed to death by suspected ISIS suicide bomber in Istanbul http://www.foxnews.com/world/2017/08/13/turkish-police-officer-stabbed-to-death-by-suspected-isis-suicide-bomber-in-istanbul.html\xc2\xa0\xe2\x80\xa6'
p10
S'4:13 PM - 13 Aug 2017'
p11
tp12
a(S'Bolton: \xe2\x80\x9cWe should not allow ourselves to be held hostage by this erratic regime and the threat of nuclear terrorism against our country. pic.twitter.com/F1FEu6FPFF'
p13
S'7:16 PM - 11 Aug 2017'
p14
tp15
a(S'ISIS, Taliban joined forces in brutal Afghan massacre that killed 50, officials say http://fxn.ws/2wuYR98\xc2\xa0'
p16
S'1:46 PM - 9 Aug 2017'
p17
tp18
a(S'"About a third of all of the gains we\'ve made against ISIS in Iraq and Syria have come in the last six months." \xe2\x80\x93Brett McGurk pic.twitter.com/YyVnMBzGKx'
p19
S'12:13 PM - 7 Aug 2017'
p20
tp21
a(S'.@WSJ: ISIS used @eBay to funnel money to U.S.; @dougmckelway reports.pic.twitter.com/cBETfkSClu'
p22
S'10:32 AM - 11 Aug 2017'
p23
tp24
a(S'Extremist monitoring group: ISIS claims responsibility for #Barcelona attack.pic.twitter.com/oQLv4W0VsH'
p25
S'12:43 PM - 17 Aug 2017'
p26
tp27
a(S'ISIS getting smarter about penetrating Western security, anti-terror expert warns http://fxn.ws/2hMLmhV\xc2\xa0 via @LukasMikelionis'
p28
S'10:55 PM - 9 Aug 2017'
p29
tp30
a(S"#Barcelona attack underscores Spain's vulnerability to terrorism\nhttp://www.foxnews.com/world/2017/08/17/barcelona-attack-underscores-spains-vulnerability-to-terrorism.html\xc2\xa0\xe2\x80\xa6"
p31
S'12:28 PM - 17 Aug 2017'
p32
tp33
a(S"McMaster calls violence in Charlottesville 'terrorism,' as @realDonaldTrump pressed to reject groupshttp://fxn.ws/2vvWhRO\xc2\xa0"
p34
S'2:11 AM - 14 Aug 2017'
p35
tp36
a(S"MORNING BRIEF: McMaster calls Charlottesville violence 'terrorism' http://www.foxnews.com/us/2017/08/14/morning-brief-mcmaster-calls-charlottesville-violence-terrorism.html\xc2\xa0\xe2\x80\xa6"
p37
S'2:08 AM - 14 Aug 2017'
p38
tp39
a(S'ISIS plot using drone to attack Turkish base foiled, authorities say  http://fxn.ws/2urK8hY\xc2\xa0 #FOXNewsWorldpic.twitter.com/zHoh61Ofhz'
p40
S'9:15 AM - 10 Aug 2017'
p41
tp42
a(S'Catherine Herridge: Contact: ISIS accounts celebrating #Barcelona attack, not a claim of responsibility.pic.twitter.com/d9PhA9CBH9'
p43
S'10:09 AM - 17 Aug 2017'
p44
tp45
a(S'.@UN Security Council considers resolution punishing ISIS for crimes against humanity  http://www.foxnews.com/world/2017/08/17/un-security-council-considers-resolution-punishing-isis-for-crimes-against-humanity.html\xc2\xa0\xe2\x80\xa6'
p46
S'4:56 PM - 17 Aug 2017'
p47
tp48
a(S'Jason Miyares on #Charlottesville: \xe2\x80\x9cWhite supremacists committed domestic terrorism and @POTUS should make note of that.\xe2\x80\x9d #FoxReportpic.twitter.com/y8v5Z39vy8'
p49
S'5:26 PM - 12 Aug 2017'
p50
tp51
a(S'BREAKING NEWS: @ShepNewsTeam: ISIS claims responsibility for #Barcelona attack.pic.twitter.com/fKqrYBX2hL'
p52
S'12:31 PM - 17 Aug 2017'
p53
tp54
a(S'.@ChristopherHahn on #Charlottesville protests: "It is domestic terrorism and it should be treated as such." @JudgeJeaninepic.twitter.com/lbeqNRXwiX'
p55
S'7:41 PM - 12 Aug 2017'
p56
tp57
a(S'Moments ago, @SenCoryGardner called for @POTUS to "call evil by its name. These were white supremacists and this was domestic terrorism." pic.twitter.com/UTiCfmPQvu'
p58
S'1:52 PM - 12 Aug 2017'
p59
tp60
a(S'Expert: ISIS getting smarter about penetrating Western security http://fxn.ws/2hMLmhV\xc2\xa0'
p61
S'2:54 AM - 10 Aug 2017'
p62
tp63
a(S"McMaster calls violence in Charlottesville 'terrorism' http://www.foxnews.com/politics/2017/08/14/mcmaster-calls-violence-in-charlottesville-terrorism-as-trump-pressed-to-reject-groups.html\xc2\xa0\xe2\x80\xa6"
p64
S'1:25 AM - 14 Aug 2017'
p65
tp66
a(S'.@brett_mcgurk: "About a third of all of the gains we\'ve made against ISIS in Iraq and Syria have come in the last six months." pic.twitter.com/m2WgKhce1x'
p67
S'5:48 AM - 7 Aug 2017'
p68
tp69
a(S'.@LawrenceBJones3 on #Charlottesville protests: "When there are moments of terrorism... that is a time for America to unify." @JudgeJeaninepic.twitter.com/povvsmTW5u'
p70
S'7:43 PM - 12 Aug 2017'
p71
tp72
a(S'.@LawrenceBJones3: "[@POTUS] should call it domestic terrorism and white supremacy because that is the enemy." pic.twitter.com/kwjT1fcy9r'
p73
S'2:21 AM - 14 Aug 2017'
p74
tp75
a(S'.@Lawrence on @POTUS #Charlottesville remarks: "You call the enemy by its name when it comes to domestic terrorism." #FoxandFriendspic.twitter.com/adSYOBIE66'
p76
S'3:31 AM - 17 Aug 2017'
p77
tp78
a.