(lp0
(S'Iraq declares victory over ISIS pic.twitter.com/hh702uZGUH'
p1
S'4:12 AM - 9 Dec 2017'
p2
tp3
a(S'Aaron Cohen: "There\'s no way to stop terrorism." pic.twitter.com/K0fjX0dEZp'
p4
S'2:16 AM - 27 Nov 2017'
p5
tp6
a(S"Egypt's chief prosecutor: Militants carried ISIS flags during deadly attack on mosque; @rebeccagrantdc discusses.pic.twitter.com/vKi045DRO5"
p7
S'1:43 PM - 25 Nov 2017'
p8
tp9
a(S'.@BretBaier: "Can you explain how the CIA is ramping up operations against terrorism?" \n\nMike Pompeo: "We work to continue to build out teams that can deliver so that our partners around the world... could continue to take down terrorists wherever we find them." pic.twitter.com/C0h7YkIaop'
p10
S'3:47 PM - 2 Dec 2017'
p11
tp12
a(S'Iraq declares victory in war against ISIS http://fxn.ws/2BnNXYC\xc2\xa0'
p13
S'5:31 AM - 9 Dec 2017'
p14
tp15
a(S'Sheriff Chuck Jenkins: "We need to treat MS-13 and the other criminal gangs as international terrorist organizations such as we do ISIS." pic.twitter.com/S7rRXismIh'
p16
S'8:35 AM - 26 Nov 2017'
p17
tp18
a(S'.@RepGallagher: "As we squeeze ISIS in Iraq and Syria, we\'re going to see it pop-up in other places." pic.twitter.com/aaNUCpdvVp'
p19
S'3:21 AM - 27 Nov 2017'
p20
tp21
a(S'.@madisongesiotto on terrorism: "This not just against Christians anymore, they\'re attacking their own." @NextRevFNCpic.twitter.com/GSfCjcAlzS'
p22
S'6:41 PM - 26 Nov 2017'
p23
tp24
a(S'Trump, Mattis turn military loose on ISIS, leaving terror caliphate in tatters http://fxn.ws/2iF4ImD\xc2\xa0'
p25
S'12:05 PM - 8 Dec 2017'
p26
tp27
a(S'Hackers putting porn on ISIS propaganda sites, report says http://fxn.ws/2jkjejv\xc2\xa0'
p28
S'2:29 PM - 24 Nov 2017'
p29
tp30
a(S'Egyptian massacre shows us that people of all faiths must unite against the evil of terrorism (via @FoxNewsOpinion)http://www.foxnews.com/opinion/2017/11/24/egyptian-massacre-shows-us-that-people-all-faiths-must-unite-against-evil-terrorism.html\xc2\xa0\xe2\x80\xa6'
p31
S'2:58 PM - 24 Nov 2017'
p32
tp33
a(S'ISIS beheads 15 of its own fighters in Afghanistan, separate terror attack kills at least 8 http://www.foxnews.com/world/2017/11/23/isis-beheads-15-its-own-fighters-in-afghanistan-separate-terror-attack-kills-at-least-8.html\xc2\xa0\xe2\x80\xa6'
p34
S'11:18 AM - 23 Nov 2017'
p35
tp36
a(S'.@holliesmckay: ISIS leader Baghdadi hiding near Iraq-Syria border, alive but injured, Iraqi military says http://fxn.ws/2jzQ7Ja\xc2\xa0'
p37
S'10:45 PM - 30 Nov 2017'
p38
tp39
a(S"OPINION: Charles Wald: US doesn't need Qatar air base if Qatar won't support our fight against terrorism http://www.foxnews.com/opinion/2017/12/01/us-doesnt-need-qatar-air-base-if-qatar-wont-support-our-fight-against-terrorism.html\xc2\xa0\xe2\x80\xa6"
p40
S'2:58 PM - 1 Dec 2017'
p41
tp42
a(S'Marie Harf on North Korea returning to State Sponsors of Terrorism list: "This designation is not going to fundamentally or at all change North Korea\'s calculation probably." @FoxNewsSundaypic.twitter.com/hN2nmxrYQz'
p43
S'12:06 PM - 26 Nov 2017'
p44
tp45
a(S'Hon. Leon Panetta on current world affairs: "We\'re fighting a war on terrorism, we\'ve got failed states in the Middle East... we\'re dealing with what I call the battlefield of the future." pic.twitter.com/FF7lZtZcNz'
p46
S'3:41 PM - 2 Dec 2017'
p47
tp48
a(S'ISIS cursed, mocked in Mosul, where old city remains a haunted wasteland http://fxn.ws/2j2ugL4\xc2\xa0'
p49
S'7:57 AM - 29 Nov 2017'
p50
tp51
a(S'ISIS sexual violence victims: Minorities targeted more than documented, face honor killings if returned (via @holliesmckay)http://fxn.ws/2hNk4Fk\xc2\xa0'
p52
S'5:15 AM - 23 Nov 2017'
p53
tp54
a(S'Gordon Chang on ISIS: "Over time I think ISIS is going to lose it\'s allure because it lost militarily at Raqqa and Mosul and other places." pic.twitter.com/DoISMJDByb'
p55
S'12:09 PM - 25 Nov 2017'
p56
tp57
a(S'Lt Col Ralph Peters on ISIS: "The US Armed Forces have been absolutely vital, instrumental, essential to the defeat of the Islamic State caliphate and that caliphate is now lying in ruins. It\'s over." @ANHQDCpic.twitter.com/wQGtnVItMJ'
p58
S'10:38 AM - 23 Nov 2017'
p59
tp60
a(S'ISIS leader Baghdadi hiding near Iraq-Syria border, alive but injured, Iraqi military says http://www.foxnews.com/world/2017/11/28/isis-leader-baghdadi-hiding-near-iraq-syria-border-alive-but-injured-iraqi-military-says.html\xc2\xa0\xe2\x80\xa6'
p61
S'11:25 AM - 30 Nov 2017'
p62
tp63
a(S'.@POTUS to @USMC service members in Iraq: "Major to you and all your Marines doing this great work in delivering defeat after defeat to ISIS... is being talked about." pic.twitter.com/TupTSDjLvu'
p64
S'6:19 AM - 23 Nov 2017'
p65
tp66
a(S'.@POTUS to service members fighting ISIS: "They say we\'ve made more progress against ISIS than they did in years of the previous administration. And that\'s because I\'m letting you do your job." pic.twitter.com/6RWYi2DvCv'
p67
S'6:24 AM - 23 Nov 2017'
p68
tp69
a.