(lp0
(S'Gutfeld on Terrorism Caught in the Eclipse pic.twitter.com/xG1dMKIGTH'
p1
S'8:58 PM - 21 Aug 2017'
p2
tp3
a(S'Finland attack: Police investigating stabbing as possible terrorism http://www.foxnews.com/world/2017/08/19/finland-attack-police-investigating-stabbing-as-possible-terrorism.html\xc2\xa0\xe2\x80\xa6'
p4
S'7:28 AM - 19 Aug 2017'
p5
tp6
a(S"Ex-SEAL: ISIS Video Using 10-Year-Old American Boy Shows Group's 'Resilient Infrastructure' http://insider.foxnews.com/2017/08/24/isis-uses-young-american-boy-video\xc2\xa0\xe2\x80\xa6"
p7
S'8:07 AM - 24 Aug 2017'
p8
tp9
a(S'.@Ayaan: "You cannot defeat the idea of ISIS if you won\'t talk about the idea itself." pic.twitter.com/x79fXl83Q7'
p10
S'10:30 PM - 20 Aug 2017'
p11
tp12
a(S'Pope Francis, Christianity threatened in ISIS propaganda video\nhttp://fxn.ws/2xB0Bxl\xc2\xa0'
p13
S'3:03 AM - 26 Aug 2017'
p14
tp15
a(S'ISIS claims Brussels knife attacker is one of their own \nhttp://www.foxnews.com/world/2017/08/27/isis-claims-brussels-knife-attacker-is-one-their-own.html\xc2\xa0\xe2\x80\xa6'
p16
S'3:31 AM - 27 Aug 2017'
p17
tp18
a(S'ISIS convoy stuck in Syria after US airstrikes block it\nhttp://www.foxnews.com/world/2017/09/01/isis-convoy-stuck-in-syria-after-us-airstrikes-block-it.html\xc2\xa0\xe2\x80\xa6'
p19
S'5:57 PM - 1 Sep 2017'
p20
tp21
a(S'American man charged with trying to join ISIS #FoxandFriendspic.twitter.com/668f8yl7S7'
p22
S'5:20 AM - 30 Aug 2017'
p23
tp24
a(S'Former Special Forces Officer: If We Withdraw From Afghanistan, ISIS Will Move In http://bit.ly/2vTlTYV\xc2\xa0'
p25
S'4:17 PM - 21 Aug 2017'
p26
tp27
a(S"Escape from ISIS: A gay Syrian man's tale of fleeing his country (via @christocarbone) http://fxn.ws/2v9ZesM\xc2\xa0pic.twitter.com/WIv1x6ImrZ"
p28
S'11:54 AM - 24 Aug 2017'
p29
tp30
a(S'OP-ED: ISIS created by Israel? One imam says so http://www.foxnews.com/opinion/2017/08/19/isis-created-by-israel-one-imam-says-so.html\xc2\xa0\xe2\x80\xa6'
p31
S'4:25 AM - 20 Aug 2017'
p32
tp33
a(S'Brits who risked their lives to fight ISIS say they return home only to be accused of terrorism http://fxn.ws/2vR7kW4\xc2\xa0'
p34
S'7:19 PM - 20 Aug 2017'
p35
tp36
a(S".@CharlieDaniels compares taking down Confederate statues to ISIS: 'Where does it stop?' http://fxn.ws/2vL7hLr\xc2\xa0pic.twitter.com/WsSUX6HML2"
p37
S'3:41 PM - 19 Aug 2017'
p38
tp39
a(S'Brett Velicovich: "Could you imagine if somebody had the same passion for taking down statues... as they would for going after ISIS." pic.twitter.com/vdMVenLShM'
p40
S'4:32 AM - 24 Aug 2017'
p41
tp42
a(S'Brett Velicovich on U.S. boy in video: "We are absolutely losing the propaganda war with ISIS... we need to unleash our cyber warriors." pic.twitter.com/AQq1pGZfkJ'
p43
S'4:29 AM - 24 Aug 2017'
p44
tp45
a(S'Brett Velicovich on ISIS: "We are at war with ourselves here in America and Americans have no idea the evils we face." #FoxandFriendspic.twitter.com/X3l5c8lfQ0'
p46
S'4:33 AM - 24 Aug 2017'
p47
tp48
a(S'.@POTUS: "We will never tolerate crime in our cities, bloodshed in our communities, or acts of hatred or terrorism against our citizens." pic.twitter.com/DTC8vAx5Sm'
p49
S'11:28 AM - 23 Aug 2017'
p50
tp51
a(S'Robin Simcox: "Part of the problem in dealing with ISIS is they don\'t need huge manpower in carrying out these kinds of attacks." pic.twitter.com/8nNMFB6a6q'
p52
S'11:32 AM - 19 Aug 2017'
p53
tp54
a(S'Dave Sears on ISIS: "They\'ve been weakened in their ability to hold territory, their ability to gain money." @AmericaNewsroompic.twitter.com/KNSNvbNTn4'
p55
S'7:37 AM - 24 Aug 2017'
p56
tp57
a(S'Aaron Cohen on fighting terrorism: "There\'s no room in counter-terror for political correctness." @ffweekendpic.twitter.com/XBQDkmshqW'
p58
S'6:09 AM - 19 Aug 2017'
p59
tp60
a(S"Escape from ISIS: A gay Syrian man's tale of fleeing his country #FoxNewsWorld http://fxn.ws/2v9ZesM\xc2\xa0pic.twitter.com/8eACDW3nM2"
p61
S'11:28 AM - 27 Aug 2017'
p62
tp63
a(S'ISIS created by Israel? One imam says so http://fxn.ws/2uTiXg8\xc2\xa0'
p64
S'3:10 PM - 19 Aug 2017'
p65
tp66
a(S'Aaron Cohen on fighting terrorism: "If you want security, you have to get actionable information." @ffweekendpic.twitter.com/DfC6otJNmJ'
p67
S'6:07 AM - 19 Aug 2017'
p68
tp69
a.