(lp0
(S'.@TomFitton on GOP FISA memo: "There is no Russia collusion story without the dossier. And we now know and have confirmed six ways to Sunday, there was nothing behind it...why is there a special counsel investigation?" #Tuckerpic.twitter.com/q6tac6Nq9m'
p1
S'5:27 PM - 2 Feb 2018'
p2
tp3
a(S'Earlier tonight, President @realDonaldTrump complained that despite excellent economic news, the Russia collusion narrative is still the dominant issue. http://fxn.ws/2FHjGlw\xc2\xa0pic.twitter.com/0qKFxloZx9'
p4
S'8:48 PM - 3 Feb 2018'
p5
tp6
a(S'.@Raul_Labrador on Mueller probe: "[Democrats] were so interested in the Russia collusion story until their Russia collusion story actually started unraveling." @IngrahamAnglepic.twitter.com/uRfOpqeR4T'
p7
S'7:36 PM - 18 Jan 2018'
p8
tp9
a(S'.@Marcshort45 on the Russia investigation: "There\'s been a significant investigation so far and no evidence of any sort of collusion." #FoxNewsSundaypic.twitter.com/V0RPOAfPip'
p10
S'11:25 PM - 28 Jan 2018'
p11
tp12
a(S'.@RepDeSantis: "We\'re in 2018 now and we still don\'t have evidence of any Trump-Russia campaign collusion." #MemoDay http://fxn.ws/2GJ2w8n\xc2\xa0pic.twitter.com/DYyEsS14vA'
p13
S'10:21 AM - 2 Feb 2018'
p14
tp15
a(S'.@TomFitton on GOP FISA memo: "There is no Russia collusion story without the dossier. And we now know and have confirmed six ways to Sunday, there was nothing behind it...why is there a special counsel investigation?" #Tuckerpic.twitter.com/1CVtvSR2g3'
p16
S'10:45 PM - 2 Feb 2018'
p17
tp18
a(S'Moments ago, President @realDonaldTrump complained that despite excellent economic news, the Russia collusion narrative is still the dominant issue. http://fxn.ws/2FHjGlw\xc2\xa0pic.twitter.com/WYR8KJHFMf'
p19
S'4:43 PM - 3 Feb 2018'
p20
tp21
a(S".@RepDeSantis: 'We Still Don't Have Evidence of Any Trump-Russia Campaign Collusion' http://bit.ly/2DYqH0K\xc2\xa0"
p22
S'4:59 PM - 2 Feb 2018'
p23
tp24
a(S".@RepDeSantis: 'We Still Don't Have Evidence of Any Trump-Russia Campaign Collusion' http://bit.ly/2DYqH0K\xc2\xa0"
p25
S'9:45 PM - 2 Feb 2018'
p26
tp27
a.