(lp0
(S'.@dbongino on Mueller investigation into possible collusion with Russia: "This isn\'t an investigation at all. This is an attempt to nullify an election." pic.twitter.com/gyxuzqfi71'
p1
S'6:59 PM - 11 Dec 2017'
p2
tp3
a(S'Rep. Matt Gaetz: \xe2\x80\x9cThere\xe2\x80\x99s a heck of a lot of evidence of collusion between the Democrats and Russia.\xe2\x80\x9d #SpecialReportpic.twitter.com/s7MpoEmdhE'
p4
S'3:55 PM - 12 Dec 2017'
p5
tp6
a(S'.@POTUS: "There is absolutely no collusion. I didn\'t make a phone call to Russia. I have nothing to do with Russia. Everybody knows it. That was a Democrat hoax. It was an excuse for losing the election." pic.twitter.com/nGgSntY5W8'
p7
S'6:52 AM - 15 Dec 2017'
p8
tp9
a(S'"Fool me once, shame on you. Fool me a gazillion times, shame on all of us...American people, deserve to see the evidence." \xe2\x80\x94 Former presidential candidate @DrJillStein on Russia collusion investigation  #Tucker http://fxn.ws/2yZkxKw\xc2\xa0pic.twitter.com/NUXtmCXO59'
p10
S'6:04 PM - 21 Dec 2017'
p11
tp12
a(S'.@POTUS administration ends 2017 confronting Russia after year of collusion accusations http://fxn.ws/2BXePPF\xc2\xa0'
p13
S'7:16 PM - 26 Dec 2017'
p14
tp15
a(S'On "Sunday Morning Futures," @RepPeteKing pushed back on those claiming @DonaldJTrumpJr engaged in collusion with Russia. pic.twitter.com/FNNdC10SeS'
p16
S'7:56 PM - 10 Dec 2017'
p17
tp18
a(S'.@KevinJacksonTBS: "Every piece of information has led to the untenable conclusion that there was no collusion with Russia." @NextRevFNCpic.twitter.com/DkVoV1IADL'
p19
S'6:03 PM - 17 Dec 2017'
p20
tp21
a(S'.@jessebwatters: "Hillary was given special treatment by partisan agents, then paid for fake dirt from Russia to smear Trump with - and he\'s the one being investigated for collusion?" @WattersWorldpic.twitter.com/FEbjXBkSb7'
p22
S'5:13 PM - 16 Dec 2017'
p23
tp24
a.