(lp0
(S'.@CLewandowski_: "There was no collusion, cooperation or coordination with Russia." pic.twitter.com/kvYE6wRqmZ'
p1
S'4:07 AM - 28 Oct 2017'
p2
tp3
a(S'.@TGowdySC on Trump-Russia probe: To date there has not been a single witness who has provided...evidence supporting collusion, coordination pic.twitter.com/97RUeXq8Xw'
p4
S'4:38 PM - 24 Oct 2017'
p5
tp6
a(S'.@PressSec: "I think we are seeing now that if there was any collusion w/ Russia, it was b/t the @DNC and the Clintons &...not our campaign"pic.twitter.com/j51yIvFSNj'
p7
S'11:52 AM - 27 Oct 2017'
p8
tp9
a(S'.@EliLake on Russia collusion investigation: "Why is it okay for Democrats to work with a former British spy?" #SpecialReportpic.twitter.com/9n7y7skSkp'
p10
S'3:58 PM - 27 Oct 2017'
p11
tp12
a(S'.@WSJ: Mueller probe into possible collusion with Russia nets first charges http://fxn.ws/2iIXcdT\xc2\xa0'
p13
S'7:50 AM - 28 Oct 2017'
p14
tp15
a(S".@GreggJarrett: Still no evidence of #Trump-Russia 'collusion' - but @HillaryClinton is a different matterhttp://www.foxnews.com/opinion/2017/10/30/gregg-jarrett-still-no-evidence-trump-russia-collusion-but-hillary-is-different-matter.html\xc2\xa0\xe2\x80\xa6"
p16
S'1:31 PM - 30 Oct 2017'
p17
tp18
a(S'Moments ago, Pres. @realDonaldTrump tweeted there was no collusion between his campaign & Russia, but claimed @HillaryClinton did collude.pic.twitter.com/xQMfLN7nx9'
p19
S'7:05 AM - 27 Oct 2017'
p20
tp21
a(S".@jessebwatters on Russia: 'When Clintons Do It, It's Oppo Research, When Trump Doesn't, It's Collusion' http://insider.foxnews.com/2017/10/25/jesse-watters-russia-collusion-clintons-call-it-opposition-research-trump-considered\xc2\xa0\xe2\x80\xa6"
p22
S'3:25 PM - 25 Oct 2017'
p23
tp24
a(S'.@peterschweizer: "We\'ve had [investigations], and there\'s been no evidence...of any collusion [with Russia] involving @POTUS." #thestorypic.twitter.com/iIaC0ycM50'
p25
S'4:26 PM - 19 Oct 2017'
p26
tp27
a(S'.@CLewandowski_ on @foxandfriends: "There was no collusion or cooperation or coordination between the Trump campaign and Russia." pic.twitter.com/P1ZqY0ZT2A'
p28
S'3:46 AM - 31 Oct 2017'
p29
tp30
a(S'Yesterday, Pres. @realDonaldTrump tweeted there was no collusion between his campaign & Russia, but claimed @HillaryClinton did.pic.twitter.com/mhsXG5fT7P'
p31
S'11:50 PM - 27 Oct 2017'
p32
tp33
a(S'.@CLewandowski_: "There was no collusion, cooperation or coordination with Russia." pic.twitter.com/Ci458jfIQ5'
p34
S'8:22 PM - 28 Oct 2017'
p35
tp36
a(S'.@CLewandowski_: "There was no collusion, cooperation or coordination with Russia." pic.twitter.com/W3MEfcBkOd'
p37
S'12:49 AM - 29 Oct 2017'
p38
tp39
a(S'.@CLewandowski_: "There was no collusion, cooperation or coordination with Russia." pic.twitter.com/JkAFquqAqj'
p40
S'2:59 PM - 28 Oct 2017'
p41
tp42
a(S'.@CLewandowski_: "There was no collusion, cooperation or coordination with Russia." pic.twitter.com/7LiiC0gE57'
p43
S'1:08 AM - 30 Oct 2017'
p44
tp45
a.