(lp0
(S"NYC terror attack leaves 8 dead, several injured; suspect's notes pledged ISIS loyalty http://fxn.ws/2yjon5R\xc2\xa0pic.twitter.com/faGCmjGLps"
p1
S'2:09 AM - 1 Nov 2017'
p2
tp3
a(S'Jack Keane on Raqqa being liberated from ISIS: "This organization is not going away, the Caliphate certainly is." http://fxn.ws/2yEsAxV\xc2\xa0pic.twitter.com/z37o1Lx8oT'
p4
S'2:17 PM - 21 Oct 2017'
p5
tp6
a(S'ISIS Warns of Attack on Prince George pic.twitter.com/12Bk4Ayl90'
p7
S'2:32 AM - 30 Oct 2017'
p8
tp9
a(S'Dr. James Mitchell: "ISIS has been very successful at setting up a virtual Caliphate." pic.twitter.com/OFYt9RU4sd'
p10
S'2:28 AM - 1 Nov 2017'
p11
tp12
a(S'ISIS encouraged Halloween assault before NYC terror attack\n http://www.foxnews.com/us/2017/11/01/isis-encouraged-halloween-assault-before-nyc-terror-attack.html\xc2\xa0\xe2\x80\xa6'
p13
S'9:00 AM - 1 Nov 2017'
p14
tp15
a(S'.@IngrahamAngle: Americans are not going to accept radical Islamic terrorism as the "new normal" http://bit.ly/2yiIbX3\xc2\xa0'
p16
S'8:48 PM - 31 Oct 2017'
p17
tp18
a(S'Jack Keane on ISIS: "They have a virtual caliphate... There\'s a lot to be done here in taking down their internet operations." pic.twitter.com/P4KShbiaiW'
p19
S'4:59 AM - 29 Oct 2017'
p20
tp21
a(S'Official: The [evidence] of this attack " is indicative...that he was a follower of ISIS propaganda, social media, & tactical instruction." pic.twitter.com/nQWsUR512X'
p22
S'3:24 PM - 1 Nov 2017'
p23
tp24
a(S'.@SenatorLankford on @foxandfriends: \xe2\x80\x9cThere are 13 different nations where ISIS is actively engaged right now.\xe2\x80\x9d pic.twitter.com/6D9K6sGIrH'
p25
S'4:34 AM - 23 Oct 2017'
p26
tp27
a(S'Fred Fleitz: "ISIS is no longer going to be a terrorist organization that holds territory." pic.twitter.com/csD9RXIOBm'
p28
S'5:24 AM - 1 Nov 2017'
p29
tp30
a(S'Tony Shaffer: "The Pentagon is more busy today than it was 10 years ago. It\'s doing more things, especially now that we\'re defeating ISIS." pic.twitter.com/ykKwdQP2HH'
p31
S'2:44 PM - 21 Oct 2017'
p32
tp33
a(S'.@AmbJohnBolton: "Iran has had a post-ISIS caliphate strategy... We apparently have no post-ISIS caliphate strategy." pic.twitter.com/sDZl3nbytN'
p34
S'6:49 PM - 22 Oct 2017'
p35
tp36
a(S'.@WalidPhares: "ISIS can and has so much influence over people without even being in touch with them." pic.twitter.com/mULjAAZrhY'
p37
S'3:30 AM - 1 Nov 2017'
p38
tp39
a(S'.@POTUS: "We\'re beating ISIS very badly." pic.twitter.com/ZzOpFlwcIz'
p40
S'10:21 AM - 25 Oct 2017'
p41
tp42
a(S"Rep. McCaul: This has 'all the hallmarks' of an ISIS attack http://bit.ly/2ikLYbh\xc2\xa0 via @FoxNewsInsider"
p43
S'11:00 PM - 31 Oct 2017'
p44
tp45
a(S'Almost all American ISIS fighters unaccounted for, sparking fears they could slip through cracks and return - http://www.foxnews.com/world/2017/10/26/almost-all-american-isis-fighters-unaccounted-for-sparking-fears-could-slip-through-cracks-and-return.html\xc2\xa0\xe2\x80\xa6'
p46
S'4:00 PM - 26 Oct 2017'
p47
tp48
a(S'.@PressSec: History will look at @POTUS as someone who helped defeat ISIS & built economy to strongest point in decades, not petty comments pic.twitter.com/b3wPFIwzom'
p49
S'1:07 PM - 24 Oct 2017'
p50
tp51
a(S".@marc_lotter on the difference between @POTUS' strategy on dealing w/ ISIS & North Korea and Obama's strategy #thestorypic.twitter.com/XHbvcrSZBm"
p52
S'4:39 PM - 19 Oct 2017'
p53
tp54
a(S"ISIS fanatics threaten Prince George with chilling warning 'the Royal Family will not be left alone,' report says\n  http://www.foxnews.com/world/2017/10/29/isis-fanatics-threaten-prince-george-with-chilling-warning-royal-family-will-not-be-left-alone-report-says.html\xc2\xa0\xe2\x80\xa6"
p55
S'4:35 PM - 29 Oct 2017'
p56
tp57
a(S"Prosecutors say NYC terror attack suspect 'consumed by hate,' asked for ISIS flag\nhttp://www.foxnews.com/us/2017/11/01/prosecutors-say-nyc-terror-attack-suspect-consumed-by-hate-asked-for-isis-flag.html\xc2\xa0\xe2\x80\xa6"
p58
S'3:21 PM - 1 Nov 2017'
p59
tp60
a(S'.@POTUS: "We are decimating ISIS in the Middle East." pic.twitter.com/irYJo4nOIn'
p61
S'10:20 AM - 25 Oct 2017'
p62
tp63
a(S'Man With Isis-Like Halloween Costume Sparks Panic at Mall http://bit.ly/2gVVCV8\xc2\xa0'
p64
S'5:51 AM - 30 Oct 2017'
p65
tp66
a(S'.@MichaelGWaltz on deadly ambush in Niger: "These missions aren\'t going to stop. We are in a global war against terrorism."  #TheStorypic.twitter.com/D1w8pIm2p5'
p67
S'4:18 PM - 23 Oct 2017'
p68
tp69
a(S'Joon Kim: "We now have him charged with federal crimes of terrorism." pic.twitter.com/Rt306bQQpP'
p70
S'2:55 PM - 1 Nov 2017'
p71
tp72
a(S"Trump says 'end of the ISIS caliphate is in sight' after liberation of Raqqa http://www.foxnews.com/politics/2017/10/21/trump-says-end-isis-caliphate-is-in-sight-after-liberation-raqqa.html\xc2\xa0\xe2\x80\xa6"
p73
S'10:55 AM - 21 Oct 2017'
p74
tp75
a(S'Gen. Jack Keane on ISIS: \xe2\x80\x9cWe are dealing with a formidable organization that still has some money, that has a virtual caliphate.\xe2\x80\x9d pic.twitter.com/3zjE4t2Uzq'
p76
S'8:54 AM - 23 Oct 2017'
p77
tp78
a(S'Lt. Col. Michael Waltz (Ret.) on terrorism: \xe2\x80\x9cWhat we have to get in place is a broader strategy that gets at the ideology.\xe2\x80\x9d @dailybriefingpic.twitter.com/riVxTD10io'
p79
S'11:35 AM - 1 Nov 2017'
p80
tp81
a(S'Joon Kim: "Saipov committed this attack in support of ISIS." pic.twitter.com/NjbML94QST'
p82
S'2:57 PM - 1 Nov 2017'
p83
tp84
a(S'.@PressSec on NYC attack: "This attack underscores that the terrorist threat is real as we defeat ISIS and affiliated groups abroad." pic.twitter.com/FnPeD2JmzS'
p85
S'12:18 PM - 1 Nov 2017'
p86
tp87
a(S"TONIGHT on @GregGutfeldShow, @greggutfeld talks @POTUS's ISIS claim, the PC Halloween police, & more - Tune in @ 10p ET on Fox News Channel! pic.twitter.com/uFh0DykpTn"
p88
S'10:53 AM - 21 Oct 2017'
p89
tp90
a(S'.@AnneRPierce: Defeating ISIS isn\xe2\x80\x99t enough: Trump urgently needs a new Syria policy\nhttp://www.foxnews.com/opinion/2017/10/21/defeating-isis-isn-t-enough-trump-urgently-needs-new-syria-policy.html\xc2\xa0\xe2\x80\xa6'
p91
S'10:26 AM - 21 Oct 2017'
p92
tp93
a(S'Joon Kim: "Saipov allegedly admitted that he was inspired to commit the attack from the ISIS videos he watched." pic.twitter.com/PGmVofIABX'
p94
S'2:58 PM - 1 Nov 2017'
p95
tp96
a(S'.@RepPeteKing: "We know that ISIS wants to infiltrate the country with refugees." pic.twitter.com/acDgOTJT9w'
p97
S'7:11 AM - 1 Nov 2017'
p98
tp99
a(S'.@realDonaldTrump tweeted this message about ISIS following an act of terror in New York City Tuesday afternoon. http://fxn.ws/2gRgpWt\xc2\xa0pic.twitter.com/OA6NxmubYz'
p100
S'4:03 PM - 31 Oct 2017'
p101
tp102
a(S'.@Garrett_FoxNews: "ISIS is celebrating this attack on social media but at this point there\'s no official claim of responsibility." pic.twitter.com/PEokFbVmvd'
p103
S'7:05 AM - 1 Nov 2017'
p104
tp105
a(S'Chertoff on ISIS: "As they lose territory, their efforts are more likely to turn to exporting terrorism to other parts of the globe." pic.twitter.com/DpOM3k7gon'
p106
S'1:16 PM - 1 Nov 2017'
p107
tp108
a(S'.@RLHeinrichs on NYC attack suspect: "He calls himself a soldier for ISIS so we should treat him like a soldier for ISIS." @TeamCavutopic.twitter.com/oX0AcrAbK3'
p109
S'1:41 PM - 1 Nov 2017'
p110
tp111
a(S'.@antonioguterres: "Terrorism is no longer something isolated here and there, it\'s a network everywhere." #SpecialReportpic.twitter.com/DQZH7ZI7uY'
p112
S'3:29 PM - 20 Oct 2017'
p113
tp114
a(S'.@HARRISFAULKNER: "Over the last 2 years, a terrorism investigation by the FBI looked at 5 people, most of whom were from #Uzbekistan."pic.twitter.com/b0jMi1RfLs'
p115
S'9:24 AM - 1 Nov 2017'
p116
tp117
a(S".@POTUS says 'end of the ISIS caliphate is in sight' after liberation of Raqqa http://fxn.ws/2yEsAxV\xc2\xa0pic.twitter.com/pYjRYmuDqV"
p118
S'11:03 PM - 21 Oct 2017'
p119
tp120
a.