(lp0
(S'Christians in Mosul Celebrate First Post-ISIS Christmas Mass pic.twitter.com/uV6pMT7K06'
p1
S'7:14 AM - 25 Dec 2017'
p2
tp3
a(S'News Alert: ISIS threatens attack on National Cathedral. pic.twitter.com/0U6aka9daA'
p4
S'5:13 AM - 15 Dec 2017'
p5
tp6
a(S'ISIS has lost 98 percent of its territory -- mostly since @POTUS took office, officials sayhttp://fxn.ws/2C9RRBE\xc2\xa0'
p7
S'5:01 PM - 26 Dec 2017'
p8
tp9
a(S'ISIS Territory has Shrunk Drastically pic.twitter.com/fwhVKMmnw4'
p10
S'3:04 AM - 27 Dec 2017'
p11
tp12
a(S'.@RepKinzinger on Success Against ISIS: @realDonaldTrump Is Empowering the Military on the Battlefield http://bit.ly/2Do3iGd\xc2\xa0pic.twitter.com/U6bDFzkvTE'
p13
S'12:31 PM - 21 Dec 2017'
p14
tp15
a(S'Iraqi Christians have raised a 30-ft. tall Christmas tree in Baghdad to celebrate both the holiday and the expulsion of ISIS extremists by Iraq Security Forces. pic.twitter.com/e96oaR5neN'
p16
S'2:41 PM - 23 Dec 2017'
p17
tp18
a(S'.@T_S_P_O_O_K_Y on ISIS losing 98% of its territory mostly since @POTUS took office, per the Pentagon http://fxn.ws/2C9RRBE\xc2\xa0pic.twitter.com/bP5bzdwa8s'
p19
S'7:01 PM - 27 Dec 2017'
p20
tp21
a(S'Kiron Skinner: "The ISIS organization is moving to other areas... regrouping." pic.twitter.com/MVc9a95m6h'
p22
S'3:53 AM - 13 Dec 2017'
p23
tp24
a(S'ISIS claims responsibility for deadly church bombing in Pakistan. http://bit.ly/2j7Fygu\xc2\xa0pic.twitter.com/rESUYet54M'
p25
S'1:09 PM - 17 Dec 2017'
p26
tp27
a(S'.@POTUS Celebrating Major Progress in the Fight Against ISIS pic.twitter.com/NvfqpblFJr'
p28
S'8:12 AM - 26 Dec 2017'
p29
tp30
a(S"OPINION: Iraq's Christians and us: Will time and neglect complete the job that ISIS began?  http://www.foxnews.com/opinion/2017/12/15/iraqs-christians-and-us-will-time-and-neglect-will-complete-job-that-isis-began.html\xc2\xa0\xe2\x80\xa6"
p31
S'5:45 PM - 15 Dec 2017'
p32
tp33
a(S'Marie Harf: "The strategy that has led to a virtual defeat of ISIS in the caliphate...is largely a strategy that was laid out during the #Obama administration by military commanders."   #TheFive http://fxn.ws/2C7LC1j\xc2\xa0pic.twitter.com/mr5DZMmCdL'
p34
S'2:13 PM - 27 Dec 2017'
p35
tp36
a(S'The tragedy of Palmyra: First look inside one of world\xe2\x80\x99s most magical ancient ruins \xe2\x80\x93 now utterly destroyed by ISIS (via @holliesmckay)  http://fxn.ws/2ApxfUD\xc2\xa0pic.twitter.com/HvhKJlaFJU'
p37
S'9:02 AM - 14 Dec 2017'
p38
tp39
a(S'.@alanmendoza on gains in the war against ISIS: "I think the world does owe a great debt to #DonaldTrump and, indeed, to all those who have prosecuted this war to its ultimate endpoint." #Tucker http://fxn.ws/2C7LC1j\xc2\xa0pic.twitter.com/KOJRk4ouxF'
p40
S'5:49 PM - 26 Dec 2017'
p41
tp42
a(S'.@KatiePavlich on progress against ISIS: "It\'s a huge victory, not only just for getting rid of ISIS, but also for the military to feel like they can finally do their job again." #TheFive http://fxn.ws/2C7LC1j\xc2\xa0pic.twitter.com/zD5LS1YLse'
p43
S'2:18 PM - 27 Dec 2017'
p44
tp45
a(S'Daniel Hoffman: The president has effectively taken the fight to ISIS and absolutely eliminated their physical, geographical, ungoverned space." pic.twitter.com/2OeBxsyiEe'
p46
S'3:57 AM - 16 Dec 2017'
p47
tp48
a(S'After ISIS campaign, Iran-backed fighters in Iraq vow to drive out US troops (via @holliesmckay)http://fxn.ws/2BtOx7F\xc2\xa0'
p49
S'10:25 AM - 21 Dec 2017'
p50
tp51
a(S'NYC Bombing Suspect, Akayed Ullah, Faces Federal Terrorism Charges http://bit.ly/2Ah7rdj\xc2\xa0'
p52
S'10:42 AM - 12 Dec 2017'
p53
tp54
a(S"ISIS atrocities on daily display in Mosul's morgue http://fxn.ws/2BDhFsT\xc2\xa0"
p55
S'7:49 AM - 23 Dec 2017'
p56
tp57
a(S'Long Island woman laundered money to ISIS through Bitcoin, prosecutors say http://www.foxnews.com/us/2017/12/14/long-island-woman-laundered-money-to-isis-through-bitcoin-prosecutors-say.html\xc2\xa0\xe2\x80\xa6'
p58
S'3:42 PM - 14 Dec 2017'
p59
tp60
a(S'Christians in Mosul Celebrate First Post-ISIS Christmas Mass pic.twitter.com/YAIgQXlNKq'
p61
S'5:27 PM - 25 Dec 2017'
p62
tp63
a(S'Trump ends 2017 with big wins on economy, taxes, ISIS and more http://www.foxnews.com/politics/2017/12/27/trump-ends-2017-with-big-wins-on-economy-taxes-isis-and-more.html\xc2\xa0\xe2\x80\xa6'
p64
S'6:21 AM - 27 Dec 2017'
p65
tp66
a(S'.@TheWorldsFrates: "ISIS is out of Iraq. They\'re being pushed out of Syria. How many lives have been saved, how many people have been liberated because @realDonaldTrump took the actions that Obama wouldn\'t?"pic.twitter.com/EU2641TMV1'
p67
S'5:08 AM - 21 Dec 2017'
p68
tp69
a(S"OPINION: To the Congress: Don't panic and ditch our constitutional rights in the name of fighting terrorism http://www.foxnews.com/opinion/2017/12/27/to-congress-dont-panic-and-ditch-our-constitutional-rights-in-name-fighting-terrorism.html\xc2\xa0\xe2\x80\xa6"
p70
S'2:55 PM - 27 Dec 2017'
p71
tp72
a(S'NY Times columnist praises Trump for winning against ISIS, hits media for not giving credit http://fxn.ws/2BrbbtL\xc2\xa0'
p73
S'12:26 AM - 18 Dec 2017'
p74
tp75
a(S'Homeland Security says chain migration let terrorism-related suspects into U.S. http://www.foxnews.com/us/2017/12/23/homeland-security-says-chain-migration-let-terrorism-related-suspects-into-u-s.html\xc2\xa0\xe2\x80\xa6'
p76
S'5:59 PM - 23 Dec 2017'
p77
tp78
a(S'.@BuckSexton on ISIS threats to NYC: "A big part of how Jihadists pick their targets is symbolism and that\'s why New York continues to be such a high-profile target." @TeamCavutopic.twitter.com/kRtY5wVXHZ'
p79
S'1:32 PM - 14 Dec 2017'
p80
tp81
a(S'.@VP on @POTUS\' success overseas: "The ISIS caliphate has collapsed. In Raqqa we\'ve taken back the capital of their so-called caliphate thanks to the courage of our armed forces and the leadership of our commander in chief." @IngrahamAnglepic.twitter.com/pVgvdRa69l'
p82
S'7:40 PM - 20 Dec 2017'
p83
tp84
a(S'.@AmbJohnBolton on threat of ISIS: "We should be happy that the physical caliphate is just about gone, but unfortunately the ISIS threat remains now based in Libya, Yemen and the Afghan-Pakistan border regions." @IngrahamAnglepic.twitter.com/0gBkmBJbFu'
p85
S'7:26 PM - 27 Dec 2017'
p86
tp87
a(S'.@BuckSexton on ISIS threats in NYC: "In the era of lone wolf Jihadism that we\'re in right now, you never know. All it takes is one person who has radicalized and we could be facing a mass casualty attack over the holidays." @TeamCavutopic.twitter.com/INhPni1lZG'
p88
S'1:35 PM - 14 Dec 2017'
p89
tp90
a(S'.@AmbJohnBolton on ISIS losing territory: "The Obama administration seemed to think they had forever to achieve the objective and of course that just gave ISIS to exfiltrate a number of its leaders." #DailyBriefingpic.twitter.com/JVUqTuLAky'
p91
S'11:55 AM - 27 Dec 2017'
p92
tp93
a(S'OPINION: @Judgenap: ISIS-inspired monsters in our midst cannot inspire us to cast aside the Constitution (via @FoxNewsOpinion)http://www.foxnews.com/opinion/2017/12/14/judge-andrew-napolitano-isis-inspired-monsters-in-our-midst-cannot-inspire-us-to-cast-aside-constitution.html\xc2\xa0\xe2\x80\xa6'
p94
S'3:59 AM - 14 Dec 2017'
p95
tp96
a(S'.@RepDeSantis: "Secretary of State @JohnKerry acknowledged that some of that money was going to fund terrorism." #OutnumberedOTpic.twitter.com/dovVjCDPai'
p97
S'10:25 AM - 22 Dec 2017'
p98
tp99
a(S'.@AmbJohnBolton on ISIS losing territory: "The involvement of the United States and our assistance to anti-ISIS forces has brought the caliphate essentially to an end." #DailyBriefingpic.twitter.com/UWi0hoxiFc'
p100
S'11:50 AM - 27 Dec 2017'
p101
tp102
a(S'.@MZHemingway on @POTUS\' strategy to defeat ISIS: "It\'s not that he had a totally different strategy than President #Obama, but he enabled his military to actually make the decisions and be accountable and do what they needed to do to get it done."pic.twitter.com/D3zrUA3GBQ'
p103
S'3:44 PM - 28 Dec 2017'
p104
tp105
a(S'Homeland Security says chain migration let terrorism-related suspect into U.S. #FoxReport http://fxn.ws/2BuXIjR\xc2\xa0pic.twitter.com/4ejjZ8JJlg'
p106
S'4:22 PM - 24 Dec 2017'
p107
tp108
a.