(lp0
(S'ISIS threatens "Christmas blood." pic.twitter.com/VkMko1dblE'
p1
S'5:50 AM - 16 Nov 2017'
p2
tp3
a(S'ISIS threatens Vatican in Christmas attack. pic.twitter.com/XlgR1bE4g3'
p4
S'7:00 AM - 16 Nov 2017'
p5
tp6
a(S"Trump: Every Time ISIS Attacks Us, We'll 'Hit Them 10 Times Harder' http://bit.ly/2zaOCZj\xc2\xa0pic.twitter.com/Gqv4Hv5toc"
p7
S'7:02 AM - 3 Nov 2017'
p8
tp9
a(S'Airstrikes Kill Four ISIS Leaders pic.twitter.com/2Dap0OX4NV'
p10
S'3:26 AM - 15 Nov 2017'
p11
tp12
a(S'.@timclemente: "Antifa as a group is literally the definition of terrorism." pic.twitter.com/y0avmjYEyb'
p13
S'9:15 AM - 5 Nov 2017'
p14
tp15
a(S'ISIS claims responsibility for New York truck attack, report says http://fxn.ws/2xRPf8S\xc2\xa0pic.twitter.com/mUwOs7IZW9'
p16
S'8:43 PM - 2 Nov 2017'
p17
tp18
a(S'9 ISIS militants killed in southern Syria, military says http://fxn.ws/2zRgoMJ\xc2\xa0'
p19
S'10:40 AM - 19 Nov 2017'
p20
tp21
a(S'Trump designates North Korea as state sponsor of terrorism - via @brookefoxnewshttp://www.foxnews.com/politics/2017/11/20/trump-designates-north-korea-as-state-sponsor-terrorism.html\xc2\xa0\xe2\x80\xa6'
p22
S'9:28 AM - 20 Nov 2017'
p23
tp24
a(S"Syria tries 'terrorist rehab' to deradicalize ISIS militants http://fxn.ws/2hskrF0\xc2\xa0 (via @christocarbone)pic.twitter.com/47SRGAgjf5"
p25
S'4:22 AM - 14 Nov 2017'
p26
tp27
a(S'Mass graves discovered in former ISIS-controlled territory in Iraq could contain 400 bodies\nhttp://www.foxnews.com/world/2017/11/12/mass-graves-discovered-in-former-isis-controlled-territory-in-iraq-could-contain-400-bodies.html\xc2\xa0\xe2\x80\xa6'
p28
S'11:59 AM - 12 Nov 2017'
p29
tp30
a(S'American man arrested in Minnesota for attempting to join ISIS is set to be released  http://fxn.ws/2iKFz9A\xc2\xa0'
p31
S'12:30 PM - 10 Nov 2017'
p32
tp33
a(S'Trump, Putin reportedly agree to defeat ISIS in Syria via @EDeMarchehttp://fxn.ws/2AuiM9m\xc2\xa0'
p34
S'11:48 PM - 10 Nov 2017'
p35
tp36
a(S'.@SebGorka: "We\'ll crush the Sunni extremists. ISIS is on the ropes. We\'re stacking them like cordwood."  #Hannitypic.twitter.com/Zu9NcKVBLs'
p37
S'6:57 PM - 2 Nov 2017'
p38
tp39
a(S'Daniel Hoffman: "I don\'t think that shutting down the Visa Diversity Program is necessarily going to be the path to better counter-terrorism effectiveness." pic.twitter.com/27OhQLMCcD'
p40
S'3:22 AM - 14 Nov 2017'
p41
tp42
a(S'.@jessebwatters: "Democrats would rather fight Trump than fight MS-13 or fight ISIS. They show more bloodlust for impeaching @POTUS..."pic.twitter.com/EWqbnN8zGT'
p43
S'10:30 PM - 2 Nov 2017'
p44
tp45
a(S'.@POTUS on ISIS: "Every time we\'re attacked from this point forward... we are hitting them TEN TIMES HARDER.\' pic.twitter.com/OP7gPaoCo1'
p46
S'6:15 AM - 3 Nov 2017'
p47
tp48
a(S"Russian Ministry of Defense tweets video game as 'proof' US backs ISIS in Syria http://www.foxnews.com/tech/2017/11/15/russian-ministry-defense-tweets-video-game-as-proof-us-backs-isis-in-syria.html\xc2\xa0\xe2\x80\xa6"
p49
S'3:35 PM - 15 Nov 2017'
p50
tp51
a(S'.@POTUS: "The U.S. is going through something of a miracle itself. Our stock market is at an all-time high. Unemployment is at a 17-year low. We are defeating ISIS. We are strengthening our judiciary, including a brilliant Supreme Court Justice. And on, and on, and on." pic.twitter.com/oRECzE93el'
p52
S'6:40 PM - 7 Nov 2017'
p53
tp54
a(S'.@POTUS: "When I came into office, our country was faced with a series of growing dangers. These... included rogue regimes pursuing deadly weapons, foreign powers challenging America\'s influence, the spread of the murderous terror group ISIS, & years of unfair trade practices" pic.twitter.com/6WebfZuPTN'
p55
S'12:38 PM - 15 Nov 2017'
p56
tp57
a(S'.@POTUS: "Every time we they hit us, we know it\'s ISIS - we hit them like you folks won\'t believe." pic.twitter.com/Sn1x7M30Ta'
p58
S'6:16 AM - 3 Nov 2017'
p59
tp60
a(S"Who are the Islamic militants likely behind the death of American soldiers in Niger and why won't ISIS claim them?  http://fxn.ws/2AcaT9f\xc2\xa0"
p61
S'8:35 PM - 2 Nov 2017'
p62
tp63
a(S'.@POTUS: \xe2\x80\x9cWe\xe2\x80\x99ve dealt ISIS one brutal defeat after another and it\xe2\x80\x99s about time.\xe2\x80\x9d pic.twitter.com/T5Qz3wb7fK'
p64
S'4:19 AM - 5 Nov 2017'
p65
tp66
a(S'.@DrDarrinPorcher: "@POTUS is doing a phenomenal job, when we look at the eradication of ISIS and the fall of the caliphate in Syria... He just needs to stay consistent." pic.twitter.com/tyxyReaf88'
p67
S'4:38 AM - 10 Nov 2017'
p68
tp69
a(S'.@statedeptspox: "We don\'t agree with Russia on a ton of things, but it is an area of agreement and that is fighting ISIS." pic.twitter.com/u4iBM5pUyA'
p70
S'6:46 AM - 9 Nov 2017'
p71
tp72
a(S'.@PressSec on North Korea possibly being added to list of countries that sponsor terrorism: "I believe @POTUS will be making an announcement decision on that at the first part of next week."pic.twitter.com/zpPQkXqkKj'
p73
S'1:03 PM - 16 Nov 2017'
p74
tp75
a(S'Abdullah Abdullah on the costs of war: "The threat of terrorism is not something you can simply just wish away, you have to lead with it." #SpecialReportpic.twitter.com/QGtPZrYuCb'
p76
S'3:39 PM - 17 Nov 2017'
p77
tp78
a.