(lp0
(S'Fantastic Lee! One thing about Bannon I would love to hear more about is his travels to China shortly after his firing and his relationship with Miles Gwok. Perhaps triangulation by the Chinese to create tension with Russia/US? Just a thought why he\xe2\x80\x99s naive about Russia collusion'
p1
S'3:59 PM - 5 Jan 2018'
p2
tp3
a(S'They gave up on Russia is a hoax. Now the new saying is there is no collusion there is no clusion'
p4
S'3:58 PM - 5 Jan 2018'
p5
tp6
a(S"when are you going to do something about tRump Russia collusion. I'm fed up with all the @GOP machinations to derail the investigation, It is your Constitutional duty to find the truth, not deter the investigation for party reasons. Serve the people FOR ONCE"
p7
S'3:57 PM - 5 Jan 2018'
p8
tp9
a(S"The entire collusion argument has been that it was Russia that hacked the DNC and offered that information to the Trump campaign.  First off, there's no proof it was Russia, but even if it was, they exposed massive corruption by the DNC and Clintons"
p10
S'3:57 PM - 5 Jan 2018'
p11
tp12
a(S'YES YES YES...AMEN...every other month dems come out with more lies like RUSSIA COLLUSION...SEXUAL HARRASSEMENT BY POTUS..only to be turned around on the lying dems. Not reading this garbage...I stand w TRUMP!!!! pic.twitter.com/j3RdNbESyE'
p13
S'3:57 PM - 5 Jan 2018'
p14
tp15
a(S'You ever notice that CNN along w/these other ignorant liberal stations have YET to report 1 thing that Trump has done thus far?? But have no problem talking about some twisted words from Bannon in a book, the FAKE Russia Trump collusion Tale, or when he had 2 scoops of ice cream!'
p16
S'3:56 PM - 5 Jan 2018'
p17
tp18
a(S'Lol! So first he\xe2\x80\x99s the mastermind behind Russia collusion and now he\xe2\x80\x99s a mentally ill bafoon.'
p19
S'3:55 PM - 5 Jan 2018'
p20
tp21
a(S"Here's my thread on trump's election.\n\n#Russia #FireAndFury #25thAmendment #Thread #Collusion #resist #BlueWave2018https://twitter.com/bunsOFplaydough/status/949428020661628928\xc2\xa0\xe2\x80\xa6"
p22
S'3:54 PM - 5 Jan 2018'
p23
tp24
a(S'Collusion with Russia is not a hoax. You spending taxpayer money to witch hunt Hillary is the biggest crime. That and the money you waste golfing.'
p25
S'3:54 PM - 5 Jan 2018'
p26
tp27
a(S'When you said \xe2\x80\x9cYou heard it here first\xe2\x80\x9d I was sure you were going to say there would be smear campaigns and negative TV ads. Think this is pretty much understood, Jeffrey.\n\nTit for tat.\n\nParty vs. party.\n\nIs the Russia collusion investigation over yet?'
p28
S'3:53 PM - 5 Jan 2018'
p29
tp30
a(S'1- collusion with Russia is NOT proving to be a hoax\n2- NO collusion between Clinton and Russia/FBI\n3- Book is a best seller and backed up by recordings. \n4- Fake media is what dictators say!\n#fireandfurybook #FactsMatter #CountryOverParty'
p31
S'3:53 PM - 5 Jan 2018'
p32
tp33
a(S"@ChuckGrassley  Don't worry two bit white trash. We know you are complicit in collusion with Russia to rig the election. We are just allowing you and your clown associates set yourselves up. You are going down for being a traitor clown boy."
p34
S'3:53 PM - 5 Jan 2018'
p35
tp36
a(S'Russia collusion story is now real news and Democrats where the colluders. pic.twitter.com/cSJRVGSSoF'
p37
S'3:53 PM - 5 Jan 2018'
p38
tp39
a(S'NOT ONE NEWS MEDIA OUTLET WOULD TOUCH IT.  \n\nOnly AFTER the election was over did Buzzfeed finally publish it, as a way to give an immediate boost to the Trump/Russia collusion narrative.'
p40
S'3:53 PM - 5 Jan 2018'
p41
tp42
a(S'Our Great President is going to Make America Great Again! RT @77_KYRA: RT @realDonaldTrump: Well, now that collusion with Russia is proving to be a total hoax and the only collusion is with Hillary Clinton and\xe2\x80\xa6'
p43
S'3:52 PM - 5 Jan 2018'
p44
tp45
a(S"Repeat after me:\n\nRussia. Russia. Russia.\nMueller. Mueller. Mueller.\nCollusion. Collusion. Collusion.\nImpeach. Impeach. Impeach.\n\nThat's all anyone needs to focus on right now. Anything else is being said and done to distract from this treachery by Trump and his cabal."
p46
S'3:52 PM - 5 Jan 2018'
p47
tp48
a(S"As you know, trump and his family are notorious grifters. There's a long history of dirty money with Russia. Possibly Israel and Saudi Arabia also. There may be election collusion, but it would contradict my opening statement - that the plan was not to win the election."
p49
S'3:51 PM - 5 Jan 2018'
p50
tp51
a(S'The "collusion with Russia is proving to be a total hoax", but only in the delusional mind of Demented donnie. You\'re sick donnie. You need help. Hopefully, your children will intervene before it\'s too late. @IvankaTrump @TiffanyATrump @DonaldJTrumpJr @EricTrump @SenateMajLdrhttps://twitter.com/realDonaldTrump/status/949287555660500992\xc2\xa0\xe2\x80\xa6'
p52
S'3:49 PM - 5 Jan 2018'
p53
tp54
a(S'GOP Rep DeSantis: If There Was Any Trump-Russia Collusion, It Would Have Leaked Months Ago http://ref.gl/FvTJwb7s\xc2\xa0'
p55
S'3:49 PM - 5 Jan 2018'
p56
tp57
a(S'Collusion! #Russia, Russia! #CrookedHillary! Russia, Russia! #SloppySteve! Russia, Russia! #LyingTed! Russia, Russia! #LittleRubio Russia, Russia! The Wolfman Howells while The #ManChild is Cowled!'
p58
S'3:48 PM - 5 Jan 2018'
p59
tp60
a(S"Clearly you do not understand words like collusion or hoax.\nAnd remember, you could not have won any vote (only Electoral College vote (cause LORD knows ya did not with the popular vote) without your buddy Putin, and Russia. \nMaybe, he'll give you a conjugal visit in Prison. "
p61
S'3:48 PM - 5 Jan 2018'
p62
tp63
a(S"No, your bet was that Mueller's special council would charge or arrest someone from the DNC in relation to Russia collusion 'soon'.\n\nNot only is it not soon, it also has never happened. https://twitter.com/AcademicAgent/status/926937610580262914\xc2\xa0\xe2\x80\xa6"
p64
S'3:47 PM - 5 Jan 2018'
p65
tp66
a(S"Let them fucking fire #Mueller.  I'd rather have that disgusting KKK troll #JeffSessions out of the DOJ than looking for BS Russian collusion for the next 3 years. Russia didnt cheat #Sanders out of the nomination, that is all on @HillaryClinton. Enough already"
p67
S'3:47 PM - 5 Jan 2018'
p68
tp69
a(S'Doing what trolling them w/ Russia Collusion Hoax? \nYour guy is gonna FRY! https://twitter.com/KB805/status/949426808163831809\xc2\xa0\xe2\x80\xa6'
p70
S'3:47 PM - 5 Jan 2018'
p71
tp72
a(S'So why all the elaborate scheming, lies & even the collusion with Russia (under investigation), the mud slinging on HC,belittling his opponents etc? Of course his ego egged him forward even if he lacks the temparament of a POTUS!  http://nymag.com/daily/intelligencer/2018/01/michael-wolff-fire-and-fury-book-donald-trump.html?utm_source=tw&utm_medium=s3&utm_campaign=sharebutton-t\xc2\xa0\xe2\x80\xa6 via @intelligencer'
p73
S'3:47 PM - 5 Jan 2018'
p74
tp75
a(S'Just realized why trump says there was no collusion between trump and Russia. He has no idea what collusion means.'
p76
S'3:46 PM - 5 Jan 2018'
p77
tp78
a(S'...You have emails where Trump @realDonaldTrump associates are seeking info from Russia to hurt HRC and then lying after the fact. How is that not collusion? Also, Nixon was investigated for over 2.5 years before he resigned. Mueller already has several indictments & plea deals.'
p79
S'3:46 PM - 5 Jan 2018'
p80
tp81
a(S"Verdict is not out yet on the collusion with Russia so not a hoax yet. It's never good when a close friend turns on you. Time will tell all. By your actions, you have made this book a top seller.  You should have just ignored it as past presidents have done."
p82
S'3:46 PM - 5 Jan 2018'
p83
tp84
a(S"@realDonaldTrump It already seems like Russians, Americans & others will be very pleased with Pres. Putin in office for one more term. Like the USA, the reason is Russia nuclear arsenal. Will there be some kind of elections interference or collusion? The world's watching!"
p85
S'3:45 PM - 5 Jan 2018'
p86
tp87
a(S'Yes @chucktodd why are you having him on so much? We have Russia collusion with Nunes and Ryan and you are having this complicit dipshit on to support Russian interference in US elections'
p88
S'3:45 PM - 5 Jan 2018'
p89
tp90
a(S'It is obvious that there must be some covert complicity by some in the @GOP in regards to collusion with Russia and/or some shady financial dealings with Trump entities for personal gain.'
p91
S'3:45 PM - 5 Jan 2018'
p92
tp93
a(S'No, the investigation into the Russia collusion has not been proven to b a hoax @realdonaldtrump. FBI has not completed its investigation'
p94
S'3:44 PM - 5 Jan 2018'
p95
tp96
a(S'Well, now that collusion with Russia is proving to be a total hoax and the only collusion is with Hillary Clinton and the FBI/Russia, the Fake News Media (Mainstream) and this phony new book are hitting out at every new front \nhttps://goo.gl/aPCoK7\xc2\xa0https://twitter.com/realDonaldTrump/status/949287555660500992\xc2\xa0\xe2\x80\xa6'
p97
S'3:43 PM - 5 Jan 2018'
p98
tp99
a(S'That had nothing to do with "Russia collusion" uranium one has emails, financial records, and FBI documents. No wonder they are re-looking into that as well as Hillary\'s email server. Time is up!'
p100
S'3:43 PM - 5 Jan 2018'
p101
tp102
a(S"I'm sincerely curious how you refute the specific & substantive evidence mounting against @realDonaldTrump & his administration re: collusion & obstruction. We have Trump people on record lying about meetings w/ Russia and seeking to partner w/ Russia against HRC...."
p103
S'3:43 PM - 5 Jan 2018'
p104
tp105
a(S'Gee dwelling on HC & BC criminality where no full investigation has actually be done thanks to Comey & Lynch. Why then does the Left dwell on DJT impeachment where there is no illegalities & a contrived Russia collusion scheme investigation?'
p106
S'3:42 PM - 5 Jan 2018'
p107
tp108
a(S'\nInstead of investigating Trump-Russia collusion, FBI directed to probe Hillary Clinton LOCK HER UP. \nAnd GOP senators recommend criminal charges v author of Trump-Russia dossier. #AuthoritarianTactics #CorruptCongress'
p109
S'3:41 PM - 5 Jan 2018'
p110
tp111
a(S'Or the Russian collusion story is a hoax, as there is no proof and it appears that the democrats colluded with Russia to frame the story. Since hillary AND comey paid for this info from the Russians, they are the only ones with any proof of Russian collusion against them'
p112
S'3:41 PM - 5 Jan 2018'
p113
tp114
a(S'Man CNN what is there to say THEY SUCK can\xe2\x80\x99t even call them FAKE anymore they just plain an simply \xe2\x80\x9csuck\xe2\x80\x9d they might as well move into the Democratic offices FIRST it\xe2\x80\x99s this it\xe2\x80\x99s that it\xe2\x80\x99s Russia it\xe2\x80\x99s sex it\xe2\x80\x99s collusion it\xe2\x80\x99s obstruction why can\xe2\x80\x99t it just be what it is YOU LOST'
p115
S'3:40 PM - 5 Jan 2018'
p116
tp117
a(S'So instead of investigating mounting Trump-Russia collusion, FBI is directed to probe Hillary Clinton and GOP senators recommending criminal charges against author of Trump-Russia dossier. #authoritarian #corrupt'
p118
S'3:39 PM - 5 Jan 2018'
p119
tp120
a(S'TRUMP-O-GANDA brought to you by Collusion with Russia and spineless traitors. pic.twitter.com/JW477rh8Et'
p121
S'3:38 PM - 5 Jan 2018'
p122
tp123
a(S"Wow that whole Russia Collusion doesn't make any sense especially when you can't blame over 1000 seats that the Democrats lost Russia pic.twitter.com/w9kmjhRSn2"
p124
S'3:38 PM - 5 Jan 2018'
p125
tp126
a(S'Market and consumer confidence shooting up means the Russia collusion nonsense being pushed non-stop by the anti-Trump CNN is being tuned out.'
p127
S'3:37 PM - 5 Jan 2018'
p128
tp129
a(S'This is the next DNC scheme because no facts of collusion with Russia!  This doctor has no clue!  Trump isn\xe2\x80\x99t his patient and Id like to see anyone try to be President...tough job!'
p130
S'3:35 PM - 5 Jan 2018'
p131
tp132
a(S'Why would POTUS want to fire Mueller? Not a case of sabotaging anything. Mueller has never had anything all along on Russia Collusion. The problem will be who covered up Uranium One? But I think Mueller cut a deal in exchange for Rosenstein and Weisemann for the cover up.'
p133
S'3:35 PM - 5 Jan 2018'
p134
tp135
a(S'I have to laugh Joe at your message. Have you ever thought that the Russia collusion scenario was false ?  I know you must pound Trump to stay on MSNBC but one day soon you might be looking not very credible.'
p136
S'3:35 PM - 5 Jan 2018'
p137
tp138
a(S'there was no collusion with Clinton you total #buffoon the only collusion with Russia was with you and your time is coming fast to be #IMPEACHED Finally'
p139
S'3:35 PM - 5 Jan 2018'
p140
tp141
a(S'The original \xe2\x80\x9cCollusion with Russia\xe2\x80\x9d'
p142
S'3:34 PM - 5 Jan 2018'
p143
tp144
a(S'Donald J. Trump | Now that collusion with Russia is proving to... http://mostwatched.trendolizer.com/2018/01/donald-j-trump-now-that-collusion-with-russia-is-proving-to.html\xc2\xa0\xe2\x80\xa6pic.twitter.com/htX7FQwfHo'
p145
S'3:34 PM - 5 Jan 2018'
p146
tp147
a(S'Independent: \xe2\x80\x9cDonald Trump says that even if he did collude with Russia, it is not a crime.\xe2\x80\x9d @ \xe2\x80\xa6https://thisweekinthetrumprussiainvestigation.blogspot.com/2017/12/trump-russia-investigation-week-in_31.html\xc2\xa0\xe2\x80\xa6\n#news #mainstream #donaldtrump #russia #investigation #politics #putin #evidence #robertmueller #blog #hackers #gop #democrat #usa #election #collusion'
p148
S'3:34 PM - 5 Jan 2018'
p149
tp150
a(S'ONLY COLLUSION WITH RUSSIA is by the Clinton Crime Family and her campaign.'
p151
S'3:33 PM - 5 Jan 2018'
p152
tp153
a(S'Republicans in Congress and the Senate have zero interest in getting to the facts on Russia collusion. They are simply doing everything they can to obstruct justice and protect Trump.\n\nThat can\xe2\x80\x99t stand. We must end the GOP majority in both houses of Congress\n\n#resist'
p154
S'3:32 PM - 5 Jan 2018'
p155
tp156
a(S'Of primary issues Mr. Mueller appears to be investigating\xe2\x80\x94whether Mr. Trump obstructed justice & whether there was collusion between the Trump campaign & Russia\xe2\x80\x94there\xe2\x80\x99s a larger body of public evidence tying the president to a possible crime of obstruction https://www.nytimes.com/2018/01/04/us/politics/trump-sessions-russia-mcgahn.html\xc2\xa0\xe2\x80\xa6'
p157
S'3:32 PM - 5 Jan 2018'
p158
tp159
a(S'Just like Russia collusion...'
p160
S'3:32 PM - 5 Jan 2018'
p161
tp162
a(S'I bet I could piece together the clinton- Russia collusion in seconds.. and without a prosecutor who spent a year on it! You people at @CNN need to pull your head out your asses'
p163
S'3:31 PM - 5 Jan 2018'
p164
tp165
a(S"Let's see the polls were wrong Russia was a lie it was collusion then corruption now he's mental dear Lord the only ones that are mental is the FAKE NEWS MEDIA CNN MSNBC ABC all in love with an enabler criminal predator warmonger witch sick liars ill stick with #MAGA N TRUMP"
p166
S'3:31 PM - 5 Jan 2018'
p167
tp168
a(S'The only sad thing is how you constantly use HRC and Obama as your go-to, when things are too hot for YOUR COLLUSION with Russia, you tool.'
p169
S'3:31 PM - 5 Jan 2018'
p170
tp171
a(S"Slowest JOB growth since 2010 those pesky facts. So @GOP is unpatriotic or they would do something about Russia interference in our election. If @GOP was patriotic they would DEMAND a true investigation against COLLUSION and TREASON. Get off Hillary that's fake. Treasonous Trump"
p172
S'3:31 PM - 5 Jan 2018'
p173
tp174
a(S"Papadopolous' girlfriend blabbed to an Australian diplomat about his role on Trump's campaign. The Aussie then plied him with wine until he spilled the beans about Russia collusion.\nhttps://amp.smh.com.au/federal-politics/political-news/romantic-encounter-set-off-australias-role-in-triggering-donald-trump-investigation-20180105-h0e34r.html?__twitter_impression=true\xc2\xa0\xe2\x80\xa6"
p175
S'3:30 PM - 5 Jan 2018'
p176
tp177
a(S'This rehearsed statement that\n"collusion with Russia is proving to be a total hoax" belongs in the 95% category, the lie category, of the words U speak or tweet.\nbook \xe2\x80\x98Fire and Fury\xe2\x80\x99\nTop officials call Trump "a dope" and a "moron" and "dumb as sh-t."\nhttp://www.cnn.com/2018/01/05/opinions/much-of-wolffs-trump-book-rings-true-opinion-dantonio/index.html\xc2\xa0\xe2\x80\xa6'
p178
S'3:30 PM - 5 Jan 2018'
p179
tp180
a(S'\xe2\x80\x9cWell, now that collusion with Russia is proven to be totally true and the Hillary Clinton and the FBI/Russia, the accurate News Media (Not Fox) and this berry-scawy new book are hitting out at every new front imaginable. They\xe2\x80\x99ll win elections. I\xe2\x80\x99m Sad!\xe2\x80\x9d Trump #FireAndFury'
p181
S'3:29 PM - 5 Jan 2018'
p182
tp183
a(S"Collusion means nothing. Conspiring & rigging an election w/Russia is big trouble for you & your loyalists. Plus obstruction of justice. Just because you aren't smart enough to understand the constitution & the law, doesn't mean you won't go to jail. Your old story is just that."
p184
S'3:28 PM - 5 Jan 2018'
p185
tp186
a(S'Ok so you\xe2\x80\x99re comparing Trump demanding FBI investigate Hillary Clinton; a former political opponent who\xe2\x80\x99s now a private citizen and had already cleared by FBI to ...the FBI interviewing and indicting Paul Manafort as part of an ongoing investigation into Trump/Russia collusion?'
p187
S'3:27 PM - 5 Jan 2018'
p188
tp189
a(S"Give it up @funder It's over, the tables have turned and the DOJ are finally going after the Clintons & the real collusion between them & Russia. You can keep banging on about Trump, Russia but everyone knows, there is nothing there."
p190
S'3:26 PM - 5 Jan 2018'
p191
tp192
a(S'Former WH Chief of Staff forces CNN to admit there is "no evidence" of Trump-Russia collusion after 12mos of  breathless\xe2\x80\xa6'
p193
S'3:26 PM - 5 Jan 2018'
p194
tp195
a(S'You have one follower. Impressive. & you\xe2\x80\x99re defending a traitor to your country. Trump knows he colluded w/Russia & only people like you believe that he hasn\xe2\x80\x99t been exposed already as the Russian pawn he is. He can say \xe2\x80\x9cno collusion\xe2\x80\x9d as often as he wants! No one believes him!'
p196
S'3:26 PM - 5 Jan 2018'
p197
tp198
a(S'All the evidence that\xe2\x80\x99s out is actually starting to prove collusion. And btw, Hillary won the election. You had Russia steal it. Resign you moron!  All of ur staff laughs at u because ur an idiot!!'
p199
S'3:26 PM - 5 Jan 2018'
p200
tp201
a(S'Nope, not crazy. \n\nTrump would have fired Sessions a long time ago, like the day or week after he recused himself from the Russia Collusion story. \n\nTrump and Sessions have a plan and they have been working it for the last 11.5 months if not 1.5 years.'
p202
S'3:25 PM - 5 Jan 2018'
p203
tp204
a(S"Trump slams 'phony' book as distraction from Russia collusion 'hoax' via the @FoxNews Apphttp://www.foxnews.com/politics/2018/01/05/trump-slams-phony-book-as-distraction-from-russia-collusion-hoax.html\xc2\xa0\xe2\x80\xa6"
p205
S'3:25 PM - 5 Jan 2018'
p206
tp207
a(S'Oh, pookie, Hillary did win the election, despite your collusion with Russia. And Dems have been picking up seats ever since. Keep tweeting!'
p208
S'3:25 PM - 5 Jan 2018'
p209
tp210
a(S'@POTUS How embarrassing \n#Russia #Collusion #TraitorTrump #ObstructionOfJustice\n#Jarvanka #DonJr #Sessions #Traitors\n#FireAndFury @realDonaldTrump\n#LikeAChildpic.twitter.com/1r8VkBsRqR'
p211
S'3:25 PM - 5 Jan 2018'
p212
tp213
a(S'I thought I would try to watch @CNN with @wolfblitzer. Unfuckingbelieve.  Wolf tosses up softball #FakeNews rumors to @davidcicilline who starts every conversation with \xe2\x80\x9cIf True...\xe2\x80\x9d then proceeds with Collusion, Collusion, Collusion since their Russia, Russia, Russia fell apart.'
p214
S'3:24 PM - 5 Jan 2018'
p215
tp216
a(S'You got that right. Trump/Russia collusion  fairy tale of moronic proportions. Democrats/Leftists/NeverTrump shot themselves in foot & ass'
p217
S'3:24 PM - 5 Jan 2018'
p218
tp219
a(S"Seems the FBI is doing what they have Done for years digging into every crevice of every person who May be involved with Russia collusion and conspiracy trying to block or bribe other's from being truthful is a criminal offense it's a Sad thing for American"
p220
S'3:24 PM - 5 Jan 2018'
p221
tp222
a(S'Donald J. Trump | Now that collusion with Russia is proving to... http://russia.trendolizer.com/2018/01/donald-j-trump-now-that-collusion-with-russia-is-proving-to.html\xc2\xa0\xe2\x80\xa6pic.twitter.com/2JgtvC6TY3'
p223
S'3:24 PM - 5 Jan 2018'
p224
tp225
a(S"Mishtee. Then why did Maxine Waters and Dianne Feinstein both say there's no evidence of collusion between the Trump campaign and Russia?\nDemocrats have more explaining to do."
p226
S'3:23 PM - 5 Jan 2018'
p227
tp228
a(S'If Sessions is ousted by Trump and the GOP for his justified non involvement in the Russia-Trump collusion investigation we have all the smoking gun we need that #trump was involved and knew of the meetings and most likely encouraged them #TrumpRussia'
p229
S'3:23 PM - 5 Jan 2018'
p230
tp231
a(S'They are guilty as hell of collusion with Russia and tRump.'
p232
S'3:23 PM - 5 Jan 2018'
p233
tp234
a(S'He honest to goodness lives in another realm - the Dems are winning & the investigation continues into Russia collusion. I cannot believe no one in the Republican Party does anything about this. #stepup for fuck sake.'
p235
S'3:23 PM - 5 Jan 2018'
p236
tp237
a(S'So the Russia Collusion investigation against Trump results in a criminal investigation against the creator of the dossier. Congratulations Democrats. https://twitter.com/repstevensmith/status/949418830903816193\xc2\xa0\xe2\x80\xa6'
p238
S'3:22 PM - 5 Jan 2018'
p239
tp240
a(S"Now that's a picture of collusion, the conspiracy begins and follows as to how to they accomplish the collusion with T-rump and co-conspirators.  In other words they have nothing else to due for the people, they don't care what Russia done!  It's all about themselves, GET IT!!"
p241
S'3:21 PM - 5 Jan 2018'
p242
tp243
a(S'(2/2)\n\nThe only Russia collusion was between #Hillary, DNC & Dems.\n\nNo American should be above the law!'
p244
S'3:21 PM - 5 Jan 2018'
p245
tp246
a(S'OK. Now stay out of the way of the FBI\xe2\x80\x99s way as it continues to investigate the Trump campaign\xe2\x80\x99s possible (and probable) connection and collusion with Russia during the run up to and during the 2016 election, as well as the possible cover up and obstruction of justice afterward.'
p247
S'3:20 PM - 5 Jan 2018'
p248
tp249
a(S'Rep. Chris Stewart joins other Republicans in calling for Sessions to step down - Sessions didn\xe2\x80\x99t want to have to lie anymore to the people of America to defend trump for collusion with Russia ! I\xe2\x80\x99d like to hear what the little elf has to say! #dumptrumphttps://apple.news/AHcCJAx9aT_GegvHoi4Jm6w\xc2\xa0\xe2\x80\xa6'
p250
S'3:20 PM - 5 Jan 2018'
p251
tp252
a(S'Right now US Government  busy with #russiagate #Trussia Trump Collusion/Complicity with Russia in 2016 Election! https://twitter.com/JulianSvendsen/status/949288261641490433\xc2\xa0\xe2\x80\xa6'
p253
S'3:20 PM - 5 Jan 2018'
p254
tp255
a(S"I'm thinking now you may be right about collusion with Russia was not your intent. Covering up the money laundering is what you are panicking about. That is much more serious. That is what Putin has on you and ur family. pic.twitter.com/SJhnGclTgu"
p256
S'3:20 PM - 5 Jan 2018'
p257
tp258
a(S'You are the one embellishing the \xe2\x80\x9cfacts\xe2\x80\x9d. Comey assured Trump personally & in congressional testimony that Trump was not implicated.  Faux feeling sorry is as phony as the facts you are peddling. After over a yr the only collusion we know of for sure is Clinton-DNC-Fusion+Russia.'
p259
S'3:20 PM - 5 Jan 2018'
p260
tp261
a(S"Liberals gorging on Fire And Fury - rabidly proclaiming it the new Bible of anti-Trump revelations - will choke on the claim that Trump never wanted to be President. It destroys their Russia Collusion hoax. If they deem that to be false, it throws the whole book's credibility."
p262
S'3:19 PM - 5 Jan 2018'
p263
tp264
a(S'Please. If this was true @AdamSchiffCA YOU would have been screaming it since day one. President was w/in his rights to fire Comey. YOU HAVE NOTHING. NO RUSSIA COLLUSION nothing.'
p265
S'3:19 PM - 5 Jan 2018'
p266
tp267
a(S"I don't think there is anything there. So let them waste their time. The news learn their lesson, they won't back down on Russia Collusion. Trump is going down."
p268
S'3:19 PM - 5 Jan 2018'
p269
tp270
a(S'While Democrats have pushed the Trump-Russia collusion story for over a year, what POLICY PLANS do Democrats have that they will follow through on if they retake Congress. Democrats know if they have a PLAN, voters may expect something from them. #NoResistance'
p271
S'3:18 PM - 5 Jan 2018'
p272
tp273
a(S'@ChuckGrassley and @LindseyGrahamSC are both trying to hide something.  Perhaps both are involved in Trump\xe2\x80\x99s collusion with Russia.  They have repeatedly denied truth in favor of fabrication and falsehood. Grassley has done it for years because he is corrupt.  Graham surprised me'
p274
S'3:18 PM - 5 Jan 2018'
p275
tp276
a(S'Collusion with Russia is a ridicolous invention:reality is that thanks @potus we are rebuilding the Nation #USA #MakeAmericaGreatAgain #MAGA '
p277
S'3:18 PM - 5 Jan 2018'
p278
tp279
a(S'\xe2\x80\x9cThus it\xe2\x80\x99s hard not to view this referral as an abuse of power designed to undermine and thus obstruct the Mueller investigation into the Trump campaign\xe2\x80\x99s possible collusion with Russia in last year\xe2\x80\x99s presidential election.\xe2\x80\x9d https://www.washingtonpost.com/blogs/right-turn/wp/2018/01/05/senate-republicans-become-trump-accomplices-in-manipulating-the-system/\xc2\xa0\xe2\x80\xa6'
p280
S'3:17 PM - 5 Jan 2018'
p281
tp282
a(S'How is this 5th investigation going for you asshats? 1.5 years and you still push Russia. Oh there was collusion but that was Killary with her Uranium one deal. The dossier and the bribes? Well more from your side except for the treasonous song bird @SenJohnMcCain . More?'
p283
S'3:16 PM - 5 Jan 2018'
p284
tp285
a(S"What the heck channel are you watching? Collusion with Russia is proving to be alarmingly real among your campaign and WH comrades, I expect it to be proven that you were also directly involved. Kinda sucks when everybody's jumping ship and sharing the dirty details. Sad! https://twitter.com/realDonaldTrump/status/949287555660500992\xc2\xa0\xe2\x80\xa6"
p286
S'3:16 PM - 5 Jan 2018'
p287
tp288
a(S"Fire and Fury book assertion that Trump never wanted to be President effectively destroys CNN's Russia Collusion hoax."
p289
S'3:14 PM - 5 Jan 2018'
p290
tp291
a(S'What\'s amazing is they all thought they were well insulated so this wouldn\'t blow back on their evil traitorous asses!#TRUMP\nAll bc they were trying 2 create a Trump Russia Collusion Narrative which was how their entire "House of Cards" began 2 fall bing bang boom! #MAGAhttps://twitter.com/DB_Houston_2017/status/949414142720528384\xc2\xa0\xe2\x80\xa6'
p292
S'3:14 PM - 5 Jan 2018'
p293
tp294
a(S'Obstruction Inquiry Shows Trump\xe2\x80\x99s Struggle to Keep Grip on Russia Investigation https://nyti.ms/2E6y31Z\xc2\xa0 via @nytimes > #corruption @FBI @TheJusticeDept @realDonaldTrump @PutinRF_Eng #collusion'
p295
S'3:13 PM - 5 Jan 2018'
p296
tp297
a(S'\xe2\x80\x9cIt\xe2\x80\x99s clearly another effort to deflect attention from what should be the committee\xe2\x80\x99s top priority, determining whether there was collusion between the Trump campaign and Russia to influence the election and whether there was subsequent obstruction of justice,\xe2\x80\x9d -@SenFeinstein'
p298
S'3:13 PM - 5 Jan 2018'
p299
tp300
a(S'Did he just acknowledge Trump colluded with Russia saying that what Manafort did had nothing to do with that collusion?'
p301
S'3:12 PM - 5 Jan 2018'
p302
tp303
a(S'@TheBeatWithAri Listen people the Senate Republicans move to lunch this investigation because they are involve in the collusion. So what do they go? Grassly and Grahams had to deflect the real investigation in order to close the Russia probe by Mueller @MSNBC'
p304
S'3:11 PM - 5 Jan 2018'
p305
tp306
a(S'Please cite your evidence that the charge of collusion between you and your campaign and Russia has been proven a hoax. Thanks'
p307
S'3:11 PM - 5 Jan 2018'
p308
tp309
a(S"Calling for charges against Christopher Steele seems an oddly oblique way for Grassley and Graham to admit to involvement in the Trump/Russia Collusion, but if that's how they want to do it I suppose that's their prerogative."
p310
S'3:11 PM - 5 Jan 2018'
p311
tp312
a(S'Ppl Muller is a republican,it does not matter though. The investigation is about collusion & Russia. It\xe2\x80\x99s about breaking United States laws possibly treason & collusion. No one should care who the prosecutor is as long as they can prove a legal case. Again this is about the LAW!'
p313
S'3:10 PM - 5 Jan 2018'
p314
tp315
a(S'Graham & Grassley have shown that they are going to assist Trump in his diversionary tactics to distract the focus from the Russian collusion. Given that collusion with Russia is treasonous, that puts the two  senators on the side opposing the interests of Americans. Disgraceful!'
p316
S'3:10 PM - 5 Jan 2018'
p317
tp318
a(S"Thank GOD @HillaryClinton isn't Prez. The real issues: her murder of #Benghazi4, 'Pay-to-Play via @ClintonFdn,  #UraniumOneDeal, facilitating @billclinton sex crimes, Vince Foster murder, co-opting @DNC, rigging primary against @SenSanders, collusion with Russia, #HangthemAll pic.twitter.com/PqBrccwX9a"
p319
S'3:09 PM - 5 Jan 2018'
p320
tp321
a(S'The proof is bundled in with the Trump-Russia collusion proof'
p322
S'3:09 PM - 5 Jan 2018'
p323
tp324
a(S"That CNN is guilty making up Russia Collusion..where's the story on HRC investigation.."
p325
S'3:09 PM - 5 Jan 2018'
p326
tp327
a(S'#PantsOnFire  Collusion w/Russia has not been proven to be a hoax. Not by a long shot. In fact, quite the opposite. And there was NO collusion between @HillaryClinton & FBI/Russia. @FBI I hope Hillary sues you for defamation. And she DID win the election. By 3M more votes!https://twitter.com/realDonaldTrump/status/949287555660500992\xc2\xa0\xe2\x80\xa6'
p328
S'3:06 PM - 5 Jan 2018'
p329
tp330
a(S'Why the fake news from @HuffPostPol is heating up. The Russia collusion hoax has fallen apart,now onto nonexistent obstruction of justice.'
p331
S'3:06 PM - 5 Jan 2018'
p332
tp333
a(S'STOP LYING,  Collusion with Russia is not a HOAX! You should be ashamed of yourself,  You continue to lie to your base.'
p334
S'3:06 PM - 5 Jan 2018'
p335
tp336
a(S"Republicans know about the Russia collusion but they are in on the deal that's why they don't bring indictment charges."
p337
S'3:06 PM - 5 Jan 2018'
p338
tp339
a(S'You\xe2\x80\x99re right, but it was hard for me to get past the part where he says, \xe2\x80\x9c...now that collusion with Russia is proving to be a total hoax...\xe2\x80\x9d. Is he trying to convince himself or the base?'
p340
S'3:06 PM - 5 Jan 2018'
p341
tp342
a(S'@LindseyGrahamSC YOU have totally FLIPPED...BOTH on Russia/Trump and Trump HIMSELF. YOU know there was collusion and that Trump is a CRIMINAL. STOP AYING http://POLITICS.You\xc2\xa0 and Grassley are buying time. #ImpeachTrump!!!'
p343
S'3:05 PM - 5 Jan 2018'
p344
tp345
a(S'None of the indictments had anything to do with collusion between the campaign and Russia to influence the election. You know that, right?'
p346
S'3:04 PM - 5 Jan 2018'
p347
tp348
a(S'There is NOTHING BUT evidence of massive criminal wrong-doing by the WH, FBI, and DOJ regarding the Clinton pay-for-play scandal, the Clinton espionage scandals, and Trump campaign wire-tapping scandal, where ever one looks. There is ZERO evidence of Trump-Russia collusion. None.'
p349
S'3:03 PM - 5 Jan 2018'
p350
tp351
a(S'Dear @PressSec, Can we agree now that any "media" firm found to have accepted Clinton/DNC payments laundered through FusionGPS to push the "@realDonaldTrump - Russia collusion" smear should have it\'s White House press credentials revoked? https://twitter.com/seanmdav/status/949329471710121984\xc2\xa0\xe2\x80\xa6'
p352
S'3:03 PM - 5 Jan 2018'
p353
tp354
a(S"Trump slams 'phony' book as distraction from Russia collusion 'hoax.\xe2\x80\x99 @FoxNews | It\xe2\x80\x99s just a pathetic PR ploy, engineered by a publisher that clearly doesn\xe2\x80\x99t trust the credibility of the author nor its content.http://www.foxnews.com/politics/2018/01/05/trump-slams-phony-book-as-distraction-from-russia-collusion-hoax.html\xc2\xa0\xe2\x80\xa6"
p355
S'3:03 PM - 5 Jan 2018'
p356
tp357
a(S'(R)Sen. Raise Possible Charges Against Author of Trump Dossier https://nyti.ms/2F3GEUC\xc2\xa0\nRep. Sen(s) helping Trump on "Russia Collusion" is like some lepers helping a blind to cross a dangerous road. What a disastrous coupling?\n@realDonaldTrump @ChuckGrassley @LindseyGrahamSC'
p358
S'3:03 PM - 5 Jan 2018'
p359
tp360
a(S'Yeah, Trump admitted to obstruction on TV, and high-ranking members of his campaign have all but copped to collusion with Russia. So why are people saying Mueller is moving quickly when it seems interminable? Because this is how depositions work: https://youtu.be/PZbqAMEwtOE\xc2\xa0'
p361
S'3:02 PM - 5 Jan 2018'
p362
tp363
a(S'Finally evidence of Russia Collusion! pic.twitter.com/qPgpw0E1HH'
p364
S'3:02 PM - 5 Jan 2018'
p365
tp366
a(S'Hah ... a little throwback to @VanJones68 ... you forget this is what he called the "Russia Collusion" investigation ..'
p367
S'3:02 PM - 5 Jan 2018'
p368
tp369
a(S'Idiots! Read my lips, \xe2\x80\x9cno Russia collusion\xe2\x80\x99s \xe2\x80\x9c  https://twitter.com/msnbc/status/949367563116597248\xc2\xa0\xe2\x80\xa6'
p370
S'3:02 PM - 5 Jan 2018'
p371
tp372
a(S'Trump surrogates say Russia investigation is supposed to be about collusion, why are they looking at financial dealings? Are they dumb? If Putin has knowledge the @POTUS committed a crime, (e.g. money laundering) he has means to blackmail him.'
p373
S'3:01 PM - 5 Jan 2018'
p374
tp375
a(S'Trump says the only collusion that happened was between Hillary Clinton, the FBI and Russia http://ow.ly/vR9c30hBx4c\xc2\xa0 via @edmecka'
p376
S'3:00 PM - 5 Jan 2018'
p377
tp378
a(S"Those hyperventilating about Don Jr. better review their history. Collusion w Russia isn't even close to being new\xe2\x80\xa6 https://www.seoclerks.com/user/roksana95\xc2\xa0"
p379
S'2:59 PM - 5 Jan 2018'
p380
tp381
a(S'What makes you think so? Ted Kennedy &amp; Jimmy Carter both did FAR MORE  actual collusion w Russia in 80 &amp; 84. Its NOT A C\xe2\x80\xa6'
p382
S'2:59 PM - 5 Jan 2018'
p383
tp384
a(S"Those hyperventilating about Don Jr. better review their history. Collusion w Russia isn't even close to being new\xe2\x80\xa6 https://www.seoclerks.com/user/roksana95\xc2\xa0"
p385
S'2:58 PM - 5 Jan 2018'
p386
tp387
a(S'What makes you think so? Ted Kennedy &amp; Jimmy Carter both did FAR MORE  actual collusion w Russia in 80 &amp; 84. Its NOT A C\xe2\x80\xa6'
p388
S'2:58 PM - 5 Jan 2018'
p389
tp390
a(S'No hope for evidence of collusion on the part of @realDonaldTrump and Russia in 2016 election, because, unlike Trump, Russia WANTED him to win. \n\nThat\xe2\x80\x99s why money laundering is the bigger story.'
p391
S'2:58 PM - 5 Jan 2018'
p392
tp393
a(S'I could accuse you of the same thing. You have just a grab bag of conspiracy theories. When Russia collusion flopped you went onto obstruction, now mental health. How ageist of you!'
p394
S'2:57 PM - 5 Jan 2018'
p395
tp396
a(S'Get his old school Crackas azz out of there! He is so out of touch with True Americans! Plus he\xe2\x80\x99s dirty on The Russia collusion as well that\xe2\x80\x99s why his lawyers told him to recuse himself from the case! Money laundering is the key to this case! Bob just follow the money Sir https://twitter.com/cnn/status/949387564062052353\xc2\xa0\xe2\x80\xa6'
p397
S'2:57 PM - 5 Jan 2018'
p398
tp399
a(S'@jeffsessions How about doing the job you\xe2\x80\x99re supposed to be doing instead of imposing your views/ beliefs on the American public.?We\xe2\x80\x99ve got credible evidence of collusion and corruption with Russia and you\xe2\x80\x99re going after marijuana users? pic.twitter.com/AXfUbE27Dk'
p400
S'2:56 PM - 5 Jan 2018'
p401
tp402
a(S'@RepRohrabacher @CNN why have the one of the most corrupt Reps in your network??  He gets $$$$ from Russians.  He cannot weight in on Russia collusion, he is way too deep in that.  #Votehimout #GOPCorrupt'
p403
S'2:55 PM - 5 Jan 2018'
p404
tp405
a(S'@RepRohrabacher just stated on national tv that \xe2\x80\x9cManfort had nothing to do with Trump\xe2\x80\x99s collusion with Russia\xe2\x80\x9d. Hmmm https://twitter.com/h_town_74/status/949392957148401664\xc2\xa0\xe2\x80\xa6'
p406
S'2:54 PM - 5 Jan 2018'
p407
tp408
a(S'Why don\'t you comment the historical precedent of Ted Kennedy &amp; Jimmy Carter doing actual, real "collusion" w the Russia\xe2\x80\xa6'
p409
S'2:54 PM - 5 Jan 2018'
p410
tp411
a(S'that is no way to talk of the man who help with your collusion with Russia.'
p412
S'2:53 PM - 5 Jan 2018'
p413
tp414
a(S'Such a disparity between ongoing Democratic/media narrative of treasonous collusion between Trump/Russia to steal an election and actual story.'
p415
S'2:53 PM - 5 Jan 2018'
p416
tp417
a(S'Well, now that collusion with Russia is proving to be a total hoax and the only collusion is with Hillary Clinton and the FBI/Russia, the Fake News Media (Mainstream) and this phony new book are hitting out at every new front imaginable. They should try winning an election. Sad! pic.twitter.com/PbS93Sc8z3'
p418
S'2:53 PM - 5 Jan 2018'
p419
tp420
a(S"What I don't understand is.. Wasn't @LindseyGrahamSC and @SenJohnMcCain both the two republicans who wanted to get to the bottom of this Russia thing? Looks like Lindsey either sold his soul, or Trump has something on him, or he's just as guilty with collusion. Why the change?"
p421
S'2:53 PM - 5 Jan 2018'
p422
tp423
a(S'Please retweet this if you think that the DOJ should actually investigate the @SenateGOP as accomplices for attempting to cover up & obstruct the investigation of DJT\xe2\x80\x99s possible collusion with Russia to meddle in the \xe2\x80\x9816 Presidential election.  https://www.washingtonpost.com/blogs/right-turn/wp/2018/01/05/senate-republicans-become-trump-accomplices-in-manipulating-the-system/\xc2\xa0\xe2\x80\xa6'
p424
S'2:52 PM - 5 Jan 2018'
p425
tp426
a(S"And? Where is the Russian collusion? There is nothing in those charges that any of them actually colluded with Russia because then they would be charged with treason. Don't underestimate my intelligence! Never mind where is Trump in all of this?  Do some research first. Facts?"
p427
S'2:52 PM - 5 Jan 2018'
p428
tp429
a(S"The entire MSM has done damage to our country. Not sure why you think they're special other than the fact that they're the main conservative outlet.\n\nC'mon. The entire left wing is running with a fake Russia collusion narrative without a shred of evidence proving it."
p430
S'2:52 PM - 5 Jan 2018'
p431
tp432
a(S'If there were corroborated evidence, libtards would have him ousted by now. Get over your hatred. Finally Republicans are realizing there r more collusion w/Russia & Hillary and getting behind @POTUS'
p433
S'2:51 PM - 5 Jan 2018'
p434
tp435
a(S'So lemme see if I got this straight: per you, it\xe2\x80\x99s perfectly OK for Russia to meddle (note that Hannity has already conceded RU meddled, but now claims collusion isn\xe2\x80\x99t a crime), but when UK does it, it\xe2\x80\x99s not OK?\n\nAs retired prosecutor said in article, pick a land & stay in it. pic.twitter.com/PKyXpEPAoK'
p436
S'2:51 PM - 5 Jan 2018'
p437
tp438
a(S'Pro-#Kremlin #Twitter trolls take aim at #RobertMueller #Russia-#Trump collusion probe. https://www.wired.com/story/pro-russia-twitter-trolls-target-robert-mueller/?mbid=social_twitter_onsiteshare\xc2\xa0\xe2\x80\xa6 via @WIRED'
p439
S'2:51 PM - 5 Jan 2018'
p440
tp441
a(S'The Trump/Russia \xe2\x80\x9ccollusion\xe2\x80\x9d narrative is completely falling apart, so much that dems and liberal MSM don\xe2\x80\x99t want to admit it. Time to move on to get important things done in DC, such as building the wall and fulfilling other key promises to #MAGA!'
p442
S'2:49 PM - 5 Jan 2018'
p443
tp444
a(S'Pro-Kremlin Twitter Trolls Take Aim at Robert Mueller - WIRED. See @realDonaldTrump your collusion with Russia continues  https://apple.news/A3x4UoETyQmKevfkJZl8Plg\xc2\xa0\xe2\x80\xa6'
p445
S'2:49 PM - 5 Jan 2018'
p446
tp447
a(S'\xe2\x80\x9cIt\xe2\x80\x99s clearly another effort to deflect attention from what should be the committee\xe2\x80\x99s top priority, determining whether there was collusion between the Trump campaign and Russia ...\xe2\x80\x9d.\n@realDonaldTrump #TrumpRussia #Dossier #GOPcowardshttps://www.nytimes.com/2018/01/05/us/politics/christopher-steele-dossier-judiciary-committee.html\xc2\xa0\xe2\x80\xa6'
p448
S'2:49 PM - 5 Jan 2018'
p449
tp450
a(S'Did I just hear that correctly? That lawmaker just said: "Manafort had nothing to do with TRUMP\'S COLLUSION WITH RUSSIA"! He just admitted that Trump did collude! LMAO! https://twitter.com/CraigCo62/status/949410460234903552\xc2\xa0\xe2\x80\xa6'
p451
S'2:48 PM - 5 Jan 2018'
p452
tp453
a(S"Nothing HRC may or may not have done will cause Trump to magically transform into a fit president or cancel out his family's collusion with Russia, nepotism, failure to staff federal agencies, or wildly unprofessional conduct on social metworking."
p454
S'2:47 PM - 5 Jan 2018'
p455
tp456
a(S'Nobody has proven that the collusion in Russia is a hoax. But if it was you wouldn\xe2\x80\x99t be so damned worried about it everyday all day long. If you were smart you would know how guilty you make yourself look. You\xe2\x80\x99re not smart. And, you are not innocent. You\xe2\x80\x99re guilty of treason.'
p457
S'2:46 PM - 5 Jan 2018'
p458
tp459
a(S'It is starting to look as if some of the Republican caucus has a hand with trump in Russia\xe2\x80\x99s interference of our elections. They all know they would be better off without trump in White House. So if they aren\xe2\x80\x99t in collusion with Russia, why stop the Mueller investigation.'
p460
S'2:46 PM - 5 Jan 2018'
p461
tp462
a(S"Collusion with Russia is very, very far from a hoax; indeed, it looks more proven every single day. You're going to jail, Donnie."
p463
S'2:46 PM - 5 Jan 2018'
p464
tp465
a(S"Robert Mueller's Russia collusion witch hunt was polluted the second he allowed Hillary Clinton voters to work on it. #MuellerTimepic.twitter.com/1uCiIKNYKQ"
p466
S'2:44 PM - 5 Jan 2018'
p467
tp468
a(S'Hey Willie...any new on the Russia,Trump collusion?'
p469
S'2:43 PM - 5 Jan 2018'
p470
tp471
a(S"James Bond?? He was a privately paid for investigator for smear merchant Fusion GPS.  If he discovered proof of Trump/Russia collusion, he should be more than willing to testify about it.  Instead, he's hiding."
p472
S'2:43 PM - 5 Jan 2018'
p473
tp474
a(S'Jody...NOTHING after 18 months & over 7 million of r $ has proven not 1 unethical, obstructions, russian collusion on Trump NADA ZILCH ZERO U may hate him but get yourself grounded on the facts. #hillaryclinton selling r #UraniumOneDeal 2 russia #obama palette of cash to Iran?https://twitter.com/gdlittledorf/status/949399922167681024\xc2\xa0\xe2\x80\xa6'
p475
S'2:42 PM - 5 Jan 2018'
p476
tp477
a(S"None of them were charged with Russian collusion or with treason. What do you think, we don't know they had to charge someone to keep the inquiry going? Where is Trump charges? Each and every ones charges had nothing to do with Russia and thats a fact!"
p478
S'2:42 PM - 5 Jan 2018'
p479
tp480
a(S"The Russia case hasn't been weakened. It's gotten stronger.  For collusion U don't have to succeed, just attempt it to be charged. & U only won the election because of an outdated technicality in our system that U yourself once criticized, NOT by the popular vote of the people."
p481
S'2:41 PM - 5 Jan 2018'
p482
tp483
a(S'Grassley & Graham are showing their true colors in their never-ending coddling of Trump & the protection they believe this non-president needs. Their job was to see if there was collusion between Trump & his campaign & Russia. How they jumped to Steel is a mystery. #Pitifulhttps://twitter.com/nytimes/status/949347719063244801\xc2\xa0\xe2\x80\xa6'
p484
S'2:41 PM - 5 Jan 2018'
p485
tp486
a(S'I see what you did there..the old Dem switcheroo..except the only russia collusion is with the C.F... pic.twitter.com/w7ytN5ZZEH'
p487
S'2:41 PM - 5 Jan 2018'
p488
tp489
a(S'Really?? ... \xe2\x80\x9cThey were not ready to win\xe2\x80\x9d \nSo why is #Trump accused of collusion with #Russia?\n\n#FakeBookhttps://twitter.com/parscale/status/949340903017082880\xc2\xa0\xe2\x80\xa6'
p490
S'2:40 PM - 5 Jan 2018'
p491
tp492
a(S"It's sure beginning to look like the Democrats may soon see the day they regret ever starting their fake Russia/Trump campaign collusion BS. It's all coming right back around to them, Obama's DOJ, Comey, the DNC and their dear little Hillary"
p493
S'2:39 PM - 5 Jan 2018'
p494
tp495
a(S'Trump says the only collusion that happened was between Hillary Clinton, the FBI and Russia http://www.washingtonexaminer.com/article/2645080\xc2\xa0 via @dcexaminer'
p496
S'2:38 PM - 5 Jan 2018'
p497
tp498
a(S'The guy who wrote the phony Trump-Russia dossier, on which the whole Russia collusion  conspiracy theory is... https://fb.me/1RBaFhrQG\xc2\xa0'
p499
S'2:38 PM - 5 Jan 2018'
p500
tp501
a(S"By 2019 hopefully, the Sen Judiciary Com's top priority, controlled by Democrats,  would be determining whether there was collusion between the Trump campaign and Russia to influence the election and whether there was subsequent obstruction of justice https://nyti.ms/2F3GEUC\xc2\xa0"
p502
S'2:37 PM - 5 Jan 2018'
p503
tp504
a(S'Can you name the source reporting that your collusion with Russia is a hoax?'
p505
S'2:37 PM - 5 Jan 2018'
p506
tp507
a(S'Speaking of fake news :\nRussia Hoax is Fake News. Russia Collusion is Real News.'
p508
S'2:37 PM - 5 Jan 2018'
p509
tp510
a(S'What about Russia collusion?'
p511
S'2:36 PM - 5 Jan 2018'
p512
tp513
a(S'Trump has accused Clinton in \\collusion\\ with the FBI and Russia https://ria.ru/world/20180106/1512183520.html\xc2\xa0\xe2\x80\xa6 pic.twitter.com/csBjzRc74Z #news #Russia'
p514
S'2:36 PM - 5 Jan 2018'
p515
tp516
a(S"@GOP So the GOP is now trying to do a cover-up of the Trump/Russia collusion in order to protect their agenda.  Correct me if I'm wrong but if they are trying to cover this up, shouldn't they be investigated too?"
p517
S'2:36 PM - 5 Jan 2018'
p518
tp519
a(S'The fact that there is real evidence of collusion between Hillary\xe3\x80\x8bDNC\xe3\x80\x8bFusion GPS\xe3\x80\x8bSteele\xe3\x80\x8bRussia as well as FBI.'
p520
S'2:36 PM - 5 Jan 2018'
p521
tp522
a(S"Wouldn't it be an absolute riot if our president had worked with Wolfe to put this out just to bait leftists and mainstream media into thinking they had another Smoking Gun when in reality they just have another failed Russia collusion story? https://twitter.com/Golfinggary522/status/949279287613579265\xc2\xa0\xe2\x80\xa6"
p523
S'2:36 PM - 5 Jan 2018'
p524
tp525
a(S'DEMS SHOULD HAVE TO MAKE REPARATIONS FOR THE $$$$$$$ SINCE THERE IS NO COLLUSION BETWEEN TRUMP CAMPAIGN AND RUSSIA!!!! https://twitter.com/Trumpfan1995/status/949407567528235009\xc2\xa0\xe2\x80\xa6'
p526
S'2:35 PM - 5 Jan 2018'
p527
tp528
a(S'Trump Russia collusion is known fact. Multiple Trump campaign people were negotiating sanctions relief with Russian agents as far back as April 2016, and knew Russians were hacking all the while. Don Jr begging for stolen emails IS collusion. Papadopoulos - collusion.'
p529
S'2:35 PM - 5 Jan 2018'
p530
tp531
a(S'There was no fucking russia collusion.did u know hillary interfered in haiti elections to get millionaire donor friend in ad President so she could get hands on  resources contract in haiti .?'
p532
S'2:34 PM - 5 Jan 2018'
p533
tp534
a(S'4.  Investigating Clinton foundation again\n5. Attacking a British subject that reported criminal acts to FBI\n6.  Don\xe2\x80\x99t get that it was corroboration from Australia about the Russia collusion with Trump/pappodoupolis  coffee boy.'
p535
S'2:34 PM - 5 Jan 2018'
p536
tp537
a(S"calling Russia hostile to the US for one is 100% false.  He's wrong about the investigation as well, since every charge thus far has nothing to do with collusion, but process and tax charges and has been confirmed not to be an investigation into Trump"
p538
S'2:33 PM - 5 Jan 2018'
p539
tp540
a(S'I think she misnomered.  She meant coRUSSia; \ndef.  collusion w/ Russia\n/ko-ROO-zha/'
p541
S'2:32 PM - 5 Jan 2018'
p542
tp543
a(S'Senator Jordan needs to be added to those being investigated for Russia collusion! \n@CIA @FBI @FBIWFO @cnnbrk @MSNBC @21CF @foxandfriends FOX IS A TALK SHOW & MUST BE BANNED IN USA LIKE THE U.K. DID!pic.twitter.com/pNqlD3KK2N'
p544
S'2:31 PM - 5 Jan 2018'
p545
tp546
a(S'Seems kinda of early in the investigation. If you say there was no collusion with Russia then you must give the same benefit to the clintons until the investigation is complete.'
p547
S'2:31 PM - 5 Jan 2018'
p548
tp549
a(S'You mean the person paid by the DNC under guidance of HRC.  Oh yea, info from Russia.  Collusion maybe...'
p550
S'2:30 PM - 5 Jan 2018'
p551
tp552
a(S"YOUR collusion with Russia is real. Can't wait to see you booted from office. pic.twitter.com/iKyLgSN34H"
p553
S'2:30 PM - 5 Jan 2018'
p554
tp555
a(S"Wolff is merely throwing out red meat for the media since the Dossier and Russia collusion didn't work."
p556
S'2:29 PM - 5 Jan 2018'
p557
tp558
a(S'Which has nothing to do with trump russia collusion and was fired after very short time with trump'
p559
S'2:29 PM - 5 Jan 2018'
p560
tp561
a(S'Grassley has been trying to mislead the Russian Investigations from day one, so is he involved in collusion with the Trump posse and Russia, or is he just another crooked GOP?And what about Sen. Graham? #Resistance #Resist #NotMyPresident #FBR #Indivisiblehttps://www.washingtonpost.com/politics/senior-republican-refers-trump-dossier-author-for-possible-charges/2018/01/05/ead4585e-f0af-11e7-b390-a36dc3fa2842_story.html\xc2\xa0\xe2\x80\xa6'
p562
S'2:29 PM - 5 Jan 2018'
p563
tp564
a(S'I think you have that backwards. Your collusion with Russia is gaining truthful momentum and your sad attempt to find guilt with Hillary is a sad attempt to divert from your crimes.'
p565
S'2:28 PM - 5 Jan 2018'
p566
tp567
a(S'Hey, @STYXtheBand Could you guys please write a song about @realDonaldTrump and Russia? Call it something like "The Grand Collusion." Many thanks.'
p568
S'2:28 PM - 5 Jan 2018'
p569
tp570
a(S'I will gladly apologize; when/if he does the job he is supposed to do as the United States Attorney General. As far as I understand and have read he did not have a valid reason to recuse himself from non-existent Russia collusion! https://twitter.com/C_3MAGA/status/949402269476409344\xc2\xa0\xe2\x80\xa6'
p571
S'2:27 PM - 5 Jan 2018'
p572
tp573
a(S'#Trump accused #Clinton of collusion with the #FBI and #Russia https://voiceofpeopletoday.com/trump-accused-clinton-collusion-fbi-russia/\xc2\xa0\xe2\x80\xa6pic.twitter.com/lUEBI7eNja'
p574
S'2:27 PM - 5 Jan 2018'
p575
tp576
a(S"Notice how crooked @RepAdamSchiff stopped yapping about the Trump/Russia collusion hoax, after getting busted leaking Don Jr's email, and nearly crashing the stock market? This bug-eyed Bozo should be resigning shortly after the leak investigation is concluded. #SchiffForPrisonpic.twitter.com/Q5GuT2MZlg"
p577
S'2:26 PM - 5 Jan 2018'
p578
tp579
a(S'I love how casually he opines "Well, now that collusion with Russia is proving to be a total hoax and the only collusion is with Hillary Clinton and the FBI/Russia" -- Trump routinely speaks as though he isn\'t President. \nIt\'s fucking bizarre. https://twitter.com/realDonaldTrump/status/949287555660500992\xc2\xa0\xe2\x80\xa6'
p580
S'2:25 PM - 5 Jan 2018'
p581
tp582
a(S'@EduSamani  \xe2\x80\x9cChecks\xe2\x80\x9d on Trump\xe2\x80\x99s Power you say?   You mean other than the deep States coup d\xe2\x80\x99etat, treasonous resistance, daily impotent threats of impeachment, bogus Russia collusion\xe2\x80\xa6and entire democrat party pushback on anything he does hoping to snare him in obscure pitfalls?!'
p583
S'2:25 PM - 5 Jan 2018'
p584
tp585
a(S"Trump slams 'phony' book as distraction from Russia collusion 'hoax' via the @FoxNews Apphttp://www.foxnews.com/politics/2018/01/05/trump-slams-phony-book-as-distraction-from-russia-collusion-hoax.html\xc2\xa0\xe2\x80\xa6"
p586
S'2:25 PM - 5 Jan 2018'
p587
tp588
a(S'Liberal lies.1=Russian hacking.Lie 2=Russia/Trump collusion.Lie 3=dossier.Crime 1=dems.Weaponized dossier. Crime 2= put America in crisis!'
p589
S'2:25 PM - 5 Jan 2018'
p590
tp591
a(S'@brianstelter YOUR A POS LIAR ! CNN DOES AND ALWAYS INTERRUPTS REPUBLICANS. SPECIAL COUNSEL WAS ONLY FOR RUSSIA COLLUSION CAMPAIGN,WHY IS IT INDICTMENTS FOR MONEY IN 2006? CORRUPTION.HE WAS NOT BEING RUDE JUST TRYING TO MAKE HIS POINT. https://twitter.com/brianstelter/status/949333068023812096\xc2\xa0\xe2\x80\xa6'
p592
S'2:25 PM - 5 Jan 2018'
p593
tp594
a(S'None of them plead guilty to anything involving collusion with Russia.\nBut what does that have to do with the fact that Trump achieved a lot in his 1st year?'
p595
S'2:24 PM - 5 Jan 2018'
p596
tp597
a(S'"In April, CNN and NYT both reported, citing FBI & DOJ sources, that the dossier was used as a "catalyst" to "bolster" the Trump-Russia collusion investigation. Now that Nunes exposed Hillary\'s direct role in dossier, they\'re telling us to forget all that earlier reporting!"'
p598
S'2:23 PM - 5 Jan 2018'
p599
tp600
a(S"Trump dismisses 'fake' media, 'phony' book and Russia collusion 'hoax' in one rant - New York Post\n\nNew York Post\n\nTrump dismisses 'fake' media, 'phony' book and Russia collusion 'hoax' in one rant\nNew York Post\nPresident Trump on Friday accused the \xe2\x80\x9cFak\xe2\x80\xa6 http://bit.ly/2m78ebJ\xc2\xa0"
p601
S'2:21 PM - 5 Jan 2018'
p602
tp603
a(S'Am i reading this right? Has the @POTUS tweeted an accusation that Hillary Clinton and the FBI jointly conspired with Russia whilst saying his collusion with Russia has been proven to be false? https://twitter.com/realDonaldTrump/status/949287555660500992\xc2\xa0\xe2\x80\xa6'
p604
S'2:20 PM - 5 Jan 2018'
p605
tp606
a(S'Really? Pointless? I\'ve provided documentation from legit news sources to support my position and all you\'ve done is repeat "no collusion", just like draft-dodger donnie does. If you\'re not able to prove that the trump/Russia collusion has been debunked, just say it...'
p607
S'2:20 PM - 5 Jan 2018'
p608
tp609
a(S'Michael E. Horowitz is the inspector general for the AG of the USA. Since Jan. 2017 he has been quietly gathering information on the so-called Russia collusion, the Hillary Clinton emails, the Uranuim One scandal. He has access to over 1000 attorneys. He is a thorough man.'
p610
S'2:19 PM - 5 Jan 2018'
p611
tp612
a(S'Nunes was forced out of and recused  himself from any of these investigations so why is he involved in anything about the Russia/Trump collusion?'
p613
S'2:19 PM - 5 Jan 2018'
p614
tp615
a(S'The Only collusion with the United States and Russia was with oboma, Clinton\xe2\x80\x99s and the DNC! The democrats need to learn to stop forcing their opinions on everyone! They are not the smartest group of people in the world!!'
p616
S'2:19 PM - 5 Jan 2018'
p617
tp618
a(S"Owwww...well we're still waiting for Trump Russia collusion. Sure I colluded with Putin to elect Trump and I'll do it again in 2020. Do you Morons ever thing about what you say or write?"
p619
S'2:18 PM - 5 Jan 2018'
p620
tp621
a(S'From Russia with Collusion @HuffPostComedy #TrumpMovieSequels'
p622
S'2:18 PM - 5 Jan 2018'
p623
tp624
a(S"Just like they've found ZERO evidence of Trump/Russia collusion after a year "
p625
S'2:18 PM - 5 Jan 2018'
p626
tp627
a(S'Did Mr. Trump obstructed justice while in office? And was there collusion between the Trump campaign and Russia ? This pondering  wonders...'
p628
S'2:15 PM - 5 Jan 2018'
p629
tp630
a(S"Jim Jordan thinks Hillary Clinton paid the RUSSIANS in election collusion. YOU HAVE TO BE THE BIGGEST IDIOT IN THE WORLD TO THINK HILLARY COLLUDED WITH OUR FBI AND RUSSIA TO INFLUENCE THE ELECTION. JORDAN IS FKN IDIOT AND IF YOU BELIEVE HIM, YOU'RE AN IDIOT TOO."
p631
S'2:15 PM - 5 Jan 2018'
p632
tp633
a(S'What hell is he even talking about? When did collusion with Russia become a hoax? YOUR SON COLLUDED! YOUR CAMPAIGN MANAGER HAS BEEN INDICTED! YOU ARE AN IDIOT! https://twitter.com/realdonaldtrump/status/949287555660500992\xc2\xa0\xe2\x80\xa6'
p634
S'2:15 PM - 5 Jan 2018'
p635
tp636
a(S'As far as I can your collusion with Russia is not a hoax. Mueller will find me the truth and you will be convicted of treason.  Give it up in Hillary, no one believes you.'
p637
S'2:14 PM - 5 Jan 2018'
p638
tp639
a(S"Whoo Hoo!  Don't you know @nytimes hated having to print this!  Front page news tomorrow?  RUSSIA/TRUMP COLLUSION WAS A HOAX perpetrated by those at the highest levels of the government!  Special Edition!  Read All About It!  No paywall!  #MAGA2018"
p640
S'2:13 PM - 5 Jan 2018'
p641
tp642
a(S'@SethAbramson does the book mention any first-hand accounts of collusion with Russia ?'
p643
S'2:11 PM - 5 Jan 2018'
p644
tp645
a(S'@greggutfeld how could someone so dumb hide his collusion with Russia. Love your shows.'
p646
S'2:11 PM - 5 Jan 2018'
p647
tp648
a(S'ALSO, laundering, bad debt with @jaredkushner & @DeutscheBank, #TrumpRussia deal total hoax, & the only collusion is with @DonaldJTrumpJr and #NataliaValdebenito/Russian Foreign Intelligence on laundering, bad debt and Russia deal. They should try rigging an election. Sad!'
p649
S'2:11 PM - 5 Jan 2018'
p650
tp651
a(S'Hillary guilty! Enough said. Flynn wasn\xe2\x80\x99t guilty of anything to do with collusion with Russia. You are a first class moron like all Democrats!'
p652
S'2:10 PM - 5 Jan 2018'
p653
tp654
a(S'Says the person who cant even figure out there was no collusion. Just because you desperately wish for Trump to collude with Russia won\xe2\x80\x99t make true you poor little child. Keep crying '
p655
S'2:09 PM - 5 Jan 2018'
p656
tp657
a(S"This has nothing to do w Russia collusion, it's a leftist talking point. You jump into the conversation because you defended Obama and accused Trump of working w Russia for nefarious purposes. I get it, you hate tax cuts for millions & billionaires. pic.twitter.com/sOP7XNdKgj \xe2\x80\x93 at Tank America"
p658
S'2:09 PM - 5 Jan 2018'
p659
tp660
a(S'I\xe2\x80\x99m old enough to remember when the Obama admin let #Iran ally #Russia act with total impunity in its near and far abroad during #IranDeal negotiations. #collusion https://twitter.com/AFP/status/949296340974129152\xc2\xa0\xe2\x80\xa6'
p661
S'2:09 PM - 5 Jan 2018'
p662
tp663
a(S'The russia collusion hoax was the insurance policy of special fbi peter Stzock with a super human nose can smell Trump voters in a walmart but it failed to smell the strnch of corruption ehile investgating hillary'
p664
S'2:09 PM - 5 Jan 2018'
p665
tp666
a(S"In early 2017 @LindseyGrahamSC was very concerned abt Russia's election interference&Trump's collusion. Now he golfs w Trump,talks up his resorts &, w@ChuckGrassley, is acting to*protect* him by referring respected British spy Steele to FBI for criminal charges! Why Graham's 180?"
p667
S'2:09 PM - 5 Jan 2018'
p668
tp669
a(S'Sen. Dianne Feinstein "This referral clearly another effort to deflect attention from collusion between the Trump campaign and Russia"\n\nI SAY...Russia/Trump is a BIG diversion from the 8 yrs of Corruption between Dems, Hillary, Holder, Lynch, FBI & Obama\n\nhttp://thehill.com/blogs/floor-action/senate/367631-gop-senators-request-criminal-investigation-of-trump-dossier-author#.Wk_1pJZ1H78.twitter\xc2\xa0\xe2\x80\xa6'
p670
S'2:08 PM - 5 Jan 2018'
p671
tp672
a(S'\xe2\x80\x9cTrump didn\xe2\x80\x99t want to win\xe2\x80\x9d \xe2\x80\x9cTrump colluded with Russia to win\xe2\x80\x9d\n\n\xe2\x80\x9cTrump is mentally unfit\xe2\x80\x9d \xe2\x80\x9cTrump is cagey enough to hide collusion so that, after a year, they still haven\xe2\x80\x99t found anything\xe2\x80\x9d\n\n#cognitivedissonance #MAGA #liberallunacy #CalmBeforeTheStorm'
p673
S'2:07 PM - 5 Jan 2018'
p674
tp675
a(S"Please hold your breath while waiting. You're ridiculous.\n\nTime magazine. That's proof? Huh.\n\nRussia meddling in elections does not prove collusion. Every point you've made so far is pointless."
p676
S'2:07 PM - 5 Jan 2018'
p677
tp678
a(S'Money from Russia? When it\xe2\x80\x99s talk about collusion, we have to talk about the big elephant in the room: Israel...\nAdelson, AIPAC, Haim Saban et al.\nObama signed off $50bln to Israel over 10 years. A state that has broken over 70 UN resolutions and pisses on you. Iraq broke 2 res..'
p679
S'2:07 PM - 5 Jan 2018'
p680
tp681
a(S"Understand your point...also much like Trump and Fox News and others using lies and misinformation to make their's.  Lies and more lies perpetrated by the Trump campaign, in collusion with at lease some members of the GOP and of course Russia, is what go us to where we are today."
p682
S'2:07 PM - 5 Jan 2018'
p683
tp684
a(S"I think Jeff is involved with the Russian Collusion to sell our Uranium to Russia.\nThe Uranium did not belong to Hillary or Obama. It belonged to America. \nSessions isn't who you think.He's dragging his feet for a reason+ he does not have your back. Get Uranium Witness Testimony"
p685
S'2:06 PM - 5 Jan 2018'
p686
tp687
a(S'Fucking fishy if you ask me: part and parcel of the whole Repub effort to muddy the waters on the Russia collusion story.  https://www.nytimes.com/2018/01/05/us/politics/christopher-steele-dossier-judiciary-committee.html\xc2\xa0\xe2\x80\xa6'
p688
S'2:06 PM - 5 Jan 2018'
p689
tp690
a(S'When was  the collusion with Russia proven a hoax? I keep hearing more and more damning evidence that your an idiot and a traitor.\nDo you remember the penalty for treason and espionage? \n1st President ever found guilty of it.  What a shame.'
p691
S'2:06 PM - 5 Jan 2018'
p692
tp693
a(S'Yes, I\xe2\x80\x99ve catalogued many examples of Trump\xe2\x80\x99s collusion with Russia here https://medium.com/@mark.trueblood/eight-facts-proving-trump-russia-collusion-ddbc356e5811\xc2\xa0\xe2\x80\xa6'
p694
S'2:05 PM - 5 Jan 2018'
p695
tp696
a(S'Hey 45 you asked Russia to release her e-mails.  I call that collusion.,'
p697
S'2:05 PM - 5 Jan 2018'
p698
tp699
a(S'Sadly, #Democrats are only interested in Russian Collusion if it includes Trump.  They turn a blind eye if it\xe2\x80\x99s a Lefty operative hired by the Clintons that actually collided with Russia, and used that to start an investigation. #Partisanbias'
p700
S'2:04 PM - 5 Jan 2018'
p701
tp702
a(S'Maybe Reps Chris Stewart, Jim Jordan, Mark Meadows and the other Treasonous Obstructionists should step aside and RESIGN.  They only want to undermine the Russia investigation. They are protecting their collusion and treason along with Trumps.  #LockThemUp #TrumpRussia #FireGOPhttps://twitter.com/cnnbrk/status/949387171215151104\xc2\xa0\xe2\x80\xa6'
p703
S'2:04 PM - 5 Jan 2018'
p704
tp705
a(S'Pick one:\n\nNYT, Dec 30: "What prompted the investigation? It was not a dossier compiled by a former British spy."\n\nNYT, Jan 5: "The decision [to refer dossier author Chris Steele for charges] infuriated Democrats. \'It\'s clearly an effort to deflect from Trump - Russia collusion."'
p706
S'2:04 PM - 5 Jan 2018'
p707
tp708
a(S"If I remember correctly you asked Russia on Camera to release HRC E'mails.  I call that collusion,. https://twitter.com/realDonaldTrump/status/949287555660500992\xc2\xa0\xe2\x80\xa6"
p709
S'2:03 PM - 5 Jan 2018'
p710
tp711
a(S'@funder @PressSec   Did you read the book?  Who told you Trump-Russia was a hoax?  Who told you there was Clinton-Russia collusion?  What crime are you accusing the FBI of committing?  Please back up your statements with factual proof. I believe you to be slandering the innocent'
p712
S'2:03 PM - 5 Jan 2018'
p713
tp714
a(S"#SanePatrioticAmericansGOPutin-Bannon (Mercer/Koch etc) dotard Inc team presidency factions (DT, Bannon, Congress) scrambling cover 4this stolen power monopoly by contradicting the mounting evidence of GOP's Russia Treason. MercerBannon&FuryNo collusion b/c didn't want 2win https://twitter.com/laurenduca/status/949249832647970818\xc2\xa0\xe2\x80\xa6"
p715
S'2:02 PM - 5 Jan 2018'
p716
tp717
a(S'"collusion with Russia is proving to be a total hoax [citation needed]..." https://twitter.com/realDonaldTrump/status/949287555660500992\xc2\xa0\xe2\x80\xa6'
p718
S'2:02 PM - 5 Jan 2018'
p719
tp720
a(S'Libs actually believed the fake Gorilla Channel story. They also believed the fake Russia/ Trump Collusion Conspiracy. Anti-Trumpers just aren\xe2\x80\x99t very smart. #MAGA #FireandFury #FireAndFuryBook @realDonaldTrump'
p721
S'2:02 PM - 5 Jan 2018'
p722
tp723
a(S'After months of speaking to witnesses for their Russia investigation the 1st and only recommendation for investigation is Richard Steele. \nNot one recommendation that testified regarding Russia collusion. They should all be censured and forced to reimburse us for their salaries.'
p724
S'2:01 PM - 5 Jan 2018'
p725
tp726
a(S'Does he think if he keeps saying \xe2\x80\x9ccollusion with Russia is proving to be a hoax\xe2\x80\x9d enough times it will magically appear that way in the Mueller report ?\nI know he doesn\xe2\x80\x99t drink but are we sure he doesn\xe2\x80\x99t have a meth lab in the White House ?'
p727
S'2:00 PM - 5 Jan 2018'
p728
tp729
a(S'Yeah, but... we should totes believe them about Russia collusion '
p730
S'1:59 PM - 5 Jan 2018'
p731
tp732
a(S'Steele found collusion between Trump-up\xe2\x80\x99s pres campaign and Russia, & that the Russians have information that could be used to blackmail him. GOP instead, accusing Steele of potentially lying to federal authorities over his contacts with reporters. Wow, full-on banana republic! pic.twitter.com/GZM5xFFpqD'
p733
S'1:59 PM - 5 Jan 2018'
p734
tp735
a(S'Parody account puts out obvious joke tweet about Trump spending 17 hours a day watching a \xe2\x80\x9cGorilla Channel\xe2\x80\x9d\n\nLeftists\xe2\x80\x94blinded by their hatred\xe2\x80\x94rush to believe it and get it trending on Twitter embarrassing themselves \n\nAnd we\xe2\x80\x99re supposed to believe them about Russia collusion?  https://twitter.com/pixelatedboat/status/949100087350710272\xc2\xa0\xe2\x80\xa6'
p736
S'1:58 PM - 5 Jan 2018'
p737
tp738
a(S'If he has to sit there and listen to the conspiracy theory of the Russia collusion crap ~ then he is right on point with this bullshit. It was the insurance policy.'
p739
S'1:58 PM - 5 Jan 2018'
p740
tp741
a(S'Collusion with Russia is not proving to be a hoax. That is completely false. There was no collusion between Hillary Clinton and Russia. That is also completely false.\n\nThe president of the United States is a complete fucking idiot who lives in a fantasy world. Shame on his voters https://twitter.com/realDonaldTrump/status/949287555660500992\xc2\xa0\xe2\x80\xa6'
p742
S'1:58 PM - 5 Jan 2018'
p743
tp744
a(S'Rabbit hole is the whole Russia collusion thing. Btw, either Trump is a mentally ill bafoon or he\xe2\x80\x99s the mastermind of collusion with Russia to get elected. Media needs to at least stick with one but not both.'
p745
S'1:58 PM - 5 Jan 2018'
p746
tp747
a(S'Top story: Donald J. Trump on Twitter: "Well, now that collusion with Russia is\xe2\x80\xa6 https://twitter.com/i/web/status/949287555660500992\xc2\xa0\xe2\x80\xa6, see more http://tweetedtimes.com/karldickey?s=tnp\xc2\xa0\xe2\x80\xa6'
p748
S'1:57 PM - 5 Jan 2018'
p749
tp750
a(S'@LindseyGrahamSC Have you lost what is left of your mind? Why are you going after Christopher Steele and that dossier? George Popodopolous, a Trump Republican, spilled the beans on the Trump Teams collusion with Russia and the cover-up. You have become a joke'
p751
S'1:57 PM - 5 Jan 2018'
p752
tp753
a(S"seems the 'Russia,Russia,Russia' claim continues to unravel at each turn- nothing found except actual collusion between Clinton campaign & DNC 'paying' a foreign entity for 'opposition' research. time marches on!"
p754
S'1:56 PM - 5 Jan 2018'
p755
tp756
a(S'Swamp\'s "Russia" Investigation has revealed no news or any evidence of collusion after 11 well-paid months of Anti-Trump work. Democrat Congressman affirms this. http://greatamericandaily.com/democrat-dropped-news-robert-mueller-fears/\xc2\xa0\xe2\x80\xa6 #tcot #ccot #MAGA'
p757
S'1:56 PM - 5 Jan 2018'
p758
tp759
a(S'The only one with the attention span of a child is you and all your screeching about Russia collusion/trump'
p760
S'1:56 PM - 5 Jan 2018'
p761
tp762
a(S'Oh, no, sweetheart, the collusion with Russia is just heating up. Those bitches are gonna turn on you so fast... just look how everyone talks behind your back! #TheEmperorHasNoClothes #StickAForkInIt #YouAreDonehttps://twitter.com/realDonaldTrump/status/949287555660500992\xc2\xa0\xe2\x80\xa6'
p763
S'1:55 PM - 5 Jan 2018'
p764
tp765
a(S'What is proving to be true??  HRC breaking laws which is fact. Clinton Foundation funneling kick backs?  Or the zero evidence on Trump collusion? If Trump colluded with Russia is bevthe first to denounce him could you say the same regarding HRC?'
p766
S'1:54 PM - 5 Jan 2018'
p767
tp768
a(S"TBF, there are some honest ppl convinced by press hysteria that DT is a Russian colluder. I would put true believers at about 25% of the Russia collusion obsessives. That's why I asked him."
p769
S'1:54 PM - 5 Jan 2018'
p770
tp771
a(S'Donald trump has accused Clinton in collusion with Russia and the FBI: https://life.ru/1076422\xc2\xa0 #news #Russia'
p772
S'1:54 PM - 5 Jan 2018'
p773
tp774
a(S'#USA collusion with #Russia #ApartheidIsrahell #KSA #UAEhttps://twitter.com/intifada/status/949346533253832705\xc2\xa0\xe2\x80\xa6'
p775
S'1:53 PM - 5 Jan 2018'
p776
tp777
a(S'Oh BTW who said or decided that collusion with Russia proved to be a total hoax - the only person I know is you and your base. https://twitter.com/realDonaldTrump/status/949287555660500992\xc2\xa0\xe2\x80\xa6'
p778
S'1:53 PM - 5 Jan 2018'
p779
tp780
a(S'So now that its clear that your fake Russia collusion narrative will likely send some democrats to jail, this is all you have.  How lame!'
p781
S'1:52 PM - 5 Jan 2018'
p782
tp783
a(S'None actually related to campaign Russia collusion. Would love to be a fly on the wall to see you when this proves out in Trumps favor. '
p784
S'1:52 PM - 5 Jan 2018'
p785
tp786
a(S"You my friend have amnesia. None of them were arrested for collusion with Russia . Check your facts before you write this nonsens. If I'm wrong show me where it says they were charged with collusion with Russia and not some fake information propagated by Click bate media."
p787
S'1:50 PM - 5 Jan 2018'
p788
tp789
a(S"When you're caught lying and engaged in a coup attempt against a sitting US President... you are gonna have criminal charges leveled against you. \nI guess Steele should of thought of that BEFORE he engaged in collusion activities between Russia and DNC/Clintons."
p790
S'1:50 PM - 5 Jan 2018'
p791
tp792
a(S'Has collusion with Russia been proven to be a total hoax? Wow! I thought Mueller was still deeply entrenched in his investigation with results pending. Who knew?'
p793
S'1:50 PM - 5 Jan 2018'
p794
tp795
a(S'Rhetorical question, obviously. Their supporters don\xe2\x80\x99t care. Fortunately they\xe2\x80\x99re distancing themselves from Hillary as fast as MSM is doing the same with the \xe2\x80\x9cTrump Russia collusion\xe2\x80\x9d BS.'
p796
S'1:50 PM - 5 Jan 2018'
p797
tp798
a(S"Most are conveniently ignoring it and some are saying it's Pres trying to deflect attention from the Russia collusion story SO, NO you haven't missed anything."
p799
S'1:50 PM - 5 Jan 2018'
p800
tp801
a(S"Trump most likely     DID NOT COLUDE with RUSSIA   (wouldn't know how) \nTrump is most likely  COMPROMISED   by  RUSSIA   (his business dealings).\nIt's THE WHY Trump OBSTRUCTED JUSTICE:\nFired Comey-Russia, \nSession's recusal-Russia,\nMueller to End-Russia\nTax Evasion, not Collusion"
p802
S'1:49 PM - 5 Jan 2018'
p803
tp804
a(S'Essential Trump books for #TheResistance:\n\nCollusion: Secret Meetings, Dirty Money, and How Russia Helped Donald Trump Win by Luke Harding\n\nTrump Corrected: A Counter-Quotation Book by Bill Adler Jr.\n\nThe Dangerous Case of Donald Trump by Bandy X. Lee and Robert Jay Lifton'
p805
S'1:49 PM - 5 Jan 2018'
p806
tp807
a(S"Rep. Dana Rohrabacher Rips CNN Host: 'I Get No Respect!' https://crooksandliars.com/2018/01/rep-dana-rohrabacher-melts-down-cnn-you\xc2\xa0\xe2\x80\xa6    DID HE SAY MANAFORTS CRIMES HAD NOTHING TO DO WITH TRUMPS COLLUSION WITH RUSSIA? Sounds like the crimes are okay as long as you\xe2\x80\x99re not caught doing them right then and there?"
p808
S'1:48 PM - 5 Jan 2018'
p809
tp810
a(S"The very first criminal referral from Congress related to Trump/Russia collusion is for the investigator who wrote the #kompromat dossier and notified authorities.  @ChuckGrassley and @LindseyGrahamSC are officially now co-conspirators in Trump's treason.https://twitter.com/Amy_Siskind/status/949356289641074689\xc2\xa0\xe2\x80\xa6"
p811
S'1:47 PM - 5 Jan 2018'
p812
tp813
a(S'Brah that book is sold out everywhere. And the collusion with Russia is real. You sound insane. Pull yourself together please.'
p814
S'1:47 PM - 5 Jan 2018'
p815
tp816
a(S"Russia collusion is proving to be a hoax?  What would you call the 4 arrests so far? Just jokes? This is far from over and the outcome will be you and your family's ouster from our White House. And now back to my shiny new book!!"
p817
S'1:46 PM - 5 Jan 2018'
p818
tp819
a(S'Weekend assignment:\n\nCall Sen. Graham (202) 224-5972 &\nSen. Grassley (202) 224-3744 and ask them why the hell they are obstructing the investigation of the Trump Administration\xe2\x80\x99s collusion and cover up of dealings with Russia.'
p820
S'1:46 PM - 5 Jan 2018'
p821
tp822
a(S"The investigation is about whether he lied to the feds. Mueller is handling the Russia collusion investigation so Congress can't divert from it."
p823
S'1:46 PM - 5 Jan 2018'
p824
tp825
a(S"Because the whole Trump/Russia narrative is a joke and a cover up for their own collusion with...Russia.  The dossier was the insurance policy they discussed in Andy(McCabe's)office.  It's obvious if you aren't a Trump hater.  Buckle up snowflakes"
p826
S'1:46 PM - 5 Jan 2018'
p827
tp828
a(S'You should try winning an election. Collusion with Russia to get you elected is real, no matter how many times you deny it cos, you know, you lie all the time.'
p829
S'1:45 PM - 5 Jan 2018'
p830
tp831
a(S"The stupid medias went after President Trump Russia collusion and it's was witch hunts, now they are going to his mental health, what the FUCK THIS MEDIAS DOING? They hated our President so bad the making me sick and angry leave our President alone, let him do his jobs, FUCKERS!"
p832
S'1:45 PM - 5 Jan 2018'
p833
tp834
a(S"How much longer must we keep hearing about Russia, Russia, Russia...\n\nI'm getting sick of it! There was no collusion!!!\n\n@TheDemocrats are still wasting #American tax dollars looking for something non-existent. They should repay!\n\n#idiotshttps://twitter.com/RepAdamSchiff/status/949310524117929984\xc2\xa0\xe2\x80\xa6"
p835
S'1:43 PM - 5 Jan 2018'
p836
tp837
a(S'As Stephen Jay Gould once said: ontology recapitulates phylogeny. If there were ever any doubters.... oh wait, there\'s people that think evolution is a hoax (and that the earth is flat and that there was "no collusion" with Russia). https://twitter.com/alanferrier/status/949314951704915974\xc2\xa0\xe2\x80\xa6'
p838
S'1:43 PM - 5 Jan 2018'
p839
tp840
a(S'In the same time period, they moved from "russia collusion!" to "Trump didn\'t want to win anyway". It\'s all perfectly clear.'
p841
S'1:42 PM - 5 Jan 2018'
p842
tp843
a(S"Hillary Clinton Collude via Fusion GPS, who paid Russian sources to gather dirt on a political opponent during an election  (that's collusion) yet, u have no facts Trump colluded and your on Twitter preaching to us about why we Repubs don't care about Russia interference???????"
p844
S'1:42 PM - 5 Jan 2018'
p845
tp846
a(S'The #fireandfurybook by @MichaelWolffNYC has been heavily vetted, it is 100% accurate. You on the other hand are being investigated for COLLUSION with RUSSIA, to steal the election from @HillaryClinton. Not to mention #ObstructionOfJustice .'
p847
S'1:42 PM - 5 Jan 2018'
p848
tp849
a(S'Retweeted Donald J. Trump (@realDonaldTrump):\n\nWell, now that collusion with Russia is proving to be a total... https://fb.me/8YpRAfylM\xc2\xa0'
p850
S'1:41 PM - 5 Jan 2018'
p851
tp852
a(S"Clam down. There was no russia collusion. Your candidate lost to Trump. That's what happened. Now (to paraphrase President Pen and Phone) go win some elections."
p853
S'1:41 PM - 5 Jan 2018'
p854
tp855
a(S'Trumps real estate dealing with Russia millions of years ago have zero to do with any collusion, give me a break. Also what did Russians...'
p856
S'1:39 PM - 5 Jan 2018'
p857
tp858
a(S'The investigation is **ongoing** and in addition to collusion with Russia details are emerging on how you tried to obstruct justice. These are impeachable offenses!'
p859
S'1:39 PM - 5 Jan 2018'
p860
tp861
a(S' @HillaryClinton received $145 million into her foundation from RUSSIA.... just days later she sells 20% of OUR Uranium to RUSSIA. THAT is what RUSSIAN COLLUSION looks like..'
p862
S'1:38 PM - 5 Jan 2018'
p863
tp864
a(S"#Hi #ImMrMeseeks #LookAtMe Protect him from what? You brain dead liberals aren't living in reality where there's no evidence of Russia collusion; not even motive for it. Do you have no idea how moronic you look?"
p865
S'1:38 PM - 5 Jan 2018'
p866
tp867
a(S'\xe2\x80\x9c\xe2\x80\x98It\xe2\x80\x99s clearly another effort to deflect attention from [\xe2\x80\xa6] determining whether there was collusion between the Trump campaign and Russia [\xe2\x80\xa6] and [\xe2\x80\xa6] subsequent obstruction of justice,\xe2\x80\x99 said Senator Dianne Feinstein [\xe2\x80\xa6], who [\xe2\x80\xa6] had not been consulted about the referral.\xe2\x80\x9d https://twitter.com/nytimes/status/949347719063244801\xc2\xa0\xe2\x80\xa6'
p868
S'1:38 PM - 5 Jan 2018'
p869
tp870
a(S'Writers...MSM outlets, big wheels in politics,  (they think) Russia collusion (a lie)can all say TRUMP is "UNFIT" to be our PRESIDENT...who the hell made them judges over humanity. Look at what the "worthy" did to USA. I am proud of PRES TRUMP. pic.twitter.com/lYNsiOeQxB'
p871
S'1:37 PM - 5 Jan 2018'
p872
tp873
a(S'Did ERIC HOLDER uphold the laws? No he allowed corruption throughout Obama administration to occur. Trump trying to clean mess up. Russia collusion is a joke,  http://www.politicususa.com/2018/01/05/democrat-fire-white-house-lawyer-russia-probe-report.html\xc2\xa0\xe2\x80\xa6'
p874
S'1:36 PM - 5 Jan 2018'
p875
tp876
a(S'Put through a truth-filter: \nWell, now that collusion with Russia is proving to be TRUE and there was NO collusion with Hillary Clinton and the FBI/Russia, the REAL News Media and this new book are hitting out at every new front imaginable. They WILL start winning elections. Sad.'
p877
S'1:35 PM - 5 Jan 2018'
p878
tp879
a(S'This is the real collusion with Russia scandal'
p880
S'1:34 PM - 5 Jan 2018'
p881
tp882
a(S'True, Mueller Watergate will prove Trump had no collusion with Russia rather it was Obama\xe2\x80\x99s justice department in Cahoots with the DNC and Clinton campaign that purchased a false dossier used to get a FISA warrant to spy on Trump Campaign officials & wiretap trump tower'
p883
S'1:34 PM - 5 Jan 2018'
p884
tp885
a(S'This collusion thing with Russia.  Is it a problem or a distraction?  You decide. https://twitter.com/sandboxpete/status/826805985746493441\xc2\xa0\xe2\x80\xa6'
p886
S'1:33 PM - 5 Jan 2018'
p887
tp888
a(S'Trumps collusion with Russia and his family\xe2\x80\x99s crimes are being proven one by one every day now. Even Fox News is now reporting on Trumps demise, Amazing'
p889
S'1:33 PM - 5 Jan 2018'
p890
tp891
a(S"Sean Spicer Lied Today On Good Morning America About Team Trump's Russia Collusion (Here's The Proof) - http://factbox.tv\xc2\xa0 https://buff.ly/2Ea6eFS\xc2\xa0\n@GMA\n@RobinRoberts\n#spicerlied\n#TrumpRussiapic.twitter.com/rnq7C64RcB"
p892
S'1:33 PM - 5 Jan 2018'
p893
tp894
a(S'This is his attempt to move on from the phony Russia collusion story. Another fail.'
p895
S'1:32 PM - 5 Jan 2018'
p896
tp897
a(S'@realDonaldTrump said Dianne Feinstein said "there is no collusion" between the Trump campaign and Russia. -- FALSE'
p898
S'1:32 PM - 5 Jan 2018'
p899
tp900
a(S'so does the liberal media now agree the Russia collusion story is bogus so they are switching to the "Trump never wanted to win" story? I mean you don\'t collude with Russia to win if you actually want to lose'
p901
S'1:32 PM - 5 Jan 2018'
p902
tp903
a(S"GOP Rep. Chris Stewart calling for Sessions to step down @CNNPolitics http://cnn.it/2F21a7V\xc2\xa0 the #Russia investigation is not the only thing DOJ is doing. Sessions has plenty to focus on and get right. Don't worry so much. After all, no collusion right? #impeach"
p904
S'1:32 PM - 5 Jan 2018'
p905
tp906
a(S'Evidence? Contrast with no. of denials re collusion, Comey firing due to Russia probe and cosying up to Putin at G20 summit in Hamburg'
p907
S'1:31 PM - 5 Jan 2018'
p908
tp909
a(S'Zero to be honest. What does Alex Jones have to do with  your weak ass argument and lame attempts at keeping the Russia collusion delusion going?'
p910
S'1:30 PM - 5 Jan 2018'
p911
tp912
a(S"That's weird, I don't recall claiming that anyone was guilty or innocent. You claimed that trump/Russia collusion has been debunked and I simply asked you to prove it. If it's been debunked as you say, shouldn't you be able to easily prove your claim? Almost seems like you can't."
p913
S'1:30 PM - 5 Jan 2018'
p914
tp915
a(S'Ugh the worst kind of news #SJW: Dana Rohrabacher Pretty Much Tells CNN They\xe2\x80\x99re Full of It - Now that it looks like the Trump/Russia collusion investigation is drying up, those absolutely certain Trump has done something \xe2\x80\x94 anything \xe2\x80\x94 wrong (or, if not... http://ow.ly/LICz50g2pu3\xc2\xa0'
p916
S'1:30 PM - 5 Jan 2018'
p917
tp918
a(S"Shit like this is why I get frustrated with liberals when they talk about the trump-russia collusion investigations \nI'm sure Trump probably did some illegal bullshit with Russia, and I mean I hate the dude so sure if that can oust him or at least cripple his admin that'd be  https://twitter.com/rweingarten/status/949385866769772545\xc2\xa0\xe2\x80\xa6"
p919
S'1:29 PM - 5 Jan 2018'
p920
tp921
a(S'ABC\xe2\x80\x99s Brian Ross, who lied on air about a fake Flynn/Russia-Trump collusion, has not returned from his 4 week suspension https://twitter.com/marklevinshow/status/949113891480653824\xc2\xa0\xe2\x80\xa6'
p922
S'1:29 PM - 5 Jan 2018'
p923
tp924
a(S'It is starting to look as if some of the Republican caucus has a hand with trump in Russia\xe2\x80\x99s interference of our elections. They all know they would be better off without trump in White House. So if they aren\xe2\x80\x99t in collusion with Russia, why stop the Mueller investigation.'
p925
S'1:28 PM - 5 Jan 2018'
p926
tp927
a(S'MSNBC 1:26pm TRUMP SLAMS "PHONY" BOOK, RUSSIA COLLUSION. "HOAX" AND FAKF MFDIA IN SINGI F TWFl-\'l\'\nAUTHOR: TRUMP\xe2\x80\x99S STAFF...'
p928
S'1:28 PM - 5 Jan 2018'
p929
tp930
a(S'They ARE. All roads lead to collusion between the Obama admin and Russia and the DNC.'
p931
S'1:28 PM - 5 Jan 2018'
p932
tp933
a(S'3/Let us contemplate What would leaders of a dictatorship do in regards to a dossier investigating potential compromises during election It is a priority to safeguard liberties and sovereignty of the country we love The issue is not so much if there was collusion w/ Russia but if'
p934
S'1:27 PM - 5 Jan 2018'
p935
tp936
a(S'In Soviet Russia, it does. There\xe2\x80\x99s your collusion right there'
p937
S'1:26 PM - 5 Jan 2018'
p938
tp939
a(S'So wasting 11 months on Trump Russia collusion hasn\xe2\x80\x99t been a waste?? Get a life Feinstein!  I have a feeling the only prosecutions will come from the fake Dossier and it scares the Dems'
p940
S'1:26 PM - 5 Jan 2018'
p941
tp942
a(S'We\xe2\x80\x99re concerned about the Obama/ Clinton NWO Crime Cabal...keep on with your false Russia/Trump collusion if that gets you through your butthurt #MAGA2018'
p943
S'1:26 PM - 5 Jan 2018'
p944
tp945
a(S'So you can right now buy a Kindle version of Fire & Fury with a narration by Michael Wolff https://www.amazon.co.uk/gp/product/B078GSYDZ2/ref=oh_aui_d_detailpage_o01_?ie=UTF8&psc=1\xc2\xa0\xe2\x80\xa6 but I\xe2\x80\x99m hooked on Luke Harding\xe2\x80\x99s fascinating Collusion: How Russia Helped Trump Win the White House Kindle plus narration https://www.amazon.co.uk/Collusion-Russia-Helped-Trump-White-ebook/dp/B0776Y47WL/ref=pd_sbs_351_4?_encoding=UTF8&psc=1&refRID=M9ECJGXF99K21E2AFBHE\xc2\xa0\xe2\x80\xa6'
p946
S'1:26 PM - 5 Jan 2018'
p947
tp948
a(S'The Grassley attack on Christopher Steele is an utter waste of taxpayer dollars. Most of what\'s in his series of reports (misnamed a "dossier") was already known to US intelligence, who started investigating Russia collusion when Austrialia tipped them off about Papadopoulos.'
p949
S'1:26 PM - 5 Jan 2018'
p950
tp951
a(S'@ChrisCuomo When someone says: no collusion has been found!\nYou say: The investigation has not been completed.\nWhen someone says no illegality to start, you say: lots of intercepts starting Fall 2015 between Team & Russia that aroused attention & caused concern.'
p952
S'1:25 PM - 5 Jan 2018'
p953
tp954
a(S'To be fair, CF was investigated and was concluded to be a nothingburger. Russia collusion is still in the middle of an investigation that was initiated and handled by a long time Republican.'
p955
S'1:25 PM - 5 Jan 2018'
p956
tp957
a(S"The Dems/MSM can't win for losing... Colluding agst DJT 2 prevent his presidency. Pushing a phony Russia Story. ??? abt. mental fitness. Evolving Russia Collusion, hacking, probe, investigation. Gold star families. White Supremacy. Wolff's phony book...These clowns keep FAILING!"
p958
S'1:25 PM - 5 Jan 2018'
p959
tp960
a(S'Again, when something treasonous happens let me know, you whining about not liking Trump, racist this racist that, GOP is racist, Obummer is the greatest etc. doesn\xe2\x80\x99t change the fact there was no collusion and Russia didn\xe2\x80\x99t hack the election.'
p961
S'1:24 PM - 5 Jan 2018'
p962
tp963
a(S'Ha ha.  You do not really believe that after they just indicted the main witness in the Russia collusion delusion; right?'
p964
S'1:23 PM - 5 Jan 2018'
p965
tp966
a(S'@AnaCabrera It seems Dana was defending his friend Manafort as he threw Trump under the bus by stating "...had nothing to do with Trump\'s collusion with Russia..." Notice he left out the word "alleged". I would revisit this in a subsequent interview & play it back for him...'
p967
S'1:23 PM - 5 Jan 2018'
p968
tp969
a(S'Oh this is stellar! One of Robt Muellers investigators (Weissmann) into the phony, manufactured Trump-Russia-collusion is now under investigation himself! Just another slimy rat swimming in the DC swamp, paid with OUR tax dollars! #DrainTheSwamp'
p970
S'1:23 PM - 5 Jan 2018'
p971
tp972
a(S'None of which prove collusion by the President of the United States. Money Laundering in 2012 in the Ukraine has nothing to do with Meddling in 2016 election and Ukraine is not part of Russia!!! Liberal dreamers!'
p973
S'1:22 PM - 5 Jan 2018'
p974
tp975
a(S"Not really. Collusion with Russia was to get dirt on Hillary and/or him being compromised by Russia. You can still be a bumbling idiot who didn't want to win and still be owned by a foreign power and vindictive toward your opponent. https://twitter.com/HashtagGriswold/status/949294283487629312\xc2\xa0\xe2\x80\xa6"
p976
S'1:22 PM - 5 Jan 2018'
p977
tp978
a(S"just the opposite THE SWAMP has come up with the book because there's been zero evidence still of collusion with Russia!!!"
p979
S'1:22 PM - 5 Jan 2018'
p980
tp981
a(S"Sean Spicer Lied Today On Good Morning America About Team Trump's Russia Collusion (Here's The Proof) - http://factbox.tv\xc2\xa0 https://buff.ly/2EcP2Q5\xc2\xa0\n@GMA\n@RobinRoberts\n#spicerlied\n#TrumpRussiapic.twitter.com/FcAkmx7MnH"
p982
S'1:21 PM - 5 Jan 2018'
p983
tp984
a(S'Retweeted Donald J. Trump (@realDonaldTrump):\n\nWell, now that collusion with Russia is proving to be a total hoax... https://fb.me/V2CWuV8o\xc2\xa0'
p985
S'1:20 PM - 5 Jan 2018'
p986
tp987
a(S'What if Trump directed Sessions to start war on marijuana so he move people to force him to resign and hire someone who would not be recused from the Russia/Collusion investigation? '
p988
S'1:20 PM - 5 Jan 2018'
p989
tp990
a(S"The GOP's are Silent On TRUMP. The RATS either scurry to retire & leave or they HIDE. Spineless Cowards all all in collusion with TRUMP & PUTIN RUSSIA by covering up TRUMP's Crimes. They took RNC Dark RUSSIAN Money & are Covering That Up Also. Criminals! PUTIN'S Happy. pic.twitter.com/90gdnbXQQ9"
p991
S'1:18 PM - 5 Jan 2018'
p992
tp993
a(S'Well, now that collusion with Russia is proving to be a total hoax and the only collusion is with Hillary Clinton and the FBI/Russia, the Fake News Media (Mainstream) and this phony new book are hitting out at every new front imaginable. They should try\xe2\x80\xa6 by #fyremedic1200'
p994
S'1:18 PM - 5 Jan 2018'
p995
tp996
a(S'If collusion with Russia is a hoax why are you so fixated with the investigation?  If not for the Media, fake or not, you would not be where you are now.'
p997
S'1:18 PM - 5 Jan 2018'
p998
tp999
a(S"How embarrassed are you going to be when you find out you've Been believing in a LIE. Only Russia collusion is between BHO HRC AND RUSSIA"
p1000
S'1:17 PM - 5 Jan 2018'
p1001
tp1002
a(S'how can you be hypocritical when he didn\xe2\x80\x99t spend the money to buy it? It was a 2016 Christmas Gift! Why do people want to lie in order to get rid of a candidate? Trump russia collusion is a lie too! pic.twitter.com/LWLKaNX1Vr'
p1003
S'1:16 PM - 5 Jan 2018'
p1004
tp1005
a(S'If Hillary and her deep state goons are responsible for creating a false Russia Gate to hide their own collusion, yes it matters.'
p1006
S'1:15 PM - 5 Jan 2018'
p1007
tp1008
a(S"LIMBAUGH: The Trump-Russia Collusion Story Doesn't Have Any Legs And It'... https://youtu.be/YZHDVNQoq4I\xc2\xa0 via @YouTube"
p1009
S'1:14 PM - 5 Jan 2018'
p1010
tp1011
a(S"More waste of money. We put up with the most corrupt administration ever look at the money wasted there. Collusion between Russia lays at the feet of Clinton's, DNC, fusion1 and FBI"
p1012
S'1:13 PM - 5 Jan 2018'
p1013
tp1014
a(S'No evidence of Russia \xe2\x80\x9ccollusion\xe2\x80\x9d. But, it Trump\xe2\x80\x99s fault Sessions recused himself? I guess he told him to do that. '
p1015
S'1:13 PM - 5 Jan 2018'
p1016
tp1017
a(S"@SaraCarterDC @SharylAttkisson @seanhannity @JaySekulow @SebGorka @POTUS @realDonaldTrump @wikileaks\nLIMBAUGH: The Trump-Russia Collusion Story Doesn't Have Any Legs And It's About To Fall Apart\nhttps://www.youtube.com/watch?v=YZHDVNQoq4I&feature=youtu.be\xc2\xa0\xe2\x80\xa6"
p1018
S'1:12 PM - 5 Jan 2018'
p1019
tp1020
a(S"@olgaNYC1211 is so DESPERATE to keep the Russia collusion lie alive that she's painting Lindsey Graham - LINDSEY FRIGGIN GRAHAM - as some kind of partisan hack who cares about something besides himself. pic.twitter.com/UnFMN18kcY"
p1021
S'1:12 PM - 5 Jan 2018'
p1022
tp1023
a(S"@WSJbreakingnews @cnni @BBCNews @BBC @BBCWorld @BBCBreaking @bbcworldservice @FOXTV @FoxNews @foxandfriends @FoxBusiness @FoxNewsInsider \nLIMBAUGH: The Trump-Russia Collusion Story Doesn't Have Any Legs And It's About To Fall Apart\nhttps://www.youtube.com/watch?v=YZHDVNQoq4I&feature=youtu.be\xc2\xa0\xe2\x80\xa6"
p1024
S'1:12 PM - 5 Jan 2018'
p1025
tp1026
a(S'According to WaPo, the Clinton Foundation investigation started in 2015, well before the election. The FBI investigated Trump-Russia collusion until Comey got fired, and that investigation now continues under DOJ oversight. Current CF investigation not necessarily sinister.'
p1027
S'1:11 PM - 5 Jan 2018'
p1028
tp1029
a(S'Hahaha Russia, Russia, Russia collusion. No change to unfit oh my unfit focus. HAhaha MAGA  flakes.'
p1030
S'1:11 PM - 5 Jan 2018'
p1031
tp1032
a(S'\xe2\x80\x9cWell, now that collusion with Russia is proving to be a total hoax and the only collusion is with Hillary Clinton and the FBI/Russia, the Fake News Media (Mainstream) and this phony new book are hitting out at every new front imaginable. They should try winning an election. Sad! pic.twitter.com/DW1OQNDuXm'
p1033
S'1:11 PM - 5 Jan 2018'
p1034
tp1035
a(S'First off liberal, NIXON WAS NOT IMPEACHED! Secondly, there is ZERO evidence that Trump illegally collided with Russia to do anything. After all, collusion isn\xe2\x80\x99t illegal. Obama did it openly in 2015 to influence the Israeli election.'
p1036
S'1:11 PM - 5 Jan 2018'
p1037
tp1038
a(S'Gee kinda like the whole "Russia Collusion" probe that\'s been wasting millions of dollars for a year now? I mean in that case you had the Clinton camp pay Fusion GPS for a fake dossier that the Obama Administration used to justify the FBI spying on opposition POTUS candidate.'
p1039
S'1:10 PM - 5 Jan 2018'
p1040
tp1041
a(S'Collusion with Russia is a 100% fact! it has been proven BEYOND any reasonable doubt. TRUMP IS A TRAITOR ANSD SHOULD BE EXECUTED FOR TREASON!'
p1042
S'1:10 PM - 5 Jan 2018'
p1043
tp1044
a(S"@ericgarland it's going to be so funny when Russia collusion is proven as a nothingburger (moreso than it already has), and you lose the minute amount of credibility that you're clinging to."
p1045
S'1:10 PM - 5 Jan 2018'
p1046
tp1047
a(S"Shooting the messenger does not negate the crime being reported.\nTypical Trump strategy to try and deflect attention away from his traitorous collusion with Russia.\nUm, it's not working and he will go down on the SS TRUMPTANIC"
p1048
S'1:09 PM - 5 Jan 2018'
p1049
tp1050
a(S'@potus never said that the FBI colluded with Russia. The obvious collusion is between Hillary and the FBI and Hillary and Russia to get rid of Trump\xe2\x80\x99s chance of victory! Learn to read/think critically!'
p1051
S'1:09 PM - 5 Jan 2018'
p1052
tp1053
a(S'Every day Trump proves Wolff right\xe2\x80\x93He\'s full of fire & fury, signifying nothing. Childish, erratic, unfit, pathetic. Still lying about Russia collusion "hoax"\xe2\x80\x93even w/ guilty pleas, distracting w/ Clinton, discrediting DOJ & the media. And the wallow "Try winning an election" WUT https://twitter.com/realDonaldTrump/status/949287555660500992\xc2\xa0\xe2\x80\xa6'
p1054
S'1:07 PM - 5 Jan 2018'
p1055
tp1056
a(S"Sean Spicer Lied Today On Good Morning America About Team Trump's Russia Collusion (Here's The Proof) - http://factbox.tv\xc2\xa0 https://buff.ly/2EcOKZv\xc2\xa0\n@GMA\n@RobinRoberts\n#spicerlied\n#TrumpRussiapic.twitter.com/0n0xfrezOS"
p1057
S'1:07 PM - 5 Jan 2018'
p1058
tp1059
a(S'\xe2\x93\x88teve \xe2\x92\xb7annon \xe2\x92\xb8onfirms \xe2\x93\x87ussia \xe2\x92\xb8ollusion? \xe2\x93\x84r \xe2\x92\xbes \xe2\x92\xbet \xe2\x92\xb6ll \xe2\x92\xbbake \xe2\x93\x83ews? | \xe2\x93\x89he \xe2\x92\xb6ndrew \xe2\x93\x80lavan \xe2\x93\x88how \xe2\x92\xbap. \xe2\x91\xa339:'
p1060
S'1:07 PM - 5 Jan 2018'
p1061
tp1062
a(S'I think you\xe2\x80\x99re on the wrong track, I never heard the Trumps admit to any collusion with Russia during the election. I would think if they had they would have been prosecuted by now.'
p1063
S'1:06 PM - 5 Jan 2018'
p1064
tp1065
a(S'@RepRohrabacher Um...FYI, conspiracy with Russia to steal an election is pretty clear. Mueller was told to investigate collusion, and any other matters arising out of that. Your Russia ties are questionable too. What are you afraid of? https://twitter.com/brianstelter/status/949333068023812096\xc2\xa0\xe2\x80\xa6'
p1066
S'1:04 PM - 5 Jan 2018'
p1067
tp1068
a(S"@senjudiciary history is watching youe investigation into collusion between Trump-Russia and you are failing by taking a partisan track designed to distract and delay.  History isn't kind to cowards."
p1069
S'1:04 PM - 5 Jan 2018'
p1070
tp1071
a(S'What happened to Russia collusion?'
p1072
S'1:04 PM - 5 Jan 2018'
p1073
tp1074
a(S"....Russia collusion. Trump's business dealing from 20 years ago is not abt Russian collusion"
p1075
S'1:03 PM - 5 Jan 2018'
p1076
tp1077
a(S"He's only doing this tour to rehab his image so he can go on TV and make money. FAKE AS FUCK!\n\nSean Spicer Lied Today To George Stephanoplous On GMA About Russia Collusion. Here's the Proof. https://www.huffingtonpost.com/entry/sean-spicer-lied-today-to-george-stephanoplous-on-gma_us_5a4fd572e4b0f9b24bf3170d?ncid=engmodushpmg00000004\xc2\xa0\xe2\x80\xa6 via @HuffPostBlog"
p1078
S'1:03 PM - 5 Jan 2018'
p1079
tp1080
a(S"Sean Spicer Lied Today On Good Morning America About Team Trump's Russia Collusion (Here's The Proof) - http://factbox.tv\xc2\xa0 https://buff.ly/2D09UL9\xc2\xa0\n@GMA\n@RobinRoberts\n#spicerlied\n#TrumpRussia"
p1081
S'1:03 PM - 5 Jan 2018'
p1082
tp1083
a(S'Which you have never even read the charges and/or pleas. They have literally no collusion with Russia, neither any Russian hacking.\n\nThe only Gen. Flynn Russia charge is that, after Trump had been elected, Flynn tried to urge Russia to vote pro-Israel in the UN. You know-nothing.'
p1084
S'1:02 PM - 5 Jan 2018'
p1085
tp1086
a(S"Dude do you even know what a TV is? Collusion with Hillary is currently being proven to be bullshit and Russia's collusion with you is being proven to be complete truth. What kind of world do you live in, because it's not the one the rest of us live in."
p1087
S'1:02 PM - 5 Jan 2018'
p1088
tp1089
a(S'Yep - if \xe2\x80\x9cO\xe2\x80\x9d were President it WOULD be the biggest story.  Unfortunately with you as \xe2\x80\x9cpresident\xe2\x80\x9d there are many distractions - collusion with Russia, irresponsible tweeting, sexual predation, tax returns, etc, etc, etc'
p1090
S'1:02 PM - 5 Jan 2018'
p1091
tp1092
a(S'Boy are you people getting scared.  The whole Russia collusion is over.\nYou are all hoping now  Mueller can catch him on Obstruction,\nSad, \n\nStalin would be proud pic.twitter.com/eIt8s4V80L'
p1093
S'1:01 PM - 5 Jan 2018'
p1094
tp1095
a(S"Yes, collusion with Russia is such a hoax that four of your associates have been indicted, with two striking plea deals.  MAGA:  Mueller Ain't Going Away."
p1096
S'1:00 PM - 5 Jan 2018'
p1097
tp1098
a(S"Do you have a multi threaded, in depth analysis of collusion between Hillary, the DNC and Russia? Because I'd LOVE to read it!"
p1099
S'1:00 PM - 5 Jan 2018'
p1100
tp1101
a(S"So you're all in on the Trump/Russia collusion story? Honest question: If you are wrong (when this is all said and done) would you admit it?"
p1102
S'1:00 PM - 5 Jan 2018'
p1103
tp1104
a(S'U truly r ridiculous, aren\xe2\x80\x99t u? U ask for proof about an ongoing investigation by the special councel on Trump & Russia, & yet ur tweet was, \xe2\x80\x9cOh CNN is focused alright.. they are guilty of collusion with the Clinton campaign.\xe2\x80\x9d Proof? Link? Who\xe2\x80\x99s the special counsel for it? '
p1105
S'1:00 PM - 5 Jan 2018'
p1106
tp1107
a(S'Dismal Donnie, I think you should look up the definition of collusion and then explain jr, manny, & kushie meeting with the russkis to get dirt on Hillary. Then release your tax info so America can see that you have no business dealings with Russia. You can\xe2\x80\x99t!'
p1108
S'1:00 PM - 5 Jan 2018'
p1109
tp1110
a(S"No miss dummy bunny he was fired because trump didn't want him looking into russia/trump collusion and he felt comey was out to get him (because he's paranoid) and he admired that right out of his own mouth in an interview with Lester Holt."
p1111
S'12:59 PM - 5 Jan 2018'
p1112
tp1113
a(S"The foolish left is hanging on every word of this book; including that Trump didn't actually want, or expect, to win.  But, doesn't that end the Russia collusion theory? They can't have it both ways!"
p1114
S'12:59 PM - 5 Jan 2018'
p1115
tp1116
a(S'2 people lied under oath that had 0 to do with Russia collusion. Firing a FBI director for breaking the law repeatedly is what should be done. Good luck with your resistance'
p1117
S'12:59 PM - 5 Jan 2018'
p1118
tp1119
a(S'You can work with whomever you want, & see if any crimes were committed. But now we have strong action revisiting Hillary emails, Comey / Strzok/ Lynch obstruction on same, Fusion GPS paying journalists & Hillary collusion with Russia- this is Trump draining the swamp. Nervous?'
p1120
S'12:58 PM - 5 Jan 2018'
p1121
tp1122
a(S"What would you want to discuss about trump oh the GDP or blacks all time low on unemployment the stock market oh you want to talk about the book or Russia collusion interesting Clinton under investigation isn't it"
p1123
S'12:57 PM - 5 Jan 2018'
p1124
tp1125
a(S"It always seemed to me that many in the @GOP were dirty with Russian money and that's why they won't speak out against Trump and collusion with Russia."
p1126
S'12:56 PM - 5 Jan 2018'
p1127
tp1128
a(S'You are scared because you keep saying no collusion,russia hoax.the only time you say this & 70 % of Americans know this,is when your feeling the heat from mueller.he will have grand jury INDICTMENTS for you kushner & trump jr.it will happen so act like a man!'
p1129
S'12:56 PM - 5 Jan 2018'
p1130
tp1131
a(S"Of course as w/#RussianDossier which we now know was FALSE that @CNN @MSNBC @ABC @CBS are still using as TRUTH to continue their Trump/Russia Collusion conspiracy they'll now use #FireAndFury to push more #FAKENEWS.https://twitter.com/jonathanvswan/status/949252612804743169\xc2\xa0\xe2\x80\xa6"
p1132
S'12:56 PM - 5 Jan 2018'
p1133
tp1134
a(S'Just the fact that u r so certain the russia collusion didn\xe2\x80\x99t happen should b enough to impeach u for not being mentally fit. Don\xe2\x80\x99t u think it\xe2\x80\x99s odd that u r the only person who believes that? 17 +agencies, even Putin admits it. Hell even Donald junior admits it.'
p1135
S'12:55 PM - 5 Jan 2018'
p1136
tp1137
a(S'You guys also believe in aliens flying around the earth and abducting people, right? I mean, there is more evidence of aliens abductions then there is of some Russia collusion. Maybe Trump has been injected by Russians with alien mind control technology they have?'
p1138
S'12:55 PM - 5 Jan 2018'
p1139
tp1140
a.