(lp0
(S'Like Ronda said, all it was was Trump Russia, Russia Trump, collusion, collusion, collusion.'
p1
S'4:59 PM - 27 Oct 2017'
p2
tp3
a(S'Ben doing his best to muddie the waters now to help the narrative of "DNC Russia Collusion" https://twitter.com/benshapiro/status/924062277598289921\xc2\xa0\xe2\x80\xa6'
p4
S'4:59 PM - 27 Oct 2017'
p5
tp6
a(S'Considering Hillary\'s and the DNC\'s sponsoring of the Russia-Trump "dossier," it\'s time to get all this Russia collusion bullshit over with!'
p7
S'4:59 PM - 27 Oct 2017'
p8
tp9
a(S"Doesn't Brian have to worry about collusion with Russia?"
p10
S'4:59 PM - 27 Oct 2017'
p11
tp12
a(S'GOP winds down Russia probes with Trump collusion unanswered - POLITICO https://apple.news/AXD1me6W_SJyVreCm0GZNPw\xc2\xa0\xe2\x80\xa6'
p13
S'4:58 PM - 27 Oct 2017'
p14
tp15
a(S'What about Russia sanctions, collusion, Russia meddling in the US election, priorities Mr President'
p16
S'4:58 PM - 27 Oct 2017'
p17
tp18
a(S'History will judge Walter Shaub harshly trying to "cover up" the collusion between then SOS, Hillary and Russia on the uranium deal.'
p19
S'4:58 PM - 27 Oct 2017'
p20
tp21
a(S'Yeah right ! Fake Dossier funded by Killary, DNC collusion with Russia! ROTFLMBO ! pic.twitter.com/vPPZ87L5gO'
p22
S'4:58 PM - 27 Oct 2017'
p23
tp24
a(S"Former CIA Spy: 'Trump-Russia Collusion' Narrative Was Created By Clinton Campaign http://www.thegatewaypundit.com/2017/10/former-cia-spy-trump-russia-collusion-narrative-created-clinton-campaign/\xc2\xa0\xe2\x80\xa6"
p25
S'4:58 PM - 27 Oct 2017'
p26
tp27
a(S'We now have evidence to IMPEACH TRUMP ! Trump Tower MEETING IN JUNE = COLLUSION WITH RUSSIA (qid pro quo) pic.twitter.com/GgTgsLGXc9'
p28
S'4:58 PM - 27 Oct 2017'
p29
tp30
a(S'All over? Not rly. More focus on WH drama, Puerto Rico, Niger, sexharrassment, Russia collusion, JFK, Clinton funding oppo-research.'
p31
S'4:58 PM - 27 Oct 2017'
p32
tp33
a(S'Must have missed the news lately. DNC +clintons = Russia collusion, treason'
p34
S'4:58 PM - 27 Oct 2017'
p35
tp36
a(S'Trump, GOP flip script on Russia collusion @CNNPoliticshttp://cnn.it/2xtxDQu\xc2\xa0'
p37
S'4:58 PM - 27 Oct 2017'
p38
tp39
a(S'Great hoaxes in history: Piltdown Man, the Howard Hughes will, and Trump-Russia collusion #TrumpRussia #FlashbackFriday #MAGA #HillaryRussia'
p40
S'4:58 PM - 27 Oct 2017'
p41
tp42
a(S"Fox's Wallace: More evidence of Dem collusion with Russia than GOP http://thehill.com/homenews/media/357514-foxs-wallace-more-evidence-of-dem-collusion-with-russia-than-gop\xc2\xa0\xe2\x80\xa6"
p43
S'4:58 PM - 27 Oct 2017'
p44
tp45
a(S'CNN Latest: Trump, Republicans try to flip the script on Russia collusion: President Trump\xe2\x80\xa6 https://goo.gl/fb/jf7Efz\xc2\xa0'
p46
S'4:58 PM - 27 Oct 2017'
p47
tp48
a(S'DOJ needs to order Hillary to not erase Russia Collusion from her book. Heard she just placed order for 300,000 erasers from amazon. pic.twitter.com/mcZr0Md6j0'
p49
S'4:58 PM - 27 Oct 2017'
p50
tp51
a(S'I think Republicans should put as much energy into the Trump-Russia collusion as they did with Benghazi.'
p52
S'4:58 PM - 27 Oct 2017'
p53
tp54
a(S'Boy something must b abt 2 drop cuz #MagaMoron sock puppets &bots r out in force. Some are even targeting my measly Russia posts. #Collusion'
p55
S'4:57 PM - 27 Oct 2017'
p56
tp57
a(S"Obama and Clinton's knew how to spin the Trump/Russia collusion story because they merely had to project their own actions on Trump."
p58
S'4:57 PM - 27 Oct 2017'
p59
tp60
a(S'& it\xe2\x80\x99s not a coincidence that Putin, in Russia, is simultaneously spouting these same talking points. Right now, as if collusion continues.'
p61
S'4:57 PM - 27 Oct 2017'
p62
tp63
a(S'Yea, the word is collusion which defines the relationship between trump and Russia. Or, if you prefer, treason.'
p64
S'4:57 PM - 27 Oct 2017'
p65
tp66
a(S'Fox News\xe2\x80\x99 Chris Wallace: Now More Evidence Of Russia Collusion With Democrats Than Trump http://dailycaller.com/2017/10/27/fox-news-chris-wallace-now-more-evidence-of-russia-collusion-with-democrats-than-trump/?utm_source=site-share\xc2\xa0\xe2\x80\xa6 via @dailycaller'
p67
S'4:57 PM - 27 Oct 2017'
p68
tp69
a(S"I will wait for the final result what about implementing those Russian sanctions??  See you shed doubt about all these claims about no collusion but won't enforce sanctions against Russia. Your talk is cheap."
p70
S'4:57 PM - 27 Oct 2017'
p71
tp72
a(S'It\xe2\x80\x99s done. The Dem-backed  investigation has only uncovered the collusion between the Clintons, DNC and Russia. Be careful what you ask for.'
p73
S'4:57 PM - 27 Oct 2017'
p74
tp75
a(S'Russia collusion story after emails were taken and about to be leaked. This was a complete hit job and FBI DOJ clinton obama admin involved.'
p76
S'4:57 PM - 27 Oct 2017'
p77
tp78
a(S"Folks, don't let the Kennedy files distract you from the Hillary/DNC/Russia/Clinton Foundation collusion and corruption. #GOP @POTUS"
p79
S'4:57 PM - 27 Oct 2017'
p80
tp81
a(S"You, through your own failure to investigate truth with objectivity, hatred of any opposition to your POV', have been clear on NOTHING from the BEGINNING- you're wrong on POLLS, MidWest America, Russia (100% Clinton collusion), women for Trump, Trump! Just stop!"
p82
S'4:57 PM - 27 Oct 2017'
p83
tp84
a(S'and the "Russia, if you\'re listening" moment of candor where he practically admits his collusion'
p85
S'4:56 PM - 27 Oct 2017'
p86
tp87
a(S'Then you should welcome any and all investigations into collusion with Russia.'
p88
S'4:56 PM - 27 Oct 2017'
p89
tp90
a(S'Hillary committed the crimes/Russia collusion not Trump and I\xe2\x80\x99m going to enjoy every second of this! pic.twitter.com/R5bKMOR6s0'
p91
S'4:56 PM - 27 Oct 2017'
p92
tp93
a(S'JW Pres. Tom Fitton discussing Clinton/Russia Collusion, 72K New Clinton... https://youtu.be/YmcNBVisbqY\xc2\xa0 via @YouTube #Boom #MICDROP #BREAKING'
p94
S'4:56 PM - 27 Oct 2017'
p95
tp96
a(S'(CNN)ALERT !! FBI had undercover agent in Hillary camp for years investigating corruption and collusion with Russia Will testify to Senate'
p97
S'4:56 PM - 27 Oct 2017'
p98
tp99
a(S'#FBR5000 #FBR #RESIST #Resistance FYI bc of your concern w Russia: More evidence of Dem collusion w Russia than GOP http://thehill.com/homenews/media/357514-foxs-wallace-more-evidence-of-dem-collusion-with-russia-than-gop\xc2\xa0\xe2\x80\xa6'
p100
S'4:56 PM - 27 Oct 2017'
p101
tp102
a(S"What we don't investigate collusion with Russia anymore?"
p103
S'4:56 PM - 27 Oct 2017'
p104
tp105
a(S'Uranium one is not collusion, it was done over years with 9 different agencies and Russia did not get any uranium from America'
p106
S'4:55 PM - 27 Oct 2017'
p107
tp108
a(S"Fox's Wallace: More evidence of Dem collusion with Russia than GOP http://thehill.com/homenews/media/357514-foxs-wallace-more-evidence-of-dem-collusion-with-russia-than-gop#.WfPGtifzScw.twitter\xc2\xa0\xe2\x80\xa6 @foxnewssunday"
p109
S'4:55 PM - 27 Oct 2017'
p110
tp111
a(S'On both sides?\n\nON BOTH SIDES?\n\nSeriously?\n\nWhere is the evidence there was any collusion between Trump and Russia? https://twitter.com/benshapiro/status/923960511414263808\xc2\xa0\xe2\x80\xa6'
p112
S'4:55 PM - 27 Oct 2017'
p113
tp114
a(S'CNN & Dems (redundant indeed) should stop trying to rescue their debunked Trump Russia collusion story. Try to save a shred of credibility'
p115
S'4:55 PM - 27 Oct 2017'
p116
tp117
a(S"Trump likes to believe many things, he's clear of collusion with Russia, owns a Renoir, is respected... @CNN"
p118
S'4:54 PM - 27 Oct 2017'
p119
tp120
a(S"Of course the real new of the week has and is about Clinton / Russia collusion & pay to play. But your Agenda News won't report. So funny!!"
p121
S'4:54 PM - 27 Oct 2017'
p122
tp123
a(S'Closing in on HRC. $140 million to Clinton Foundation days after WJC meets Putin (Collusion?) and Russia gets 20%  uranium. Lock her up!'
p124
S'4:54 PM - 27 Oct 2017'
p125
tp126
a(S'Russia collusion investigation: \n"Why is it okay for Democrats to work with a former British spy?'
p127
S'4:54 PM - 27 Oct 2017'
p128
tp129
a(S"Uh yeah it is, because Mueller is looking into it. \nAnd if collusion with Russia never happened, what's this then? https://twitter.com/DonaldJTrumpJr/status/884789418455953413\xc2\xa0\xe2\x80\xa6"
p130
S'4:54 PM - 27 Oct 2017'
p131
tp132
a(S'Closing in on Hillary and Russia collusion. What a spider web of deceit.'
p133
S'4:54 PM - 27 Oct 2017'
p134
tp135
a(S'JW Pres. Tom Fitton discussing Clinton/Russia Collusion, 72K New Clinton... https://youtu.be/YmcNBVisbqY\xc2\xa0 via @YouTube'
p136
S'4:53 PM - 27 Oct 2017'
p137
tp138
a(S"Crooked Hillary should be help responsible for her COLLUSION with Russia to sell Uranium One. MSM doesn't want you to know the Truth."
p139
S'4:53 PM - 27 Oct 2017'
p140
tp141
a(S'Mueller is now possible defendant in Russia/Clinton collusion. He must resign as Special Counsel. He will now need attorney.'
p142
S'4:53 PM - 27 Oct 2017'
p143
tp144
a(S'Claims of Clinton-Russia Uranium Collusion Are A Real Empty Barrel via @forbeshttps://www.forbes.com/sites/jamesconca/2017/10/27/claims-of-clinton-russia-uranium-scandal-are-a-real-empty-barrel/#c5cd7a27b559\xc2\xa0\xe2\x80\xa6'
p145
S'4:53 PM - 27 Oct 2017'
p146
tp147
a(S"Donald Trump Points to Hillary Clinton 'Collusion' with Russia http://www.breitbart.com/big-government/2017/10/27/donald-trump-points-to-hillary-clinton-collusion-with-russia/\xc2\xa0\xe2\x80\xa6"
p148
S'4:53 PM - 27 Oct 2017'
p149
tp150
a(S'Fox News\xe2\x80\x99 Chris Wallace: Now More Evidence Of Russia Collusion With Democrats Than Trump http://dailycaller.com/2017/10/27/fox-news-chris-wallace-now-more-evidence-of-russia-collusion-with-democrats-than-trump/?utm_source=site-share\xc2\xa0\xe2\x80\xa6 via @dailycaller'
p151
S'4:53 PM - 27 Oct 2017'
p152
tp153
a(S"In fantasy land. How's that russia collusion thing going? Oh that's right!"
p154
S'4:53 PM - 27 Oct 2017'
p155
tp156
a(S"Isn't it amazing how many people don't know ANYTHING about this Hillary/Russia collusion? \n\n#RussiaGatepic.twitter.com/CdhZViqT9E"
p157
S'4:52 PM - 27 Oct 2017'
p158
tp159
a(S"Fox's Wallace: More evidence of Dem collusion with Russia than GOP http://thehill.com/homenews/media/357514-foxs-wallace-more-evidence-of-dem-collusion-with-russia-than-gop\xc2\xa0\xe2\x80\xa6"
p160
S'4:52 PM - 27 Oct 2017'
p161
tp162
a(S"Watch the segment. 'That is direct evidence of collusion\xe2\x80\x99: It\xe2\x80\x99s clear Trump is \xe2\x80\x98beholden to Russia\xe2\x80\x99  https://www.rawstory.com/2017/10/that-is-direct-evidence-of-collusion-msnbc-analyst-says-its-clear-trump-is-beholden-to-russia/amp/\xc2\xa0\xe2\x80\xa6"
p163
S'4:52 PM - 27 Oct 2017'
p164
tp165
a(S'oh he already lost it. \nhe just cant quite bring himself to admit there is zero evidence of any Trump/Russia collusion. \nI like Ben but.....'
p166
S'4:51 PM - 27 Oct 2017'
p167
tp168
a(S'In 4 days, all collusion with Russia & DNC & Hillary has come out. In 9 months with Congress & Mueller there has been nothing. Apple any1?'
p169
S'4:51 PM - 27 Oct 2017'
p170
tp171
a(S'And he got it, and now your D political masters are gonna get it!  Plus Russia Collusion Delusion meant to cause anti DJT confusion is over!'
p172
S'4:51 PM - 27 Oct 2017'
p173
tp174
a(S"It's time to charge Crooked Hillary with treason for COLLUSION with Russia for selling Uranium One !"
p175
S'4:51 PM - 27 Oct 2017'
p176
tp177
a(S'Get your information correct Ben, the real collusion with Russia is from Hillary, DNC, Obama! Take the blinders off, they are guilty!'
p178
S'4:51 PM - 27 Oct 2017'
p179
tp180
a(S"Fox's Wallace: More evidence of Dem collusion with Russia than GOP - Clinton Campaign/ @DNC funded #TrumpDossier http://thehill.com/homenews/media/357514-foxs-wallace-more-evidence-of-dem-collusion-with-russia-than-gop\xc2\xa0\xe2\x80\xa6pic.twitter.com/UFhIkK1olG"
p181
S'4:51 PM - 27 Oct 2017'
p182
tp183
a(S"Ur def right: Esp w/ DNC, uncovering collusion doesn't equal the collusion  w/ Russia itself"
p184
S'4:51 PM - 27 Oct 2017'
p185
tp186
a(S'And don\xe2\x80\x99t forget - They called DT Jr\xe2\x80\x99s trip (for op research) to meet the lawyer from Russia collusion also!'
p187
S'4:50 PM - 27 Oct 2017'
p188
tp189
a(S'1/ More n more Trump is positioning his base to support him when the evidence comes out that he is guilty of collusion with Russia...'
p190
S'4:50 PM - 27 Oct 2017'
p191
tp192
a(S'The dnc,s russian delusion was a total illusion there was no donald j trump / russia collusion.'
p193
S'4:50 PM - 27 Oct 2017'
p194
tp195
a(S'\xe2\x80\x98That is direct evidence of collusion\xe2\x80\x99: MSNBC analyst says it\xe2\x80\x99s clear Trump is \xe2\x80\x98beholden to Russia\xe2\x80\x99 https://www.rawstory.com/2017/10/that-is-direct-evidence-of-collusion-msnbc-analyst-says-its-clear-trump-is-beholden-to-russia/#.WfPGK1VUP2l.twitter\xc2\xa0\xe2\x80\xa6'
p196
S'4:50 PM - 27 Oct 2017'
p197
tp198
a(S'Trump has always denied a collusion with Russia & there is no proof of that However, in the Hillary(as SOS)/Russia collusion there is proof.'
p199
S'4:49 PM - 27 Oct 2017'
p200
tp201
a(S"Trump tweets that it's 'commonly agreed' he didn't collude with Russia and accuses Hillary Clinton of collusion in\xe2\x80\xa6 http://ift.tt/2gIRape\xc2\xa0"
p202
S'4:49 PM - 27 Oct 2017'
p203
tp204
a(S'Too dumb for words. Fact info given to researcher, hired by conservative  Wash. Free Beacon, concerned Russia does not equal collusion.'
p205
S'4:49 PM - 27 Oct 2017'
p206
tp207
a(S'Trump is trying to change the subject from COLLUSION WITH RUSSIA! TRUMP TOWER MEETING =COLLUSION WITH RUSSIA! pic.twitter.com/cAnJMZMM94'
p208
S'4:49 PM - 27 Oct 2017'
p209
tp210
a(S'How do you know when  Russia collusion tide is turning?  Washington Free Beacon outs themselves, Podesta/DNC/Clinton campaign know nothing. pic.twitter.com/cTIGT1nbby'
p211
S'4:49 PM - 27 Oct 2017'
p212
tp213
a(S'Uranium One scandal\nDossier and FBI scandal\nRussia Collusion with Hillary/DNC\n#NeverTrumpers: "But Don Jr!"\n\n@KurtSchlichter'
p214
S'4:48 PM - 27 Oct 2017'
p215
tp216
a(S"It's Russia collusion,  Hillary Clinton style https://news.hjnews.com/logan_hj/it-s-russia-collusion-hillary-clinton-style/article_d5acab7f-6702-5567-a985-71e818ea2e80.html?utm_medium=social&utm_source=twitter&utm_campaign=user-share\xc2\xa0\xe2\x80\xa6 via @HJnews"
p217
S'4:48 PM - 27 Oct 2017'
p218
tp219
a(S'COLLUSION: Hillary Clinton and Democrats lose the high ground on Russia. #MAGAhttp://www.foxnews.com/opinion/2017/10/26/hillary-clinton-and-democrats-lose-high-ground-on-russia.html\xc2\xa0\xe2\x80\xa6'
p220
S'4:48 PM - 27 Oct 2017'
p221
tp222
a(S'Fox News\xe2\x80\x99 Chris Wallace: Now More Evidence Of Russia Collusion With Democrats Than Trump http://dailycaller.com/2017/10/27/fox-news-chris-wallace-now-more-evidence-of-russia-collusion-with-democrats-than-trump/?utm_source=site-share\xc2\xa0\xe2\x80\xa6 via @dailycaller'
p223
S'4:47 PM - 27 Oct 2017'
p224
tp225
a(S"Retweeted 'GITMO' BAMA  (@President1Trump):\n\nFormer CIA Spy: 'Trump-Russia Collusion' Narrative Was Created By... http://fb.me/z9l8LlZB\xc2\xa0"
p226
S'4:47 PM - 27 Oct 2017'
p227
tp228
a(S"And you are aiding and abetting them- as usual!!  Tired of MSM promoting trump and his minions' lies!!  Report on PR and Russia collusion."
p229
S'4:47 PM - 27 Oct 2017'
p230
tp231
a(S'Russia Hoax and Clinton Collusion http://m.washingtontimes.com/news/2017/oct/26/dossier-shows-democrat-russian-collusion-no-proof-/\xc2\xa0\xe2\x80\xa6'
p232
S'4:47 PM - 27 Oct 2017'
p233
tp234
a(S"Oh boy...fake news MSM doesn't like THAT!  They want to stick to the fake Trump-Russia collusion story so they can protect Hillary from the REAL Clinton-Russia collusion story just now breaking."
p235
S'4:47 PM - 27 Oct 2017'
p236
tp237
a(S'Obama DOJ:  Let\'s make this a "matter" not an Investigation\nComey: OK\nClinton Campaign/DNC collusion with Russia using foreign agent Illegal https://twitter.com/RepAdamSchiff/status/923742545947054080\xc2\xa0\xe2\x80\xa6'
p238
S'4:47 PM - 27 Oct 2017'
p239
tp240
a(S'Another attack in their reporting. The problem with the Senate race in history of Dem collusion between Russia than even'
p241
S'4:47 PM - 27 Oct 2017'
p242
tp243
a(S"Fox's Wallace: More evidence of Dem collusion with Russia than GOP http://thehill.com/homenews/media/357514-foxs-wallace-more-evidence-of-dem-collusion-with-russia-than-gop\xc2\xa0\xe2\x80\xa6\n\nIs this Wallace's clone talking? "
p244
S'4:46 PM - 27 Oct 2017'
p245
tp246
a(S'Pay attention...its the dem party...fbi..an Hillary that were involved with Russia collusion..u libs are hilarious'
p247
S'4:46 PM - 27 Oct 2017'
p248
tp249
a(S'LOL Branco: Russia Clinton Collusion Story - http://investmentwatchblog.com/?p=735799\xc2\xa0'
p250
S'4:46 PM - 27 Oct 2017'
p251
tp252
a(S'Obama DOJ:  Let\'s make this a "matter" not an Investigation\nComey: OK\nClinton Campaign/DNC collusion with Russia using foreign agent Illegal'
p253
S'4:46 PM - 27 Oct 2017'
p254
tp255
a(S'Collusion with Russia. His campaign was supported by Kremlin linked staff, funds, propaganda, black ops, trolls, and its AltRt international'
p256
S'4:45 PM - 27 Oct 2017'
p257
tp258
a(S'@KremlinRussia_E and @Trump are guilty of collusion which is why he is so desperately trying to take focus away from @Russia @CNN @MSNBC'
p259
S'4:45 PM - 27 Oct 2017'
p260
tp261
a(S"Trump's latest fantasy: 'Now commonly agreed' no collusion with Russia \xe2\x80\x93 except for Hillary http://www.thenewcivilrightsmovement.com/davidbadash/trump_now_commonly_agreed_no_collusion_with_russia_except_for_hillary\xc2\xa0\xe2\x80\xa6"
p262
S'4:45 PM - 27 Oct 2017'
p263
tp264
a(S'\xe2\x80\x98That is direct evidence of collusion\xe2\x80\x99: MSNBC analyst says it\xe2\x80\x99s clear Trump is \xe2\x80\x98beholden to Russia\xe2\x80\x99 https://www.rawstory.com/2017/10/that-is-direct-evidence-of-collusion-msnbc-analyst-says-its-clear-trump-is-beholden-to-russia/#.WfPFJ5Unh1M.twitter\xc2\xa0\xe2\x80\xa6'
p265
S'4:45 PM - 27 Oct 2017'
p266
tp267
a(S'Fox News\xe2\x80\x99 Chris Wallace: Now More Evidence Of Russia Collusion With Democrats Than Trump http://dailycaller.com/2017/10/27/fox-news-chris-wallace-now-more-evidence-of-russia-collusion-with-democrats-than-trump/?utm_source=site-share\xc2\xa0\xe2\x80\xa6 via @dailycaller'
p268
S'4:45 PM - 27 Oct 2017'
p269
tp270
a(S'When she says "Clintons" does she mean Hillary and Bill? So she is accusing a fromer president with collusion with Russia?  Pretty serious!'
p271
S'4:45 PM - 27 Oct 2017'
p272
tp273
a(S'FLIP? In 4 days, all the collusion with Russia & DNC & Hillary has come out. In 9 months with Congress & Mueller there has been nothing.'
p274
S'4:45 PM - 27 Oct 2017'
p275
tp276
a(S"Chris, I didn't know there was ANY evidence of GOP collusion with Russia."
p277
S'4:45 PM - 27 Oct 2017'
p278
tp279
a(S'How stupid of Dems to shove Russia/Trump collusion down our throat & not realize social media would find the truth on HRC/Russia connection. https://twitter.com/RealJamesWoods/status/924020903968690176\xc2\xa0\xe2\x80\xa6'
p280
S'4:44 PM - 27 Oct 2017'
p281
tp282
a(S"Hume: End of Russia collusion probe is 'not clear' http://video.foxnews.com/v/5622935900001/\xc2\xa0\xe2\x80\xa6"
p283
S'4:44 PM - 27 Oct 2017'
p284
tp285
a(S'Do u not know what they\xe2\x80\x99re trying to do?? They\xe2\x80\x99re trying to turn the whole Russia collusion to Hillary Clinton. He\xe2\x80\x99s just Full of SHIT'
p286
S'4:44 PM - 27 Oct 2017'
p287
tp288
a(S'#RUSSIA #URANIUM #HILLARYCLINTONFORPRISON #COLLUSION #DNCCORRUPTION #SETHRICHhttps://twitter.com/OmahaSpeak/status/924058866807136257\xc2\xa0\xe2\x80\xa6'
p289
S'4:44 PM - 27 Oct 2017'
p290
tp291
a(S'You told Mitt that Russia wasn\xe2\x80\x99t a problem\n(early collusion?)\n#SignsYoureABadPresident'
p292
S'4:43 PM - 27 Oct 2017'
p293
tp294
a(S'It is NOT commonly agreed and there probably WAS collusion between Russia and Trump.\n\nPS-Referring to yourself in third person is weird.'
p295
S'4:43 PM - 27 Oct 2017'
p296
tp297
a(S'JW Pres. Tom Fitton discussing Clinton/Russia Collusion, 72K New Clinton... https://youtu.be/YmcNBVisbqY\xc2\xa0 via @YouTube'
p298
S'4:43 PM - 27 Oct 2017'
p299
tp300
a(S"I'm still waiting for the proof...I've seen more collusion between the Clintons and Russia then Trump!"
p301
S'4:42 PM - 27 Oct 2017'
p302
tp303
a(S"@NancyPelosi Why haven't you spoken out about the Hillary/DNC Russia collusion, do you have a double standard? @FoxNews @seanhannity"
p304
S'4:42 PM - 27 Oct 2017'
p305
tp306
a(S"Fox's Wallace: More evidence of Dem collusion with Russia than GOP http://thehill.com/homenews/media/357514-foxs-wallace-more-evidence-of-dem-collusion-with-russia-than-gop\xc2\xa0\xe2\x80\xa6\n#PERSIST JUSTICE FOR AMERICA LAW AND ORDER"
p307
S'4:41 PM - 27 Oct 2017'
p308
tp309
a(S'Not one Dem can produce any positive proof there was Trump/Russia collusion yet they go on networks like this spewing the lies anyways!'
p310
S'4:41 PM - 27 Oct 2017'
p311
tp312
a(S'@TomiLahren @realDonaldTrump just watched #CBSnews not a single mention of Dems collusion with Russia #UraniumOneScandal #FakeNews #NBCnews'
p313
S'4:41 PM - 27 Oct 2017'
p314
tp315
a(S"@realDonaldTrump More on Trump's collusion with Russia: https://www.nbcnews.com/news/us-news/hill-committees-focus-russia-tower-deal-cohen-interviews-n815121?cid=sm_npd_nn_fb_ma\xc2\xa0\xe2\x80\xa6"
p316
S'4:40 PM - 27 Oct 2017'
p317
tp318
a(S"HRC kept on w/Russian collusion as did media, yet she is the one that colluded w/Russia! To sum up the end of her book, That's What Happend"
p319
S'4:39 PM - 27 Oct 2017'
p320
tp321
a(S'I am so confused by the latest Russia-Trump-Democrats-collusion stories.'
p322
S'4:39 PM - 27 Oct 2017'
p323
tp324
a(S'This tangled web is a result of Trumps collusion w Russia, The  twisted diversion, the deceitful coverups & the denial of everything'
p325
S'4:39 PM - 27 Oct 2017'
p326
tp327
a(S'Yeah, lets focus on who.paid for the infor on the dotard, bit let us forget about his collusion with Russia'
p328
S'4:39 PM - 27 Oct 2017'
p329
tp330
a(S'Hillary calls their collusion with Russia \xe2\x80\x9copposition research\xe2\x80\x9d. Sounds like Bill Clinton when he said \xe2\x80\x9cI did not have sex with that woman\xe2\x80\x9d'
p331
S'4:39 PM - 27 Oct 2017'
p332
tp333
a(S'@kharyp @dcexaminer \nThe Trumpists are already spinning it as pre-Steele and Hillary collusion with Russia. It never ends.'
p334
S'4:39 PM - 27 Oct 2017'
p335
tp336
a(S"The scope of Hillary's collusion, allowing Russia to interfere in our election, our got and IC will be studied forever!"
p337
S'4:39 PM - 27 Oct 2017'
p338
tp339
a(S'Please show confirmed evidence of collusion with Trump & Russia. https://twitter.com/benshapiro/status/923960511414263808\xc2\xa0\xe2\x80\xa6'
p340
S'4:38 PM - 27 Oct 2017'
p341
tp342
a(S'To see @realDonaldTrump trying to say the #TrumpDossier shows collusion between Russia & Clinton is hilarious & shows how panicked he is'
p343
S'4:38 PM - 27 Oct 2017'
p344
tp345
a(S"The surefire proof you have that Tr*mp is guilty of collusion w/Russia is that in the media they're trying to paint the HRC campaign investigation as illegal when they should act as if it's unimportant or embarassing"
p346
S'4:38 PM - 27 Oct 2017'
p347
tp348
a(S'"Chris Wallace: \xe2\x80\x9cMore evidence of Dem collusion with Russia than GOP\xe2\x80\x9d More evidence? So...Evidence with GOP? I am waiting ....'
p349
S'4:38 PM - 27 Oct 2017'
p350
tp351
a(S'Special Counsel Mueller is facing a fresh round of calls from conservative critics for his resignation from the Russia collusion probe. https://twitter.com/foxnews/status/924048064129781761\xc2\xa0\xe2\x80\xa6'
p352
S'4:38 PM - 27 Oct 2017'
p353
tp354
a(S'Fox News\xe2\x80\x99 Chris Wallace: Now More Evidence Of Russia Collusion With Democrats Than Trump   http://dailycaller.com/2017/10/27/fox-news-chris-wallace-now-more-evidence-of-russia-collusion-with-democrats-than-trump/?utm_source=site-share\xc2\xa0\xe2\x80\xa6 via @dailycaller'
p355
S'4:38 PM - 27 Oct 2017'
p356
tp357
a(S'would have been 45 mill to work with if health care would have passed. Or maybe we could use the money that dems spent on Russia collusion?'
p358
S'4:38 PM - 27 Oct 2017'
p359
tp360
a(S'And?  This is what men do.  You know it.  I know it.  This is so old.  Please look to ongoing events like uranium one & Dem Russia collusion'
p361
S'4:38 PM - 27 Oct 2017'
p362
tp363
a(S'Essentially Diane F sees no Trump Russia story, and now wants to drag this into the TWITTER-FB world collusion. Waste of time& money again. https://twitter.com/dcexaminer/status/924055887173636096\xc2\xa0\xe2\x80\xa6'
p364
S'4:38 PM - 27 Oct 2017'
p365
tp366
a(S'@realDonaldTrump It\'s time 4 a celebration rally w/your core supporters! Russia collusion IS a #WitchHunt & the witch is HRC! "LOCK HER UP!"'
p367
S'4:37 PM - 27 Oct 2017'
p368
tp369
a(S'ok Back to the REAL RUSSIA SCANDAL. Trump collusion. lying about meeting. lying about what the meeting was for.."to discuss adoptions." https://twitter.com/TheBeatWithAri/status/924036645262946305\xc2\xa0\xe2\x80\xa6'
p370
S'4:37 PM - 27 Oct 2017'
p371
tp372
a(S'Hey chuck why don\xe2\x80\x99t you be just a tad more American and do your job on the real TRUMP RUSSIA COLLUSION!'
p373
S'4:37 PM - 27 Oct 2017'
p374
tp375
a(S'@FoxNews\n@LouDobbs \nSoon JonKarl wil reprt on Hill/Bill Quid pro Quo RussiaUranium deal. \nJKarl will then admit no DJT Russia Collusion'
p376
S'4:37 PM - 27 Oct 2017'
p377
tp378
a(S"Over a year now, NO proof of Trump Russia collusion. Some Rino's maybe along with HRC and the DNC. Time will spill those beans. Can't wait!"
p379
S'4:37 PM - 27 Oct 2017'
p380
tp381
a(S"If Hillary Clinton colluded with Russia, shouldn't she be president? Or is she just bad at collusion?"
p382
S'4:37 PM - 27 Oct 2017'
p383
tp384
a(S'It was a well-respected English former agent who was paid to look into Trump collusion with Russia. So how is HRC doing the colluding?'
p385
S'4:37 PM - 27 Oct 2017'
p386
tp387
a(S"Unanswered? There's no evidence so it is answered. GOP eyes end of Russia probes with Trump collusion unanswered http://politi.co/2yQHjG5\xc2\xa0"
p388
S'4:36 PM - 27 Oct 2017'
p389
tp390
a(S'JW Pres. Tom Fitton discussing Clinton/Russia Collusion, 72K New Clinton... https://youtu.be/YmcNBVisbqY\xc2\xa0 via @YouTube'
p391
S'4:36 PM - 27 Oct 2017'
p392
tp393
a(S"Donald #Trump Points to #HillaryClinton 'Collusion' with #Russia https://www.google.com/amp/www.breitbart.com/big-government/2017/10/27/donald-trump-points-to-hillary-clinton-collusion-with-russia/amp/\xc2\xa0\xe2\x80\xa6"
p394
S'4:36 PM - 27 Oct 2017'
p395
tp396
a(S'This writer is in panic mode to take the heat off Clinton /Russia collusion.  The real putin puppet !'
p397
S'4:35 PM - 27 Oct 2017'
p398
tp399
a(S'With the left\'s Russia collusion house collapsing in on them, #NeverTrumpers are determined to remind: "But Don Jr!"'
p400
S'4:35 PM - 27 Oct 2017'
p401
tp402
a(S"Bull shit...as an investigator you don't investigate alleged collusion with Russia while u stand accused of collusion with Russia"
p403
S'4:34 PM - 27 Oct 2017'
p404
tp405
a(S'"Trump straightened his own tie today at least TWICE, but FAKE NEWS CNN only talks about already disproven collusion with Russia & T! Sad!"'
p406
S'4:34 PM - 27 Oct 2017'
p407
tp408
a(S'He TOOK THE JOB: The WHOLE #Trump/#Russia collusion #democrat #hillaryclinton CREATION was a DOG FROM THE GET-GO WTF RT @jwhaifa @Colleen818 https://twitter.com/umpire43/status/923948719032225793\xc2\xa0\xe2\x80\xa6'
p409
S'4:34 PM - 27 Oct 2017'
p410
tp411
a(S'Rep Shifty, it is impossible 4 you 2 drag the Russia Collusion House Investigation to the 2018 Midterms! Uranium 1 & Fusion GPS is ur Alamo!'
p412
S'4:34 PM - 27 Oct 2017'
p413
tp414
a(S'\xe2\x80\x98That is direct evidence of collusion\xe2\x80\x99: MSNBC analyst says it\xe2\x80\x99s clear Trump is \xe2\x80\x98beholden to Russia\xe2\x80\x99 http://fb.me/47444wSrf\xc2\xa0'
p415
S'4:34 PM - 27 Oct 2017'
p416
tp417
a(S'The real story is Clinton/DNC collusion with Russia and Uranium One. Quit trying to ignore the elephant in the room.'
p418
S'4:34 PM - 27 Oct 2017'
p419
tp420
a(S'Fox News\xe2\x80\x99 Chris Wallace: Now More Evidence Of Russia Collusion With Democrats Than Trump http://dailycaller.com/2017/10/27/fox-news-chris-wallace-now-more-evidence-of-russia-collusion-with-democrats-than-trump/?utm_source=site-share\xc2\xa0\xe2\x80\xa6 via @dailycaller'
p421
S'4:34 PM - 27 Oct 2017'
p422
tp423
a(S'The #Dems were right about the #RussianCollusion; the only problem is they ARE in collusion with Russia. @POTUS @LouDobbs @HillaryClinton'
p424
S'4:33 PM - 27 Oct 2017'
p425
tp426
a(S'Senators: Probe Into Possible Trump-Russia Collusion Ongoing http://ref.gl/79u5Fsy7\xc2\xa0'
p427
S'4:33 PM - 27 Oct 2017'
p428
tp429
a(S'Trump\xe2\x80\x99s beh his\xe2\x80\x9dtell\xe2\x80\x9d,wds mean nothing or are lies\nHis beh towards Russia SCREAMS COLLUSION \nacquiescing to Putin\xe2\x80\x99s demands,putsU.S.last'
p430
S'4:33 PM - 27 Oct 2017'
p431
tp432
a(S"Yes Obstruction of Justice & RUSSIA COLLUSION WITH OBAMA & HILLARY! Selling 20% or our Uranium & 150,000 to Hillary's fake Charity!"
p433
S'4:33 PM - 27 Oct 2017'
p434
tp435
a(S"Let's play a fun game. Who is under investigation for possible collusion with Russia? Answer: Donald Trump and campaign."
p436
S'4:33 PM - 27 Oct 2017'
p437
tp438
a(S"I'm enjoying the show. After seeing them scream about Russia for a year being exposed as they themselves having done collusion is fantastic."
p439
S'4:33 PM - 27 Oct 2017'
p440
tp441
a(S'I have to laugh that you liberals you are now referring to Russia collusion as opposition research. LMAO '
p442
S'4:32 PM - 27 Oct 2017'
p443
tp444
a(S'More evidence of GOP collusion with Russia! Con Website 1st Funded Anti-Trump Research by Firm Produced Dossier https://nyti.ms/2yT9kg2\xc2\xa0'
p445
S'4:32 PM - 27 Oct 2017'
p446
tp447
a(S'CIA Spy: Fake Trump-Russia Collusion Narrative Was Created & Paid for By Clinton Campaign http://www.thegatewaypundit.com/2017/10/former-cia-spy-trump-russia-collusion-narrative-created-clinton-campaign/\xc2\xa0\xe2\x80\xa6'
p448
S'4:32 PM - 27 Oct 2017'
p449
tp450
a(S'Another GROSS misleading misogynistic tweet & pic.\nGlad I canceled subs.\nThere\'s NO HRC "Russia collusion" story! #FalseEquivalence #fail'
p451
S'4:32 PM - 27 Oct 2017'
p452
tp453
a(S'When are you going to admit the real Russia collusion? Clinton & DNC!'
p454
S'4:32 PM - 27 Oct 2017'
p455
tp456
a(S'@CNNPolitics He knows more than all the generals, he is highly intelligent, no collusion with Russia re HC. @Just call me Wayne, Schlegel ie'
p457
S'4:32 PM - 27 Oct 2017'
p458
tp459
a(S'What are you reporting about Hillary Russia Collusion?'
p460
S'4:32 PM - 27 Oct 2017'
p461
tp462
a(S"Crooked is as Crooked does! The Scum of the Earth This is proof of their COLLUSION WITH Trump Russia. It's TREASON from Trump to McConnell https://twitter.com/DerekCressman/status/923763512198930432\xc2\xa0\xe2\x80\xa6"
p463
S'4:32 PM - 27 Oct 2017'
p464
tp465
a(S'And NOW...we discover she is behind the BS Russian collusion attack on Trump. If that\xe2\x80\x99s not ENOUGH...SHE colluded with Russia! WAKE TF UP.'
p466
S'4:31 PM - 27 Oct 2017'
p467
tp468
a(S'So anyone that wants to do business in Russia is guilty of collusion? Ok then let\xe2\x80\x99s round up the entire Democratic Party! '
p469
S'4:31 PM - 27 Oct 2017'
p470
tp471
a(S"Acosta's a joke. The controlled media has been all about fake Russia collusion & now discrediting real collusion w/HRC?"
p472
S'4:31 PM - 27 Oct 2017'
p473
tp474
a(S"Fox's Wallace: More evidence of Dem collusion with Russia than GOP http://thehill.com/homenews/media/357514-foxs-wallace-more-evidence-of-dem-collusion-with-russia-than-gop\xc2\xa0\xe2\x80\xa6"
p475
S'4:31 PM - 27 Oct 2017'
p476
tp477
a(S'Former CIA Spy: \xe2\x80\x98Trump-Russia Collusion\xe2\x80\x99 Narrative Was Created By Clinto... https://youtu.be/DzLvj3QqdB4\xc2\xa0 via @YouTube'
p478
S'4:30 PM - 27 Oct 2017'
p479
tp480
a(S'Trump/Russia collusion https://twitter.com/jessphoenix2018/status/924052025301598208\xc2\xa0\xe2\x80\xa6'
p481
S'4:30 PM - 27 Oct 2017'
p482
tp483
a(S"The research was first funded by Republicans. So following Trump's preposteorus  and downright disingenuous logic, the GOP colluded with Russia while looking for collusion between Russia and Trump?!\nhttps://www.nytimes.com/2017/10/27/us/politics/trump-dossier-paul-singer.html?action=Click&contentCollection=BreakingNews&contentID=66009834&pgtype=Homepage\xc2\xa0\xe2\x80\xa6https://twitter.com/realDonaldTrump/status/923905540291522560\xc2\xa0\xe2\x80\xa6"
p484
S'4:30 PM - 27 Oct 2017'
p485
tp486
a(S'I said when this Russia collusion story was first put put by the Democrats that it would come back on them. God has a sense of humor. pic.twitter.com/JZTl3ydnhg'
p487
S'4:30 PM - 27 Oct 2017'
p488
tp489
a(S'The Free Beacon didn\'t have anything to do with the Trump Dossier or Russia. It\'s dishonest to make a claim of "collusion" between them.'
p490
S'4:30 PM - 27 Oct 2017'
p491
tp492
a(S"There is no shame to their game. All of them are Crooked in Collusion with Trump Russia. It's TREASON from Trump to McConnell. All of them https://twitter.com/DerekCressman/status/923763512198930432\xc2\xa0\xe2\x80\xa6"
p493
S'4:30 PM - 27 Oct 2017'
p494
tp495
a(S"What is collusion? Hillary Clinton And Donald Trump's Russia scandals, explained http://bit.ly/2iaOHUI\xc2\xa0pic.twitter.com/mIl7MzKwD5"
p496
S'4:30 PM - 27 Oct 2017'
p497
tp498
a(S'If Lying Trump and Sanders want transparency the Trump should release his tax returns and under oath answer to collusion with Russia NOW'
p499
S'4:29 PM - 27 Oct 2017'
p500
tp501
a(S'Trumpites are all conspiracy fizz! Claims of Clinton-Russia Uranium Collusion Are A Real Empty Barrel via @forbeshttp://www.forbes.com/sites/jamesconca/2017/10/27/claims-of-clinton-russia-uranium-scandal-are-a-real-empty-barrel/#d8766a77b559\xc2\xa0\xe2\x80\xa6'
p502
S'4:29 PM - 27 Oct 2017'
p503
tp504
a(S'Trump, Republicans try to flip the script on Russia collusion pic.twitter.com/9xXWkVAvt5'
p505
S'4:29 PM - 27 Oct 2017'
p506
tp507
a(S'Dems bringing up because of PROOF Clinton & DNC paid for dossier against Trump which was whole basis for the Dems Russia Trump collusion narrative. So this is them trying to deflect.'
p508
S'4:29 PM - 27 Oct 2017'
p509
tp510
a(S'Scandal-Infested Trump,  GOPs Desperately Blunderbuss Faux Conspiracies In Russia collusion - CNN\nAin\xe2\x80\x99t gonna work. https://apple.news/AxywFoo5zRUmYoEcLw3KqyQ\xc2\xa0\xe2\x80\xa6'
p511
S'4:29 PM - 27 Oct 2017'
p512
tp513
a(S'No doubt in my mind that we can achieve friendship with Russia. Collusion to undermine democracy & policy is not the way @realDonaldTrump'
p514
S'4:29 PM - 27 Oct 2017'
p515
tp516
a(S'@potus special counsel for Uraninum One ASAP - Russia /DNC / Clinton Campaign collusion -  #Uraninumgate @foxnews @ABC @NBCNews @CBSNews'
p517
S'4:29 PM - 27 Oct 2017'
p518
tp519
a(S'have you mentioned the Hillary/Russia collusion? @FoxNews @realDonaldTrump @HillaryClinton @MSNBC'
p520
S'4:29 PM - 27 Oct 2017'
p521
tp522
a(S'-Dossier: monitoring Trump & surrogate activities in Russia \n-Collusion: working WITH enemy of US (Russia) to win an election\n@SenJohnMcCainpic.twitter.com/I9YhmCQ16f'
p523
S'4:28 PM - 27 Oct 2017'
p524
tp525
a(S'Cover up for Clinton collusion with Russia. Fusion GPS, $145 Million from Russia to foundation, Podesta Brothers, fake Dossier #Fakenews PBS'
p526
S'4:28 PM - 27 Oct 2017'
p527
tp528
a(S'TOTAL DEFLECTION FROM THE REAL PROBLEM!!!! RUSSIA COLLUSION!!! TRUTH!!! NOT FAKE!!! SHOW THOSE TAXES AS WELL!!! THE CROWN JEWEL!!!'
p529
S'4:28 PM - 27 Oct 2017'
p530
tp531
a(S"the question of collusion w RUssia is not about GOP - it's about the #Trump campaign and family. #WeAreNotThatStupid"
p532
S'4:28 PM - 27 Oct 2017'
p533
tp534
a(S'The same people defending Hillary & Dems for actually colluding with Russia also want to impeach Trump for collusion--with zero proof.'
p535
S'4:28 PM - 27 Oct 2017'
p536
tp537
a(S'@dbongino LOVED your monologue saying what I\xe2\x80\x99ve said: who was DNC genius who thought creating Trump Russia collusion would cover theirs? pic.twitter.com/edBFDzgPgL'
p538
S'4:27 PM - 27 Oct 2017'
p539
tp540
a(S'@donlemon @cnnbrk @VanJones68 \n\nWhere are we at with the Trump / Russia Collusion?\n\nDuh, there is none....\n\nhttps://youtu.be/NaCCG7QkM_c\xc2\xa0'
p541
S'4:27 PM - 27 Oct 2017'
p542
tp543
a(S'GOP eyes end of Russia probes with Trump collusion unanswered http://politi.co/2yQHjG5\xc2\xa0'
p544
S'4:27 PM - 27 Oct 2017'
p545
tp546
a(S'#RUSSIA #URANIUM #HILLARYCLINTONFORPRISON #COLLUSION #DNCCORRUPTION #SETHRICHhttps://twitter.com/GartrellLinda/status/924050430463741952\xc2\xa0\xe2\x80\xa6'
p547
S'4:27 PM - 27 Oct 2017'
p548
tp549
a(S'RealAlexJones: RT @WarRoomShow: WATCH: Ultimate Backfire! CNN Story Admits No Trump-Russia Collusion https://www.pscp.tv/w/1lPJqpQkzweGb\xc2\xa0 #WarRoom LIV\xe2\x80\xa6'
p550
S'4:27 PM - 27 Oct 2017'
p551
tp552
a(S'Why are we getting so much distractions about Hillary Clinton getting close 2 collusion the Russian investigation must continue Trump/Russia'
p553
S'4:27 PM - 27 Oct 2017'
p554
tp555
a(S'Funny fake news MSM saying uranium1  fox news  distract from trump Russia collusion.rrriiight'
p556
S'4:27 PM - 27 Oct 2017'
p557
tp558
a(S'"@BleedingRedDan: Bleeding Red:WAY more evidence Dems colluding with Russia than GOP collusion! RT! #FridayFeeling https://www.pscp.tv/w/bMJfbzFWR1F2RGFlZ1lPak98MVlwS2tXcnZtTW9LalrT67XzHDxLWmqfQ9UpBFZaGUjUaKSL1bZBW0rdY-6o\xc2\xa0\xe2\x80\xa6"'
p559
S'4:27 PM - 27 Oct 2017'
p560
tp561
a(S'#Hillary colluded with #FusionGPS #Russia in order to "expose" #Trump #RussiaGate collusion.  No Trump collusion found.\n#FridayFeeling #MAGA'
p562
S'4:27 PM - 27 Oct 2017'
p563
tp564
a(S"By using the Dems/Russia collusion ruse u've A)blamed @PutinRF(don't go out alone) & B) jumped on the OBSTRUCTION wagon=MANY MORE PRISON YRS"
p565
S'4:26 PM - 27 Oct 2017'
p566
tp567
a(S"Former CIA Spy: 'Trump-Russia Collusion' Narrative Was Created By Clinton Campaign http://www.thegatewaypundit.com/2017/10/former-cia-spy-trump-russia-collusion-narrative-created-clinton-campaign/\xc2\xa0\xe2\x80\xa6"
p568
S'4:25 PM - 27 Oct 2017'
p569
tp570
a(S'New post: "Trump, Republicans try to flip the script on Russia collusion" http://ift.tt/2zTXz9k\xc2\xa0'
p571
S'4:25 PM - 27 Oct 2017'
p572
tp573
a(S'Russia collusion brought to u by Republicans 1st! disgusting! pic.twitter.com/DQl1Vk6bwc'
p574
S'4:25 PM - 27 Oct 2017'
p575
tp576
a(S'//WOTV NEWS//: .EliLake on Russia collusion investigation: "Why is it okay for Democrats to work with a former Bri\xe2\x80\xa6 https://twitter.com/i/web/status/924047752081817600\xc2\xa0\xe2\x80\xa6'
p577
S'4:25 PM - 27 Oct 2017'
p578
tp579
a(S'Now CNN is going for sexual harassment after failing with racism, Russia Collusion, Anti-Semitic. What else will they come up with. Sad.'
p580
S'4:25 PM - 27 Oct 2017'
p581
tp582
a(S"Explain the theory of Clinton collusion with Russia. It makes no sense to me. Also, didn't they claim she colluded with Ukraine?"
p583
S'4:24 PM - 27 Oct 2017'
p584
tp585
a(S'Deflection story Putin is pushing in Russia to affect Trump help in America.  Is this collusion too?'
p586
S'4:24 PM - 27 Oct 2017'
p587
tp588
a(S'Your ZERO EVIDENCE Trump/Russia collusion FAKE NARRATIVE fell to pieces, so you getting desperate now, FAKE NEWS?'
p589
S'4:24 PM - 27 Oct 2017'
p590
tp591
a(S'.@MSNBC and @nytimes Won\xe2\x80\x99t Let Go Of Trump-Russia Collusion Narrative #TTThttp://bit.ly/2y9Bc2C\xc2\xa0'
p592
S'4:24 PM - 27 Oct 2017'
p593
tp594
a(S"Fox's Wallace: Only evidence of Dem collusion with Russia none on GOP http://thehill.com/homenews/media/357514-foxs-wallace-more-evidence-of-dem-collusion-with-russia-than-gop\xc2\xa0\xe2\x80\xa6"
p595
S'4:24 PM - 27 Oct 2017'
p596
tp597
a(S'.@WarRoomShow on #Periscope: Ultimate Backfire! CNN Story Admits No Trump-Russia Collusion https://www.pscp.tv/w/bMJmMTFkcmplWE5ObkRLYkd8MWxQSnFwUWt6d2VHYjj3AjOGLEvfaeUcqVSiXSgBlDGj-vUFf_sBYDqmJLQv\xc2\xa0\xe2\x80\xa6'
p598
S'4:24 PM - 27 Oct 2017'
p599
tp600
a(S'@MikeSilver Why you worried bout what Trump is gonna tweet with all this Hillary/Russia collusion. Lock her up! Lock her up! #CrookedHillary'
p601
S'4:24 PM - 27 Oct 2017'
p602
tp603
a(S"Former CIA Spy: 'Trump-Russia Collusion' Narrative Was Created By Clinton Campaign http://www.thegatewaypundit.com/2017/10/former-cia-spy-trump-russia-collusion-narrative-created-clinton-campaign/\xc2\xa0\xe2\x80\xa6"
p604
S'4:24 PM - 27 Oct 2017'
p605
tp606
a(S'So... Russia just confirmed that there was collusion. Since Donald ALWAYS agrees with Russia, does that mean he admits to collusion now?'
p607
S'4:24 PM - 27 Oct 2017'
p608
tp609
a(S'Fake news and fake President trump/Russia collusion he is running scared. Can tell by the distractions https://twitter.com/realdonaldtrump/status/923905540291522560\xc2\xa0\xe2\x80\xa6'
p610
S'4:24 PM - 27 Oct 2017'
p611
tp612
a(S'#HillaryClinton #Russia #Collusion #Dossier #ClintonFoundation #VladimirPutin #UraniumOne #maga Hey VLad, Hillary says thanks for the cash.pic.twitter.com/w5KlzbkwU0'
p613
S'4:24 PM - 27 Oct 2017'
p614
tp615
a(S'How do I loathe Trump? Let me count the ways, lies, collusion, dotard,  \nRussia, Puerto Rico, ICE... #FBR, #Resist #PetsResist #RWU.'
p616
S'4:23 PM - 27 Oct 2017'
p617
tp618
a(S"Yes she did but it was great to see the bald libtard's head explode like they all are because the real Russia collusion crime is on Hillary"
p619
S'4:23 PM - 27 Oct 2017'
p620
tp621
a(S'In case you wanted to get even more impatient for the Trump/Russia Collusion investigation to conclude. https://twitter.com/justinhendrix/status/924036789052076032\xc2\xa0\xe2\x80\xa6'
p622
S'4:23 PM - 27 Oct 2017'
p623
tp624
a(S"I have facts that point toward Trump collusion with Russia. \n\nYou have poor insults and gifs. \n\nI think I'll stick with my side, thanks."
p625
S'4:23 PM - 27 Oct 2017'
p626
tp627
a(S'Anyone concerned about Trump\xe2\x80\x99s \xe2\x80\x98collusion\xe2\x80\x99 with Russia may want to read this. Gives a different perspective. https://twitter.com/realjameswoods/status/924020903968690176\xc2\xa0\xe2\x80\xa6'
p628
S'4:22 PM - 27 Oct 2017'
p629
tp630
a(S'Trump/Russia collusion, connection, corruption'
p631
S'4:22 PM - 27 Oct 2017'
p632
tp633
a(S"What...no Russian Collusion headlines...oh, that's right, your friend @HillaryClinton  colluded with Russia not @POTUS #UraniumOnepic.twitter.com/Fh8GutUeKO"
p634
S'4:22 PM - 27 Oct 2017'
p635
tp636
a(S'Paying for dossier = oppo research \n\nSecretly meeting with Russian agents to get dirt while Russia is attacking our election = collusion.'
p637
S'4:21 PM - 27 Oct 2017'
p638
tp639
a(S'What happened to Russia. Russia. Russia? You wasted 1 1/2 yrs on @realDonaldTrump collusion. Hmmm'
p640
S'4:21 PM - 27 Oct 2017'
p641
tp642
a(S'Sen Grassley wants a 2nd Special Counself for Dem Russia collusion https://youtu.be/Cv5fauTDHeI\xc2\xa0 via @YouTube'
p643
S'4:21 PM - 27 Oct 2017'
p644
tp645
a(S'Mainstream Media Spent 1,000 Minutes Reporting Alleged Trump-Russia Collusion But Ignored Proven Clinton-Russia... - https://needtoknow.news/2017/10/mainstream-media-spent-1000-minutes-reporting-alleged-trump-russia-collusion-ignored-proven-clinton-russia-uranium-one-collusion/\xc2\xa0\xe2\x80\xa6'
p646
S'4:20 PM - 27 Oct 2017'
p647
tp648
a(S'#LDTPoll: Should GOP leadership order Intel Cmtes to release final reports on Russia probe & turn focus to Uranium one & Clinton collusion?'
p649
S'4:20 PM - 27 Oct 2017'
p650
tp651
a(S"Trump tweets that it's 'commonly agreed' he didn't collude with Russia and accuses Hillary Clinton of collusion\xe2\x80\xa6 http://ceesty.com/wwQnsx\xc2\xa0pic.twitter.com/cdcbtFbbsZ"
p652
S'4:20 PM - 27 Oct 2017'
p653
tp654
a(S"Fox's Wallace: More evidence of Dem collusion with Russia than GOP http://thehill.com/homenews/media/357514-foxs-wallace-more-evidence-of-dem-collusion-with-russia-than-gop#.WfO_MyPtaHY.twitter\xc2\xa0\xe2\x80\xa6"
p655
S'4:20 PM - 27 Oct 2017'
p656
tp657
a(S'Liberals; what\xe2\x80\x99s up with Russia collusion!'
p658
S'4:20 PM - 27 Oct 2017'
p659
tp660
a(S'"Funding research on you" and "collusion with Russia" are two different things.  You are being investigated for collusion, Clinton is not.'
p661
S'4:20 PM - 27 Oct 2017'
p662
tp663
a(S'Donald Trump Points to Hillary Clinton \xe2\x80\x98Collusion\xe2\x80\x99 with #Russia http://s.einnews.com/b8USQR4jDp\xc2\xa0'
p664
S'4:20 PM - 27 Oct 2017'
p665
tp666
a(S'@PressSec (who sold her soul long ago) makes claims of DNC-Hillary-Russia collusion. #FAKE #INSANE #ABSURD #EVIL #DESTRUCTIVE #UNAMERICANpic.twitter.com/Z7A2ZtCmE3'
p667
S'4:19 PM - 27 Oct 2017'
p668
tp669
a(S'.@EliLake on Russia Collusion Investigation: "Why is it okay for Democrats to work with a former British spy?"\n\n#P2pic.twitter.com/JWe0lv5GgL'
p670
S'4:19 PM - 27 Oct 2017'
p671
tp672
a(S"Why aren't you investigating DNC/Russia collusion instead of this small potatoes bs?"
p673
S'4:19 PM - 27 Oct 2017'
p674
tp675
a(S'Prime example of Gov waste. The Trump/Russia collusion came back to bite Democrats and Left media in the ASS!'
p676
S'4:19 PM - 27 Oct 2017'
p677
tp678
a(S'Ben wants to keep the Trump russia collusion thing going?? Go join CNN'
p679
S'4:19 PM - 27 Oct 2017'
p680
tp681
a(S'.@marthamaccallum TYPICAL LYING DNC reps about Russia, collusion, stolen docs, wikileaks, destroyed emails, lying Hillary Clinton, lying Loretta Lynch, lying James Comey, lying IRS, lying Obama, lying Holder, lying Debbie WS, etc al. Good for your other guest who called them out!'
p682
S'4:19 PM - 27 Oct 2017'
p683
tp684
a(S'\xe2\x80\x98That is direct evidence of collusion\xe2\x80\x99: MSNBC analyst says it\xe2\x80\x99s clear Trump is \xe2\x80\x98beholden to Russia\xe2\x80\x99 | Raw Story https://www.rawstory.com/?p=1150723\xc2\xa0'
p685
S'4:19 PM - 27 Oct 2017'
p686
tp687
a(S'Obama appointed Federal Prosecutor Dana Boente to Resign as democrat/Russia collusion heats up https://www.nbcwashington.com/investigations/Top-Federal-Prosecutor-Dana-Boente-to-Resign-453675793.html\xc2\xa0\xe2\x80\xa6 via @nbcwashington'
p688
S'4:18 PM - 27 Oct 2017'
p689
tp690
a(S'@TheStoryFNC @FoxNews @marthamaccallum did I hear that correctly..idiot Zac just accused a guest (Micheal) of being a Russia spy/collusion..'
p691
S'4:17 PM - 27 Oct 2017'
p692
tp693
a(S'@RealJamesWoods Hillary and DNC did Russia collusion, then blamed Trump. Did they also do Whitefish Energy / PR deal?'
p694
S'4:17 PM - 27 Oct 2017'
p695
tp696
a(S'So there IS evidence of Republican collusion with Russia?  #worstprezever #pleaseresign '
p697
S'4:17 PM - 27 Oct 2017'
p698
tp699
a(S'Democrats no longer wants to talk about the whole COLLUSION W/RUSSIA now, umm I wonder why?'
p700
S'4:17 PM - 27 Oct 2017'
p701
tp702
a(S'Notice how the media has been using the word collusion lately, not conspiracy as it relates to Hillary & Russia? Its a fucking conspiracy...'
p703
S'4:17 PM - 27 Oct 2017'
p704
tp705
a(S"all you 'journalists' pushed Cheney's yellow cake just like you push the DNC russia collusion hoax. shame on you"
p706
S'4:16 PM - 27 Oct 2017'
p707
tp708
a(S'#Russia collusion #Dems Yes finally truth is here traitors r known now dummy #Clinton #DNC #Holder #Mueller '
p709
S'4:16 PM - 27 Oct 2017'
p710
tp711
a(S'BBC censoring by omission/ blackout.\nNow More Evidence Of Russia Collusion With Democrats Than Trump http://trib.al/qDMoONB\xc2\xa0 & #UraniumOne'
p712
S'4:16 PM - 27 Oct 2017'
p713
tp714
a(S"Fox's Wallace: More evidence of Dem collusion with Russia than GOP http://thehill.com/homenews/media/357514-foxs-wallace-more-evidence-of-dem-collusion-with-russia-than-gop\xc2\xa0\xe2\x80\xa6"
p715
S'4:15 PM - 27 Oct 2017'
p716
tp717
a(S'\xe2\x80\x98That is direct evidence of collusion\xe2\x80\x99: MSNBC analyst says it\xe2\x80\x99s clear Trump is \xe2\x80\x98beholden to Russia\xe2\x80\x99 https://www.rawstory.com/2017/10/that-is-direct-evidence-of-collusion-msnbc-analyst-says-its-clear-trump-is-beholden-to-russia/\xc2\xa0\xe2\x80\xa6'
p718
S'4:15 PM - 27 Oct 2017'
p719
tp720
a(S'Fox News\xe2\x80\x99 Chris Wallace: Now More Evidence Of Russia Collusion With Democrats Than Trump.  This statement had to pain lib Wallace immensely.'
p721
S'4:15 PM - 27 Oct 2017'
p722
tp723
a(S'JW Pres. Tom Fitton discussing Clinton/Russia Collusion, 72K New Clinton... https://youtu.be/YmcNBVisbqY\xc2\xa0 via @YouTube'
p724
S'4:15 PM - 27 Oct 2017'
p725
tp726
a(S'No, asking: if no collusion found & no charges, then obviously whole "Russia" thing was false.\nWill you believe Mueller\'s findings?'
p727
S'4:15 PM - 27 Oct 2017'
p728
tp729
a(S'Claims of Clinton-Russia Uranium Collusion Are A Real Empty Barrel | Forbes http://bit.ly/2zKh6s4\xc2\xa0 pic.twitter.com/H1GIhItbtd'
p730
S'4:15 PM - 27 Oct 2017'
p731
tp732
a(S'Wrong! Democrats collusion with Russia'
p733
S'4:15 PM - 27 Oct 2017'
p734
tp735
a(S'So funny reading some of these below. The collusion was dossier and uranium. They still think Russia got into DNC without inth of evidence.'
p736
S'4:14 PM - 27 Oct 2017'
p737
tp738
a(S'.EliLake on Russia collusion investigation: "Why is it okay for Democrats to work with a former British spy?"\xe2\x80\xa6 \xe2\x80\xa6 https://twitter.com/FoxNews/status/924047752081817600\xc2\xa0\xe2\x80\xa6'
p739
S'4:14 PM - 27 Oct 2017'
p740
tp741
a(S'Republicans on Trump/Russia - No connection with Russia, Connection but no collusion with Russia, Collusion but Hillary Clinton did too.'
p742
S'4:14 PM - 27 Oct 2017'
p743
tp744
a(S'We now know the true source of the @realDonaldTrump Russia collusion story! http://fxn.ws/2zbmVCK\xc2\xa0 #FoxNews'
p745
S'4:14 PM - 27 Oct 2017'
p746
tp747
a(S'@FoxNews Democrats lied on Trump collusion, see a problem on that? Yet Democrats spent months and years with Russia ,see problem there?'
p748
S'4:14 PM - 27 Oct 2017'
p749
tp750
a(S'You /committees have given no proof to show there was no collusion between your campaign and Russia.As a matter of fact there is proof'
p751
S'4:14 PM - 27 Oct 2017'
p752
tp753
a(S"DISHONEST  at CNN! Yu rpt that Trump accus Collusion Russ and Hill but don't report the proof! Russia pd Clint Found $140 mil for Uran @CNN"
p754
S'4:14 PM - 27 Oct 2017'
p755
tp756
a(S"I'll read it after they give 3000 hrs of air time on Obama/Hillary collusion with Russia & uranium sale and ties to Clinton Foundation"
p757
S'4:14 PM - 27 Oct 2017'
p758
tp759
a(S'FAKE NEWS INCL JOURNALISTS ON FOX NEWS DENYING DOSSIER WAS BASIS 4 TRUMP RUSSIA COLLUSION INVESTIGATION. R THEY IN DENIAL OR COVER UP 4 HRC?'
p760
S'4:13 PM - 27 Oct 2017'
p761
tp762
a(S'@greggutfeld isnt allowed in my fishing boat, too funny, scares the fish. More meat on a cricket than proof of Trump collusion with Russia'
p763
S'4:13 PM - 27 Oct 2017'
p764
tp765
a(S'That\xe2\x80\x99s funny. Turn the channel from msnbc and you might just learn there actually was Russia/US collusion just not with who you hoped.'
p766
S'4:13 PM - 27 Oct 2017'
p767
tp768
a(S'Hey tammy how about collusion clintons and russia where do you stand on that'
p769
S'4:13 PM - 27 Oct 2017'
p770
tp771
a(S'Russia and the CIA and FBI had Kennedy killed. Collusion! Sound familiar?'
p772
S'4:13 PM - 27 Oct 2017'
p773
tp774
a(S'GOP eyes end of Russia probes with Trump collusion unanswered - https://www.politico.com/story/2017/10/27/gop-russia-probes-trump-244217\xc2\xa0\xe2\x80\xa6 via http://news.google.com\xc2\xa0'
p775
S'4:13 PM - 27 Oct 2017'
p776
tp777
a(S'You are allowing a corrupt investigator who has its own russia collusion'
p778
S'4:12 PM - 27 Oct 2017'
p779
tp780
a(S'URANIUM ONE, HILLARY, DNC, OBAMA, FBI COLLUSION WITH RUSSIA? CNN SUCKS!!'
p781
S'4:12 PM - 27 Oct 2017'
p782
tp783
a(S"Trump's latest fantasy: 'Now commonly agreed' no collusion with Russia \xe2\x80\x93 except for Hillary http://www.thenewcivilrightsmovement.com/davidbadash/trump_now_commonly_agreed_no_collusion_with_russia_except_for_hillary\xc2\xa0\xe2\x80\xa6"
p784
S'4:12 PM - 27 Oct 2017'
p785
tp786
a(S"Can't remember anything Collusion With Russia Gone bananas Lack of leadership Plays race card WAIT That's Hillary!  #SignsYoureABadPresident"
p787
S'4:12 PM - 27 Oct 2017'
p788
tp789
a(S'Leftists decry abuse of women, yet are the _real_ abusers. Leftists decry "Russia collusion," yet they collude. Leftists decry racism etc.'
p790
S'4:12 PM - 27 Oct 2017'
p791
tp792
a(S'\xe2\x80\x9cThere is more evidence of Dem collusion with #Russia than GOP.\xe2\x80\x9d pic.twitter.com/gh0R7wzexB'
p793
S'4:12 PM - 27 Oct 2017'
p794
tp795
a(S'\xe2\x80\x98That is direct evidence of collusion\xe2\x80\x99: MSNBC analyst says it\xe2\x80\x99s clear Trump is \xe2\x80\x98beholden to Russia\xe2\x80\x99 - https://www.rawstory.com/2017/10/that-is-direct-evidence-of-collusion-msnbc-analyst-says-its-clear-trump-is-beholden-to-russia/\xc2\xa0\xe2\x80\xa6'
p796
S'4:12 PM - 27 Oct 2017'
p797
tp798
a(S"Clinton Russia collusion keeps getting better and better. It's like Christmas morning every day"
p799
S'4:11 PM - 27 Oct 2017'
p800
tp801
a(S'By every definition of the term \xe2\x80\x9ccollusion\xe2\x80\x9d this email thread proves it happened between TrumpTeam and Russia. Read this thread. https://twitter.com/renato_mariotti/status/923978593331531776\xc2\xa0\xe2\x80\xa6'
p802
S'4:11 PM - 27 Oct 2017'
p803
tp804
a(S'If only it worked that way. You\xe2\x80\x99re under federal investigation for collusion with Russia. It\xe2\x80\x99s commonly agreed that you\xe2\x80\x99re a culero. https://twitter.com/realdonaldtrump/status/923905540291522560\xc2\xa0\xe2\x80\xa6'
p805
S'4:11 PM - 27 Oct 2017'
p806
tp807
a(S'RT FoxNews ".EliLake on Russia collusion investigation: "Why is it okay for Democrats to work with a former Britis\xe2\x80\xa6 https://twitter.com/i/web/status/924047752081817600\xc2\xa0\xe2\x80\xa6"'
p808
S'4:11 PM - 27 Oct 2017'
p809
tp810
a(S'\xe2\x80\x98That is direct evidence of collusion\xe2\x80\x99: MSNBC analyst says it\xe2\x80\x99s clear Trump is \xe2\x80\x98beholden to Russia\xe2\x80\x99 http://ow.ly/2fNg30gbzwf\xc2\xa0'
p811
S'4:11 PM - 27 Oct 2017'
p812
tp813
a(S'FORMER CIA JOHN BRENNAN TESTIFIED B4 CONGRESSIONAL COMMITTEE 5-23-17 DOSSIER WAS THE BASIS 4 TRUMP/RUSSIA COLLUSION INVESTIGATION THUS FISA!'
p814
S'4:11 PM - 27 Oct 2017'
p815
tp816
a(S'#SarahSanders said the only collusion was between Democrats and Russia. Hey Hillary, stop blocking those sanctions already...'
p817
S'4:11 PM - 27 Oct 2017'
p818
tp819
a(S'"Opposition research " and  " collusion with Russia" are 2 very different concepts.  Trump is trying his usual obfuscation tactic.'
p820
S'4:11 PM - 27 Oct 2017'
p821
tp822
a(S'From what I heard, Clinton Crime Family collusion with Russia being pushed by Mueller.  So  Mueller better watch his back.'
p823
S'4:10 PM - 27 Oct 2017'
p824
tp825
a(S'How is it possible that you losers haven\xe2\x80\x99t blamed Trump yet? You must be hard at investing that Trump Russia collusion still. Which C is 4 '
p826
S'4:10 PM - 27 Oct 2017'
p827
tp828
a(S'@MSNBC \nWill MSNBC cover the Dem corruption, UraniumOne & Dem Collusion w Russia? You ran w Trump. Dem, Clinton coming down. How many Dem?'
p829
S'4:10 PM - 27 Oct 2017'
p830
tp831
a(S'Conservative critics for his resignation for Mueller from the Russia collusion probe, amid revelations...'
p832
S'4:10 PM - 27 Oct 2017'
p833
tp834
a(S"Trump tweets that it's 'commonly agreed' he didn't collude with Russia and accuses Hillary Clinton of collusion in\xe2\x80\xa6 http://ift.tt/2zdNruT\xc2\xa0"
p835
S'4:09 PM - 27 Oct 2017'
p836
tp837
a(S'The Left media complex still married to the "dossier" and Trump Russia collusion. Frankly, making fools of themselves at this stage.'
p838
S'4:09 PM - 27 Oct 2017'
p839
tp840
a(S"Try defending Trump's collusion. Instead of trying to insult me. Why did he lie about ALL those Russia meetings? Can you?"
p841
S'4:08 PM - 27 Oct 2017'
p842
tp843
a(S'@TheStoryFNC Zac outragedJr met @ Trump Hotel with lawyer from Russia declared COLLUSION. HRC deals with Russia, Ukraine no big deal. #MAGA'
p844
S'4:08 PM - 27 Oct 2017'
p845
tp846
a(S'To Parrot, U,  TRex Moron "It is now commonly agreed, after many months of looking, that there was NO collusion between Russia and HRC"'
p847
S'4:08 PM - 27 Oct 2017'
p848
tp849
a(S'Only village idiots and liars commonly agree there was no trump-Russia collusion. The rest of us do NOT believe YOUR fake news.'
p850
S'4:08 PM - 27 Oct 2017'
p851
tp852
a(S"The Trump Russia collusion story never made sense and I only took it seriously in that it might not matter if it's true or not."
p853
S'4:08 PM - 27 Oct 2017'
p854
tp855
a(S'Russia-Trump Collusion is a farce.. investigation on Flynn, Manafort, Podesta.. and probably GPS, Hillary, DNC.. Trump probe will be dropped'
p856
S'4:08 PM - 27 Oct 2017'
p857
tp858
a(S"MUST READ: Dems' Russia Collusion Ruse: 'Blame Trump and Hope for the Best' http://dld.bz/gqvV4\xc2\xa0"
p859
S'4:08 PM - 27 Oct 2017'
p860
tp861
a(S"Fox's Wallace: More evidence of Dem collusion with Russia than GOP http://thehill.com/homenews/media/357514-foxs-wallace-more-evidence-of-dem-collusion-with-russia-than-gop#.WfO8Tu3JpSw.twitter\xc2\xa0\xe2\x80\xa6"
p862
S'4:08 PM - 27 Oct 2017'
p863
tp864
a(S'Trump Russia "collusion" based on false narratives in unconfirmed dossier info.. Flynn, Manafort, Podesta are targets as well as DNC/Clinton'
p865
S'4:07 PM - 27 Oct 2017'
p866
tp867
a(S'Starr investigation of Whitewater - 4 yr  Benghazi hearings - 4 yrs                          Investigations into Russia collusion - 9 months'
p868
S'4:06 PM - 27 Oct 2017'
p869
tp870
a(S'READ ALL ABOUT CLINTON COLLUSION WITH RUSSIA, URANIUM ONE, AND DOSSIER THATS THE REAL HEADLINE'
p871
S'4:06 PM - 27 Oct 2017'
p872
tp873
a(S'GOP eyes end of Russia probes with Trump collusion unanswered https://www.politico.com/story/2017/10/27/gop-russia-probes-trump-244217\xc2\xa0\xe2\x80\xa6'
p874
S'4:06 PM - 27 Oct 2017'
p875
tp876
a(S'@CNN had a story today about @HillaryClinton and Russia collusion! I had to log out and log back in, thought my PC broke!'
p877
S'4:06 PM - 27 Oct 2017'
p878
tp879
a(S'Just because Trump says something -- like no collusion with Russia does not make it so. Or make it HC.'
p880
S'4:05 PM - 27 Oct 2017'
p881
tp882
a(S'\xe2\x80\x98That is direct evidence of collusion\xe2\x80\x99:MSNBC analyst says it\xe2\x80\x99s clearTrump \xe2\x80\x98beholden to Russia\xe2\x80\x99 https://www.rawstory.com/2017/10/that-is-direct-evidence-of-collusion-msnbc-analyst-says-its-clear-trump-is-beholden-to-russia/#.WfO7lsGAJ7k.twitter\xc2\xa0\xe2\x80\xa6 #maga #notmypresident'
p883
S'4:05 PM - 27 Oct 2017'
p884
tp885
a(S'Fox News\xe2\x80\x99 Chris Wallace: Now More Evidence Of Russia Collusion With Democrats Than Trump http://dailycaller.com/2017/10/27/fox-news-chris-wallace-now-more-evidence-of-russia-collusion-with-democrats-than-trump/?utm_source=site-share\xc2\xa0\xe2\x80\xa6 via @dailycaller'
p886
S'4:05 PM - 27 Oct 2017'
p887
tp888
a(S'@zknm your #russia #trump collusion theory just went up in smoke https://twitter.com/realDonaldTrump/status/923905540291522560\xc2\xa0\xe2\x80\xa6'
p889
S'4:04 PM - 27 Oct 2017'
p890
tp891
a(S'Collusion evidence was fantastic!  DNC, Hillary, podesta group, it was amazing! We are very happy you colluded with Russia and FB.'
p892
S'4:04 PM - 27 Oct 2017'
p893
tp894
a(S'CNN has absolutely no idea how to handle themselves with this new Russia collusion information....bunch of worthless morons.'
p895
S'4:04 PM - 27 Oct 2017'
p896
tp897
a(S'WSJ calling for Mueller to step down from Special counsel. He is now part of possible suspects in Clinton Russia collusion scandal.'
p898
S'4:03 PM - 27 Oct 2017'
p899
tp900
a(S'@KamVTV @seanhannity @MSNBC @maddow @CNN Right On! America getting tired over fake news,  NO reporting on Clinton/Russia collusion'
p901
S'4:03 PM - 27 Oct 2017'
p902
tp903
a(S'Former CIA Spy: \xe2\x80\x98Trump-Russia Collusion\xe2\x80\x99 Narrative Was Created By Clintons https://youtu.be/DzLvj3QqdB4\xc2\xa0 via @YouTube'
p904
S'4:03 PM - 27 Oct 2017'
p905
tp906
a(S'It was Clinton collusion w Russia &  @DNC @ClintonFdn @HillaryClinton #tcot'
p907
S'4:03 PM - 27 Oct 2017'
p908
tp909
a(S"@ErinBurnett Why are you and CNN still trying to make a case for Trump Russia collusion, Erin? You don't have a single bit of proof!"
p910
S'4:03 PM - 27 Oct 2017'
p911
tp912
a(S'FoxNews: .EliLake on Russia collusion investigation: "Why is it okay for Democrats to work with a former British s\xe2\x80\xa6 https://twitter.com/i/web/status/924047752081817600\xc2\xa0\xe2\x80\xa6'
p913
S'4:02 PM - 27 Oct 2017'
p914
tp915
a(S"Alyssa, how's your Trump Russia Collusion narrative working out?\nYou might want to get your facts right.\n#AlyssaFakeNews"
p916
S'4:02 PM - 27 Oct 2017'
p917
tp918
a(S'.@WarRoomShow on #Periscope: Ultimate Backfire! CNN Story Admits No Trump-Russia Collusion https://www.pscp.tv/w/bMJg8jFQWEtkUlpNR2JvRWV8MWxQSnFwUWt6d2VHYhhLDFKmGq2GLN7OJ8KhFA_FPo3zCLyQGoPHjAyzl56L\xc2\xa0\xe2\x80\xa6'
p919
S'4:02 PM - 27 Oct 2017'
p920
tp921
a(S'The Beat with Ari just cemented the collusion with Russia & Trump campaign ! Putin & Trump trying to deflect & cover up the SHIT they did !'
p922
S'4:02 PM - 27 Oct 2017'
p923
tp924
a(S"Trump tweets that it's 'commonly agreed' he didn't collude with Russia and accuses Hillary Clinton of collusion instead \xe2\x80\xa6"
p925
S'4:02 PM - 27 Oct 2017'
p926
tp927
a(S'Opposition research is not illegal, but working with "muh Russia" adds fuel to the alleged collusion fire.'
p928
S'4:01 PM - 27 Oct 2017'
p929
tp930
a(S'Russia Trump collusion? Muller should resign.'
p931
S'4:01 PM - 27 Oct 2017'
p932
tp933
a(S'WRONG!!! Not commonly agreed. The world agree that there was collusion between Russia & Trump.  Russia have u by the balls.'
p934
S'4:01 PM - 27 Oct 2017'
p935
tp936
a(S'The entire trump Russia collusion story was a paid fabrication by democratic allies'
p937
S'4:01 PM - 27 Oct 2017'
p938
tp939
a(S'You\xe2\x80\x99re right! More disturbing is the FACT that the Democratic Party paid for it,in COLLUSION with Russia. Then lied about it. Blaming Trump https://twitter.com/repadamschiff/status/784481923502448641\xc2\xa0\xe2\x80\xa6'
p940
S'4:01 PM - 27 Oct 2017'
p941
tp942
a(S'Wait until you hear the judge say \xe2\x80\x9cWill the defendant please rise.\xe2\x80\x9d You\xe2\x80\x99ll hear tons of applause  and cheering. #Russia #Collusion #MAGAhttps://twitter.com/donaldjtrumpjr/status/923528435204575233\xc2\xa0\xe2\x80\xa6'
p943
S'4:00 PM - 27 Oct 2017'
p944
tp945
a(S'What do you think the fake investigation on Trump with Russia collusion was?'
p946
S'4:00 PM - 27 Oct 2017'
p947
tp948
a(S'Usual BBC censorship by omission on this. \nMore Evidence Of Russia Collusion With Democrats Than Trump http://trib.al/qDMoONB\xc2\xa0 #UraniumOne'
p949
S'4:00 PM - 27 Oct 2017'
p950
tp951
a(S'Bleeding Red: There is WAY more evidence of Dems colluding with Russia than any GOP collusion! RT! #FridayFeelinghttps://www.pscp.tv/w/bMJfbzFWR1F2RGFlZ1lPak98MVlwS2tXcnZtTW9LalrT67XzHDxLWmqfQ9UpBFZaGUjUaKSL1bZBW0rdY-6o\xc2\xa0\xe2\x80\xa6'
p952
S'4:00 PM - 27 Oct 2017'
p953
tp954
a(S"Right after Mueller reports the only Russia collusion was between  Russians and Clinton campaign. Russians didn't understand the EC either. https://twitter.com/funder/status/924046256372092929\xc2\xa0\xe2\x80\xa6"
p955
S'3:59 PM - 27 Oct 2017'
p956
tp957
a(S'@TomiLahren @realDonaldTrump just watched #abcnews at and not a one mention of the Dems collusion with Russia! #UraniumOneScandal #FakeNews'
p958
S'3:59 PM - 27 Oct 2017'
p959
tp960
a(S"Angry liberals can't take the truth. No collusion between Trump & Russia. All lies perpetrated by DNC & Clinton team, & FBI. Truth is coming"
p961
S'3:59 PM - 27 Oct 2017'
p962
tp963
a(S'The Real Collusion: Hillary, Obama, Democrats and Russia https://www.rushlimbaugh.com/daily/2017/10/27/the-real-collusion-democrats-and-russia/\xc2\xa0\xe2\x80\xa6'
p964
S'3:59 PM - 27 Oct 2017'
p965
tp966
a(S"Top story: Fox's Wallace: More evidence of Dem collusion with Russia than GOP |\xe2\x80\xa6 http://thehill.com/homenews/media/357514-foxs-wallace-more-evidence-of-dem-collusion-with-russia-than-gop\xc2\xa0\xe2\x80\xa6, see more http://tweetedtimes.com/SuperEB?s=tnp\xc2\xa0"
p967
S'3:59 PM - 27 Oct 2017'
p968
tp969
a(S'We\xe2\x80\x99re going to find out about who was in collusion with Russia once this witness testifies. If HRC did nothing wrong then let him talk!'
p970
S'3:58 PM - 27 Oct 2017'
p971
tp972
a(S'.@EliLake on Russia collusion investigation: "Why is it okay for Democrats to work with a former British spy?" #SpecialReportpic.twitter.com/9n7y7skSkp'
p973
S'3:58 PM - 27 Oct 2017'
p974
tp975
a(S'#ClintonCrimeFamily #Hilldenburg: Conrad Black: Russia \xe2\x80\x98Collusion\xe2\x80\x99 Story Is Blowing Up Like the Hindenburg http://www.lifezette.com/polizette/conrad-black-russia-collusion-story-is-blowing-up-like-the-hindenburg/\xc2\xa0\xe2\x80\xa6'
p976
S'3:58 PM - 27 Oct 2017'
p977
tp978
a(S'Hmm. This took the place of DNC/Hillary/FBI/ObamaAdmin collusion with Russia and Uranium giveaway? \nGive me a break, MSM. Time to get real.'
p979
S'3:58 PM - 27 Oct 2017'
p980
tp981
a(S"Trump tweets that it's 'commonly agreed' he didn't collude with Russia and accuses Hillary Clinton of collusion instead \nCLICK BELOW FOR..."
p982
S'3:58 PM - 27 Oct 2017'
p983
tp984
a(S"Funny how we don't hear anything about the Russia collusion now"
p985
S'3:58 PM - 27 Oct 2017'
p986
tp987
a(S'Claims of Clinton-Russia Uranium Collusion Are A Real Empty Barrel via @forbeshttps://www.forbes.com/sites/jamesconca/2017/10/27/claims-of-clinton-russia-uranium-scandal-are-a-real-empty-barrel/#76fd64857b55\xc2\xa0\xe2\x80\xa6'
p988
S'3:57 PM - 27 Oct 2017'
p989
tp990
a(S'LindaSuhler: RT realDonaldTrump: .FoxNews Chris Wallace: \xe2\x80\x9cMore evidence of Dem collusion with Russia than GOP\xe2\x80\x9d http://thehill.com/homenews/media/357514-foxs-wallace-more-evidence-of-dem-collusion-with-russia-than-gop\xc2\xa0\xe2\x80\xa6'
p991
S'3:57 PM - 27 Oct 2017'
p992
tp993
a(S"I'm also old enough to remember when trumpservatives were saying trumps collusion w/russia was cool because he wanted to make em our friends"
p994
S'3:57 PM - 27 Oct 2017'
p995
tp996
a(S"Trump tweets that it's 'commonly agreed' he didn't collude with Russia and accuses Hillary Clinton of collusion\xe2\x80\xa6 http://lat.ms/2hfEQx9\xc2\xa0"
p997
S'3:57 PM - 27 Oct 2017'
p998
tp999
a(S'Are you upset with the collusion that occured between Russia and Hillary or are you fine with that?'
p1000
S'3:57 PM - 27 Oct 2017'
p1001
tp1002
a(S'If you want the real Russia/Collusion Story Read a real newspaper WSJ Even saying #Mueller needs to step aside.  #Kremlinpic.twitter.com/5fOgovdQ9X'
p1003
S'3:56 PM - 27 Oct 2017'
p1004
tp1005
a(S'@maddow let\xe2\x80\x99s hear more about the Clintons/ DNC collusion with Russia. Or the IRS scandal. Your choice #puppet'
p1006
S'3:56 PM - 27 Oct 2017'
p1007
tp1008
a(S'@AnthonyMasonCBS Looking for CBS News\' in depth investigation into DNC/Hillary/Obama admin collusion w/Russia.\nI know: "Not gonna happen."'
p1009
S'3:55 PM - 27 Oct 2017'
p1010
tp1011
a(S' New probe? You are (not) very funny. Yeah better that you start Hillary/Russia collusion and treason probe'
p1012
S'3:55 PM - 27 Oct 2017'
p1013
tp1014
a(S'No leaks lately? Trump Russia collusion story dead end.??'
p1015
S'3:55 PM - 27 Oct 2017'
p1016
tp1017
a(S'I know facts don\xe2\x80\x99t mean squat to you but they do matter when proving felonies and possible federal crimes tied to collusion with Russia.'
p1018
S'3:55 PM - 27 Oct 2017'
p1019
tp1020
a(S'For the sake of US citizens being harassed by Russia since 11/9 do not agree no collusion @MarkWarner @RepAdamSchiffhttps://trumpistanwatch.com/2017/10/27/volker-in-ukraine-pdvsa-payment-day-trump-to-meet-putin-again-in-vietnam-white-house-finally-provides-russia-sanctions-list-as-state-shudders-sanctions-office-antisocial-networks-politico-c/\xc2\xa0\xe2\x80\xa6'
p1021
S'3:55 PM - 27 Oct 2017'
p1022
tp1023
a(S"TRuMp hopes will give more FAKE NEWS 2 tie up the media. BUT the RUSSIA-TRuMp obstruction / COLLUSION still proceeds that he can't stop"
p1024
S'3:54 PM - 27 Oct 2017'
p1025
tp1026
a(S'More proof of YOUR collusion w/Russia is coming! Give it a rest Don the Con pic.twitter.com/cgNIhLVwZi'
p1027
S'3:54 PM - 27 Oct 2017'
p1028
tp1029
a(S"Why is it when Dems meet with Russia, it's just opposition research but when Rebs do it, it's collusion? "
p1030
S'3:53 PM - 27 Oct 2017'
p1031
tp1032
a(S'Chris Wallace: Now More Evidence Of Russia Collusion With Democrats Than Trump http://dailycaller.com/2017/10/27/fox-news-chris-wallace-now-more-evidence-of-russia-collusion-with-democrats-than-trump/?utm_source=site-share\xc2\xa0\xe2\x80\xa6 @DailyCallerpic.twitter.com/Fnh7yiW8od'
p1033
S'3:53 PM - 27 Oct 2017'
p1034
tp1035
a(S'Ok. You show me where there is Trump Russia collusion. Dont use Liberal Bais MSM or Rebulicans that are closet Democraps.'
p1036
S'3:53 PM - 27 Oct 2017'
p1037
tp1038
a(S'Sorry #Democrats....your Trump/Russia crap not going to work Real evidence and FBI INFORMANT will prove Clinton/Russia Collusion #Kremlin'
p1039
S'3:52 PM - 27 Oct 2017'
p1040
tp1041
a(S'I liked a @YouTube video http://youtu.be/59XZJkvPkpc?a\xc2\xa0 CNN Article Proves No Trump Russia Collusion'
p1042
S'3:52 PM - 27 Oct 2017'
p1043
tp1044
a(S"@SenJohnMcCain Now it's clear the real Russia collusion is DNC/Hillary campaign. Time to hang up your POTUS @realDonaldTrump vendetta."
p1045
S'3:52 PM - 27 Oct 2017'
p1046
tp1047
a(S'Amazing! #Dems cannot give up Trump/Russia collusion. Shift to everything but #HRC and her Russia/Uranium connection.'
p1048
S'3:51 PM - 27 Oct 2017'
p1049
tp1050
a(S'Let me fix your typos-you should proofread\nIt is commonly agreed, that  there was collusion between Russia and Trump. NO collusion with HC! https://twitter.com/realDonaldTrump/status/923905540291522560\xc2\xa0\xe2\x80\xa6'
p1051
S'3:51 PM - 27 Oct 2017'
p1052
tp1053
a(S'So glad there was no collusion between Russia and Trump. No need to mention HC. Not worth it.'
p1054
S'3:51 PM - 27 Oct 2017'
p1055
tp1056
a(S'Have I missed something??? Is there finallly some shred of evidence of Trump/Russia collusion??? All I am hearing is Dem/Russia collusion! https://twitter.com/theleadcnn/status/924005800372252672\xc2\xa0\xe2\x80\xa6'
p1057
S'3:50 PM - 27 Oct 2017'
p1058
tp1059
a(S"There never was Trump/Russia collusion, sex anything or pissing hookers, and everyone except the left's seriously insane resistance knew it."
p1060
S'3:50 PM - 27 Oct 2017'
p1061
tp1062
a(S'Lol that\xe2\x80\x99s the best you can come up with because you know the Russia collusion story has collapsed'
p1063
S'3:50 PM - 27 Oct 2017'
p1064
tp1065
a(S"Nuttery has been de rigueur for months with incessant reporting on Trump collusion with Russia. Turns out it was Hillary's Fusion collusion."
p1066
S'3:50 PM - 27 Oct 2017'
p1067
tp1068
a(S'Obama sold our Uranium to Russia, and Clintons got $145million donation for the collusion.\nDems pd for fake dossier.\n#UraniumOne #YouLosehttps://twitter.com/brianefallon/status/923924189886771200\xc2\xa0\xe2\x80\xa6'
p1069
S'3:50 PM - 27 Oct 2017'
p1070
tp1071
a(S"And the Congress will come to conclusion when House Intel ( you too) see docs re #dossier that it's Hillary/Russia collusion, not Trump"
p1072
S'3:50 PM - 27 Oct 2017'
p1073
tp1074
a(S'@JeffreyToobin Russia collusion... "Completely political undertaking." You mean by @thedemocrats, right? You corrupt son of a b!tch? You despicable leftists still don\'t get why you are despised by Americans. Keep it up and you\'ll see a landslide by @realdonaldtrump and @gop'
p1075
S'3:50 PM - 27 Oct 2017'
p1076
tp1077
a(S'I wish you were back on FOX, so you can expose the Hillary collusion with Russia!'
p1078
S'3:49 PM - 27 Oct 2017'
p1079
tp1080
a(S'Trump\xe2\x80\x99s supporters will be shocked when the indictments start and the Russia collusion is proven. I wonder how many won\xe2\x80\x99t believe it? '
p1081
S'3:49 PM - 27 Oct 2017'
p1082
tp1083
a(S"Seems there's evidence of HRC/Russia collusion... EVIDENCE, not innuendo & unnamed sources the left based their accusations of Trump on"
p1084
S'3:49 PM - 27 Oct 2017'
p1085
tp1086
a(S'Conspiracy, collusion, espionage, fraud, leakers, treason, Obama hangovers, Money laundering, & blackmail,  ALL INVOLVED WITH RUSSIA DOSSIER https://twitter.com/DonnaWR8/status/923841983919067136\xc2\xa0\xe2\x80\xa6'
p1087
S'3:49 PM - 27 Oct 2017'
p1088
tp1089
a(S'So there is some evidence of GOP Russia collusion there\xe2\x80\x99s just more of it on the Democratic side? god you\xe2\x80\x99re an idiot'
p1090
S'3:49 PM - 27 Oct 2017'
p1091
tp1092
a(S'Trump/Russia collusion. He is destroying America.'
p1093
S'3:49 PM - 27 Oct 2017'
p1094
tp1095
a(S'Since conservatives are pushing Clinton Collusion Theory, both sides say that Russia was nefarious. Time now for real investigation'
p1096
S'3:49 PM - 27 Oct 2017'
p1097
tp1098
a(S'JW Pres. Tom Fitton discussing Clinton/Russia Collusion, 72K New Clinton Docs, & Purple Heart Battle via YouTube,... http://fb.me/8FfgTSipL\xc2\xa0'
p1099
S'3:49 PM - 27 Oct 2017'
p1100
tp1101
a(S'Former CIA Spy: \xe2\x80\x98Trump-Russia Collusion\xe2\x80\x99 Narrative Was Created By Clinton Campaign: http://youtu.be/DzLvj3QqdB4?a\xc2\xa0 via @YouTube'
p1102
S'3:48 PM - 27 Oct 2017'
p1103
tp1104
a(S'What evidence is out there regarding Trump and Russia collusion? Can anyone,  anyone at all answer that?'
p1105
S'3:48 PM - 27 Oct 2017'
p1106
tp1107
a(S"Important to remember that, like his father, Chris is a devout Democrat, but one of the few remaining, liberal journalists who is dedicated to reporting facts.\nFox's Wallace: More evidence of Dem collusion with Russia than GOP http://thehill.com/homenews/media/357514-foxs-wallace-more-evidence-of-dem-collusion-with-russia-than-gop\xc2\xa0\xe2\x80\xa6"
p1108
S'3:48 PM - 27 Oct 2017'
p1109
tp1110
a.