(lp0
(S'NOT FROM RUSSIA. Pretty much PROVED collusion.'
p1
S'4:56 PM - 12 Oct 2017'
p2
tp3
a(S'russia has been meddling for decades. this is continuing russsia collusion (not even a crime)-fake news. nothing burger. let mueller do his job. sick n tired of this fake story. americans r smart, n they dont vote based on ads.'
p4
S'4:53 PM - 12 Oct 2017'
p5
tp6
a(S'Trump Russia Collusion, Implementing Policy?\nSomething upside down in This Picture? SMDH  https://twitter.com/DavidCornDC/status/918485887696166912\xc2\xa0\xe2\x80\xa6'
p7
S'4:51 PM - 12 Oct 2017'
p8
tp9
a(S'Finally real proof of collusion between Russia and Clinton and my wife said pokemon go was silly.'
p10
S'4:44 PM - 12 Oct 2017'
p11
tp12
a(S'I agree , I am still hoping the investigation of collusion between Russia and Donald Trump in the election comes soon ! https://twitter.com/indyfemy/status/918620985514954752\xc2\xa0\xe2\x80\xa6'
p13
S'4:43 PM - 12 Oct 2017'
p14
tp15
a(S"this is part of cnn's continuing obsession hate trump-reporting, n russia collusion (not even a crime)-fake news. nothing there or it would have been leaked already. let mueller do his job. ppl dont need continuing fake news story. pls be fair n objective, n report real news. pls"
p16
S'4:38 PM - 12 Oct 2017'
p17
tp18
a(S'Keep it up, Trump...your behavior PROVES your collusion with Russia'
p19
S'4:32 PM - 12 Oct 2017'
p20
tp21
a(S'Breaking! Video proof of Pokemon Go Russia collusion! http://redstatewatcher.com/article.asp?id=99353\xc2\xa0\xe2\x80\xa6'
p22
S'4:31 PM - 12 Oct 2017'
p23
tp24
a(S"After a year of BS Russia collusion, now you've dragged Pok\xc3\xa9mon Go into this? "
p25
S'4:30 PM - 12 Oct 2017'
p26
tp27
a(S"#RobertMueller's job is to delay, delay until R's remove Trump and install #Pence- a second coup. Russia collusion will be forgotten."
p28
S'4:26 PM - 12 Oct 2017'
p29
tp30
a(S'Lol! Just the opposite son! You have posted zero proof of Trump/Russia collusion! You have been and are currently still being played!'
p31
S'4:25 PM - 12 Oct 2017'
p32
tp33
a(S'Ttump still in bed with #RUSSIA refuses to sign santions bill Proof of #collusion #Moron #DisasterDon #AdultDayCarepic.twitter.com/GmpL00QFV5'
p34
S'4:25 PM - 12 Oct 2017'
p35
tp36
a(S'Just when I thought the Russia collusion narrative had lost all steam, they pull out.... Pok\xc3\xa9mon. #Pok\xc3\xa9mon #Russia #kidscantvotepic.twitter.com/c8kn9jjR6c'
p37
S'4:20 PM - 12 Oct 2017'
p38
tp39
a(S'Becoming just like Russia collusion story.'
p40
S'4:15 PM - 12 Oct 2017'
p41
tp42
a(S"I'll tell you what, we can bet 5K on http://www.betmoose.com\xc2\xa0 - I bet that collusion with Russia is never proven."
p43
S'4:13 PM - 12 Oct 2017'
p44
tp45
a(S'Russia didnt help him in the 1st term,  we, Americans did and we will do it again! NO EVIDENCE OF RUSSIAN COLLUSION!'
p46
S'4:02 PM - 12 Oct 2017'
p47
tp48
a(S'Trump/Hypocrite and loser.  Trump/Russia collusion. impeach and imprison trump'
p49
S'4:02 PM - 12 Oct 2017'
p50
tp51
a(S'But evidence of collusion between Hillary & Russia has been found.'
p52
S'4:02 PM - 12 Oct 2017'
p53
tp54
a(S'Breaking! Video proof of Pokemon Go Russia collusion! http://russia.trendolizer.com/2017/10/breaking-video-proof-of-pokemon-go-russia-collusion.html\xc2\xa0\xe2\x80\xa6pic.twitter.com/p0X6K0bvpw'
p55
S'4:27 PM - 12 Oct 2017'
p56
tp57
a(S'Oh the irony of the left.\nTrying to find collusion with Russia with the election while having Russian Underwriters for NPR,,, \n'
p58
S'3:58 PM - 12 Oct 2017'
p59
tp60
a(S'He is a hypocrite and a loser. Trump/Russia collusion impeach and imprison trump https://twitter.com/votevets/status/918463082061598720\xc2\xa0\xe2\x80\xa6'
p61
S'3:56 PM - 12 Oct 2017'
p62
tp63
a(S'He got special treatment with closed door hearing and not under oath after admitted collusion with Russia. \nNo public hearings no justice !'
p64
S'3:53 PM - 12 Oct 2017'
p65
tp66
a(S'17 times Dems, Repubs said no evidence of Trump-Russia collusion; 10 times people claimed there was https://sharylattkisson.com/2017/10/07/11-times-dems-repubs-said-no-evidence-of-trump-russia-collusion-10-times-people-claimed-there-was/\xc2\xa0\xe2\x80\xa6'
p67
S'3:49 PM - 12 Oct 2017'
p68
tp69
a(S'So the Russians were colluding and helping Hillary.And still NO evidence in Russia/Trump collusion! http://money.cnn.com/2017/10/12/media/dont-shoot-us-russia-pokemon-go/index.html\xc2\xa0\xe2\x80\xa6'
p70
S'3:48 PM - 12 Oct 2017'
p71
tp72
a(S'Facebook is actively hiding evidence of its collusion with Russia. https://twitter.com/20committee/status/918604757945737216\xc2\xa0\xe2\x80\xa6'
p73
S'3:47 PM - 12 Oct 2017'
p74
tp75
a(S'There is only one way to expose the Russia collusion lies: http://conta.cc/2xvsjQC\xc2\xa0'
p76
S'3:44 PM - 12 Oct 2017'
p77
tp78
a(S'Breaking News: Trump Impeachment imminent d/t smoking gun on #Pokemon #GO app used by Russia in collusion w/ top DT officials #CNN #maga '
p79
S'3:37 PM - 12 Oct 2017'
p80
tp81
a(S'So...don\xe2\x80\x99t say or tweet stupid shit and the press won\xe2\x80\x99t report on it.  Also, your Russia collusion is no help!! #TrumpRussiaCollusion #idiothttps://twitter.com/rvawonk/status/918541836628750337\xc2\xa0\xe2\x80\xa6'
p82
S'3:36 PM - 12 Oct 2017'
p83
tp84
a(S'Breaking!!! New evidence has come to light on the Trump Russia collusion that cost Hillary the 2016 election.... http://fb.me/WhtF7HnO\xc2\xa0'
p85
S'3:36 PM - 12 Oct 2017'
p86
tp87
a(S'It was deliberate did you want them to go to RUSSIA CCN RUSSIA with its collusion with Trump? NO NO NO NO IT CANT'
p88
S'3:35 PM - 12 Oct 2017'
p89
tp90
a(S'@seanhannity haha. Sasse is comical. Hasnt done a damn thing but push a fake Russia collusion witch hunt..only speaks up against Trump'
p91
S'3:32 PM - 12 Oct 2017'
p92
tp93
a(S'Lies Lies Lies, Russia Russia Russia, Collusion, Collusion, Collusion, and now: POTUS is killing everyone with Healthcare. Liberals are nuts'
p94
S'3:29 PM - 12 Oct 2017'
p95
tp96
a(S'VP tied to Flynn/Russia/collusion so he can\xe2\x80\x99t throw trump off ship.'
p97
S'3:26 PM - 12 Oct 2017'
p98
tp99
a(S"Media & Dems went from 'Trump/russia collusion' & 'Treason like we've never seen before', to...\n\nPokemon Go."
p100
S'3:25 PM - 12 Oct 2017'
p101
tp102
a(S'Whatever happened to the Trump-Russia "collusion" investigation? Was it just a fishing expedition?'
p103
S'3:21 PM - 12 Oct 2017'
p104
tp105
a(S"Hacking, then collusion which is now 'meddling'  #LULZ\n  \nDid Russia meddle in U.S. politics more than @cnn ? No\n\n#BlackLiesMatterpic.twitter.com/xs922ZtmO1"
p106
S'3:19 PM - 12 Oct 2017'
p107
tp108
a(S"No evidence of collusion during election but if they find any I'll be sure to send a thank you card to Russia for saving country from HRC."
p109
S'3:19 PM - 12 Oct 2017'
p110
tp111
a(S'"Russia influenced the election using Pokemon Go" was not the hot take I expected in 2017. "IN USA ELECTION, COLLUSION CHOOSE YOU!"'
p112
S'3:17 PM - 12 Oct 2017'
p113
tp114
a(S'#russia #collusion #fakeaccount #Putin #impeachmenthttps://twitter.com/Deemorebz007/status/918514901072703488\xc2\xa0\xe2\x80\xa6'
p115
S'3:13 PM - 12 Oct 2017'
p116
tp117
a(S'Carter page takes the fifth. #russia #collusion'
p118
S'3:11 PM - 12 Oct 2017'
p119
tp120
a(S'russia collusion makes no sense? lies about meetings, ppl in the dossier dieing, ppl pleading the 5th, no russia sanction enforcement... no?'
p121
S'3:08 PM - 12 Oct 2017'
p122
tp123
a(S'That\xe2\x80\x99s false. The msm reports on Russia Russia Russia, and in over a year they have found \xe2\x80\x9cnot one hint of Russian collusion.\xe2\x80\x9d Hillary values Alinsky, if you want to talk about dictatorship 101, Alinsky is the guy, and Hillary valued alinksy\xe2\x80\x99s views'
p124
S'3:06 PM - 12 Oct 2017'
p125
tp126
a(S'REAL NEWS: collusion w/ RUSSIA makes @POTUS ILLEGITIMATE-Vote depressed in WI, MI & PA. @HillaryClinton should b #45http://abcn.ws/2yjNt2L\xc2\xa0'
p127
S'3:03 PM - 12 Oct 2017'
p128
tp129
a(S"Proof of collusion with Russia is in lying fraud conman DJT's tax returns! He's afraid to show Americans his taxes bcuz he's a GODAMN CROOK! pic.twitter.com/kgfiawxDre"
p130
S'2:58 PM - 12 Oct 2017'
p131
tp132
a(S"Yeah, to the tune of \n\n$36,000,000,000.00\n\nHow's that feel?\n\nStandby for Russia collusion investigation tally. \n\n"
p133
S'2:52 PM - 12 Oct 2017'
p134
tp135
a(S'Hillary on the latest evidence of Russia collusion, "I would\'ve campaigned in Wisconsin, but there are no Pikachus in Wisconsin." Pok\xc3\xa9mon Go'
p136
S'2:51 PM - 12 Oct 2017'
p137
tp138
a(S"Omg I can't any more with this Russia collusion none sense. YOU LOST, WE WON BECAUSE WE WANT TRUMP, NOT A LEFTIST HARRIDEN, AS PRESIDENT!"
p139
S'2:51 PM - 12 Oct 2017'
p140
tp141
a(S'But considering how it\xe2\x80\x99s not covered as long as the russia collusion, I take it that it isn\xe2\x80\x99t significant.'
p142
S'2:42 PM - 12 Oct 2017'
p143
tp144
a(S'#BaltimoreRavens #Ravens #Forum BLM and Russia can you say collusion? #RavensNationhttp://dld.bz/gmmNu\xc2\xa0'
p145
S'2:37 PM - 12 Oct 2017'
p146
tp147
a(S"We didn't count on the Russia - Trump collusion."
p148
S'2:33 PM - 12 Oct 2017'
p149
tp150
a(S'More people will die because if this illegitimate Traitor DT, installed by our worst enemy Russia, w DT\xe2\x80\x99s Collusion & Coordination & Treason https://twitter.com/chelseaclinton/status/918253659087163392\xc2\xa0\xe2\x80\xa6'
p151
S'2:32 PM - 12 Oct 2017'
p152
tp153
a(S'This is your daily reminder that the president of the United States is under investigation for collusion with Russia in our election pic.twitter.com/uzkCdtj4Xi'
p154
S'2:31 PM - 12 Oct 2017'
p155
tp156
a(S'@POTUS Russia collusion Trump fake Election popular vote loss pic.twitter.com/mYJqBqOGr7'
p157
S'2:29 PM - 12 Oct 2017'
p158
tp159
a(S"You & your committee are wasting a lot more money investigating Pres Trump's alleged collusion with RUSSIA. He's your president for 7 years"
p160
S'2:29 PM - 12 Oct 2017'
p161
tp162
a(S'Because trump is in collusion with Russia. Impeach if he does not.'
p163
S'2:25 PM - 12 Oct 2017'
p164
tp165
a(S"More importantly, will Facebook tell us if #Russia & Trump Campaign used the same Targeting in their respective Ads?  If so, it's Collusion! https://twitter.com/MyWchu/status/918587050600697856\xc2\xa0\xe2\x80\xa6"
p166
S'2:24 PM - 12 Oct 2017'
p167
tp168
a(S'There is an alarming trend in the news (*yet another* alarming trend): We are now hearing how, "Mueller has NOT YET been able to RULE OUT Trump-Russia Collusion." Rule *out*??? It is obvious to even the most politically naive that there was collusion. Why this change in tone?'
p169
S'2:23 PM - 12 Oct 2017'
p170
tp171
a(S'Senators accuse Trump of ignoring Russia sanctions law #collusion #russiagate #muellertime http://www.washingtonexaminer.com/article/2637212\xc2\xa0 via @dcexaminer'
p172
S'2:23 PM - 12 Oct 2017'
p173
tp174
a(S'NBC doesn\xe2\x80\x99t run with Weinstein story because of \xe2\x80\x9choles in investigation\xe2\x80\x9d yet run with Russia collusion stories every chance they get'
p175
S'2:22 PM - 12 Oct 2017'
p176
tp177
a(S'Leading Lawmakers Wonder Why Trump Is Dragging Feet on Russia Sanctions http://foreignpolicy.com/2017/10/11/leading-lawmakers-wonder-why-trump-is-dragging-feet-on-russia-sanctions/\xc2\xa0\xe2\x80\xa6 #trump #russia #collusion #putin #gop'
p178
S'2:18 PM - 12 Oct 2017'
p179
tp180
a(S'Facebook accused of wiping records of its collusion with Russia during recent US election https://www.washingtonpost.com/news/the-switch/wp/2017/10/12/facebook-takes-down-data-and-thousands-of-posts-obscuring-reach-of-russian-disinformation/\xc2\xa0\xe2\x80\xa6 Transparency works better.'
p181
S'2:12 PM - 12 Oct 2017'
p182
tp183
a(S'That\'s the "new" talking point after Russia collusion burnt out & POTUS did such great job with one disaster after another! Freak out mode?'
p184
S'2:09 PM - 12 Oct 2017'
p185
tp186
a(S'@maddow there is nothing to russia collusion (not even a crime)-fake news. nothing there, or it would have been leaked already. let mueller do his job, n pls stop ur obsession w/ fake news, n work for country by debating tax reform, growth, jobs, n prosperity for all. pls.'
p187
S'2:05 PM - 12 Oct 2017'
p188
tp189
a(S"Don't you have some Russia collusion BS to report??"
p190
S'2:04 PM - 12 Oct 2017'
p191
tp192
a(S'The media has gone from Russia collusion to "Tillerson called Trump a moron"... \n\nThe media is losing their fucking minds. #FakeNews @CNN'
p193
S'1:59 PM - 12 Oct 2017'
p194
tp195
a(S'Russia bought ads for Trump, in strategic areas in battleground states. When proof is publicized that trump & assoc. knew, that\xe2\x80\x99s collusion'
p196
S'1:57 PM - 12 Oct 2017'
p197
tp198
a(S"lazy or pure lemmings fall for every time. It's like the Russia collusion thing - pure 100% BS. But it sounds real bad! So let's get him!"
p199
S'1:51 PM - 12 Oct 2017'
p200
tp201
a(S"Hey @BrookeBCNN & @DylanByers I have a scoop  4 u guys ..from anon source\n..it's Bigfoot next to be blamed #Russia collusion"
p202
S'1:44 PM - 12 Oct 2017'
p203
tp204
a(S'Trumps focus is on collusion..ok..you won..without a doubt...how about a tweet on voter influence by Russia...remember you still win.....'
p205
S'1:41 PM - 12 Oct 2017'
p206
tp207
a(S"Nobody want to hear from you about this. Let's focus on what's real yet again: People dying in California wildfires, people dying from contaminated water in Puerto Rico, people dying because they can't afford medication, Russia Collusion LIES, RACISM, & MUELLER, MUELLER, MUELLER!"
p208
S'1:40 PM - 12 Oct 2017'
p209
tp210
a(S'Is Trump really "losing it" or is he doing his best to get impeached for anything BUT the Russia Collusion since he knows that\'s coming soon'
p211
S'1:37 PM - 12 Oct 2017'
p212
tp213
a(S'That\xe2\x80\x99s what he was asked to do clown. Government said he had WMD\xe2\x80\x99s. Turns out they were wrong just like with Russia collusion pic.twitter.com/IWLK1Xie5f'
p214
S'1:37 PM - 12 Oct 2017'
p215
tp216
a(S'if this media had any information that even hinted at collusion with Russia it would have been front page news. there has been nothing'
p217
S'1:35 PM - 12 Oct 2017'
p218
tp219
a(S"I do believe what you said. I'm just tired of it always being a Trump Russia collusion thing. It was Russia being asshats to all of us"
p220
S'1:30 PM - 12 Oct 2017'
p221
tp222
a(S'there has been no evidence of collusion between Trump & Russia. nothing even leaked from anti Trump Liberal media. all #fakenews paranoia.'
p223
S'1:27 PM - 12 Oct 2017'
p224
tp225
a(S'Fake propaganda like Trump collusion with Russia? Goalposts now about social media?   Please.'
p226
S'1:21 PM - 12 Oct 2017'
p227
tp228
a(S'after the election many in the media were pushing Trump would be impeached because of collusion with Russia. still no evidence of collusion.'
p229
S'1:20 PM - 12 Oct 2017'
p230
tp231
a(S'Been a year how is that Russia collusion going? If Bill Clinton only did something about NK in the 1990s. Thank God Hillary lost'
p232
S'1:17 PM - 12 Oct 2017'
p233
tp234
a(S"There has to be crime. Collusion is not a crime. Russia hoax is the 'crime'. Wpost is chicken little= the enemy. Boycott Amazon @POTUS @VP"
p235
S'1:11 PM - 12 Oct 2017'
p236
tp237
a(S'It\xe2\x80\x99s the easiest thing to show how blind liberals are.  still waiting on russia collusion '
p238
S'1:11 PM - 12 Oct 2017'
p239
tp240
a(S"Of course, @realDonaldTrump won't condemn Russia. Collusion with Russia is the reason he's in office. Now we need to drag him out. #Traitor"
p241
S'1:05 PM - 12 Oct 2017'
p242
tp243
a(S'The real Russia collusion story'
p244
S'1:01 PM - 12 Oct 2017'
p245
tp246
a(S'The Russia collusion desperation is real'
p247
S'12:59 PM - 12 Oct 2017'
p248
tp249
a(S'Yalls 6 month Russia collusion! Has come down to fucking FB ads. Your entire network is a joke'
p250
S'12:57 PM - 12 Oct 2017'
p251
tp252
a(S'The surest evidence of Trump-Russia collusion has always been his own inexplicable behavior. https://twitter.com/thehill/status/918272773981704192\xc2\xa0\xe2\x80\xa6'
p253
S'12:57 PM - 12 Oct 2017'
p254
tp255
a(S'You don\xe2\x80\x99t even know the definition of \xe2\x80\x9cproof\xe2\x80\x9d. You\xe2\x80\x99re sitting here calling Trump a rapist & you believe in Trump/Russia collusion w/o proof'
p256
S'12:56 PM - 12 Oct 2017'
p257
tp258
a(S'@JulianAssange any update regarding pardon for proof of no Russia collusion?'
p259
S'12:54 PM - 12 Oct 2017'
p260
tp261
a(S'Or many of them are being blackmailed?  Illegal contributions to campaigns? Collusion with Russia?'
p262
S'12:49 PM - 12 Oct 2017'
p263
tp264
a(S"I don't see the link to Trump collusion here? Did you not get the CNN memo?  Trump Russia collusion. Trump Russia collusion. Trump Russia..."
p265
S'12:41 PM - 12 Oct 2017'
p266
tp267
a(S"Serious ques:if Bob Mueller says there is evidence of Russia collusion and it trying to influence election in Trump's favor-would u blv thm?"
p268
S'12:29 PM - 12 Oct 2017'
p269
tp270
a(S'@realDonaldTrump missed the congressional deadline for implementing sanctions against Russia for interfering in our election. This is tacit evidence, in my view, of his capitulation to Russia and his likely collusion with them in getting him elected.'
p271
S'12:24 PM - 12 Oct 2017'
p272
tp273
a(S"GOP senator says it's time to 'move on' from probe of Russia collusion, Trump obstruction - Politics News - ABC ... http://ref.gl/4E5LyQaf\xc2\xa0"
p274
S'12:22 PM - 12 Oct 2017'
p275
tp276
a(S'I believe trump collusion with Russia started years ago fake news about everything ! he lies they support!  twitter supporters Non american'
p277
S'12:21 PM - 12 Oct 2017'
p278
tp279
a(S"Yes, Russia worked to increase hate & division within the US, which sadly fed right into Trump's agenda and platform, w/ or w/out collusion."
p280
S'12:18 PM - 12 Oct 2017'
p281
tp282
a(S".@GOP It cannot be more obvious that there's collusion, and we are now being governed by Russia. Are you part of it or will you defend us?"
p283
S'12:11 PM - 12 Oct 2017'
p284
tp285
a(S'To this day there is no evidence of collusion with Russia, despite some evidence of interference. The election is legitimate - @KimStrassel'
p286
S'11:57 AM - 12 Oct 2017'
p287
tp288
a(S'BREAKING: CNN Uncovers \xe2\x80\x9cTrump/Russia Collusion\xe2\x80\x9d Bombshell - Tea Party News https://www.teaparty.org/breaking-cnn-uncovers-trumprussia-collusion-bombshell-271329/\xc2\xa0\xe2\x80\xa6'
p289
S'11:57 AM - 12 Oct 2017'
p290
tp291
a(S'What about the money being wasted paying your salary to investigate Trump Russia collusion??'
p292
S'11:50 AM - 12 Oct 2017'
p293
tp294
a(S'The #Collusion story continues ... \n#USA #Russia #RussiaGate #TrumpRussiahttps://twitter.com/realDailyWire/status/918544386039910400\xc2\xa0\xe2\x80\xa6'
p295
S'11:49 AM - 12 Oct 2017'
p296
tp297
a(S'The free press is the only reason we know what we do about Russia and collusion. The GOP are obstructing and dragging their feet. #impeach'
p298
S'11:40 AM - 12 Oct 2017'
p299
tp300
a(S"I for am tired of the witch hunt collusion (Trump & Russia) that's costing taxpayers a ton of money. Money that could be put to better use"
p301
S'11:39 AM - 12 Oct 2017'
p302
tp303
a(S'@realDonaldTrump failed to implement Russia Sanctions? I wonder why a "President" would do that.....oh yeah - COLLUSION.\n\n#25thAmendmentNow'
p304
S'11:35 AM - 12 Oct 2017'
p305
tp306
a(S'The only reason that some are saying that there was collusion between Pres. Trump and Russia is becasue the British and American intel agencies said so. The real collusion was between FBI and MI6.'
p307
S'11:26 AM - 12 Oct 2017'
p308
tp309
a(S'had himself 2blame as his collusion with Russia and his own mouth are  on him! #SocialClimbing it is,tincel-town feeds gossip club of USA2!https://twitter.com/maimedintheusa/status/918541879704031232\xc2\xa0\xe2\x80\xa6'
p310
S'11:24 AM - 12 Oct 2017'
p311
tp312
a(S'6/ and demanded change. So then we hear Russia, collusion, Flynn, Kushner, Jr, Manafort, etc. Nothing has been found. Nothing. So like it..'
p313
S'11:18 AM - 12 Oct 2017'
p314
tp315
a(S"Russia-Trump campaign collusion an 'open' issue, says Senate panel chief http://ref.gl/\xc2\xa0"
p316
S'11:13 AM - 12 Oct 2017'
p317
tp318
a(S'No Russia collusion unless you can provide real proof which has not surfaced since he won'
p319
S'11:12 AM - 12 Oct 2017'
p320
tp321
a(S'How about releasing whatever evidence you have on Trump-Russia collusion? Oh that\xe2\x80\x99s right you can\xe2\x80\x99t because you DO NOT have any evidence!'
p322
S'11:11 AM - 12 Oct 2017'
p323
tp324
a(S'He simply made it an issue to play to his neo nazi, alt-right base and try to detract from the investigation into his collusion w/Russia.'
p325
S'11:09 AM - 12 Oct 2017'
p326
tp327
a(S'How is kneeling more unpatriotic than collusion with Russia to steal an election?'
p328
S'11:05 AM - 12 Oct 2017'
p329
tp330
a(S'Your continued collusion with pacification of Putin & Russia, OUR ENEMY, is treasonous and morally WRONG. Yeah, we hate you. pic.twitter.com/It3io0zZqD'
p331
S'11:00 AM - 12 Oct 2017'
p332
tp333
a(S'RUSSIA RUSSIA @Robert Mueller? ? Evidence of collusion with Hillary & Russia per John Podesta'
p334
S'10:41 AM - 12 Oct 2017'
p335
tp336
a(S"Question is, how does the FBI know only after a few days, when they can't even find any collusion with Russia/Trump after almost a year?"
p337
S'10:40 AM - 12 Oct 2017'
p338
tp339
a(S'Just went by tv in time to hear joy say president Trump guilty of the Russia collusion without any evidence . Time to go to sponsors pic.twitter.com/qzQ5kPFLs9'
p340
S'10:39 AM - 12 Oct 2017'
p341
tp342
a(S'just like Russia collusion??? Never happened, get over it, keep wondering why your follower numbers are dropping too!! Dummy'
p343
S'10:38 AM - 12 Oct 2017'
p344
tp345
a(S'Could we reverse a hacked presidential election? #Russia #Trump #Collusion #Traitor #Treason #Impeachmenthttp://google.com/newsstand/s/CBIw-rnSqTY\xc2\xa0\xe2\x80\xa6'
p346
S'10:37 AM - 12 Oct 2017'
p347
tp348
a(S'We all know in time, this story will be proven to be true. Just like russia collusion. Manafort guilt. Flynn guilt. Etc'
p349
S'10:35 AM - 12 Oct 2017'
p350
tp351
a(S'Any petition 2 OUTS U 4 WAISTING taxpayer $$ on \'Russia Collusion\'? POISED 2 #MAGA, our @POTUS @realDonaldTrump\'s wrds:"Till The Bitter End"'
p352
S'10:32 AM - 12 Oct 2017'
p353
tp354
a(S"Senate panel chief calls Russia-Trump campaign collusion an 'open' issue http://ref.gl/\xc2\xa0"
p355
S'10:29 AM - 12 Oct 2017'
p356
tp357
a(S'She needs to suck it up like a big girl and move on. And this Trump/Russia collusion nonsense that was made up by the DNC to explain to'
p358
S'10:22 AM - 12 Oct 2017'
p359
tp360
a(S'It\xe2\x80\x99s coming. It takes time to investigate all the collusion with Russia. Even Steve Bannon says he won\xe2\x80\x99t finish his term'
p361
S'10:21 AM - 12 Oct 2017'
p362
tp363
a(S'There is an ongoing investigation on his campaigns collusion with Russia.  #AmericawithoutTrump'
p364
S'10:19 AM - 12 Oct 2017'
p365
tp366
a(S'You, tweeting about leaked e-mails. It\'s just too too good LOL How did that collusion with Russia go again? "But no one knew..." hahaha I AM DEAD - you cannot make this stuff up https://twitter.com/DonaldJTrumpJr/status/918467061160054784\xc2\xa0\xe2\x80\xa6'
p367
S'10:16 AM - 12 Oct 2017'
p368
tp369
a(S'We did elect her.  By a landslide.  Trump won because of collusion with Russia.  Full stop.'
p370
S'10:03 AM - 12 Oct 2017'
p371
tp372
a(S'Russia collusion fade??? Seems like it\xe2\x80\x99s picking up speed.'
p373
S'10:03 AM - 12 Oct 2017'
p374
tp375
a(S'something on my mind lately: where does the John Birch Society (whatever remains of it) stand on Trump-Russia collusion'
p376
S'10:01 AM - 12 Oct 2017'
p377
tp378
a(S'After \xe2\x80\x9c100 interviews, 250 hours of testimony, 4000 transcript pages\xe2\x80\x9d there\xe2\x80\x99s not a hint of Trump/Russia collusion. https://www.counterpunch.org/2017/10/12/wheres-the-beef-the-senate-intel-committee-and-russia/\xc2\xa0\xe2\x80\xa6'
p379
S'10:00 AM - 12 Oct 2017'
p380
tp381
a(S'Most egregious? I dunno. There isn\xe2\x80\x99t some hierarchy here. all nonsense. Still banging the Russia collusion drum is laughable at this point..'
p382
S'9:58 AM - 12 Oct 2017'
p383
tp384
a(S'@realDonaldTrump,U R SETTING THE GROUND WORK "FAKE NEWS" SO U CAN CLAIM "FAKE NEWS" WHEN MUELLER FINDS U GUILTY OF COLLUSION WITH RUSSIA!'
p385
S'9:58 AM - 12 Oct 2017'
p386
tp387
a(S'not Impeach? Is the House Repubs in on the collusion with Russia? Did RNC pay for Trump to be pushed forward over Hillary? Impeach them all.'
p388
S'9:53 AM - 12 Oct 2017'
p389
tp390
a(S'You know this Weinstein Perv Story broke by the failing NYT because the Russia Collusion story was blowing up in their faces. Deflecting. pic.twitter.com/Kj4aj6RxlB'
p391
S'9:49 AM - 12 Oct 2017'
p392
tp393
a(S"Only 6 GOP Reps showed up. SIX Ryan's role in keeping Awan & HRC crimes hush hush while green lighting Russia collusion hearings came up."
p394
S'9:46 AM - 12 Oct 2017'
p395
tp396
a(S'BREAKING: CNN Uncovers "Trump/Russia Collusion" Bombshell http://russia.trendolizer.com/2017/10/breaking-cnn-uncovers-trumprussia-collusion-bombshell.html\xc2\xa0\xe2\x80\xa6pic.twitter.com/BIgZkCANAA'
p397
S'9:43 AM - 12 Oct 2017'
p398
tp399
a(S'What ever happened to "collusion"?\n\nhttp://bit.ly/2yHE3j4\xc2\xa0\n#avlnews #wncnews #Russia @MZHemingwayhttps://twitter.com/news_BPR/status/918439995844722688\xc2\xa0\xe2\x80\xa6'
p400
S'9:40 AM - 12 Oct 2017'
p401
tp402
a(S'@KennedyNation @HARRISFAULKNER @LisaMarieBoothe All is Russia collusion but only collusion was CNN/DNC cheating&lying to affect election.'
p403
S'9:40 AM - 12 Oct 2017'
p404
tp405
a(S'They lead right back to @FBI .... Comey had this garbage included in Russia collusion evidence, R u kidding me'
p406
S'9:39 AM - 12 Oct 2017'
p407
tp408
a(S"WHY WON'T YOU DROP THESE STUPID HEARINGS AGAINST RUSSIA COLLUSION & LOOK AT THE REAL ELECTION CRIMINALS...THE DNC!"
p409
S'9:39 AM - 12 Oct 2017'
p410
tp411
a(S"#realDonaldTrump Why won't you implement sanctions on Russia? Does a golden shower have something to do with it? The Russian mtgs at WH held in secret? Your collusion with Russia that got you elected? https://twitter.com/thehill/status/918216155260686336\xc2\xa0\xe2\x80\xa6"
p412
S'9:31 AM - 12 Oct 2017'
p413
tp414
a(S'This will not keep people from believe the facts when all the Russia collusion with you and your family comes out!'
p415
S'9:31 AM - 12 Oct 2017'
p416
tp417
a(S'Try and act surprised, @realDonaldTrump missed the DEADLINE to implement Sanctions passed against Russia, by congress. #Collusion #Owned'
p418
S'9:31 AM - 12 Oct 2017'
p419
tp420
a(S"Best journalism I've read regarding Russia collusion\nhttps://theconservativetreehouse.com/2017/05/23/massive-contradiction-john-brennan-completely-contradicts-fbi-director-james-comey-on-congressional-notification/\xc2\xa0\xe2\x80\xa6"
p421
S'9:25 AM - 12 Oct 2017'
p422
tp423
a(S"Your still trying to distract from your failures, don. It's not working! The tRump/Russia collusion investigation continues."
p424
S'9:24 AM - 12 Oct 2017'
p425
tp426
a(S'Russian collusion and campaign financing from Russia'
p427
S'9:23 AM - 12 Oct 2017'
p428
tp429
a(S'tell me where is the Russian  collusion at Clinton gave Russia 1/3 uranium from the US'
p430
S'9:21 AM - 12 Oct 2017'
p431
tp432
a(S'Exhausting:\nTrump Ignorance & Incompetence\nTrump-Russia Collusion & Hacking\nEmoluments\nNukes & WWIII\nHurricanes & Wildfires\nHealthcare'
p433
S'9:20 AM - 12 Oct 2017'
p434
tp435
a(S"Let's talk about real things. RUSSIA, FACTS, RUSSIAN DOSIER, Jared's LUES, Don Jr's LIES, DISAPPROVAL RATINGS, COLLUSION, OBSTRUCTION OF JUSTICE, Trump's OVERREACH, and always always MUELLER!!"
p436
S'9:18 AM - 12 Oct 2017'
p437
tp438
a(S'@DeRushaJ You want specific examples of media lies about Trump. We had 6 months of Russia, Russia, Russian collusion. This was all lies.'
p439
S'9:11 AM - 12 Oct 2017'
p440
tp441
a(S'That will turn out to be a embarrassment for Mueller. All this time and no Collusion with Russia and the @POTUS. Waste of time.'
p442
S'9:11 AM - 12 Oct 2017'
p443
tp444
a(S'big?? red??? communism????? collusion ties to russia confirmed'
p445
S'9:05 AM - 12 Oct 2017'
p446
tp447
a(S'His nepotism,conflict of interests &possible collusion w Russia makes him unfit. Re: mental health. see this article http://www.independent.co.uk/news/world/americas/us-politics/donald-trump-psychiatrists-madness-catching-goldwater-rule-yale-dr-bandy-lee-a7971326.html\xc2\xa0\xe2\x80\xa6'
p448
S'9:04 AM - 12 Oct 2017'
p449
tp450
a(S'Yet still no "proof" of any Trump/Russia collusion!! Lol None! Zero! Nada!'
p451
S'9:03 AM - 12 Oct 2017'
p452
tp453
a(S'Assange Confirms Roger Stone\xe2\x80\x99s Account Of Russia - The establishment still has no evidence of Russian collusion... http://ow.ly/Ogld50ezkEk\xc2\xa0'
p454
S'9:00 AM - 12 Oct 2017'
p455
tp456
a(S'Why would YOU the people want ELECTED officials in office that sees the continuous destruction from 2016 election, to collusion with Russia?'
p457
S'8:57 AM - 12 Oct 2017'
p458
tp459
a(S'Trump Says Democrats Use Russia Collusion as Excuse to Justify Their Failure: https://sputniknews.com/us/201710121058155133-trump-democrats-russia-collusion-excuse/\xc2\xa0\xe2\x80\xa6 via @SputnikInt'
p460
S'8:48 AM - 12 Oct 2017'
p461
tp462
a(S'Trump is killing American people by taking health care away and food stamps Impeach Trump obstruction of justice collusion with Russia'
p463
S'8:45 AM - 12 Oct 2017'
p464
tp465
a(S'He\xe2\x80\x99s crooked as can be and in on the Russia collusion.  Sad days for America while old white men play games.  @SenateMajLdr'
p466
S'8:33 AM - 12 Oct 2017'
p467
tp468
a(S'Trumps collusion with Russia, the way he treated Puerto Rico, and the fact that he is a sexual predator. All in the span of a week (2/2)'
p469
S'8:32 AM - 12 Oct 2017'
p470
tp471
a(S"Repubs in Congress fail to act despite concerns of President's sanity, ethics violations, collusion w/ Russia, & his failure to execute duty"
p472
S'8:29 AM - 12 Oct 2017'
p473
tp474
a(S'the Trump campaign\xe2\x80\x99s data operation could point to collusion between Trump and Russia.'
p475
S'8:28 AM - 12 Oct 2017'
p476
tp477
a(S'This is not going to stop the Mueller Russia collusion and Trump obstruction investigation. https://www.youtube.com/watch?v=hinigj1sIxA&sns=tw\xc2\xa0\xe2\x80\xa6 via @youtube'
p478
S'8:24 AM - 12 Oct 2017'
p479
tp480
a(S'Hmm interesting!Deep state Dems leak EVERYTHING on POTUS except actual evidence of Russia Collusion. https://twitter.com/rediornot49/status/918476357587341312\xc2\xa0\xe2\x80\xa6'
p481
S'8:21 AM - 12 Oct 2017'
p482
tp483
a(S'.@GOP collusion with Russia from the putin puppet traitor republican president down to the lowest level of the party Rotten top to bottom https://twitter.com/progressoutlook/status/918478440378093568\xc2\xa0\xe2\x80\xa6'
p484
S'8:14 AM - 12 Oct 2017'
p485
tp486
a(S'This is a distraction from the real issues. Corker, Muller.. Collusion with Russia. Someone take his phone.. the "Fucking Moron"'
p487
S'8:11 AM - 12 Oct 2017'
p488
tp489
a(S'You say not fair if they disagree without and point out the truth.  Russia collusion - bad.  Your poor performance- bad. Worst POTUS ever.'
p490
S'8:10 AM - 12 Oct 2017'
p491
tp492
a(S"I totally agree. But he will also probably be implicated in the Russia collusion so it won't be for long if he did take over."
p493
S'8:09 AM - 12 Oct 2017'
p494
tp495
a(S'i\xe2\x80\x99m sure Mueller has recordings of trump discussing collusion w/ Russia. i hope we all get to hear those.'
p496
S'8:09 AM - 12 Oct 2017'
p497
tp498
a(S'More Russia collusion by @realDonaldTrump?: Leading Lawmakers Wonder Why Trump Is Dragging Feet on Russia Sanctions http://foreignpolicy.com/2017/10/11/leading-lawmakers-wonder-why-trump-is-dragging-feet-on-russia-sanctions/\xc2\xa0\xe2\x80\xa6'
p499
S'8:09 AM - 12 Oct 2017'
p500
tp501
a(S'There must be big news coming out, your collusion with Russia to steal the election FAKE PRESIDENT, TRAITOR.  FYI, P. R. is part of AMERICA!'
p502
S'8:02 AM - 12 Oct 2017'
p503
tp504
a(S'"accused" and all had as much validity as trump Russia collusion... I know you are brainwashed and love your false celeb idols.... #SAD'
p505
S'8:00 AM - 12 Oct 2017'
p506
tp507
a(S'Russia is arming Taliban \nDT needs foreign policy win\nCaitlan Coleman/fam released\nGood TrumpRussia collusion?\n\nhttps://www.theatlantic.com/international/archive/2017/08/russia-taliban-weapons/537807/?utm_source=twb\xc2\xa0\xe2\x80\xa6'
p508
S'7:55 AM - 12 Oct 2017'
p509
tp510
a(S"Your fake presidency/ collusion with Russia and money laundering gives RESPONSIBLE news lots to report.They don't need FAKE News #TrumpCrook"
p511
S'7:50 AM - 12 Oct 2017'
p512
tp513
a(S'His tax returns are currently embroiled in the #FakeInvestigation into non-existent Trump/Russia collusion in the 2016 election.'
p514
S'7:50 AM - 12 Oct 2017'
p515
tp516
a(S"We don't know yet if there was Trump/Russia collusion ... we do, however, know w/certainty that Russia interfered in our election!"
p517
S'7:49 AM - 12 Oct 2017'
p518
tp519
a(S'They might not have proven collusion, but how did Russia know which gerrymandered districts to Target with ads on Facebook and Google?'
p520
S'7:46 AM - 12 Oct 2017'
p521
tp522
a(S'Fuk Facebook an their collusion with Russia'
p523
S'7:42 AM - 12 Oct 2017'
p524
tp525
a(S"DUDE enough with Russia collusion hoax. It's over, nothing, nada..."
p526
S'7:41 AM - 12 Oct 2017'
p527
tp528
a(S"Turned on CNN and no breaking news! Russia collusion story. What's going on over there at CNN? I need my Russia story."
p529
S'7:41 AM - 12 Oct 2017'
p530
tp531
a(S'There was no Russia-Trump collusion. There is however, Democrat-Russia collusion.'
p532
S'7:38 AM - 12 Oct 2017'
p533
tp534
a(S"Also i'm still waiting to see any evidence of collusion between Trump and Russia. almost every major claim they've made has been walked back or found untrue after actual investigation. It's just a way for Democrats to avoid taking any responsibility for their failures."
p535
S'7:37 AM - 12 Oct 2017'
p536
tp537
a(S'Mr. Lieu let\xe2\x80\x99s not forget \xe2\x80\x9cFakeNews\xe2\x80\x9d also exposed his sexual predator behavior His corruptions and is exposing Russia Collusion as well!'
p538
S'7:32 AM - 12 Oct 2017'
p539
tp540
a(S'Inciting violence, his words at pre-election rallies, are criminal, #1. Collusion with a foreign power, openly speaking for Russia to hack'
p541
S'7:31 AM - 12 Oct 2017'
p542
tp543
a(S'Recall that the "Russia collusion" narrative was the Dem\'s attempt to divert attention from the sexism, corruption and media collusion exposed in Podesta\'s emails. They have succeeded.'
p544
S'7:27 AM - 12 Oct 2017'
p545
tp546
a(S"I'm sure mostly just infidelity. Or prostitute activity, risking *trafficking* charges. Or collusion w #russia also... Many possibilities."
p547
S'7:24 AM - 12 Oct 2017'
p548
tp549
a(S"Because?????  You're ending the salvation of Puerto Rico? You're starting nuclear war with Iran and NK? You're in collusion w/ Russia"
p550
S'7:20 AM - 12 Oct 2017'
p551
tp552
a(S'Please don\xe2\x80\x99t disregard the russian/trump collusion & hacking. Hillary had 3 mil more votes + russia hacked our voting machines. It was more.'
p553
S'7:18 AM - 12 Oct 2017'
p554
tp555
a(S'"maybe Mueller should be assigned task so he stops looking into my treason & collusion with Russia..............................'
p556
S'7:17 AM - 12 Oct 2017'
p557
tp558
a(S'Devin Nunes: No credible evidence of Russia-Trump collusion https://usat.ly/2sgJYoH\xc2\xa0 via @USATODAY'
p559
S'7:15 AM - 12 Oct 2017'
p560
tp561
a(S"So, there really wasn't any collusion between Trump & Russia?! Really? Well, that must be news to liberals but... http://fb.me/2GvesdO64\xc2\xa0"
p562
S'7:14 AM - 12 Oct 2017'
p563
tp564
a(S"Trump hates being president. I wonder if he's setting himself up to be impeached for the things he's doing rather than the Russia Collusion"
p565
S'7:12 AM - 12 Oct 2017'
p566
tp567
a(S'Senators: Probe Into Possible Trump-Russia Collusion Ongoing http://ref.gl/79u5Fsy7\xc2\xa0'
p568
S'7:08 AM - 12 Oct 2017'
p569
tp570
a(S'So now we will have proof of the collusion between Facebook and Russia. Goody! "Russia-linked" & "Russia RELATED". Meaning what exactly?'
p571
S'7:07 AM - 12 Oct 2017'
p572
tp573
a(S"That he was fairly elected. They completely ignore Russia's influence in swing states. And Trump's obvious collusion with Russia."
p574
S'7:04 AM - 12 Oct 2017'
p575
tp576
a(S"Tweeting nonsense 2 deflect us from your COLLUSION W/ RUSSIA GOVT, it isn't working. How much $ are U taking from donors 2 pay your lawyers?"
p577
S'7:03 AM - 12 Oct 2017'
p578
tp579
a(S'JOHN SHUT THE HELL UP u traitor who gave $$ 2 plot against Pres In Russia collusion EID #Maga #FLAG'
p580
S'7:00 AM - 12 Oct 2017'
p581
tp582
a(S"Is it? No wonder why you don't want to admit that the last year of a Russia/Collusion conspiracy theory is just that. Can you admit it?"
p583
S'6:59 AM - 12 Oct 2017'
p584
tp585
a(S'still waiting for that Russia collusion evidence hotshot.'
p586
S'6:49 AM - 12 Oct 2017'
p587
tp588
a(S'T\xc3\xb4i \xc4\x91\xc3\xa3 th\xc3\xaam video v\xc3\xa0o danh s\xc3\xa1ch ph\xc3\xa1t http://youtu.be/vOIEyYEWDO8?a\xc2\xa0 BREAKING: CNN Uncovers \xe2\x80\x9cTrump/Russia Collusion\xe2\x80\x9d Bombshell'
p589
S'6:48 AM - 12 Oct 2017'
p590
tp591
a(S'@wikileaks PLEASE COME OUT WITH THE HILARY/ RUSSIA COLLUSION ALREADY. She needs to go to jail. #LockHerUp'
p592
S'6:46 AM - 12 Oct 2017'
p593
tp594
a(S"It doesn't negate my arguement! He hasn't been lied about? Here this sinks your ship of blind ignorance...Russia Collusion conspiracy theory"
p595
S'6:41 AM - 12 Oct 2017'
p596
tp597
a(S'you fool.....TRUMP HAS BEEN EXONERATED FROM THE DEMOCRAT PAID "RUSSIA/COLLUSION" fest..... https://twitter.com/ProgressOutlook/status/918468571516325888\xc2\xa0\xe2\x80\xa6'
p598
S'6:41 AM - 12 Oct 2017'
p599
tp600
a(S'Democrats Get Desperate As Accusations of Trump Russia Collusion Fade https://www.washingtonpost.com/blogs/post-partisan/wp/2017/10/10/democrats-get-desperate-as-accusations-of-trump-russia-collusion-fade/?utm_term=.7b04e06bd3b7\xc2\xa0\xe2\x80\xa6'
p601
S'6:39 AM - 12 Oct 2017'
p602
tp603
a(S'@facebook @DNC @HillaryClinton conspired against @BernieSanders thats the real collusion not @realDonaldTrump & Russia such Hippocrates 1USA'
p604
S'6:39 AM - 12 Oct 2017'
p605
tp606
a(S"There's so much dirt on Trump it takes time to get all the evidence of his collusion with Russia.\nNew meetings discovered every day."
p607
S'6:36 AM - 12 Oct 2017'
p608
tp609
a(S'Peace is clearly not the goal of our current government. Please cover their corruption, their collusion with Russia. Follow the money. NOW.'
p610
S'6:36 AM - 12 Oct 2017'
p611
tp612
a(S'He is doing it to divert attention from the Russia Collusion story. He will let scores die in an attempt to hide the truth. He is deranged.'
p613
S'6:35 AM - 12 Oct 2017'
p614
tp615
a(S'The same Assange promising emails to kill the Trump/Russia collusion hoax.'
p616
S'6:34 AM - 12 Oct 2017'
p617
tp618
a(S'This is a rejected Trump employee who now sees Russian collusion everywhere except with Hillary who sold Uranium for a bribe to Russia'
p619
S'6:34 AM - 12 Oct 2017'
p620
tp621
a(S"But noooo.....   let's just investigate Russia/Trump collusion.\n\nhttp://www.thegatewaypundit.com/2017/10/gop-rep-gohmert-shock-reporter-reveals-imran-awan-accessed-house-server-pakistan-video/\xc2\xa0\xe2\x80\xa6"
p622
S'6:30 AM - 12 Oct 2017'
p623
tp624
a(S'@facebook @axios @sherylsandberg . Facebook ,Mark and Sandburg are 100% responsible for Trump-Russia collusion, with their greed.'
p625
S'6:28 AM - 12 Oct 2017'
p626
tp627
a(S"SANDBERG DOESN'T ADDRESS RUSSIA-TRUMP CAMPAIGN COLLUSION\n\nOF COURSE NOT SHE WAS ALL KILLERY"
p628
S'6:27 AM - 12 Oct 2017'
p629
tp630
a(S'#TBT to when @DonaldJTrumpJr went on Hannity and admitted his collusion with Russia. \n\n https://twitter.com/shreec/status/884960975262187521\xc2\xa0\xe2\x80\xa6'
p631
S'6:26 AM - 12 Oct 2017'
p632
tp633
a(S'like sending Facebook (Republican)people to help target voters. Add Russia into the mix and there is a toxic brew.Collusion and treason'
p634
S'6:25 AM - 12 Oct 2017'
p635
tp636
a(S"The Democrats were so fixated on Trump's alleged collusion with Russia that they forgot about their own.  And... http://fb.me/2piquwGoW\xc2\xa0"
p637
S'6:23 AM - 12 Oct 2017'
p638
tp639
a(S"Obsessions - Russia collusion &  impeachment, they just can't help themselves, this could go on for 4 years or more."
p640
S'6:15 AM - 12 Oct 2017'
p641
tp642
a(S'why he can cry abt respect of flag & country when under criminal investigation for poss collusion wth russia is hypocritical..stunning!'
p643
S'6:12 AM - 12 Oct 2017'
p644
tp645
a(S'How was Obama a terrorist?  That is strong words.  You must have evidence to back that up. Trump was in collusion with the Russia.'
p646
S'6:10 AM - 12 Oct 2017'
p647
tp648
a(S'Make sure to ask him about the collusion theory between President Trump and Russia he was pushing as a fact ... that turned out to be false'
p649
S'6:06 AM - 12 Oct 2017'
p650
tp651
a(S'They are shining a light on your greed, on your collusion with Russia and on your insanity and incompetence. https://twitter.com/realdonaldtrump/status/918457595618365441\xc2\xa0\xe2\x80\xa6'
p652
S'6:05 AM - 12 Oct 2017'
p653
tp654
a(S'Goes from Russia collusion to racist immigrant killer to anti-iron guy #impeachment45'
p655
S'6:03 AM - 12 Oct 2017'
p656
tp657
a(S'.@FoxBusiness @foxandfriends @OANN Why keep allowing spending on investigation of Russia collusion, when everyone investigating has nothing https://twitter.com/pppelegrin/status/918459819199287299\xc2\xa0\xe2\x80\xa6'
p658
S'5:58 AM - 12 Oct 2017'
p659
tp660
a(S"Yeah but how's that Russia collusion thing going? pic.twitter.com/zFiBXPC802"
p661
S'5:56 AM - 12 Oct 2017'
p662
tp663
a(S"The new fake truth is Donald Trump's fake news claims. He has run out of lies to defend his current actions and collusion with Russia."
p664
S'5:53 AM - 12 Oct 2017'
p665
tp666
a(S'Preparing your base for the end run? You know, when your collusion with Russia is completely uncovered along with every other vile thing.'
p667
S'5:53 AM - 12 Oct 2017'
p668
tp669
a(S'So your proof of Russian collusion, ads purchased for facebook post from Russia?\nSTFUsounds like Facebook is guilty of collusion\nIdiots'
p670
S'5:49 AM - 12 Oct 2017'
p671
tp672
a(S'So why hasn\xe2\x80\x99t Trump signed the sanctions bill against Russia?  Kompromat if he does? Collusion if he doesn\xe2\x80\x99t.'
p673
S'5:43 AM - 12 Oct 2017'
p674
tp675
a(S'Get out of this thread with the nonsense Russia collusion crap! No Russian voted for this American!'
p676
S'5:43 AM - 12 Oct 2017'
p677
tp678
a(S'17 times Dems, Repubs said no evidence of Trump-Russia collusion; 10 times people claimed there was https://sharylattkisson.com/2017/10/07/11-times-dems-repubs-said-no-evidence-of-trump-russia-collusion-10-times-people-claimed-there-was/\xc2\xa0\xe2\x80\xa6'
p679
S'5:42 AM - 12 Oct 2017'
p680
tp681
a(S'The entire party is guilty of collusion with Trump and Russia plain and simple vote them all out of office https://twitter.com/calthundersnow/status/918310631643668480\xc2\xa0\xe2\x80\xa6'
p682
S'5:41 AM - 12 Oct 2017'
p683
tp684
a(S'Phony #Russia FB ad narrative\xe2\x80\x99s about 4 things:\n-CYA bc collusion narrative fake too\n-Another HRC fail excuse\n-Extorting tech\n-Fundraising'
p685
S'5:37 AM - 12 Oct 2017'
p686
tp687
a(S'Flag represents our democracy & political process. Trump diverting focus from biggest disrespect of flag in history. His collusion w Russia.'
p688
S'5:37 AM - 12 Oct 2017'
p689
tp690
a(S'We are still focused on your collusion with Russia and not this unAmerican smokescreen! #Resign'
p691
S'5:36 AM - 12 Oct 2017'
p692
tp693
a(S"Kaspersky Lab Asks for Evidence of Firm's Alleged Collusion With Russian Gov't http://s.einnews.com/Rj159hX5sk\xc2\xa0 #Russia"
p694
S'5:20 AM - 12 Oct 2017'
p695
tp696
a(S'Lie. No trail of treason. Prove me wrong. Obama and Hillary were traitors. Collusion with Russia, funding Iran, selling guns'
p697
S'5:17 AM - 12 Oct 2017'
p698
tp699
a(S"Hill Russia investigators: Committee still searching for 'any hint of collusion' http://ref.gl/O5MiC3HJ\xc2\xa0"
p700
S'5:13 AM - 12 Oct 2017'
p701
tp702
a(S'Hey lib they just found an e-mail from DONALD TRUMP JR that proves there was no collusion with russia...BOOM!!!    Bahhhhhhh ha ha'
p703
S'5:12 AM - 12 Oct 2017'
p704
tp705
a(S'What makes a SHITTY POTUS? Russia Collusion; Treason; stealing; lying; racism; mental instability; impeachment...DONALD TRUMP! @TheDemocratshttps://twitter.com/realdonaldtrhmp/status/918434023113969665\xc2\xa0\xe2\x80\xa6'
p706
S'5:10 AM - 12 Oct 2017'
p707
tp708
a(S'love that after all the election talk of russian collusion...CNN continues to collude with Russia to damage President.  #noleftybatsaneye'
p709
S'5:08 AM - 12 Oct 2017'
p710
tp711
a(S'Dear @HouseGOP @SenateGOP You have the power to hold Trump accountable for his collusion w/ Russia & his failure to defend our Constitution. https://twitter.com/BenSasse/status/918296123269189632\xc2\xa0\xe2\x80\xa6'
p712
S'5:08 AM - 12 Oct 2017'
p713
tp714
a(S'Recent example, MSNBC/NBC to distract from news event by Senate Intel Cmte saying they found no collusion on Russia investigation, NBC'
p715
S'5:07 AM - 12 Oct 2017'
p716
tp717
a(S"@seanhannity Dems continue Russia collusion hype.We must continue Weinstein/elite narrative!Don't let them off the hook"
p718
S'5:06 AM - 12 Oct 2017'
p719
tp720
a(S'since there has been more evidence Russia wanted chaos, & still nothing showing collusion with Russia, then Trump is right\n#ThursdayThoughts'
p721
S'5:02 AM - 12 Oct 2017'
p722
tp723
a(S"The left-media continues to push Russia-collusion even though they know it's false TO DISTRACT CITIZENS FROM THE TRUTH! DEMS 4 CORRUPT!"
p724
S'4:56 AM - 12 Oct 2017'
p725
tp726
a(S'Weinstein allegations Rn\xe2\x80\x99t 1st stories spiked by #MSM.\n\n#Trump & #Russia?! BS! Real collusion = #Hollywood & #MSM!http://thehill.com/opinion/campaign/354754-weinstein-allegations-are-not-the-first-stories-spiked-by-media\xc2\xa0\xe2\x80\xa6'
p727
S'4:52 AM - 12 Oct 2017'
p728
tp729
a(S"The word collusion is used a lot. Seems to be collusion btwn Hollywood actors and #Weinstein. Can't find collusion btwn Trump and Russia."
p730
S'4:45 AM - 12 Oct 2017'
p731
tp732
a(S"So it's a guess, then. You don't know that the Russia collusion is complete BS, you think you know."
p733
S'4:45 AM - 12 Oct 2017'
p734
tp735
a(S'Kendrick had a verse about Trump/Russia collusion in The Heart Part 4, but now that Eminem said something rappers have something to say '
p736
S'4:42 AM - 12 Oct 2017'
p737
tp738
a(S'Mischief? Meddling? What happened to "collusion"? #avlnews #wncnews #Russia https://twitter.com/news_BPR/status/918439995844722688\xc2\xa0\xe2\x80\xa6'
p739
S'4:38 AM - 12 Oct 2017'
p740
tp741
a(S"This is Russian collusion at it's best & still going. Still trying to divide America. @KimWorx is probably sitting in Russia or Egypt now."
p742
S'4:33 AM - 12 Oct 2017'
p743
tp744
a(S"FB, Russia again, but of course no proof since it didn't happen. MSM/DEMS collusion did happen. pic.twitter.com/QqMTWtKwOf"
p745
S'4:31 AM - 12 Oct 2017'
p746
tp747
a(S'Retweeted Sputnik (@SputnikInt):\n\n.@realDonaldTrump says that democrats use #Russia collusion as an excuse to... http://fb.me/YINOcXjy\xc2\xa0'
p748
S'4:29 AM - 12 Oct 2017'
p749
tp750
a(S"Right, I remember how there are currently 3 different investigations into Obama's collusion with Russia...Oh wait!"
p751
S'4:29 AM - 12 Oct 2017'
p752
tp753
a(S'There are sanctions on Russia...what else do we need ..? Our president agrees that Russia meddled...he is throwing out the idea of collusion'
p754
S'4:28 AM - 12 Oct 2017'
p755
tp756
a(S'Not a peep from any of them.  They sold out the Constitution when they supported collusion with Russia.'
p757
S'4:27 AM - 12 Oct 2017'
p758
tp759
a(S'@Morning_Joe I have 3 sources from inside the #MorningJoe bedroom that confirm Joe yells out Russia and collusion during well you know  SAD'
p760
S'4:25 AM - 12 Oct 2017'
p761
tp762
a(S'You know the Russia collusion story is likely completely BS right? They know this as well.'
p763
S'4:21 AM - 12 Oct 2017'
p764
tp765
a(S'Donnie needs to be stopped. He is destroying America. Trump/Russia collusion impeach and imprison trump'
p766
S'4:21 AM - 12 Oct 2017'
p767
tp768
a(S'The moron needs to be stopped. Trump/Russia collusion. Impeach trump https://twitter.com/natsecgeek/status/917789937990295553\xc2\xa0\xe2\x80\xa6'
p769
S'4:20 AM - 12 Oct 2017'
p770
tp771
a(S'Someone should look into his collusion with Russia...oh wait.   Mueller?. Mueller?. Anyone?. Anyone?.'
p772
S'4:13 AM - 12 Oct 2017'
p773
tp774
a(S'What prove is there though. They said they think Russia helped but ended up never finding any prove of collusion. This is a Whitchhunt'
p775
S'4:03 AM - 12 Oct 2017'
p776
tp777
a(S'Senators: Probe Into Possible Trump-Russia Collusion Ongoing http://ref.gl/79u5Fsy7\xc2\xa0'
p778
S'3:58 AM - 12 Oct 2017'
p779
tp780
a(S'What about the Trump/Russia collusion hysteria?'
p781
S'3:51 AM - 12 Oct 2017'
p782
tp783
a(S"Typical gaslighting bullshit that we've come to expect from lying, moronic #FakePresident.\n\n#MoronPresident #Collusion #Russia #POShttps://twitter.com/realDonaldTrump/status/918267396493922304\xc2\xa0\xe2\x80\xa6"
p784
S'3:31 AM - 12 Oct 2017'
p785
tp786
a(S'This is the actual collusion & threat fantasies like "Russia hijacked the election!!!", in 72 variations covers up. \n\n#blurrr #GetWokehttps://twitter.com/CMMikeOBrien/status/918337712037302272\xc2\xa0\xe2\x80\xa6'
p787
S'3:24 AM - 12 Oct 2017'
p788
tp789
a(S'Someone tell Republicans Hillary lost the election so get over her and start talking about the Russia collusion.'
p790
S'3:21 AM - 12 Oct 2017'
p791
tp792
a(S"Iran deal must stand dotard Trump wants to erase all Obama deals, he's rattling Kim to divert attention of FACTS from Trump/Russia collusion"
p793
S'3:17 AM - 12 Oct 2017'
p794
tp795
a(S'US Senator: No Evidence of Collusion Between Trump Campaign, Russia: https://sputniknews.com/us/201709301057825096-usa-senator-no-evidence-russia-trump-collusion/\xc2\xa0\xe2\x80\xa6 via @SputnikInt #Reed #Assange @StacyBrewer18'
p796
S'3:08 AM - 12 Oct 2017'
p797
tp798
a(S'\xe2\x80\x9cIf a link between Cambridge Analytica\xe2\x80\x99s work with the Trump campaign & collusion with Russia does surface, those social media companies... https://twitter.com/slate/status/918416882591559681\xc2\xa0\xe2\x80\xa6'
p799
S'3:05 AM - 12 Oct 2017'
p800
tp801
a(S'another lie. potus has tweeted bout russia n all of its jaded politics as well as stating no collusion. get ur facts straight'
p802
S'2:45 AM - 12 Oct 2017'
p803
tp804
a(S'.@realDonaldTrump says that democrats use #Russia collusion as an excuse to justify their failure https://sptnkne.ws/fEvk\xc2\xa0pic.twitter.com/osIA72WLqP'
p805
S'2:34 AM - 12 Oct 2017'
p806
tp807
a(S'This Russia collusion should be directed to Crooked Hillary & Posesta'
p808
S'2:32 AM - 12 Oct 2017'
p809
tp810
a(S'What happened to "Leaks", #Antifa , #womansmarch , the little paw behind twitter #BLM, Russia collusion? Of course #Swamp still against us.pic.twitter.com/71KnHhRLYy'
p811
S'2:29 AM - 12 Oct 2017'
p812
tp813
a(S'#russiagate Trump:Russia Collusion in 2016Election@SenateDems @HouseDemocrats @chuckschumer @MaxineWaterspic.twitter.com/W2vAExyfEx'
p814
S'2:25 AM - 12 Oct 2017'
p815
tp816
a(S'@TheDemocrats and FBI paying for fake dossier is not collusion, but the info in the fake dossier re: Trump and Russia is collusion??? @GOP'
p817
S'2:16 AM - 12 Oct 2017'
p818
tp819
a(S"Because it's corruption and a real conspiracy! Unlike the whole Russia Collusion conspiracy theory! Which you worship as truth obviously!"
p820
S'1:53 AM - 12 Oct 2017'
p821
tp822
a(S'"Russia collusion is a nothing burger" Van Jones\nThen proceeds to go on tv and bullshit about Russia. Fucking hero...not.'
p823
S'1:31 AM - 12 Oct 2017'
p824
tp825
a(S"Sean's one of main media guys under investigation by FBI and Mueller for Russia collusion. Trump owns him. He's the only one who can pardon"
p826
S'1:22 AM - 12 Oct 2017'
p827
tp828
a(S"Believe me, Sean sucks up to Trump because he's hoping for a presidential pardon over Russia collusion/corruption "
p829
S'1:21 AM - 12 Oct 2017'
p830
tp831
a(S'I liked a @YouTube video http://youtu.be/lw2BVI9OhC4?a\xc2\xa0 Trump, Russia, Possible Collusion (REMIX)'
p832
S'1:20 AM - 12 Oct 2017'
p833
tp834
a(S"Sean's hoping for a presidential pardon. He's under investigation for Russia collusion. That's literally the only reason he supports Trump"
p835
S'1:18 AM - 12 Oct 2017'
p836
tp837
a(S"Big discovery! There was no collusion between anyone. Just Russia meddling in USA social media in HRC's favor. POTUS for deals & favors. Not"
p838
S'1:04 AM - 12 Oct 2017'
p839
tp840
a(S'Rachel Maddow presented facts genius trump, Russia collusion. Mueller show to begin soon!'
p841
S'1:01 AM - 12 Oct 2017'
p842
tp843
a(S'So you think you can blow up the world -- just to distract us from your Russia collusion?  Not going to work.'
p844
S'12:49 AM - 12 Oct 2017'
p845
tp846
a(S'http://tinyurl.com/ycqtqvns\xc2\xa0 Trump Says Democrats Use Russia Collusion as Excuse to Justify Their Failure'
p847
S'12:46 AM - 12 Oct 2017'
p848
tp849
a(S"@washingtonpost Trump/Russia Collusion investigation is going 2 end the political careers of many GOP Senators & House Reps;Nunes' is over !"
p850
S'12:45 AM - 12 Oct 2017'
p851
tp852
a(S'They did by 3 million vote........ and then there was collusion with Russia and an electoral college who voted against our will'
p853
S'12:24 AM - 12 Oct 2017'
p854
tp855
a(S'Another Trump-Russia Collusion Narrative Bites the Dust http://www.occuworld.org/news/3699237\xc2\xa0'
p856
S'12:08 AM - 12 Oct 2017'
p857
tp858
a(S'Donny Boy, stop trying to change the subject.  Russia collusion and obstruction.  Stay focused, on your demise.'
p859
S'12:04 AM - 12 Oct 2017'
p860
tp861
a(S'Racism, screwing budget, screwing healthcare, overtures to war, Russia collusion, which is the issue that will impeach him?'
p862
S'12:00 AM - 12 Oct 2017'
p863
tp864
a(S'But you\xe2\x80\x99ve been insulting since the beginning so thanks for continuing to prove my point lol. Later bro! Hope Russia collusion goes well '
p865
S'11:38 PM - 11 Oct 2017'
p866
tp867
a(S"You don't need collusion to know that Russia undermined the US election, and that Trump encouraged a part of that."
p868
S'11:32 PM - 11 Oct 2017'
p869
tp870
a(S'You called Russia collusion legal? There was nothing legal about the Trump election. Give me a break!'
p871
S'11:29 PM - 11 Oct 2017'
p872
tp873
a(S'Will you respect the Country when you are impeached for collusion with Russia?'
p874
S'10:55 PM - 11 Oct 2017'
p875
tp876
a(S"Senate panel chief calls Russia-Trump campaign collusion an 'open' issue http://ref.gl/\xc2\xa0"
p877
S'10:53 PM - 11 Oct 2017'
p878
tp879
a(S'Puerto Rico\nTrump Russia collusion\n2016 election hacks\nCalifornia fires\nNAFTA \nNeed I say more except INEPT #25AmendmentNow'
p880
S'10:47 PM - 11 Oct 2017'
p881
tp882
a(S"It's a double standard. Let's talk about Hilary and her known Russia collusion. Back stabbing Hilary could have been president . Wake up!"
p883
S'10:45 PM - 11 Oct 2017'
p884
tp885
a(S'It\xe2\x80\x99ll be Trump who\xe2\x80\x99ll be locked up. Emoluments, money laundering, collusion w Russia, etc. #maga'
p886
S'10:42 PM - 11 Oct 2017'
p887
tp888
a(S'Trump Says Democrats Use #Russia Collusion as Excuse to Justify Their Failure http://s.einnews.com/ZPIhhwhzvN\xc2\xa0'
p889
S'10:40 PM - 11 Oct 2017'
p890
tp891
a(S"Considering @wikileaks' collusion with #Russia to get #Trump elected it doesn't surprise anyone\nhttp://web.archive.org/web/20171012010701/http://www.nnettle.com/news/2911-donald-trump-to-officially-consider-pardoning-julian-assange\xc2\xa0\xe2\x80\xa6"
p892
S'10:38 PM - 11 Oct 2017'
p893
tp894
a(S'@BetsyDeVosED Spectrum Health\xe2\x80\x99s Role in the\nTrump-Russia Server Scandal\n#Collusion\nhttps://teapainusa.wordpress.com/2017/07/10/spectrum-healths-role-in-the-trump-russia-server-scandal/amp/\xc2\xa0\xe2\x80\xa6https://twitter.com/StockScout1/status/918348887387197440\xc2\xa0\xe2\x80\xa6'
p895
S'10:36 PM - 11 Oct 2017'
p896
tp897
a(S'@DevinNunes nobody respects you! Lmaoooo ur a fucking loser! Look up what "recused" means! #MAGA #Russia #Collusion #Treason #IMPEACH'
p898
S'10:36 PM - 11 Oct 2017'
p899
tp900
a(S"He's right about NFL. He's right about NK. IRAN China and RUSSIA and the DEMS collusion with Russia and their sorry loss Cus a bad CANDIDATE"
p901
S'10:23 PM - 11 Oct 2017'
p902
tp903
a(S'You have multiple on-going investigations into Russia collusion which never happened , a non crime. Where they are searching for a crime! 1'
p904
S'10:19 PM - 11 Oct 2017'
p905
tp906
a(S'@SenJohnMcCain WE ARE WITNESSING THE BIGGEST COVER UP EVER ON @realDonaldTrump RUSSIA COLLUSION UNDER @GOP NOSE.http://thehill.com/policy/cybersecurity/355000-sens-mccain-cardin-scold-trump-for-missing-russian-sanctions-deadline\xc2\xa0\xe2\x80\xa6'
p907
S'10:18 PM - 11 Oct 2017'
p908
tp909
a(S"Here's fucking hoping, and I wouldn't mind a rush order on the COLLUSION WITH RUSSIA https://twitter.com/SethAbramson/status/918212220282195968\xc2\xa0\xe2\x80\xa6"
p910
S'10:16 PM - 11 Oct 2017'
p911
tp912
a(S'TRUMP CLEARLY NOT INVOLVED WITH RUSSIA FOWLER, HE HAS REPEATEDLY SAID NO COLLUSION & SINCE INVESTIGATION STILL ON HE SHOULD NOT TWEET !!!'
p913
S'10:08 PM - 11 Oct 2017'
p914
tp915
a(S'With zero proof of any collusion with Russia. Gal pal Clinton still racking up friends going to jail. #LiberalismIsAMentalDisorder'
p916
S'10:05 PM - 11 Oct 2017'
p917
tp918
a(S'Hey @POTUS while u attack 1A why would Carter Page, if innocent in the trump/Russia collusion, need to take the 5th? https://twitter.com/georgetakei/status/917949830835658752\xc2\xa0\xe2\x80\xa6'
p919
S'10:04 PM - 11 Oct 2017'
p920
tp921
a(S'#dtmag "Curious minds want to know, for instance \xe2\x80\x94 what the heck happened to all the Russia collusion talk?" ckchu\xe2\x80\xa6 http://ow.ly/m8Ka30fNJmh\xc2\xa0'
p922
S'10:01 PM - 11 Oct 2017'
p923
tp924
a(S'NY AG, press charges against Weinstein! \n\nEvidence is clear, mounting, more so than Trump/ Russia collusion yet they went forth with that.'
p925
S'10:00 PM - 11 Oct 2017'
p926
tp927
a(S'"Curious minds want to know, for instance \xe2\x80\x94 what the heck happened to all the Russia collusion talk?" @ckchumleyhttp://ow.ly/m8Ka30fNJmh\xc2\xa0'
p928
S'10:00 PM - 11 Oct 2017'
p929
tp930
a(S'Why would Trump embarrass her, RM does that all by herself, it is better when Schiff or Swalwell join show talking the Russia collusion myth'
p931
S'9:47 PM - 11 Oct 2017'
p932
tp933
a(S'Trump is Unfit to be President. Lies Distraction Russia Taxes Corruption Collusion Obstruction Money Laundering Watch what they Do.2018&2020'
p934
S'9:38 PM - 11 Oct 2017'
p935
tp936
a(S'Till now the #MAINSTREAMMEDIA & #Democrats screaming #TrumpRussiaCollusion\nNow they say Russia buying adverts for #BLM\n#RussiaBLM collusion?'
p937
S'9:31 PM - 11 Oct 2017'
p938
tp939
a(S'Trump Says Democrats Use Russia Collusion as Excuse to Justify Their Failure https://www.russianinsight.com/trump-says-democrats-use-russia-collusion-as-excuse-to-justify-their-failure/\xc2\xa0\xe2\x80\xa6'
p940
S'9:31 PM - 11 Oct 2017'
p941
tp942
a(S'We did elect her.  There was that Russia collusion thing that prevented her from taking her place as President. https://twitter.com/Jenny_Trout/status/918290125527900162\xc2\xa0\xe2\x80\xa6'
p943
S'9:29 PM - 11 Oct 2017'
p944
tp945
a(S'Right - just like with the Russia collusion story - HRC colluded with Russia on the Uranium One - earned USD145M for the Clinton Foundation!'
p946
S'9:25 PM - 11 Oct 2017'
p947
tp948
a(S"@realDonaldTrump you still can't believe Russia interfered with the election. Collusion and obstruction will be uncovered!"
p949
S'9:23 PM - 11 Oct 2017'
p950
tp951
a(S'They had more on this than anything factual related to Russia-Trump Collusion.  Nobody buys this phony ruse.'
p952
S'9:18 PM - 11 Oct 2017'
p953
tp954
a(S'@realDonaldTrump why? What the hell is going on? Russia is the enemy. Or it is true, collusion! https://twitter.com/InvestigateRU/status/918311754681106432\xc2\xa0\xe2\x80\xa6'
p955
S'9:17 PM - 11 Oct 2017'
p956
tp957
a(S"The Russia collusion has been used as a distraction from the start.They may have thought it would help Clint win,since then it's just cover"
p958
S'9:15 PM - 11 Oct 2017'
p959
tp960
a(S'Do you not get how easy it is to accuse someone that everyone hates? He never raped anyone. Proof? Link? No evidence for Russia collusion'
p961
S'8:56 PM - 11 Oct 2017'
p962
tp963
a(S'Let\'s look at Trump\'s words: "They said, \'Ah, Trump colluded with Russia!\' and I\'m saying, \'I did.\'"\n\nHe didn\'t deny #TrumpRussia collusion.'
p964
S'8:46 PM - 11 Oct 2017'
p965
tp966
a(S"Shouldn't Dems b pissed at the Media for promising them Trump/Russia Collusion that they can't deliver on? Dems have been LIED TO!"
p967
S'8:40 PM - 11 Oct 2017'
p968
tp969
a(S'Your so upset about Russia & how they try 2 interfere with elections but yet Obama knew and did nothing. There is no Trump/Russia collusion'
p970
S'8:37 PM - 11 Oct 2017'
p971
tp972
a(S'You never served even when u ha the opportunity treasonous Russian collusion campaign changed GOP platform favor Russia YOU R NOT A PATRIOT'
p973
S'8:30 PM - 11 Oct 2017'
p974
tp975
a(S'It may just be that fear of nukes that takes him down before Russia collusion does.'
p976
S'8:30 PM - 11 Oct 2017'
p977
tp978
a(S"Then there is the gold standard, the Russia collusion. That one HAS to be true because he can't stop screaming about it. So true it hurts."
p979
S'8:27 PM - 11 Oct 2017'
p980
tp981
a(S"Trump will throw dirt on anything if it distracts the Nation from his money laundering and collusion w/Russia, don't you think?"
p982
S'8:26 PM - 11 Oct 2017'
p983
tp984
a(S"If Russia is cyber hacking us right now and Trump is not stopping them AND he's not upholding sanctions, isn't that collusion and treason?"
p985
S'8:24 PM - 11 Oct 2017'
p986
tp987
a(S'You have none exactly. And not a particle of evidence of any collusion with Russia. Waste of time and money.'
p988
S'8:18 PM - 11 Oct 2017'
p989
tp990
a(S'It would be really nice if you were found guilty of collusion with Russia, were impeached, tossed out and went to jail along with Pence.'
p991
S'8:17 PM - 11 Oct 2017'
p992
tp993
a(S"You Dimms wanted him investigated for collusion he can't tweet about Russia stupid democrat"
p994
S'8:10 PM - 11 Oct 2017'
p995
tp996
a(S'Just proved he is SMART enuff to not get SUCKED into the Russia collusion bull shit!'
p997
S'8:10 PM - 11 Oct 2017'
p998
tp999
a(S'Mueller is on a witch hunt investigating Russia collusion with Trump, thus Trump should not tweet about it! Anyone with a brain knows that! https://twitter.com/foxnews/status/918301333492510720\xc2\xa0\xe2\x80\xa6'
p1000
S'8:03 PM - 11 Oct 2017'
p1001
tp1002
a(S'Richard i wonder how fox hired you...what is there to tweet about Russia? Your illusion of collusion?'
p1003
S'8:03 PM - 11 Oct 2017'
p1004
tp1005
a(S'Russia tells Trump Jr we have information that will hurt Clinton lets meet Jr says back I love it they meet this is collusion & both confess'
p1006
S'8:02 PM - 11 Oct 2017'
p1007
tp1008
a(S'Man that russia collusion is getting hot i bet trump orders the house intel to ivestigate why rolly pollies ball up when threatened'
p1009
S'8:02 PM - 11 Oct 2017'
p1010
tp1011
a(S'Richard, there\'s a special counsel investigating Russia "collusion" along senate intelligence committee that has nothing! Why DJTmention it?'
p1012
S'8:01 PM - 11 Oct 2017'
p1013
tp1014
a(S'BREAKING: CNN Uncovers "Trump/Russia Collusion" Bombshell https://www.christiannewsalerts.com/cnn-trump-russia/\xc2\xa0\xe2\x80\xa6'
p1015
S'7:51 PM - 11 Oct 2017'
p1016
tp1017
a(S'E-mailed Reps Earl Blumenauer & Greg Walden to protect Russia collusion investigation so sp. counsel Robert Mueller wont get fired. #Stand'
p1018
S'7:51 PM - 11 Oct 2017'
p1019
tp1020
a(S'Richard: pay attention! There was NO collusion with Russia, ever. In fact, there was more connectivity between Clinton and Russia!'
p1021
S'7:51 PM - 11 Oct 2017'
p1022
tp1023
a(S'#HillaryClinton is #Russian tool she had collusion with #Russia not #Trump.'
p1024
S'7:49 PM - 11 Oct 2017'
p1025
tp1026
a(S'So in conclusion no findings at all in Trump /Russia Collusion....'
p1027
S'7:49 PM - 11 Oct 2017'
p1028
tp1029
a(S'Swalwell is a phony Russia conspiracy theorist....makes inflammatory statements re collusion without evidence...better known as Swillwell'
p1030
S'7:48 PM - 11 Oct 2017'
p1031
tp1032
a(S"Frankly it's disgusting tht PR needs help, CA deaths because of wildfires, madman in LV, POTUS tweeting about NFL, his x wives fighting in public, govt officials afraid POTUS is unfit, NK, Iran, Russia, collusion, the list goes on and on. This is America?"
p1033
S'7:46 PM - 11 Oct 2017'
p1034
tp1035
a(S'How desperate R these people in trying to nail Prez. Russia collusion collapsing; impeachment going nowhere; hurricane madness is waning.'
p1036
S'7:43 PM - 11 Oct 2017'
p1037
tp1038
a(S'@realDonaldTrump #Hypocrite #FakePresident #Criminal #Russia #collusion'
p1039
S'7:41 PM - 11 Oct 2017'
p1040
tp1041
a(S'Before I forget - how\xe2\x80\x99s your legal defense coming - because Russia is still a thing - ceazy dad doesn\xe2\x80\x99t change your collusion problem.'
p1042
S'7:40 PM - 11 Oct 2017'
p1043
tp1044
a(S"So now Pinterest and FB are guilty of collusion w Russia wow. I'm done"
p1045
S'7:39 PM - 11 Oct 2017'
p1046
tp1047
a(S'#NewTrumpHolidays\nHide Your Collusion With Russia Day pic.twitter.com/8WxvMEZ42M'
p1048
S'7:37 PM - 11 Oct 2017'
p1049
tp1050
a(S'Why would he?  Are you in collusion with Russia @Richardafowler? Coordinating with them to plant divisive ads to benefit Hillary?'
p1051
S'7:36 PM - 11 Oct 2017'
p1052
tp1053
a(S'Need a credible verified source to prove the Russia collusion delusion (which they cannot)'
p1054
S'7:36 PM - 11 Oct 2017'
p1055
tp1056
a(S"He doesn't tweet about Russia b/c there's nothing to tweet about. That's just liberal fake news. No Russia collusion. Get over it. Move on."
p1057
S'7:34 PM - 11 Oct 2017'
p1058
tp1059
a(S'Omg. Because the man has a country to run. He is not an empty-headed liberal or Hollowood deviate. There is no  russia collusion.Get a job.'
p1060
S'7:33 PM - 11 Oct 2017'
p1061
tp1062
a(S'@Potus\n#specialprosecutor \nRead the F***king Constitution and own up to collusion with Russia a d get on to true American way. Helping USA https://twitter.com/MotherJones/status/918298961047445505\xc2\xa0\xe2\x80\xa6'
p1063
S'7:32 PM - 11 Oct 2017'
p1064
tp1065
a(S'There is nothing to tweet about Russia. The election is over and there is no collusion! Accept it already'
p1066
S'7:31 PM - 11 Oct 2017'
p1067
tp1068
a(S"He has tweeted plenty about Russia. We're Still waiting on the democrats evidence of collusion Richard. #GooseEgg"
p1069
S'7:30 PM - 11 Oct 2017'
p1070
tp1071
a(S"@Richardafowler Russia collusion? Mueller should start looking at CIA, NSA, FBI, Obama. It was a digital coup d'\xc3\xa9tat by entire U.S. Intel"
p1072
S'7:30 PM - 11 Oct 2017'
p1073
tp1074
a(S'Just what is @Richardafowler suggesting? My take is #Russia "nukes" are a concern to @POTUS not some collusion allegations! #tcot'
p1075
S'7:30 PM - 11 Oct 2017'
p1076
tp1077
a(S'Read Grassleys letter & what he requests makes sense but I don\xe2\x80\x99t understand its potential significance in the overall Russia/collusion case?'
p1078
S'7:29 PM - 11 Oct 2017'
p1079
tp1080
a.