(lp0
(S"How is Soro's pay 2 play donations to Antifa, any different from collusion with Russia? 1st. Why is a violent, NAZI gang permitted in US?"
p1
S'4:59 PM - 1 Nov 2017'
p2
tp3
a(S'Like Trump Russia collusion? Sorry, couldn\xe2\x80\x99t resist....'
p4
S'4:58 PM - 1 Nov 2017'
p5
tp6
a(S'Donald Trump is a total fraud and is guilty if collusion with Russia. He is completely UnAmerican. A con man just like daddy was.'
p7
S'4:56 PM - 1 Nov 2017'
p8
tp9
a(S"Trump's Presidency Collapsing As Evidence Surfaces His Campaign Approved Collusion With Russia via @politicususahttp://www.politicususa.com/2017/10/31/trumps-presidency-collapsing-evidence-surfaces-campaign-approved-collusion-russia.html\xc2\xa0\xe2\x80\xa6"
p10
S'4:56 PM - 1 Nov 2017'
p11
tp12
a(S'Papadopolous pled to collusion. He is photo\xe2\x80\x99d meeting w/Trump right before his big trip to Russia. Sessions knew, perjured himself.'
p13
S'4:54 PM - 1 Nov 2017'
p14
tp15
a(S"I'm not surprised! That is what they do best. Fox News should cover Russia and 45 plus collusion. #sad #weak"
p16
S'4:54 PM - 1 Nov 2017'
p17
tp18
a(S'Mother Jones/David Corn has been pushing the Russia Trump Collusion crap & shilling for Hillary far too long to be credible at this point.'
p19
S'4:53 PM - 1 Nov 2017'
p20
tp21
a(S'But but bit...Trump...Russia....COLLUSION!  It\xe2\x80\x99s all a farce. The left tried everything to ram HRC down our throat just like Bill did to ML'
p22
S'4:52 PM - 1 Nov 2017'
p23
tp24
a(S'Axios reporter says the Popodopolososos indictment does not amount to much in terms of Russia collusion investigation. @HardballChris'
p25
S'4:52 PM - 1 Nov 2017'
p26
tp27
a(S'Still no reporting from stelter on Dnc collusion to take out bernie,who cld beat Trump. Also no stelter reporting of neg Trump Russia ads'
p28
S'4:51 PM - 1 Nov 2017'
p29
tp30
a(S'Trump, with the help of Russian interference won through the electoral college\n\nThe ACTUAL collusion with Russia is still the Trump campaign'
p31
S'4:51 PM - 1 Nov 2017'
p32
tp33
a(S"Gregg Jarrett: Still no evidence of Trump-Russia 'collusion' - but Hillary is a different matter http://fxn.ws/2zj7bxn\xc2\xa0 #FoxNews"
p34
S'4:51 PM - 1 Nov 2017'
p35
tp36
a(S'colluded with Russia. Also look at the George Papadopoulos info he actually is the closet thing to Russia Collusion. https://amp.cnn.com/cnn/2017/11/01/politics/papadopoulos-timeline-events-russia-professor/index.html\xc2\xa0\xe2\x80\xa6'
p37
S'4:51 PM - 1 Nov 2017'
p38
tp39
a(S'@POTUS Russia regarding anything, focus needs to turn on the people who have been doing everything poddible to cover up their own collusion'
p40
S'4:51 PM - 1 Nov 2017'
p41
tp42
a(S'"Team Trump sees imaginary \'evidence\' of Clinton, Russia collusion" http://www.msnbc.com/rachel-maddow-show/team-trump-sees-imaginary-evidence-clinton-russia-collusion\xc2\xa0\xe2\x80\xa6'
p43
S'4:50 PM - 1 Nov 2017'
p44
tp45
a(S'The surest evidence of collusion with Russia will be when Trump starts to redefine the word like he did with #FakeNews'
p46
S'4:50 PM - 1 Nov 2017'
p47
tp48
a(S"Trump/Russia = collusion\nClinton/Obama/DNC/Russia = #oppositionresearch\nNow that's #thestory"
p49
S'4:50 PM - 1 Nov 2017'
p50
tp51
a(S'Have you not realized he had no collusion with Russia and Mueller had nothing but their is evidence of Clinton Obama Russian collusion?'
p52
S'4:50 PM - 1 Nov 2017'
p53
tp54
a(S'Trump/Russia = collusion\nClinton/Obama/DNC/Russia = #oppositionresearch'
p55
S'4:49 PM - 1 Nov 2017'
p56
tp57
a(S'Yeah. They got him. A 29 yr old mastermind of the Russia collusion in the Trump campaign. LMFAO. THEY GOT HIM!!!!! Bwaaaaaaahhhhhaaaa. WTF?'
p58
S'4:47 PM - 1 Nov 2017'
p59
tp60
a(S'This does not surprise me. The FBI director during Uranium One is the person investigating Russia collusion. Are you kidding me?'
p61
S'4:47 PM - 1 Nov 2017'
p62
tp63
a(S'Good Job Krassenstein, you got your followers believing there was collusion with Russia that wasn\xe2\x80\x99t Hillary. Clowns'
p64
S'4:46 PM - 1 Nov 2017'
p65
tp66
a(S"no collusion with Russia there just another a-hole deal like  iran deal and no special prosecutor for them they're dems AKA traitors"
p67
S'4:45 PM - 1 Nov 2017'
p68
tp69
a(S'Unabashed Lying Heifer.  THE MAJORITY OF AMERICANS THAT DIDN\xe2\x80\x99T VOTE FOR TRUMP CARE ABOUT THE RUSSIA COLLUSION INVESTIGATION! @SHSanders45'
p70
S'4:43 PM - 1 Nov 2017'
p71
tp72
a(S'.Facebook, Twitter drop \xe2\x80\x98bombshell\xe2\x80\x99 on Trump-Russia \xe2\x80\x98collusion\xe2\x80\x99 http://www.wnd.com/2017/11/facebook-twitter-drop-bombshell-on-trump-russia-collusion/\xc2\xa0\xe2\x80\xa6'
p73
S'4:43 PM - 1 Nov 2017'
p74
tp75
a(S'How Obama & Hillary Weaponized the Trump-Russia Collusion \xe2\x80\x98Dossier\xe2\x80\x99 http://beforeitsnews.com/opinion/2017/11/how-obama-hillary-weaponized-the-trump-russia-collusion-dossier-2459731.html\xc2\xa0\xe2\x80\xa6'
p76
S'4:43 PM - 1 Nov 2017'
p77
tp78
a(S'Meaning there is truth about Dotard Don,s collusion with Russia'
p79
S'4:42 PM - 1 Nov 2017'
p80
tp81
a(S'@realDonaldTrump why impeachment-unfit-mania, russia collusion-fake news: cause dems have no message but resist n obstruct, voters will remember n keep more repubs in both houses in 2018. then 4 more trump yrs, 8 pence, w/control of both houses all the time. trump haters in panic'
p82
S'4:41 PM - 1 Nov 2017'
p83
tp84
a(S'Over here a certain politician has tried to link Brexit to putin and russia collusion! Madness and sheer lunacy!'
p85
S'4:41 PM - 1 Nov 2017'
p86
tp87
a(S'Majority of treasonous,racist,ignorant,trump voters say he should stay in office even if Russia collusion is proven https://www.msn.com/en-us/news/politics\xc2\xa0\xe2\x80\xa6'
p88
S'4:41 PM - 1 Nov 2017'
p89
tp90
a(S'He is not impartial or he would investigate the real Russia collusion with Hillary.'
p91
S'4:39 PM - 1 Nov 2017'
p92
tp93
a(S"They'll hold back the collusion with Russia, till later - I'd think. Unless he's flipped and then I'd say that will be a VERY FUN FRIDAY."
p94
S'4:39 PM - 1 Nov 2017'
p95
tp96
a(S"So the Russian collusion it's about the Trump campaign colluding with Russia but in reality Facebook was greedy taking anyone's money/"
p97
S'4:38 PM - 1 Nov 2017'
p98
tp99
a(S"@BobSMueller -- When it comes to President @realDonaldTrump - Your indictments aren\xe2\x80\x99t proof of Trump-Russia collusion > SO, I'M ASKING YOU > pic.twitter.com/WEY9tk4uYr"
p100
S'4:38 PM - 1 Nov 2017'
p101
tp102
a(S'Tech giants gave cryptic replies when asked about potential Trump-Russia collusion http://read.bi/2hwYSnc\xc2\xa0 via @PoliticsInsider'
p103
S'4:37 PM - 1 Nov 2017'
p104
tp105
a(S'@realDonaldTrump You are not acceptable. Your collusion with Russia & your obstruction is unacceptable. You are a traitor & a scumbag! https://twitter.com/realDonaldTrump/status/925860866767163393\xc2\xa0\xe2\x80\xa6'
p106
S'4:37 PM - 1 Nov 2017'
p107
tp108
a(S'Coincidence?!? No Talk about Russia Collusion #TrumpBodyCount!! #FalseFlag #MAGA'
p109
S'4:37 PM - 1 Nov 2017'
p110
tp111
a(S"Everybody  colluded with Russia, Except Trump:\nBullsh*t 'Russian Collusion' Narrative Collapses https://youtu.be/2ofeUHydHAs\xc2\xa0 via @YouTube"
p112
S'4:36 PM - 1 Nov 2017'
p113
tp114
a(S'Are you sure cause seems like you already have made up your mind about Russia collusion.'
p115
S'4:36 PM - 1 Nov 2017'
p116
tp117
a(S'DT will take away our Constitutional Rights & freedoms if we do not remove him for his Treason, Collusion & Coordination w Russia. DT or US! https://twitter.com/tedlieu/status/925838152983629829\xc2\xa0\xe2\x80\xa6'
p118
S'4:35 PM - 1 Nov 2017'
p119
tp120
a(S'@facebook @Twitter DROPON TRUMP-RUSSIA COLLUSION\n\nRush: Exact opposite of what everybody has been led to believe\n\nhttp://po.st/FvzGIB\xc2\xa0pic.twitter.com/0YbCBCNM2E'
p121
S'4:34 PM - 1 Nov 2017'
p122
tp123
a(S'Oh you fools!! There was no Russia/Trump collusion. Get a life! Get a clue. Get another mission. Fools.'
p124
S'4:34 PM - 1 Nov 2017'
p125
tp126
a(S'@ChrisCuomo w/dems having no message but resist n obstruct, voters will remember n keep more repubs in both houses in 2018. then 4 more trump yrs, 8 pence, w/control of both houses all the time. thats why we have impeachment-unfit-mania, n russia collusion-fake news all the time'
p127
S'4:34 PM - 1 Nov 2017'
p128
tp129
a(S'The circumstantial evidence of Trump\xe2\x80\x99s collusion with Russia is overwhelming. #TrumpRussia #LockHimUphttp://www.newsweek.com/russian-bots-targeted-clinton-and-mueller-leading-collusion-indictments-698160\xc2\xa0\xe2\x80\xa6'
p130
S'4:34 PM - 1 Nov 2017'
p131
tp132
a(S'There still waiting on the Russia Trump collusion case..'
p133
S'4:33 PM - 1 Nov 2017'
p134
tp135
a(S'oooooooh yes. so i have been hearing.Something to do with russia collusion.'
p136
S'4:33 PM - 1 Nov 2017'
p137
tp138
a(S"There's only one real joke in this equation, and it colluded with Russia, then obstructed justice in regards to the collusion investigation."
p139
S'4:33 PM - 1 Nov 2017'
p140
tp141
a(S'Tech giants gave cryptic replies when asked about potential Trump-Russia collusion http://read.bi/2hwYSnc\xc2\xa0 via @PoliticsInsider'
p142
S'4:32 PM - 1 Nov 2017'
p143
tp144
a(S"What's spookier to Trump than  Mueller investigating collusion w/Russia?An inflatable dinosaur costume apparently https://youtu.be/2iJ9VK7BugU\xc2\xa0"
p145
S'4:32 PM - 1 Nov 2017'
p146
tp147
a(S'Still trying to understand what this has to do with Trump/Russia collusion?  Oh yeah, NOTHING!'
p148
S'4:32 PM - 1 Nov 2017'
p149
tp150
a(S'Jeff Sessions what are u waiting to open Investigation and Special Persecutor X real Russia Collusion. Stop the corruption https://twitter.com/miketokes/status/925117582968893440\xc2\xa0\xe2\x80\xa6'
p151
S'4:31 PM - 1 Nov 2017'
p152
tp153
a(S"Hume: End of Russia collusion probe is 'not clear' http://video.foxnews.com/v/5622935900001/\xc2\xa0\xe2\x80\xa6"
p154
S'4:30 PM - 1 Nov 2017'
p155
tp156
a(S'#Russia #TrumpCrimeFamily #federalprison #treason #obstruction #collusion https://twitter.com/funder/status/925828239309844480\xc2\xa0\xe2\x80\xa6'
p157
S'4:30 PM - 1 Nov 2017'
p158
tp159
a(S'Is this tweet from January?  There was no (Trump) Russia collusion.'
p160
S'4:29 PM - 1 Nov 2017'
p161
tp162
a(S'Facebook, Twitter, and Google gave cryptic replies when asked about a potential form of collusion between Trump and Russia ...'
p163
S'4:29 PM - 1 Nov 2017'
p164
tp165
a(S'Liberals favorite words, collusion, racist, and Russia Russia Russia!!!! What a bunch of stupid morons!!'
p166
S'4:25 PM - 1 Nov 2017'
p167
tp168
a(S'Collusion between Trump, Russia asked of Facebook, Twitter, Google - Business Insider... (See+ on What: http://goo.gl/O4YBJ\xc2\xa0)'
p169
S'4:23 PM - 1 Nov 2017'
p170
tp171
a(S"What happened to your Russia collusion hoax? Can't you at least admit you were spinning liberal lies for the past year? #RussianScumpic.twitter.com/vmKSdn7AhN"
p172
S'4:23 PM - 1 Nov 2017'
p173
tp174
a(S"Gregg Jarrett: Still no evidence of Trump-Russia 'collusion' - but Hillary is a different matter http://fxn.ws/2zj7bxn\xc2\xa0 #FoxNews"
p175
S'4:23 PM - 1 Nov 2017'
p176
tp177
a(S'Facebook, Twitter, and Google gave cryptic replies when asked about a potential form of collusion between Trump and Russia Natasha Bertrand pic.twitter.com/fZ6j3hJpNk'
p178
S'4:23 PM - 1 Nov 2017'
p179
tp180
a(S'U have 0 evidence of Trump Russia collusion. We have evidence that Obama spied on the Republican party & foreign leaders such as Merkel.'
p181
S'4:22 PM - 1 Nov 2017'
p182
tp183
a(S'Collusion isn\xe2\x80\x99t even against the law  #ImpeachMaxine for her Russia ties.'
p184
S'4:21 PM - 1 Nov 2017'
p185
tp186
a(S"Russia. We're not forgetting your collusion. Just step down."
p187
S'4:21 PM - 1 Nov 2017'
p188
tp189
a(S'Russia bots pushed UraniumOne story before indictments. Collusion? http://www.newsweek.com/russian-bots-targeted-clinton-and-mueller-leading-collusion-indictments-698160\xc2\xa0\xe2\x80\xa6'
p190
S'4:21 PM - 1 Nov 2017'
p191
tp192
a(S'Charges were nothing to do with Trumps campaign. Fake news here we have Uranium sold to Russia that\xe2\x80\x99s collusion 145 mil went to Hillary foundation and FBI and Obama but they go after Campaign manager Wow America will clean out the swamp'
p193
S'4:21 PM - 1 Nov 2017'
p194
tp195
a(S'@alfranken Go Get @jeffsessions #LiarLiarPantsOnFire #Mueller #Treason #ImpeachTrump #Russia #Collusion #TheResistance #Resist @RepGutierrezhttps://twitter.com/tenfiveeleven/status/925864273213050880\xc2\xa0\xe2\x80\xa6'
p196
S'4:20 PM - 1 Nov 2017'
p197
tp198
a(S'Dems still don\xe2\x80\x99t see no Trump Russia collusion, no evidence, yet evidence of hillbag n Russia everywhere!!! #indenial?? #ignorance??https://twitter.com/cher/status/925019860941393920\xc2\xa0\xe2\x80\xa6'
p199
S'4:19 PM - 1 Nov 2017'
p200
tp201
a(S'Tech giants gave cryptic replies when asked about potential Trump-Russia collusion http://read.bi/2hwYSnc\xc2\xa0pic.twitter.com/B2tUvtWzIJ'
p202
S'4:19 PM - 1 Nov 2017'
p203
tp204
a(S'If ad buys by Trump, GOP & Russia all line up, all the time then collusion is proven. It was coordinated & GOP totally invested in it https://twitter.com/level39/status/906191579311898626\xc2\xa0\xe2\x80\xa6'
p205
S'4:18 PM - 1 Nov 2017'
p206
tp207
a(S'Facebook, Twitter drop \xe2\x80\x98bombshell\xe2\x80\x99 on Trump-Russia \xe2\x80\x98collusion\xe2\x80\x99 http://po.st/Edvg7W\xc2\xa0 #NoRusdianCollusion #AlwaysTrump  \xe2\x98\x85 #MAGA  \xe2\x98\x85 \xe2\x98\x85 '
p208
S'4:18 PM - 1 Nov 2017'
p209
tp210
a(S'DNC party of Corruption Greed Degenerates pedophiles KKK hypocrites RUSSIA collusion &  ISIS'
p211
S'4:18 PM - 1 Nov 2017'
p212
tp213
a(S'This is what Russian collusion looks like. Russia is working with the Dems to create instability & chaos in our government.'
p214
S'4:17 PM - 1 Nov 2017'
p215
tp216
a(S'#MichaelRCaputo, are you on crack? @PaulManafort wouldn\xe2\x80\x99t have taken meetings with Russia? No George Papadopoulos collusion w/Russia?Really?'
p217
S'4:16 PM - 1 Nov 2017'
p218
tp219
a(S'I\xe2\x80\x99m actually more curious to know \xe2\x80\x98when\xe2\x80\x99 the ads were bought by Trump, Russia & GOP-if timing of all of them lines up every time= collusion!'
p220
S'4:16 PM - 1 Nov 2017'
p221
tp222
a(S"Don't forget the Mercers,  DeVos, Erik Prince, the koch bros.  Western oligarchs abetted Russia in collusion during our election cycle."
p223
S'4:16 PM - 1 Nov 2017'
p224
tp225
a(S'Facebook, Twitter drop \xe2\x80\x98bombshell\xe2\x80\x99 on Trump-Russia \xe2\x80\x98collusion\xe2\x80\x99 http://po.st/Hjm0io\xc2\xa0 via @worldnetdaily'
p226
S'4:16 PM - 1 Nov 2017'
p227
tp228
a(S'Trump administration has to lie about his connection to Russia. He is not going to admit to collusion.It is about lie,lie,lie. Truth hurts.'
p229
S'4:15 PM - 1 Nov 2017'
p230
tp231
a(S'Yet, so far, none of it is tied to a Trump/Russia collusion. Keep that dream alive though.'
p232
S'4:15 PM - 1 Nov 2017'
p233
tp234
a(S'Is it? Or is @CNN desperate to make sure the Russia narrative theyve been pushing is believed by the masses.HINT:Everyone knows it was a manufactured lie with no evidence.Just admit that there was never any merit to the Russian collusion narrative with respect to @realDonaldTrump'
p235
S'4:14 PM - 1 Nov 2017'
p236
tp237
a(S'@facebook  I wrote this last year to suckerberg of FB  who was lying thru his teeth Re FB collusion promoting Russia fakenews as we all know https://twitter.com/aecomgirl/status/809149346541223936\xc2\xa0\xe2\x80\xa6'
p238
S'4:13 PM - 1 Nov 2017'
p239
tp240
a(S'Tech giants gave cryptic replies when asked about potential Trump-Russia collusion http://read.bi/2hwYSnc\xc2\xa0pic.twitter.com/EsYel5F4QW'
p241
S'4:11 PM - 1 Nov 2017'
p242
tp243
a(S'tick tock @DonaldJTrumpJr time is running out\n\n#Mueller #Manafort #Russia #Collusion pic.twitter.com/8s6HqPLg6O'
p244
S'4:10 PM - 1 Nov 2017'
p245
tp246
a(S'Not what the Dems wanted to hear!  Facebook, Twitter drop \xe2\x80\x98bombshell\xe2\x80\x99 on Trump-Russia \xe2\x80\x98collusion\xe2\x80\x99 http://mobile.wnd.com/2017/11/facebook-twitter-drop-bombshell-on-trump-russia-collusion/\xc2\xa0\xe2\x80\xa6'
p247
S'4:10 PM - 1 Nov 2017'
p248
tp249
a(S'LEWANDOWSKI Denies Collusion in Clash With Chuck Todd: \xe2\x80\x98I Don\xe2\x80\x99t Know Anything About RUSSIA, Okay!\xe2\x80\x99 \n\nhttp://google.com/newsstand/s/CBIwkZXlkDo\xc2\xa0\xe2\x80\xa6'
p250
S'4:09 PM - 1 Nov 2017'
p251
tp252
a(S"Doesn't the racist liberal gelespie commercial seem identical to Russia Facebook propaganda?talk bout collusion"
p253
S'4:09 PM - 1 Nov 2017'
p254
tp255
a(S"Russia! NY! Gitmo! Papa John's! Obama! Indictments! Nazis! NFL! Collusion! Socialism! Vegas! Black Brown and White people! We've gone crazy."
p256
S'4:09 PM - 1 Nov 2017'
p257
tp258
a(S'\xe2\x80\x98Collusion\xe2\x80\x99 Claims Backfire on Democrats Threefold, but Russia Is More Evil Than Ever https://www.strategic-culture.org/news/2017/10/27/collusion-claims-backfire-democrats-threefold-but-russia-more-evil-than-ever.html\xc2\xa0\xe2\x80\xa6\xe3\x80\x80\xe8\x87\xaa\xe5\x88\x86\xe3\x81\xae\xe4\xbd\x9c\xe3\x81\xa3\xe3\x81\x9f\xe8\x90\xbd\xe3\x81\xa8\xe3\x81\x97\xe7\xa9\xb4\xe3\x81\xab\xe8\x87\xaa\xe5\x88\x86\xe3\x81\x8c\xe8\x90\xbd\xe3\x81\xa1\xe3\x82\x8b\xe3\x80\x82'
p259
S'4:08 PM - 1 Nov 2017'
p260
tp261
a(S'BS #FakeNews. The ONLY provable collusion with Russia is between HRC/DNC and cooperating Russian agents who were paid for their fairytales.'
p262
S'4:08 PM - 1 Nov 2017'
p263
tp264
a(S'#TrumpPutin #Collusion #FriendsWithBenefits - \nHere Are the Social Media Ads That Russia Used to Elect Donald Trump\nhttp://www.motherjones.com/politics/2017/11/here-are-the-social-media-ads-that-russia-used-to-influence-the-election/\xc2\xa0\xe2\x80\xa6'
p265
S'4:08 PM - 1 Nov 2017'
p266
tp267
a(S'Hilary investigated by powerful congress three times & found nothing; Russia-Trump collusion 1st time investigated:1 conviction, 2 charged??'
p268
S'4:07 PM - 1 Nov 2017'
p269
tp270
a(S'@realDonaldTrump Boy you are in big trouble about RUSSIA and COLLUSION'
p271
S'4:06 PM - 1 Nov 2017'
p272
tp273
a(S'Paid to an ex-British spy already disputes collusion with #Russia not a foreign enemy country that is the difference with #Trump\xe2\x80\x99s actions'
p274
S'4:06 PM - 1 Nov 2017'
p275
tp276
a(S'How\xe2\x80\x99s that Podesta/Manafort indictment going\nDirect links to Russia\nCollusion\nMoney laundering\nCan\xe2\x80\x99t wait 4 them to get Clinton'
p277
S'4:06 PM - 1 Nov 2017'
p278
tp279
a(S'He and HRC- EVERYTHING is someone else\xe2\x80\x99s fault. Russia, Collusion, POTUS. #ridiculousness.'
p280
S'4:06 PM - 1 Nov 2017'
p281
tp282
a(S'Collusion:   CGI - $ - Hillary - $ - Russia'
p283
S'4:05 PM - 1 Nov 2017'
p284
tp285
a(S' Sean Hannity calls Pres wannabe, slip up or not, BOTH Clintons, deep in Russia collusion ploy & Uranium deals\n\nhttps://twitter.com/i/moments/925167960729063424\xc2\xa0\xe2\x80\xa6'
p286
S'4:05 PM - 1 Nov 2017'
p287
tp288
a(S"Definitely not interested in truth or country, but FINE with trumppfff's collusion with russia"
p289
S'4:05 PM - 1 Nov 2017'
p290
tp291
a(S'After NYC Terrorist Attack, CNN Breaks Away To\xe2\x80\xa6 \xe2\x80\x98Trump-Russia Collusion\xe2\x80\x99 \xc2\xab Tammy Bruce http://tammybruce.com/2017/11/after-nyc-terrorist-attack-cnn-breaks-away-to-trump-russia-collusion.html\xc2\xa0\xe2\x80\xa6'
p292
S'4:04 PM - 1 Nov 2017'
p293
tp294
a(S"Facebook, Twitter drop 'bombshell' on Trump-Russia 'collusion' http://www.wnd.com/2017/11/facebook-twitter-drop-bombshell-on-trump-russia-collusion/\xc2\xa0\xe2\x80\xa6"
p295
S'4:04 PM - 1 Nov 2017'
p296
tp297
a(S"He's right in the middle of that Russia collusion like the rest. They all knew about. Trump can't keep his big mouth shut. He's got to brag! https://twitter.com/PalmerReport/status/925850403568267264\xc2\xa0\xe2\x80\xa6"
p298
S'4:03 PM - 1 Nov 2017'
p299
tp300
a(S'Americans are fed up with the collusion theory &  Russia talk.'
p301
S'4:02 PM - 1 Nov 2017'
p302
tp303
a(S'Your attempts at deflecting the collusion with Russia, is not going to work.'
p304
S'4:02 PM - 1 Nov 2017'
p305
tp306
a(S'Where we are currently is trump is in bigly trouble for collusion with Russia. The  in chief is going down. Yay!!'
p307
S'4:01 PM - 1 Nov 2017'
p308
tp309
a(S'I\xe2\x80\x99ll agree with you on that one Mr. wire fraud! Definite collusion going on between Klinton and Russia!!'
p310
S'4:01 PM - 1 Nov 2017'
p311
tp312
a(S"they told a half truth, they did use IP address, but, target wasn't foreign users(sense russia collusion=MYTH)it was POC( activistPOC)"
p313
S'4:00 PM - 1 Nov 2017'
p314
tp315
a(S'Trump Russia Collusion Collapsing @MsAvaArmstrong http://bit.ly/2zq3cPB\xc2\xa0 via @malcolmoutloud'
p316
S'3:59 PM - 1 Nov 2017'
p317
tp318
a(S'You have no evidence and the Americans are tired of the collusion theory and Russia palaver.'
p319
S'3:59 PM - 1 Nov 2017'
p320
tp321
a(S'The only collusion with Russia is Hillary and the uranium one deal. Russia did not make us vote for Trump, we did ourselves.'
p322
S'3:59 PM - 1 Nov 2017'
p323
tp324
a(S'1. Commission faux Dossier vs @realDonaldTrump\n2. Rely on it as pretext 4 FISA warrants\n3. Use info as basis for Russia collusion & Sp. Pros pic.twitter.com/ry0ixEB65w'
p325
S'3:58 PM - 1 Nov 2017'
p326
tp327
a(S'Is the story, that Russia influenced the election via advertising on social media platforms, and accusations of "collusion"--projection? https://twitter.com/Kantrowitz/status/925820649184079873\xc2\xa0\xe2\x80\xa6'
p328
S'3:58 PM - 1 Nov 2017'
p329
tp330
a(S'Been waiting a year. So far, none of the charges actually filed have anything to do with Trump-Russia collusion. Still waiting. '
p331
S'3:58 PM - 1 Nov 2017'
p332
tp333
a(S'The hacks at #WorldNewsTonight continue to push the Democrat narrative with their Russia story. And yet there is zero evidence of collusion.'
p334
S'3:58 PM - 1 Nov 2017'
p335
tp336
a(S'Will Ivanka be complicit with Daddy throwing Jared under the bus, blaming him for Comey/Flynn, Russia data links & collusion?'
p337
S'3:57 PM - 1 Nov 2017'
p338
tp339
a(S'Let\xe2\x80\x99s hope this idiotic president doesn\xe2\x80\x99t start a war with North Korea to shift the focus off collusion with Russia investigation.'
p340
S'3:56 PM - 1 Nov 2017'
p341
tp342
a(S'U want real Russia Collusion? How about a fake Dossier from Russians, payed for by Hillary & the DNC to slander Trump & spy on his campaign?'
p343
S'3:54 PM - 1 Nov 2017'
p344
tp345
a(S"FACEBOOK, TWITTER DROP 'BOMBSHELL' ON TRUMP-RUSSIA 'COLLUSION'\nhttp://www.wnd.com/2017/11/facebook-twitter-drop-bombshell-on-trump-russia-collusion/\xc2\xa0\xe2\x80\xa6"
p346
S'3:54 PM - 1 Nov 2017'
p347
tp348
a(S"That's why Russia wasn't mentioned in either of the indictments.  Still no evidence of collusion from trump."
p349
S'3:54 PM - 1 Nov 2017'
p350
tp351
a(S'Your person is being investigated for collusion with Russia...2 campaign workers already indicted and an advisor has already pled guilty'
p352
S'3:53 PM - 1 Nov 2017'
p353
tp354
a(S'Ok, how bout this, no Russia collusion on either side. How about we work together with the President to make America a better place?'
p355
S'3:52 PM - 1 Nov 2017'
p356
tp357
a(S'Nothing you have done is a change for the better.  Russia Collusion, you cheat!'
p358
S'3:52 PM - 1 Nov 2017'
p359
tp360
a(S'@TheBeatWithAri : @MichaelRCaputo is a phony guy. There was no Russia collusion in the campaign? All these guys ( Manafort, Kushner, 1/2'
p361
S'3:51 PM - 1 Nov 2017'
p362
tp363
a(S"Lewandowski Denies Collusion in Clash With Chuck Todd: 'I Don't Know Anything About Russia, Okay?' http://bit.ly/2iQQHp8\xc2\xa0 (VIDEO)pic.twitter.com/qKsbCi0sZG"
p364
S'3:50 PM - 1 Nov 2017'
p365
tp366
a(S'Why @realDonaldTrump did you encourage and collude with Russia? You encouraged a hack, that is collusion! Why?'
p367
S'3:49 PM - 1 Nov 2017'
p368
tp369
a(S'Entire Trump-Russia Collusion Investigation Is a Farce - Not Based on US Law http://www.thegatewaypundit.com/2017/11/entire-trump-russia-collusion-investigation-farce-not-based-us-law/\xc2\xa0\xe2\x80\xa6'
p370
S'3:49 PM - 1 Nov 2017'
p371
tp372
a(S'Russia used wedge issues, anti-Clinton memes to divide US voters... along with countless bots, paid trolls & of course, #Collusion for tRump https://twitter.com/politico/status/925805477946122240\xc2\xa0\xe2\x80\xa6'
p373
S'3:48 PM - 1 Nov 2017'
p374
tp375
a(S'Entire Trump-Russia Collusion Investigation Is a Farce - Not Based on US Law: Not Legally Justified! http://www.thegatewaypundit.com/2017/11/entire-trump-russia-collusion-investigation-farce-not-based-us-law/\xc2\xa0\xe2\x80\xa6'
p376
S'3:47 PM - 1 Nov 2017'
p377
tp378
a(S'@realDonaldTrump \n\nWhere\xe2\x80\x99s evidence of collusion? \nWhere\xe2\x80\x99s evidence Russia hacked DNC? \nWhere evidence Russia sought to help Trump in ads?'
p379
S'3:47 PM - 1 Nov 2017'
p380
tp381
a(S'and still no connection to trump or russia collusion.'
p382
S'3:46 PM - 1 Nov 2017'
p383
tp384
a(S'Democrats Humiliated As FBI Comes Up Empty Handed In Russia Collusion Probe https://en-volve.com/2017/10/31/democrats-humiliated-as-fbi-comes-up-empty-handed-in-russia-collusion-probe/\xc2\xa0\xe2\x80\xa6'
p385
S'3:44 PM - 1 Nov 2017'
p386
tp387
a(S"Why aren't you concerned about uranium sold to Russia or collusion with obama clinton and Russia what about pay to play #CorruptDnc"
p388
S'3:43 PM - 1 Nov 2017'
p389
tp390
a(S'Even if there was no collusion, Russia still duped a bunch of stupid Americans the way McDonald\xe2\x80\x99s & Coke Cola can only dream of! #Impeach45'
p391
S'3:42 PM - 1 Nov 2017'
p392
tp393
a(S'NY terrorist 7yrs in U.S. Trump immigration lies. More impt. Trump&Russia. Collusion? "Chickens coming home to roost"? #IMPEACH'
p394
S'3:42 PM - 1 Nov 2017'
p395
tp396
a(S'7 Takeaways From Mueller\xe2\x80\x99s Charges In Russia Collusion Probe  http://thefederalist.com/2017/10/31/7-takeaways-from-muellers-charges-in-russia-collusion-probe/\xc2\xa0\xe2\x80\xa6'
p397
S'3:41 PM - 1 Nov 2017'
p398
tp399
a(S'Trumps response to don jrs indictment for collusion w russia: "he was only my son for short time, a volunteer and has history of lying"'
p400
S'3:40 PM - 1 Nov 2017'
p401
tp402
a(S"Crybaby. When you and your Russia lobbying brother are indicted for Russian collusion--Uranium One, you'll really be whining."
p403
S'3:40 PM - 1 Nov 2017'
p404
tp405
a(S'Mark my words. With the Russia collusion hoax now exposed, liberal race-baiting will begin peaking again. Papa Johns #RaceHustlerhttps://twitter.com/funder/status/925818275048673282\xc2\xa0\xe2\x80\xa6'
p406
S'3:38 PM - 1 Nov 2017'
p407
tp408
a(S"FACEBOOK, TWITTER DROP 'BOMBSHELL' ON TRUMP-RUSSIA 'COLLUSION' http://www.wnd.com/2017/11/facebook-twitter-drop-bombshell-on-trump-russia-collusion/\xc2\xa0\xe2\x80\xa6"
p409
S'3:37 PM - 1 Nov 2017'
p410
tp411
a(S'Fox news wad on the wrong side of history on Russia collusion!  Impeachment of Trump is real not fake news! pic.twitter.com/huuYwXXNMH'
p412
S'3:36 PM - 1 Nov 2017'
p413
tp414
a(S"He didn't throw an election, lying deceiving Hilliary just couldn't get her ducks in a row quick enough with her Russia collusion"
p415
S'3:36 PM - 1 Nov 2017'
p416
tp417
a(S"#RememberThetime  When  #Trump  said  russia  if  ya  listening will  that's  collusion  when  calls  on  russia to  get  clinton e - mails."
p418
S'3:36 PM - 1 Nov 2017'
p419
tp420
a(S'Ari Melber just spread out a nice timeline indicating plausibility of trump in collusion w Russia during the campaign.'
p421
S'3:35 PM - 1 Nov 2017'
p422
tp423
a(S'"We certainly don\'t take this administration at their word" that there was no collusion with Russia - Rep. @jahimespic.twitter.com/4UJkO4fKla'
p424
S'3:35 PM - 1 Nov 2017'
p425
tp426
a(S'How is she the collusion boss? Do you need a lesson on the difference between investigating Russia and colluding with Russia?'
p427
S'3:35 PM - 1 Nov 2017'
p428
tp429
a(S"He's guilty of collusion with Russia and he knows it."
p430
S'3:35 PM - 1 Nov 2017'
p431
tp432
a(S'I bet your judges will be willing to give YOU real justice for Russia collusion.'
p433
S'3:34 PM - 1 Nov 2017'
p434
tp435
a(S'Here is your #collusion #democrats! #Podesta #HilaryClinton #hillaryforprison #russia https://twitter.com/realsaavedra/status/925188297348890625\xc2\xa0\xe2\x80\xa6'
p436
S'3:34 PM - 1 Nov 2017'
p437
tp438
a(S'Entire Trump-Russia Collusion Investigation Is a Farce \xe2\x80\x93 Not Based on US Law http://www.thegatewaypundit.com/2017/11/entire-trump-russia-collusion-investigation-farce-not-based-us-law/\xc2\xa0\xe2\x80\xa6pic.twitter.com/0tVhOmXDkv'
p439
S'3:34 PM - 1 Nov 2017'
p440
tp441
a(S"Pimpledickless didn't amount to anything. Or did you NOT read the charges or his statement? Nothing points to Trump/Russia collusion."
p442
S'3:33 PM - 1 Nov 2017'
p443
tp444
a(S'Facebook, Twitter drop \xe2\x80\x98bombshell\xe2\x80\x99 on Trump-Russia \xe2\x80\x98collusion\xe2\x80\x99 http://www.wnd.com/2017/11/facebook-twitter-drop-bombshell-on-trump-russia-collusion/\xc2\xa0\xe2\x80\xa6'
p445
S'3:33 PM - 1 Nov 2017'
p446
tp447
a(S'We all know that you\xe2\x80\x99re bought and paid for nobody believes for one moment that you\xe2\x80\x99re looking to find anything on Russia & Trump collusion'
p448
S'3:32 PM - 1 Nov 2017'
p449
tp450
a(S'Facebook, Twitter now reverse the Democrat narrative about  Trump-Russia \xe2\x80\x98collusion\xe2\x80\x99. It was all FAKE- they knew it\n http://www.wnd.com/2017/11/facebook-twitter-drop-bombshell-on-trump-russia-collusion/\xc2\xa0\xe2\x80\xa6'
p451
S'3:31 PM - 1 Nov 2017'
p452
tp453
a(S'"There is now more evidence about Clinton\xe2\x80\x99s collusion with Russia than there is about any such collusion by Trump."\nhttp://archive.is/cJxga\xc2\xa0'
p454
S'3:30 PM - 1 Nov 2017'
p455
tp456
a(S'FBI so focused on finding Trump-Russia collusion they failed to act on suspect Saipov\xe2\x80\x99s name surfacing in tracking of other extremists #FAIL'
p457
S'3:29 PM - 1 Nov 2017'
p458
tp459
a(S"In other words -- still no evidence of any Trump Russia collusion. You're spinning yarns."
p460
S'3:28 PM - 1 Nov 2017'
p461
tp462
a(S'#Hamilton68 traced 58 Twitter Accts./to Kremlin-spreading stories abt. Clinton/Uranium One/Clinton-Russia Collusion p/to Mueller indictmts.'
p463
S'3:27 PM - 1 Nov 2017'
p464
tp465
a(S"Nah..I don't think so..still no collusion with Russia..opposition research Clinton did to get that dossier on Trump from Russia..and paying"
p466
S'3:27 PM - 1 Nov 2017'
p467
tp468
a(S'And Trumps collusion with Russia to undermine Hillary.'
p469
S'3:25 PM - 1 Nov 2017'
p470
tp471
a(S"Trump-Russia 'Collusion' Is Blowing Up Like the Hindenburg http://www.conradmblack.com/1346/trump-russia-collusion-is-blowing-up-like#.WfpJydTNo4w.twitter\xc2\xa0\xe2\x80\xa6"
p472
S'3:25 PM - 1 Nov 2017'
p473
tp474
a(S'I think he is afraid because he was a member of the campign  and is most likely deeply involved in the Russia collusion'
p475
S'3:25 PM - 1 Nov 2017'
p476
tp477
a(S'I think Trump and Pence should be sent to Guantanamo Bay once they are arrested for collusion with Russia. https://twitter.com/Acosta/status/925847484722753536\xc2\xa0\xe2\x80\xa6'
p478
S'3:23 PM - 1 Nov 2017'
p479
tp480
a(S'...is 45 calling our country criminal justice system a "joke and a laughingstock" because he hasn\'t been indicted yet for RUSSIA collusion? https://twitter.com/JohnJHarwood/status/925816893990154242\xc2\xa0\xe2\x80\xa6'
p481
S'3:23 PM - 1 Nov 2017'
p482
tp483
a(S'Most knew Trump/Russia was a lie! Facebook, Twitter drop \xe2\x80\x98bombshell\xe2\x80\x99 on Trump-Russia \xe2\x80\x98collusion\xe2\x80\x99 http://po.st/LfRpUR\xc2\xa0 via @worldnetdaily'
p484
S'3:23 PM - 1 Nov 2017'
p485
tp486
a(S'Not shocking at all. Clinton took $145 million from Russia, gave them uranium, then blamed Trump for collusion with the Russians. Liars. All of them.'
p487
S'3:23 PM - 1 Nov 2017'
p488
tp489
a(S'Apparently this was paid for by Russians to sway the vote on Facebook... who would put their names to having their vote swayed by this? Shit like this is on Jesus Daily! #Collusion #Russia #Meme pic.twitter.com/Zi480KfNoX'
p490
S'3:22 PM - 1 Nov 2017'
p491
tp492
a(S'Russia placed ads on Facebook/Twitter/Google after the election to cast shade on Trump\'s win and  divide the country. The gope Senate/house then opened up investigations on trump/Russia collusion.\n\nIn other words, the gope "leadership" has shown themselves to be Russian Stooges.'
p493
S'3:22 PM - 1 Nov 2017'
p494
tp495
a(S'#Facebook, #Twitter drop \xe2\x80\x98bombshell\xe2\x80\x99 on #TrumpRussia \xe2\x80\x98collusion\xe2\x80\x99 #InternetResearchAgency #Russia #CCOT #PJNet http://po.st/SQ6mK6\xc2\xa0'
p496
S'3:22 PM - 1 Nov 2017'
p497
tp498
a(S'No doubt. Collusion with Russia is a very serious charge.'
p499
S'3:21 PM - 1 Nov 2017'
p500
tp501
a(S'Hillary is just one of many who will be indicted. The collusion with Russia is an Obama admin / Hillary "charity" bribery / pay to play deal'
p502
S'3:19 PM - 1 Nov 2017'
p503
tp504
a(S'It sure looks like there was collusion between the Trump operation and Russia https://www.vox.com/policy-and-politics/2017/10/30/16571114/trump-russia-mueller-indictments-manafort-gates-papadopolous?utm_campaign=vox&utm_content=entry&utm_medium=social&utm_source=twitter\xc2\xa0\xe2\x80\xa6 via @voxdotcom'
p505
S'3:19 PM - 1 Nov 2017'
p506
tp507
a(S'Pay attention #MAGA, collusion with Russia to win an election is treasonous.  Perjury is a crime.  Lock. Him. Up.\n\nhttps://www.rawstory.com/2017/11/busted-evidence-mounts-that-jeff-sessions-perjured-himself-under-al-franken-questioning/#.WfoXQNRyVfM.twitter\xc2\xa0\xe2\x80\xa6'
p508
S'3:19 PM - 1 Nov 2017'
p509
tp510
a(S'Seems to be working just fine if you ask me. Especially with regards to @realDonaldTrump\xe2\x80\x99s collusion with Russia. Coming along quite nicely.'
p511
S'3:18 PM - 1 Nov 2017'
p512
tp513
a(S'DNC funding of Steele dossier \xe2\x80\x98exonerates Trump\xe2\x80\x99 of Russia collusion \xe2\x80\x92 Ed Schultz http://youtu.be/eR8IAvtAeHQ\xc2\xa0'
p514
S'3:18 PM - 1 Nov 2017'
p515
tp516
a(S'The real russia collusion pic.twitter.com/84GahlfFQo'
p517
S'3:18 PM - 1 Nov 2017'
p518
tp519
a(S'Facebook, Twitter drop \xe2\x80\x98bombshell\xe2\x80\x99 on Trump-Russia \xe2\x80\x98collusion\xe2\x80\x99 - http://www.wnd.com/2017/11/facebook-twitter-drop-bombshell-on-trump-russia-collusion/\xc2\xa0\xe2\x80\xa6'
p520
S'3:18 PM - 1 Nov 2017'
p521
tp522
a(S'.@realDonaldTrump is operating on the philosophy "if I tweet enough, they\'ll forget about my campaigns collusion with Russia." No, we won\'t.'
p523
S'3:16 PM - 1 Nov 2017'
p524
tp525
a(S'You libtards are really something.  No Russia and no collusion.  Get a life.  The 9th circuit is a joke.  Dems judge shop for their judges.'
p526
S'3:16 PM - 1 Nov 2017'
p527
tp528
a(S'right. The probe is into possible collusion between the Trump campaign and Russia.  the name Trump is right in it. He thinks he is separate?'
p529
S'3:16 PM - 1 Nov 2017'
p530
tp531
a(S'Well that ends the Trump/Russia collusion lie! Hillary/Dems accuse Trump of what they were doing! https://twitter.com/koranisburning/status/925831183790985217\xc2\xa0\xe2\x80\xa6'
p532
S'3:16 PM - 1 Nov 2017'
p533
tp534
a(S'More liberal collusion with the RussiansThousands protested Trump last November in rally organized by Russia https://hotair.com/archives/2017/10/31/thousands-protested-trump-last-november-rally-organized-russia/\xc2\xa0\xe2\x80\xa6'
p535
S'3:15 PM - 1 Nov 2017'
p536
tp537
a(S'How Obama and Hillary Clinton Weaponized the Trump-Russia Collusion \xe2\x80\x98Dossier\xe2\x80\x99 https://shar.es/1PxFT4\xc2\xa0 via @grtvnews'
p538
S'3:15 PM - 1 Nov 2017'
p539
tp540
a(S'DNC party of Corruption Greed Degenerates pedophiles KKK hypocrites RUSSIA collusion'
p541
S'3:14 PM - 1 Nov 2017'
p542
tp543
a(S'I\xe2\x80\x99m sorry, but POTUS had no collusion with Russia.  Enough already.  Just let him do his job!'
p544
S'3:14 PM - 1 Nov 2017'
p545
tp546
a(S'All she does is obsess abt Russia and everything she reported was debunked bc there nothing there! U want a collusion? Look at the Clintons'
p547
S'3:13 PM - 1 Nov 2017'
p548
tp549
a(S'The Hill? Vanity Fair? Have any of you heard of fake news? Anonymous sources? HATE thread; with dumb people. Russia + Hillary = Collusion,'
p550
S'3:12 PM - 1 Nov 2017'
p551
tp552
a(S'Can we get the Clinton Foundation to pay for the wall with funds received from their Russia collusion? pic.twitter.com/TKEM1I52zz'
p553
S'3:12 PM - 1 Nov 2017'
p554
tp555
a(S'Hmmm?? testimony from Google/Twitter must\xe2\x80\x99ve burst Ur Collusion Bubble today! Almost all efforts/ Adds after election. Russia attacks Trump!'
p556
S'3:12 PM - 1 Nov 2017'
p557
tp558
a(S"Anderson Cooper ENDS Trump's Lies On The Russia Collusion With A Magnificent Breakdown\nhttps://www.youtube.com/watch?v=9m-x9S_KZY0\xc2\xa0\xe2\x80\xa6"
p559
S'3:12 PM - 1 Nov 2017'
p560
tp561
a(S'Is It Time To Appoint A Special Counsel For Democrat/Russia Collusion and Hillary/FBI/DOJ Email Investigation/Coverup?'
p562
S'3:10 PM - 1 Nov 2017'
p563
tp564
a(S'@realDonaldTrump Wonder who will be charged next in Russia collusion investigation??  COLLUSION w Trump campaign already proven.SAD'
p565
S'3:10 PM - 1 Nov 2017'
p566
tp567
a(S'Except where Russia is concerned! #collusion #sanctions'
p568
S'3:08 PM - 1 Nov 2017'
p569
tp570
a(S"People saying 'there must be collusion between Trump and Russia because they were so sophisticated in their targeting.' are idiots."
p571
S'3:08 PM - 1 Nov 2017'
p572
tp573
a(S"But they're clear that there was a) collusion with Russia and b) this is bad? Because they've been pretty ambivalent on both points before "
p574
S'3:08 PM - 1 Nov 2017'
p575
tp576
a(S'You know what...this would be a great time to bring criminal charges against Hillary, Podesta, Obama for their collusion w/Russia.'
p577
S'3:08 PM - 1 Nov 2017'
p578
tp579
a(S'You cant indict a sitting President.  Liberals know this.  Liberals are not looking.  They are laughing at you denying collusion with Russia.'
p580
S'3:06 PM - 1 Nov 2017'
p581
tp582
a(S'So, Senator Paul, are you involved in the collusion with Russia too?'
p583
S'3:06 PM - 1 Nov 2017'
p584
tp585
a(S'48 hrs to get every bit of info on the NY terrorist but working for over a year on Russia collusion can\xe2\x80\x99t find their ass with both hands!'
p586
S'3:06 PM - 1 Nov 2017'
p587
tp588
a(S"@jaketapper we need special counsel to investigate hillary n dnc, for fair n balance treatment of both campaigns. we the ppl deserve the truth. mueller's cases r all duds. after fake news media's russia collusion-fake news-obsession for abt 1yr, no evidence against trump to date."
p589
S'3:05 PM - 1 Nov 2017'
p590
tp591
a(S'CNN: \xe2\x80\x9cPeople die after a beautiful rendition of Allahu Akbar in G minor and now back to the empty inbox of Trump/Russia collusion.\xe2\x80\x9d'
p592
S'3:04 PM - 1 Nov 2017'
p593
tp594
a(S'Not still playing the Russia collusion? Talk to Hillary and the DNC'
p595
S'3:03 PM - 1 Nov 2017'
p596
tp597
a(S'Mr Liar in Chief? You collusion with Russia has nothing to do with anyone but you and your crooked cabinet. Stop lying and denying!!'
p598
S'3:02 PM - 1 Nov 2017'
p599
tp600
a(S"Twitter's Russia collusion is a feature not a bug. And it's still going on. https://twitter.com/Kantrowitz/status/925819995409534983\xc2\xa0\xe2\x80\xa6"
p601
S'3:02 PM - 1 Nov 2017'
p602
tp603
a(S'Where\xe2\x80\x99s the story on Hillary\xe2\x80\x99s collusion with Russia?'
p604
S'3:00 PM - 1 Nov 2017'
p605
tp606
a(S'Russia manipulates Facebook, creates racial tension masquerading as BLM to agitate/protest Trump. #Zuckerberg guilty of collusion. @POTUS'
p607
S'2:59 PM - 1 Nov 2017'
p608
tp609
a(S"Facebook, Twitter drop 'bombshell' on Trump-Russia 'collusion' http://ift.tt/2lCqWKe\xc2\xa0"
p610
S'2:59 PM - 1 Nov 2017'
p611
tp612
a(S"What Papadopoulos did was collusion w Russia that he lied about. It's pretty much Standard Operating Procedure for this Administration"
p613
S'2:59 PM - 1 Nov 2017'
p614
tp615
a(S'Entire Trump Russia Collusion Investigation Is a Farce \xe2\x80\x93 Not Based on US Law - YouTube http://sco.lt/8l36ob\xc2\xa0'
p616
S'2:57 PM - 1 Nov 2017'
p617
tp618
a(S"Treachery. Careful they're looking into your collusion with Russia. I'd say that's treason. Far worse. they're coming to get you "
p619
S'2:57 PM - 1 Nov 2017'
p620
tp621
a(S"Consider,if Trump had no collusion w/Russia, why is he so reactive to Mueller's investgtn?Sign of guilt? Me thinkest he protesteth too much!"
p622
S'2:56 PM - 1 Nov 2017'
p623
tp624
a(S"Robert Mueller's Collusion With Russia Just Skyrocketed, Not Only Physically Involved In Uranium One..But.. http://truthfeednews.com/guess-who-ran-the-fbi-during-the-uranium-one-scandal/\xc2\xa0\xe2\x80\xa6"
p625
S'2:56 PM - 1 Nov 2017'
p626
tp627
a(S'She is being investigated for collusion with Russia to hurt Hillary.  Did you know about her involvement with Russia and Assange?'
p628
S'2:56 PM - 1 Nov 2017'
p629
tp630
a(S'The details on George Papadopoulos are poking holes in the Trump administration blanket denials of Russia collusion: https://www.washingtonpost.com/blogs/right-turn/wp/2017/10/31/the-papadopoulos-plea-has-blindsided-republicans/\xc2\xa0\xe2\x80\xa6'
p631
S'2:56 PM - 1 Nov 2017'
p632
tp633
a(S'The New York \xe2\x80\x9cterror\xe2\x80\x9d attack reeks of a convenient diversion... Trump/Russia collusion is getting a bit close'
p634
S'2:56 PM - 1 Nov 2017'
p635
tp636
a(S'"It sure looks like there was collusion between the Trump operation and Russia" -- Ezra Klein -- https://www.vox.com/policy-and-politics/2017/10/30/16571114/trump-russia-mueller-indictments-manafort-gates-papadopolous\xc2\xa0\xe2\x80\xa6'
p637
S'2:55 PM - 1 Nov 2017'
p638
tp639
a(S'Mueller indictments do not contain a smoking gun as such, but hard to read them without concluding there was Trump campaign/Russia collusion'
p640
S'2:55 PM - 1 Nov 2017'
p641
tp642
a(S'Wash Post More public evidence about Clinton\xe2\x80\x99s collusion with Russia than there is about any such collusion by Trump https://www.reddit.com/r/The_Donald/comments/7a3v5x/washington_post_there_is_now_more_public_evidence/?st=J9HKX2WO&sh=392cf9fb\xc2\xa0\xe2\x80\xa6'
p643
S'2:55 PM - 1 Nov 2017'
p644
tp645
a(S'The Trump-Russia collusion story was a joint invention of the Obama administration and the Clinton campaign. It en\xe2\x80\xa6 http://ift.tt/2huKfAU\xc2\xa0'
p646
S'2:55 PM - 1 Nov 2017'
p647
tp648
a(S'Poll: Vast majority of Trump voters say he should stay in office even if Russia collusion is proven http://fb.me/1GVu6zaKZ\xc2\xa0'
p649
S'2:54 PM - 1 Nov 2017'
p650
tp651
a(S'.@realDonaldTrump sees the horrible NYC attack as an opportunity to help him personally. He tweets to deflect his Russia collusion. #Mueller'
p652
S'2:53 PM - 1 Nov 2017'
p653
tp654
a(S'Only provable collusion is the one between Facebook and Russia. Proving Facebook colluded with Trump is harder. Dems own Facebook'
p655
S'2:53 PM - 1 Nov 2017'
p656
tp657
a(S"'Facebook, Twitter drop 'bombshell' on Trump-Russia 'collusion''- WND http://back.ly/IE4m5\xc2\xa0"
p658
S'2:53 PM - 1 Nov 2017'
p659
tp660
a(S'$100,000 internet ads did not sway the Election 2016. Ads are not a hack. Y\'all keep dumbing down the meaning of "Russia Collusion." https://twitter.com/ByronTau/status/925799455093170176\xc2\xa0\xe2\x80\xa6'
p661
S'2:53 PM - 1 Nov 2017'
p662
tp663
a(S"Gregg Jarrett: Still no evidence of Trump-Russia 'collusion' - but Hillary is a different matter http://fxn.ws/2zj7bxn\xc2\xa0 #FoxNews"
p664
S'2:52 PM - 1 Nov 2017'
p665
tp666
a(S'What the Russia-Inquiry Revelations Tell Us About Trump-Campaign Collusion https://www.newyorker.com/news/our-columnists/russia-inquiry-revelations-trump-campaign-collusion\xc2\xa0\xe2\x80\xa6'
p667
S'2:52 PM - 1 Nov 2017'
p668
tp669
a(S'Trump, Russia, Possible Collusion (REMIX) https://youtu.be/lw2BVI9OhC4\xc2\xa0 via @YouTube'
p670
S'2:52 PM - 1 Nov 2017'
p671
tp672
a(S'If this is true Get the Info - Bill Binney FMR NSA Official Says There Was No Trump-Russia Collusion https://youtu.be/HBrGbIrkFA0\xc2\xa0\nCut the cost'
p673
S'2:51 PM - 1 Nov 2017'
p674
tp675
a(S"London professor at centre of Trump-Russia collusion inquiry - 'I have clear conscience'\n#Papadopouloshttp://www.telegraph.co.uk/news/2017/10/30/revealed-london-professor-centre-trumprussia-inquiry-says-have/?WT.mc_id=tmg_share_tw\xc2\xa0\xe2\x80\xa6"
p676
S'2:50 PM - 1 Nov 2017'
p677
tp678
a(S"People were run the fuck over, dude ! But fake peepee papers and a DEAD Trump/Russia collusion lie is what really matters? M'kay.. GTFOH https://twitter.com/SethAbramson/status/925587644180033536\xc2\xa0\xe2\x80\xa6"
p679
S'2:50 PM - 1 Nov 2017'
p680
tp681
a(S'I didn\xe2\x80\x99t. I only hear about the Russia collusion on CNN and Hillary\xe2\x80\x99s ties to them.'
p682
S'2:48 PM - 1 Nov 2017'
p683
tp684
a(S'No evidence of collusion except when Trump\xe2\x80\x99s campaign chair was illegally working as an agent of a foreign power & Russia helped him win.'
p685
S'2:47 PM - 1 Nov 2017'
p686
tp687
a(S"Talking about what? Collusion? So what? It's not a crime to collude with Russia or China, or Israel, or Hollywood, or The Vatican...etc."
p688
S'2:47 PM - 1 Nov 2017'
p689
tp690
a(S"Wonder if it's all the ones that's gonna get swept up in the investigation concerning Russia collusion...   hmmmmm..."
p691
S'2:46 PM - 1 Nov 2017'
p692
tp693
a(S'Its taking place among the American people. Just like the established collusion between the DNC + Hellary & Russia is established. Same deal https://twitter.com/larryelder/status/925711617873952768\xc2\xa0\xe2\x80\xa6'
p694
S'2:45 PM - 1 Nov 2017'
p695
tp696
a(S'Collusion or conspiracy? Breaking down the terminology of the Trump-Russia investigation http://ow.ly/1w6B30ggUVc\xc2\xa0'
p697
S'2:45 PM - 1 Nov 2017'
p698
tp699
a(S"Haven't you heard Trumpers: Collusion 'tween HRC/Russia /Too bad pesky evidence produced from Meuller's professional invest says otherwise."
p700
S'2:44 PM - 1 Nov 2017'
p701
tp702
a(S'why have we not heard from you on the Dems collusion with Russia.\nhow about the sale of Uranium? are you a Republican? https://twitter.com/SenatorBurr/status/925720894928031744\xc2\xa0\xe2\x80\xa6'
p703
S'2:44 PM - 1 Nov 2017'
p704
tp705
a(S"If Trump/Russia collusion didn't happen, the attorney general wouldn't have perjured himself on the subject http://www.emptywheel.net/2017/11/01/jeff-sessions-unforgets-the-discussions-with-russians-he-twice-swore-didnt-happen/\xc2\xa0\xe2\x80\xa6"
p706
S'2:44 PM - 1 Nov 2017'
p707
tp708
a(S'My focal point no matter what Trump throws out there: Russia and Trump\xe2\x80\x99s collusion therewith.'
p709
S'2:43 PM - 1 Nov 2017'
p710
tp711
a(S'@SenatorBurr were you not anxious to investigate Trump/Russia collusion? where are you now on Dems collusion? who is running your committee?'
p712
S'2:42 PM - 1 Nov 2017'
p713
tp714
a(S'@realDonaldTrump Sewer rat Session still has not investigated Urainum One or Hillary collusion with Russia, WHY not Mr president'
p715
S'2:42 PM - 1 Nov 2017'
p716
tp717
a(S'If it wasn\xe2\x80\x99t for them, he wouldn\xe2\x80\x99t have done it! Fuckin morons! They should take credit for all of the Russia collusion now'
p718
S'2:42 PM - 1 Nov 2017'
p719
tp720
a(S"Have been reading the news lately??I don't mean CNN..They are still on Russia collusion.. about THE DNC, The Clintons, Obama, Holder, Lynch,"
p721
S'2:42 PM - 1 Nov 2017'
p722
tp723
a(S'Rod Rosenstein should be fired as soon as Mueller ends his phony Russia collusion investigation. https://twitter.com/karenmonsour12/status/925837873475129350\xc2\xa0\xe2\x80\xa6'
p724
S'2:42 PM - 1 Nov 2017'
p725
tp726
a(S'Who gives a frig re leaks. Just the facts pls. Betting it\xe2\x80\x99ll show Russia -Trump collusion. Trump is a traitor. #LockHimUp'
p727
S'2:42 PM - 1 Nov 2017'
p728
tp729
a(S"Gregg Jarrett: Still no evidence of Trump-Russia 'collusion' - but Hillary is a different matter | Fox News http://fxn.ws/2ylM4KF\xc2\xa0 #legal"
p730
S'2:40 PM - 1 Nov 2017'
p731
tp732
a(S"@IanDunt What are the odds on Farage, Banks and so on getting drawn into Mueller's investigation re Trump, Russia, Brexit and collusion."
p733
S'2:40 PM - 1 Nov 2017'
p734
tp735
a(S"or say he's pro-life because of Russia collusion ..."
p736
S'2:38 PM - 1 Nov 2017'
p737
tp738
a(S'#CorruptDonaldTrump will use anything he can to distract your attention away from the TrumpRussia\n#COLLUSION #INVESTIGATIONSTAY FOCUSEDpic.twitter.com/0ODSmsxDxn'
p739
S'2:38 PM - 1 Nov 2017'
p740
tp741
a(S'Not true. Russia was always involved. And also paying a foreign company for research is not collusion.'
p742
S'2:38 PM - 1 Nov 2017'
p743
tp744
a(S"@CLewandowski_ Saw you on Chuck Todd's show. Maybe you should flip. Sounds & looks like you know all abt the collusion w/Russia."
p745
S'2:38 PM - 1 Nov 2017'
p746
tp747
a(S'You came to be fake POTUS through collusion with Russia. I demand your resignation, and the resignation of each of your deplorables.'
p748
S'2:37 PM - 1 Nov 2017'
p749
tp750
a(S'This is a direct collusion link posed today in hearings regarding Trump Russia and Twitter Facebook adds. @twitter must provide more info!https://twitter.com/justinhendrix/status/925829269619699712\xc2\xa0\xe2\x80\xa6'
p751
S'2:36 PM - 1 Nov 2017'
p752
tp753
a(S"Isn't NYC your town? What on earth took you so long? Collusion with Russia? Pathetic."
p754
S'2:36 PM - 1 Nov 2017'
p755
tp756
a(S'Entire Trump-Russia Collusion Investigation Is a Farce \xe2\x80\x93 Not Based on US Law http://www.thegatewaypundit.com/2017/11/entire-trump-russia-collusion-investigation-farce-not-based-us-law/\xc2\xa0\xe2\x80\xa6'
p757
S'2:34 PM - 1 Nov 2017'
p758
tp759
a(S"Gregg Jarrett: Still no evidence of Trump-Russia 'collusion' - but Hillary is a different matter http://fxn.ws/2zj7bxn\xc2\xa0 #FoxNews"
p760
S'2:33 PM - 1 Nov 2017'
p761
tp762
a(S"VIDEO: Ben Shapiro & Jesse Watters CORNER Democrat after he defends Hillary's Russia collusion https://ilovemyfreedom.org/video-ben-shapiro-jesse-watters-corner-democrat-defends-hillary-funding-russia-dossier/\xc2\xa0\xe2\x80\xa6"
p763
S'2:33 PM - 1 Nov 2017'
p764
tp765
a(S'Seriously?\n2 CNN spoxmen admitted on hot mic that whole Russia/Trump Collusion thing was big \xe2\x80\x9cNothing-burger,\xe2\x80\x9d & just for ratings-FAKE NEWS!'
p766
S'2:29 PM - 1 Nov 2017'
p767
tp768
a(S'Wrong. Trump/Russia investigation still going on. Collusion, Obstruction yet to be determined. Trump is the worst president in US history'
p769
S'2:29 PM - 1 Nov 2017'
p770
tp771
a(S'#prison soon. By the way enlighten your @potus Uzbekistan\xc2\xa0part of Soviet Union. His employees being charged w collusion w Russia. Hmm...?'
p772
S'2:29 PM - 1 Nov 2017'
p773
tp774
a(S'Trump Voters Want Him in the White House Even If Russia Collusion Is Proved, Poll Shows https://www.yahoo.com/news/m/b44e9fa2-940c-34a6-8b8c-a66815409640/trump-voters-want-him-in-the.html?.tsrc=fauxdal\xc2\xa0\xe2\x80\xa6'
p775
S'2:28 PM - 1 Nov 2017'
p776
tp777
a(S'.@chucktodd needs a job on #TMZ.  Anyone near #trump that talked to a #Russian, went to Russia, drank vodka or ate borscht proves #collusion'
p778
S'2:27 PM - 1 Nov 2017'
p779
tp780
a(S'Collusion with russia\n1 convicted \n2 indictments more to come\n33% approval \nThx @realDonaldTrump\n#RESIGN \ndasvidaniya comradepic.twitter.com/eBIe3iuPkE'
p781
S'2:25 PM - 1 Nov 2017'
p782
tp783
a(S"It was started by GOP. And it's aim was to collect information on Trump's collusion with Russia. Itself this was not collusion"
p784
S'2:24 PM - 1 Nov 2017'
p785
tp786
a(S"Msnbc and CNN talk about phony Trump Russia collusion daily. But that's not what we were talking about."
p787
S'2:24 PM - 1 Nov 2017'
p788
tp789
a(S'AND EXACTLY HOW ARE THESE CHARGES GOING TO SOW COLLUSION W RUSSIA!?   THEY CLEARLY DO NOT!\n\nhttps://www.christiannewsalerts.com/bombshell-manafort-charges/?utm_medium=push&utm_source=CNA&utm_campaign=onesignal\xc2\xa0\xe2\x80\xa6'
p790
S'2:22 PM - 1 Nov 2017'
p791
tp792
a(S'Yes, Russia was planting collusion stories CNN has made the backbone of their network'
p793
S'2:21 PM - 1 Nov 2017'
p794
tp795
a(S'@CNN @MSNBC MANAFORT&PAPADOPOLOUS?One on financial other on direct contact w RUSSIA. That tells u MUELLER after COLLUSION& MONEY LAUNDERING.'
p796
S'2:20 PM - 1 Nov 2017'
p797
tp798
a(S"I liked a @YouTube video http://youtu.be/9m-x9S_KZY0?a\xc2\xa0 Anderson Cooper ENDS Trump's Lies On The Russia Collusion With A Magnificent"
p799
S'2:20 PM - 1 Nov 2017'
p800
tp801
a(S'Yes, yes, I know it\xe2\x80\x99s McClatchy, but... Charges suggest Mueller making inroads on proving Trump-Russia collusion http://www.mcclatchydc.com/news/nation-world/national/article181793426.html#storylink=cpy\xc2\xa0\xe2\x80\xa6'
p802
S'2:20 PM - 1 Nov 2017'
p803
tp804
a(S"It's called Russia collusion"
p805
S'2:20 PM - 1 Nov 2017'
p806
tp807
a(S'"I enjoy long walks on the beach, candlelit dinners, representing myself pro se in special counsel probe into alleged Russia collusion..." https://twitter.com/bradheath/status/925744754129883136\xc2\xa0\xe2\x80\xa6'
p808
S'2:20 PM - 1 Nov 2017'
p809
tp810
a(S"It would seem if this administration was put in place via collusion with Russia, then everything they've done s/b null and void."
p811
S'2:19 PM - 1 Nov 2017'
p812
tp813
a(S'Thank you Mueller for your outstanding work with Trump Russia collusion.'
p814
S'2:18 PM - 1 Nov 2017'
p815
tp816
a(S'So Vegas was too soon to say anything-now that you are in trouble with Russia-collusion - seconds is the right time to wait? #soTransparent'
p817
S'2:18 PM - 1 Nov 2017'
p818
tp819
a(S'This just the latest evidence of Trump collusion with Russia. Many Trump Domain names in Russia. Wonder is Mueller looking into this'
p820
S'2:18 PM - 1 Nov 2017'
p821
tp822
a(S'Entire Trump-Russia Collusion Investigation Is a Farce \xe2\x80\x93 Not Based on US Law http://www.thegatewaypundit.com/2017/11/entire-trump-russia-collusion-investigation-farce-not-based-us-law/\xc2\xa0\xe2\x80\xa6'
p823
S'2:18 PM - 1 Nov 2017'
p824
tp825
a(S'We all know he is under investigation, both for his campaign collusion with Russia and obstruction of justice.'
p826
S'2:16 PM - 1 Nov 2017'
p827
tp828
a(S"ALL trump. Weren't on verge of nuke war, racial attacks, detention of SN kids, collusion with Russia, attack on health care etc etc -own it!"
p829
S'2:15 PM - 1 Nov 2017'
p830
tp831
a(S'How Obama and Hillary Clinton Weaponized the Trump-Russia Collusion \xe2\x80\x98Dossier\xe2\x80\x99 https://shar.es/1PxOxh\xc2\xa0 via @grtvnews'
p832
S'2:15 PM - 1 Nov 2017'
p833
tp834
a(S'Trump Collusion? Thousands protested Trump last November in rally organized by Russia https://hotair.com/archives/2017/10/31/thousands-protested-trump-last-november-rally-organized-russia/\xc2\xa0\xe2\x80\xa6'
p835
S'2:14 PM - 1 Nov 2017'
p836
tp837
a(S"And comey ok'd the transfer of uranium to Russia.  And now he's investigating Russia collusion?  When he himself is guilty of it?"
p838
S'2:13 PM - 1 Nov 2017'
p839
tp840
a(S'\xe2\x80\x9ctrump -whom we elected- has let us down.\xe2\x80\x9d \xe2\x80\x94Russia state TV Host  #TrumpRussia #Collusion https://twitter.com/juliadavisnews/status/924968862264844288\xc2\xa0\xe2\x80\xa6'
p841
S'2:12 PM - 1 Nov 2017'
p842
tp843
a(S'Democrat Suggests, Investigating Democrat/Russia Collusion & Corruption..Helps The Russians? #DesperateMuchhttp://truthfeednews.com/wtf-dem-says-we-shouldnt-reinvestigate-clintons-because-it-helps-russia/\xc2\xa0\xe2\x80\xa6'
p844
S'2:11 PM - 1 Nov 2017'
p845
tp846
a(S'This is clear collusion with the DNC/Clinton campaign. Those leaks were VERIFIED as being authentic. NOT Russia propaganda! https://twitter.com/issielapowsky/status/925727403632156672\xc2\xa0\xe2\x80\xa6'
p847
S'2:10 PM - 1 Nov 2017'
p848
tp849
a(S'But, Trump - Russia collusion, right?!!! https://twitter.com/Melanieny5404/status/925830729660956672\xc2\xa0\xe2\x80\xa6'
p850
S'2:07 PM - 1 Nov 2017'
p851
tp852
a(S"Gregg Jarrett: Still no evidence of Trump-Russia 'collusion' - but Hillary is a different matter | Fox News http://www.foxnews.com/opinion/2017/10/30/gregg-jarrett-still-no-evidence-trump-russia-collusion-but-hillary-is-different-matter.amp.html\xc2\xa0\xe2\x80\xa6"
p853
S'2:07 PM - 1 Nov 2017'
p854
tp855
a(S'Donald Trump-Russia investigation - what you need to know about alleged collusion betwe #Waleshttp://www.newslocker.com/en-uk/region/wales/donald-trump-russia-investigation-what-you-need-to-know-about-alleged-collusion-between-us-president-and-russians/\xc2\xa0\xe2\x80\xa6'
p856
S'2:07 PM - 1 Nov 2017'
p857
tp858
a(S"MANAFORT! Original Spy! Many Passports, Many FAKE ID's but @realDonaldTrump says NO COLLUSION with RUSSIA!! #factsmatter"
p859
S'2:06 PM - 1 Nov 2017'
p860
tp861
a(S"7 Takeaways From Mueller's Charges In Russia Collusion Probe http://thefederalist.com/2017/10/31/7-takeaways-from-muellers-charges-in-russia-collusion-probe/#.Wfo3Swuo5_4.twitter\xc2\xa0\xe2\x80\xa6"
p862
S'2:06 PM - 1 Nov 2017'
p863
tp864
a(S"You mean on collecting information about Trunp's collusion with Russia? Get educated"
p865
S'2:05 PM - 1 Nov 2017'
p866
tp867
a(S'@FBI screw Trump/Russia-- this collusion between @Stranger_Things and @eggo HAS GONE TOO FAR. SAD.pic.twitter.com/JQHcBXsD9P'
p868
S'2:03 PM - 1 Nov 2017'
p869
tp870
a(S'Poll: Vast majority of Trump voters say he should stay in office even if Russia collusion is proven http://thehill.com/homenews/administration/357995-dem-pollster-vast-majority-of-trump-voters-say-he-should-stay-in\xc2\xa0\xe2\x80\xa6 FAKE NEWS'
p871
S'2:01 PM - 1 Nov 2017'
p872
tp873
a(S'Apparently #LyinCheatinDon @POTUS not happy wB just:\nObstruction of Justice\nCollusion with Russia\nMoney Laundering\n*Add Witness Intimidation'
p874
S'1:59 PM - 1 Nov 2017'
p875
tp876
a(S': Mueller Has Been \xe2\x80\x98Absolutely, Indisputably\xe2\x80\x99 Compromised by Latest Clinton-Russia Collusion Revelations - Breitbart http://www.breitbart.com/radio/2017/10/25/frank-gaffney-mueller-absolutely-indisputably-compromised\xc2\xa0\xe2\x80\xa6'
p877
S'1:58 PM - 1 Nov 2017'
p878
tp879
a(S"Stop trying to distract everyone from the fact that you're in collusion with Russia https://twitter.com/realdonaldtrump/status/925490503218589696\xc2\xa0\xe2\x80\xa6"
p880
S'1:57 PM - 1 Nov 2017'
p881
tp882
a(S'Why is it these days everyone is either a sex pest, a nonce or in collusion with Russia?'
p883
S'1:55 PM - 1 Nov 2017'
p884
tp885
a(S'How does the sale of UraniumOne to Russia approved by HRC & UFIUS not constitute a DNC crime of collusion before @realDonaldTrump candidate?'
p886
S'1:54 PM - 1 Nov 2017'
p887
tp888
a(S'The left is SO SURE Manafort is the Trump/Russia collusion...that\'s how small they\'re still thinking.\n"Small things amuse small minds"'
p889
S'1:53 PM - 1 Nov 2017'
p890
tp891
a(S'Please will someone investigate McCain for possible collusion with Hilary on Russia Dossier !!'
p892
S'1:51 PM - 1 Nov 2017'
p893
tp894
a(S'Media folks who are still screeching about false Trump-Russia collusion are yellow journalists who have no shame.\n\nhttp://www.fdlreview.com/2017/11/papadopoulos-indictment-disproves.html\xc2\xa0\xe2\x80\xa6pic.twitter.com/RgQr6XmvfH'
p895
S'1:51 PM - 1 Nov 2017'
p896
tp897
a(S"Yes investigate Clinton Russian collusion in the $$sale of 20% of U.S. uranium to Russia on obama's watch. This happened before Trump even campaigned."
p898
S'1:49 PM - 1 Nov 2017'
p899
tp900
a(S'NEW:  more MASSIVE Hillary Clinton SECRETS REVEALED over Russia collusion https://youtu.be/NEShP0aGS6k\xc2\xa0 via @YouTube'
p901
S'1:48 PM - 1 Nov 2017'
p902
tp903
a(S'What planet do you live on.   The only collusion with Russia was from Hillary and her team of monkeys and democratic ass clowns. #maga'
p904
S'1:48 PM - 1 Nov 2017'
p905
tp906
a(S'Always brilliant insights debunking Trump lies on Russia. #Russia #TrumpsLies #Collusion #obstruction\n#OOJ #CrimesAgainstDemocracyhttps://twitter.com/sethabramson/status/925819813204840449\xc2\xa0\xe2\x80\xa6'
p907
S'1:48 PM - 1 Nov 2017'
p908
tp909
a(S'Entire Trump-Russia Collusion Investigation Is a Farce - Not Based on US Law http://www.thegatewaypundit.com/2017/11/entire-trump-russia-collusion-investigation-farce-not-based-us-law/\xc2\xa0\xe2\x80\xa6'
p910
S'1:46 PM - 1 Nov 2017'
p911
tp912
a(S'Jimmy Dore is still denying Russia collusion, Is also still a fucking idiot. - [28:44] https://www.reddit.com/r/Enough_Sanders_Spam/comments/7a20yd/jimmy_dore_is_still_denying_russia_collusion_is/?ref=share&ref_source=twitter\xc2\xa0\xe2\x80\xa6 via @reddit'
p913
S'1:46 PM - 1 Nov 2017'
p914
tp915
a(S"US president Hillary Clinton's work, with Russia's help. It's the DEMS! They get all the action without baring a fang! Terrorism! COLLUSION!"
p916
S'1:44 PM - 1 Nov 2017'
p917
tp918
a(S'.@katherinemiller How do the duped marchers feel? Being set up by Russians to march against Trump-Russia collusion - surreal.'
p919
S'1:42 PM - 1 Nov 2017'
p920
tp921
a(S'Funny, I could have sworn the 3 ppl ARRESTED FOR COLLUSION W/ RUSSIA - Manafort, Georgie boy, and Gates - were REPUBLICANS, sweet pea.'
p922
S'1:42 PM - 1 Nov 2017'
p923
tp924
a(S'He\xe2\x80\x99s promoting state run tv propaganda w/Sinclair. His role in the Dossier and Russia collusion will come up through Papadopolous testimony'
p925
S'1:42 PM - 1 Nov 2017'
p926
tp927
a(S'Manafort&Russia links Trump campaign&Russia. tax returns connect dots, &Manafort/Russia connection draws roadmap for Trump/Russia collusion.'
p928
S'1:41 PM - 1 Nov 2017'
p929
tp930
a(S'#Collusion #Russia #Mueller #Trumphttps://twitter.com/SethAbramson/status/925821009684549632\xc2\xa0\xe2\x80\xa6'
p931
S'1:41 PM - 1 Nov 2017'
p932
tp933
a(S'I always knew this so-called "candy" was the devil! I think it\'s Russia-licorice collusion! Investigate! Get the Hershey people on this!  https://twitter.com/businessinsider/status/925397921734057984\xc2\xa0\xe2\x80\xa6'
p934
S'1:41 PM - 1 Nov 2017'
p935
tp936
a(S'#Trump #Mueller #Russia #Manafort #Gates #WhiteHouse #POTUS #Collusion #StrongJustice #StrongerJustice #RussiaProbe #SpecialCounsel #MAGApic.twitter.com/TX04K1ar4d'
p937
S'1:41 PM - 1 Nov 2017'
p938
tp939
a(S'The collusion was between those 65M American voters - not with Russia. HRC just doesn\xe2\x80\x99t get she was NOT wanted. Pres Trump is!'
p940
S'1:38 PM - 1 Nov 2017'
p941
tp942
a(S'75% of Trump voters say Trump-Russia collusion story is Fake News http://thepalmierireport.com/75-of-trump-vo\xc2\xa0\xe2\x80\xa6'
p943
S'1:38 PM - 1 Nov 2017'
p944
tp945
a(S'Nullify Trump Presidency!Treason,corruption,sexual predator,selling visas to Chinese, collusion to Russia,accepting money from foreign power'
p946
S'1:38 PM - 1 Nov 2017'
p947
tp948
a(S'He called out false claims on russia collusion and people called him a putin stooge. That was hysteria.'
p949
S'1:38 PM - 1 Nov 2017'
p950
tp951
a(S'Shouldn\'t it bother the "collusion" conspiracists that Facebook accepted money from Russia to buy ads and now claims the moral highground?'
p952
S'1:37 PM - 1 Nov 2017'
p953
tp954
a(S'"Trump #supporters don\'t believe in Russia collusion, but want him in the White House either way, poll shows" http://www.newsweek.com/trump-voters-want-him-white-house-even-if-russia-collusion-proved-poll-shows-697871\xc2\xa0\xe2\x80\xa6'
p955
S'1:37 PM - 1 Nov 2017'
p956
tp957
a(S'It\xe2\x80\x99s a week of Russia, collusion, and how the social networks may have been involved. @ginidietrich has more http://sbee.link/te8ir\xc2\xa0'
p958
S'1:37 PM - 1 Nov 2017'
p959
tp960
a(S"Gregg Jarrett: Still no evidence of Trump-Russia 'collusion' - but Hillary is a different matter http://fxn.ws/2zj7bxn\xc2\xa0 #FoxNews"
p961
S'1:36 PM - 1 Nov 2017'
p962
tp963
a(S'The Dems have nothing. No Russia collusion, nothing so their new plan? to paint @realDonaldTrump as mentally unstable. BS & they know it'
p964
S'1:36 PM - 1 Nov 2017'
p965
tp966
a(S'And your wannabe goddess lost because of her collusion wit Russia.'
p967
S'1:35 PM - 1 Nov 2017'
p968
tp969
a(S'Smarties lost due to collusion with Russia'
p970
S'1:35 PM - 1 Nov 2017'
p971
tp972
a(S'Mueller is a little sparkler with #NothingBurger indictments not related to Trump-Russia collusion. He has nothing. https://twitter.com/dcexaminer/status/925708030427181057\xc2\xa0\xe2\x80\xa6'
p973
S'1:34 PM - 1 Nov 2017'
p974
tp975
a(S'Now that terrorist has struck #NY heightened security nationwide. MayB if #FBI #DOJ #DHC #CIA #CONGRESS etc. spent less time on #Russia collusion & more on terrorists Americans would b much better served @realDonaldTrump #MAGA'
p976
S'1:33 PM - 1 Nov 2017'
p977
tp978
a(S'This Papa Johns business reminds me that Donald is under investigation for collusion with Russia. Like the pizza, Donald is disgusting.'
p979
S'1:32 PM - 1 Nov 2017'
p980
tp981
a(S'They took money from Russia for ads and handed it right back to liberals.  Collusion?  https://twitter.com/thomas1774paine/status/925809693372698624\xc2\xa0\xe2\x80\xa6'
p982
S'1:32 PM - 1 Nov 2017'
p983
tp984
a(S'He pivots off Russia, quickly, whenever asked about it. He voted against sanctions. Even if no collusion proven, those things are bad.'
p985
S'1:30 PM - 1 Nov 2017'
p986
tp987
a(S'Trump says he had no part in any collusion with Russia. This photo might prove otherwise/ http://fb.me/1DkdeynO9\xc2\xa0'
p988
S'1:28 PM - 1 Nov 2017'
p989
tp990
a(S"Let's wait and see. It's not looking good for obama and Hillary. Russia collusion is not nice!"
p991
S'1:27 PM - 1 Nov 2017'
p992
tp993
a(S'Maybe he should blame his collusion with Russia.'
p994
S'1:27 PM - 1 Nov 2017'
p995
tp996
a(S"If Mueller really wanted to investigate collusion with Russia he'd end up arresting  himself. @realDonaldTrump is innocent!!!"
p997
S'1:24 PM - 1 Nov 2017'
p998
tp999
a(S'We need Giuliani to investigate HILLARY/RUSSIA/URANIUM COLLUSION.This is treason. 2) Cancel visas to terrorist countries.No to open borders.'
p1000
S'1:24 PM - 1 Nov 2017'
p1001
tp1002
a(S"WHO's SURPRISED? Entire Trump-Russia Collusion Investigation Is a Farce - Not Based on US Law http://www.thegatewaypundit.com/2017/11/entire-trump-russia-collusion-investigation-farce-not-based-us-law/\xc2\xa0\xe2\x80\xa6"
p1003
S'1:24 PM - 1 Nov 2017'
p1004
tp1005
a(S"That doesn't stop the Russia investigation of you and your campaign Collusion with the Russians"
p1006
S'1:23 PM - 1 Nov 2017'
p1007
tp1008
a(S"Trump Reps wanted to loosen sanctions on Russia (why not) but couldn't risk it bc of 'collusion' accusations. Don't try to make sense of it."
p1009
S'1:22 PM - 1 Nov 2017'
p1010
tp1011
a(S'Not to mention selling 20% of our Uranium to Russia.  I guess you found the collusion you were desperately looking for.'
p1012
S'1:22 PM - 1 Nov 2017'
p1013
tp1014
a(S'RT @voxdotcom: It sure looks like there was collusion between the Trump operation and Russia. @ezraklein explains:pic.twitter.com/OvBOX3KPgk'
p1015
S'1:20 PM - 1 Nov 2017'
p1016
tp1017
a(S'Yes. People are going to find actual Russia collusion lacking and anticlimactic. But they are part of a larger ecosystem of misinformation. https://twitter.com/jessebyrnes/status/925817485542264833\xc2\xa0\xe2\x80\xa6'
p1018
S'1:19 PM - 1 Nov 2017'
p1019
tp1020
a(S'Waiting for @BernieSanders to explain his collusion with Russia.\n\n#TrumpRussia #Russia #TrumpRussiaCollusion #RussiaGatepic.twitter.com/nrERlqxKbW'
p1021
S'1:18 PM - 1 Nov 2017'
p1022
tp1023
a(S"It appears Russia considers Tr*mp's collusion a fact, which the GOP continues to deny. Interesting. https://twitter.com/WilDonnelly/status/925801256697901056\xc2\xa0\xe2\x80\xa6"
p1024
S'1:18 PM - 1 Nov 2017'
p1025
tp1026
a(S'Ask him if he used 2016 FB/Russia collusion as prep for his bid in 2020?'
p1027
S'1:18 PM - 1 Nov 2017'
p1028
tp1029
a(S'Opinion | The Mueller indictments aren\xe2\x80\x99t proof of Trump-Russia collusion \xe2\x80\x94 just bad judgment http://wapo.st/2zmbtUE?tid=ss_tw&utm_term=.63574f9cfe4c\xc2\xa0\xe2\x80\xa6'
p1030
S'1:17 PM - 1 Nov 2017'
p1031
tp1032
a(S'But then there is a Russia collusion so then why was comey fired???'
p1033
S'1:15 PM - 1 Nov 2017'
p1034
tp1035
a(S'Since Mueller and his gang of Democrat lawyers have found no collusion with Russia, this is all the Libs have got.'
p1036
S'1:14 PM - 1 Nov 2017'
p1037
tp1038
a(S'Collusion is not a crime.  Mueller should be arrested for his complicity in the uranium sale to Russia by him and others & Clinton and Obama'
p1039
S'1:14 PM - 1 Nov 2017'
p1040
tp1041
a(S'Chris Matthews: Trump-Russia Collusion Story \xe2\x80\x98Came Apart\xe2\x80\x99 By Comey Testimony: https://therightstuffnews.com/2017/06/08/chris-matthews-trump-russia-collusion-story-came-apart-by-comey-testimony/\xc2\xa0\xe2\x80\xa6'
p1042
S'1:14 PM - 1 Nov 2017'
p1043
tp1044
a(S'Entire Trump-Russia Collusion Investigation Is a Farce \xe2\x80\x93 Not Based on US Law http://www.thegatewaypundit.com/2017/11/entire-trump-russia-collusion-investigation-farce-not-based-us-law/\xc2\xa0\xe2\x80\xa6'
p1045
S'1:13 PM - 1 Nov 2017'
p1046
tp1047
a(S'Washington Post | "There is now more public evidence about Clinton\xe2\x80\x99s collusion with Russia than there\xe2\x80\xa6 https://www.reddit.com/r/The_Donald/comments/7a3v5x/washington_post_there_is_now_more_public_evidence/?ref=share&ref_source=twitter\xc2\xa0\xe2\x80\xa6 via @reddit'
p1048
S'1:13 PM - 1 Nov 2017'
p1049
tp1050
a(S"Yes @jaketapper when there's PROOF of Hillary/Dems Russia collusion & they ignore, yet searching desperately for something on Trump, it is! https://twitter.com/nancylee2016/status/925786620418232320\xc2\xa0\xe2\x80\xa6"
p1051
S'1:13 PM - 1 Nov 2017'
p1052
tp1053
a(S'agency came out January of this year and said there was NO EVIDENCE of collusion between Trump and Russia.  Mueller has been investigating'
p1054
S'1:12 PM - 1 Nov 2017'
p1055
tp1056
a(S'AG is never going 2 investigate collusion/uranium 1/money laundering Russia-Clintons-disgusting. Unless they R smoking pot he doesn\xe2\x80\x99t care. https://twitter.com/jjpats420/status/925816706664226816\xc2\xa0\xe2\x80\xa6'
p1057
S'1:12 PM - 1 Nov 2017'
p1058
tp1059
a(S'Sure seems like it. They are the same ones investigating a Russia collusion with Trump but after a year have ZERO evidence to show for it.'
p1060
S'1:10 PM - 1 Nov 2017'
p1061
tp1062
a(S'Funny @StephenAtHome colbert bit on the recent news involving #Papadopoulos & collusion with Russia pic.twitter.com/BgZbTHmhPl'
p1063
S'1:10 PM - 1 Nov 2017'
p1064
tp1065
a.