(lp0
(S"What is coming out about Russia is Hillary and Obama's collusion.\nCheck uranium one. https://twitter.com/sntientmustache/status/943951137006166016\xc2\xa0\xe2\x80\xa6"
p1
S'3:59 PM - 21 Dec 2017'
p2
tp3
a(S'"Worse" meaning, boring, a non-scandal with nothing to show for it. Whereas Trump-Russia collusion will be BETTER than Watergate! https://twitter.com/AndyRichter/status/943993439921700864\xc2\xa0\xe2\x80\xa6'
p4
S'3:59 PM - 21 Dec 2017'
p5
tp6
a(S'Uranium one and Dems Collusion with Russia, FBI and Obama: Hezbolla'
p7
S'3:58 PM - 21 Dec 2017'
p8
tp9
a(S"If it's not related to collusion with Russia, you can squarely f#ck off.\n\nWe already know people typically commit 3 felonies a day. If you didn't know that, then you need to see this lawyer explain it:\nhttps://www.youtube.com/watch?v=SV9m9N8gP9c\xc2\xa0\xe2\x80\xa6"
p10
S'3:56 PM - 21 Dec 2017'
p11
tp12
a(S'Bogus \xe2\x80\x9cTrump-Russia collusion\xe2\x80\x9d story nothing but a political hatchet job cooked up by Obama loyalist CIA John Brennan... DoG https://www.naturalnews.com/2017-05-31-bogus-trump-russia-collusion-political-hatchet-job-obama-loyalist-john-brennan.html\xc2\xa0\xe2\x80\xa6'
p13
S'3:55 PM - 21 Dec 2017'
p14
tp15
a(S'Russia again?  No collusion'
p16
S'3:53 PM - 21 Dec 2017'
p17
tp18
a(S'Collusion to stop investigation is Treason.  Russia is still attacking us let Mueller complete his findings and take action GOP=incidental'
p19
S'3:53 PM - 21 Dec 2017'
p20
tp21
a(S'And half think he should resign because of collusion with Russia. That\xe2\x80\x99s like 100 percent.... plus there\xe2\x80\x99s another 80% who thrink Don Jr. is an ass.'
p22
S'3:52 PM - 21 Dec 2017'
p23
tp24
a(S"I can't wait until you go to jail for your collusion with @HillaryClinton and #Russia"
p25
S'3:52 PM - 21 Dec 2017'
p26
tp27
a(S"Trump, directing WH Staff & Reps to attack Russian Investigation. Reps are saying FBI biased against Trump win though Comey tainted election by opening up Investigation of Clinton right 11 days before & 'forgot' to mention Trump was under investigation 4 collusion with Russia."
p28
S'3:51 PM - 21 Dec 2017'
p29
tp30
a(S'Not only do I doubt the Trump / Russia collusion theory, I don\xe2\x80\x99t give a shit if he did \xe2\x80\x98collude\xe2\x80\x99.  Whatever it... https://fb.me/IztlaB9V\xc2\xa0'
p31
S'3:51 PM - 21 Dec 2017'
p32
tp33
a(S'Most Americans doubt Trump on Russia probe\n\nhttp://www.cnn.com/2017/12/21/politics/trump-mueller-russia-poll/index.html\xc2\xa0\xe2\x80\xa6\n\nWaste of time!\nInvestigate Hillary, Billy and Clinton foundation who had actual collusion with Russia.\nLook how much $ the Clintons got from the sale of US uranium to a Russian company.'
p34
S'3:50 PM - 21 Dec 2017'
p35
tp36
a(S'@realDonaldTrump let me kiss your ass like you Republican flunkies did. You will be the prettiest redheaded prick in federal prison for collusion with Russia'
p37
S'3:49 PM - 21 Dec 2017'
p38
tp39
a(S'What is true is men insides the Government will use Government for their own ends. That is what is at the heart of this Trump-Russia collusion mythology. Deep-State resisting the ppl attempting to regain control of the government.'
p40
S'3:49 PM - 21 Dec 2017'
p41
tp42
a(S"There are so many real issues impacting Americans & the D's and R's are trying to distract us w/ an investigation into Dr. Stein's non-existent collusion w/ Russia. The fact this investigation exists is a slap in the face to millions of Americans w/o homes, healthcare, and jobs."
p43
S'3:48 PM - 21 Dec 2017'
p44
tp45
a(S"Worse than Watergate! That's putting it mildly...Its worse than Russia collusion...It's collusion, treasonous acts, seditious fraud,and violated civil rights of every freaking voting American! https://twitter.com/RandPaul/status/943852014055944192\xc2\xa0\xe2\x80\xa6"
p46
S'3:48 PM - 21 Dec 2017'
p47
tp48
a(S'You can\xe2\x80\x99t show your ignorance anymore than supporting #HillaryClinton and #Obama everything we have been finding out about them over the last year and you call yourself Americans\nif there was collusion with Trump and Russia it would\xe2\x80\x99ve been found out already after ayear\n\n#NEWS'
p49
S'3:47 PM - 21 Dec 2017'
p50
tp51
a(S'The Open Secret About\nTrump\xe2\x80\x99s Collusion With Russia https://newrepublic.com/article/146381/open-secret-trumps-collusion-russia\xc2\xa0\xe2\x80\xa6'
p52
S'3:47 PM - 21 Dec 2017'
p53
tp54
a(S'Putin\xe2\x80\x99s Man in the White House? Real Trump Russia Scandal is Not Mere Collusion, U.S. Counterspies Say http://www.newsweek.com/trump-putin-man-white-house-russia-investigation-scandal-moscow-kremlin-755321\xc2\xa0\xe2\x80\xa6'
p55
S'3:45 PM - 21 Dec 2017'
p56
tp57
a(S'That and the totalitarian "Russia-Trump collusion" coup attempt.\n\n@realDonaldTrump still is president and the GOP still controls Congress, though.'
p58
S'3:44 PM - 21 Dec 2017'
p59
tp60
a(S'Putin\xe2\x80\x99s Man in the White House? Real Trump Russia Scandal is Not Mere Collusion, U.S. Counterspies Say http://www.newsweek.com/trump-putin-man-white-house-russia-investigation-scandal-moscow-kremlin-755321\xc2\xa0\xe2\x80\xa6'
p61
S'3:52 PM - 21 Dec 2017'
p62
tp63
a(S"Lmao! Snowflakes will melt soon. Can you tell me of 1 tiny piece of Trump Collusion with Russia? I'll wait"
p64
S'3:43 PM - 21 Dec 2017'
p65
tp66
a(S"#GOP needs to NOT get sidetracked & forget what's important. As all intel agencies know, Russia tried/did interfere with our elections. VERY Serious!!#Trump is Pres! No argument. As Chris Christy said, if no collusion Mueller will prove it! Fine! But,what Russia did must be found"
p67
S'3:39 PM - 21 Dec 2017'
p68
tp69
a(S'Hahaha!! So true @CausticTheClown!!! And for the record Mr. Paul, if there was any election collusion it was @realDonaldTrump and Russia. Just sayin\xe2\x80\x99 \n'
p70
S'3:37 PM - 21 Dec 2017'
p71
tp72
a(S'Just watch Wolf Blitzer try and push an obstruction of justice narrative, him and @mkraju ... Russia collusion is dead, they want obstruction before we can unravel what they did, that\xe2\x80\x99s why Comey and Rosenstein got Mueller, to cover up.\n\nThat\xe2\x80\x99s my guess'
p73
S'3:36 PM - 21 Dec 2017'
p74
tp75
a(S'Of course. Just look at all that proof of collusion and indictments against Trump. All this time and money into an investigation on Russia, and all you have is Flynn lied to the feds.'
p76
S'3:36 PM - 21 Dec 2017'
p77
tp78
a(S'Collusion you say, elections you say? Not Russia/Trump tho pic.twitter.com/XxNzceNU6B'
p79
S'3:36 PM - 21 Dec 2017'
p80
tp81
a(S"After election, trump denies he or his campaign ever had ANY contact with Russia\n\nSince then, we learn Page, Sessions, Manafort, Papad., Kushner, McFarland, Flynn, Don Jr, Stone ALL had undisclosed contacts with Russians.\n\nThe evidence of collusion is in Mueller's hands."
p82
S'3:35 PM - 21 Dec 2017'
p83
tp84
a(S"I think you're absolutely correct Dan. I tweeted a number of times earlier this year that this whole Russia collusion BS was nothing but a diversion to keep the public and the Congress distracted from discovering they were the true criminals."
p85
S'3:35 PM - 21 Dec 2017'
p86
tp87
a(S'Democrats defend Robert Mueller, saying Russia investigation must be allowed to continue http://a.msn.com/01/en-us/BBH7TgO?ocid=st\xc2\xa0\xe2\x80\xa6 O Course they DO Collusion Ties Lies , Treason Is on them in Season We Know With this fuss There reason ? MONEY HONEY For Then LOOKs DIM NOT SUNNY FUNNY'
p88
S'3:34 PM - 21 Dec 2017'
p89
tp90
a(S'.We need a RECALL ELECTION just like we had in California governor race. Illegitimate president should be recalled for crimes against people of USA: sexual assault, collusion in act of war/political espionage/treason/conspiracy with Russia to rig/influence elections. Recall now!'
p91
S'3:33 PM - 21 Dec 2017'
p92
tp93
a(S"Trump's consistently odd behavior toward Putin and Russia (even during the primaries) suggests kompromat predated collusion.\nIt'd explain much if Putin had compromising money laundering intel on Trump."
p94
S'3:33 PM - 21 Dec 2017'
p95
tp96
a(S"@Heminator Moore is waiting on the state A.G. to open an investigation into Jones' collusion with Russia to win the election."
p97
S'3:33 PM - 21 Dec 2017'
p98
tp99
a(S'wait if JR can say there was no #collusion BC they got no information to use from #Russia...how can there be a case against Hillary for trying to cheat..she lost, so no cheating happened..RIGHT??\n#drainthewholeswamp'
p100
S'3:32 PM - 21 Dec 2017'
p101
tp102
a(S'You make a lot of assumptions & you know what they say about that word\xe2\x80\xa6\n\nA year into Trump\xe2\x80\x99s presidency there still is no proof of collusion with Russia. Yet the evidence against Hillary & others is piling up. Ignore it all you want. But the truth will prevail. #MerryChristmas'
p103
S'3:32 PM - 21 Dec 2017'
p104
tp105
a(S'Russia, Russia, Russia... okay Jan go on about your day and wasting California taxpayer $ instead of actually doing something to earn your paycheck.  There was no collusion and no interference except by your messiah BHO...'
p106
S'3:31 PM - 21 Dec 2017'
p107
tp108
a(S'..Got Evidences on Russia collusion??\nOh yeah..NOT..'
p109
S'3:30 PM - 21 Dec 2017'
p110
tp111
a(S'We are in collusion with them [Russia] to #BRINGDOWNTHERING !! #MAGA'
p112
S'3:29 PM - 21 Dec 2017'
p113
tp114
a(S'The #WinterSoltice is bringing in the complete implosion of the #Trump #Russia Collusion Delusion. @afbranco @realDonaldTrump @DonaldJTrumpJr #USA #Christmas #MAGApic.twitter.com/dzfw5Bvssa'
p115
S'3:26 PM - 21 Dec 2017'
p116
tp117
a(S'Stop with Russia probe already/ mueller in collusion with FBI & DOJ to conspire democrats crimes/ jail them all!!\xe2\x80\x99fire mueller for unethical investigations! Democrats quilts of crimes & obstruction of justice'
p118
S'3:26 PM - 21 Dec 2017'
p119
tp120
a(S'Just look at "the blaze" headline here. Now, once again, claiming a secret republican committee is still investigating Trump/Russia collusion, and here\'s why! I mean seriously? You really gonna place this headline back in the News? No-one believes that!\nhttp://www.newsrepublic.net/detail/0722F51E8810100001_us?pid=14&referrer=200620&showall=1&mcc=310\xc2\xa0\xe2\x80\xa6'
p121
S'3:26 PM - 21 Dec 2017'
p122
tp123
a(S'Not surprised, you are an obama worshipper, hillary supporter, russia collusion believer.... youre not very smart. pic.twitter.com/a9JWjp59Gt'
p124
S'3:24 PM - 21 Dec 2017'
p125
tp126
a(S'Overall I would say that I have at least decently liked Trump. Let\xe2\x80\x99s not forget that an investigation into him unveiled that Obama worked with the Russians to free an Islamic terrorist to push the Iran deal. AndTrump is about to be cleared of any collusion with Russia.'
p127
S'3:23 PM - 21 Dec 2017'
p128
tp129
a(S"Time to bring the Clinton's CGI, AND ANYONE COMPLICIT IN THEIR CRIMES, TO JUSTICE ! Collusion with Russia comes from the Democratic side not Repubs.! https://twitter.com/FoxNews/status/941471360026578944\xc2\xa0\xe2\x80\xa6"
p130
S'3:23 PM - 21 Dec 2017'
p131
tp132
a(S'Is Russia collusion nothing but a Dem distraction ?? https://twitter.com/dbongino/status/943984473460363265\xc2\xa0\xe2\x80\xa6'
p133
S'3:23 PM - 21 Dec 2017'
p134
tp135
a(S"It's time to put that investigation to rest, RIP as it has been an entire year, there is no collusion between President Trump and Russia, but there is plenty of collusion with Russia and the Clintons and Obama. https://twitter.com/ChristSees/status/943971656669716480\xc2\xa0\xe2\x80\xa6"
p136
S'3:22 PM - 21 Dec 2017'
p137
tp138
a(S'I believe all this mess ends in being a DEM WATERGATE 100 times worse. This Russia thing was a set up to frame President Trump. And anybody involved in this collusion should be tried for TREASON.@TGowdySC'
p139
S'3:22 PM - 21 Dec 2017'
p140
tp141
a(S'4:40 after sunset\n\n1 short for every Russia Collusion meddling OR low Trump ratings mentioned\n\nA chug for every "breaking news" or "developing story" \n\nFor #CrowderCNNLivestream ! 6 more hours'
p142
S'3:21 PM - 21 Dec 2017'
p143
tp144
a(S"Wow. Russian collusion and a comparison to Hitler. Who murdered Jews by the way and Trump is acknowledging Israel's - a Jewish state- capital. And Trump just sold guns to the Ukraine- Russia's enemy. Open up your mind and step out of your echo chamber for once, mate."
p145
S'3:21 PM - 21 Dec 2017'
p146
tp147
a(S'old enough to remember back when Robert Mueller\xe2\x80\x99s Russia-Whatever investigation was about collusion. Remember collusion, that wacky concept from the heady days of early 2017 https://townhall.com/columnists/kurtschlichter/2017/12/21/dont-fire-mueller-president-trump--let-him-keep-making-a-fool-of-himself-instead-n2425070\xc2\xa0\xe2\x80\xa6'
p148
S'3:19 PM - 21 Dec 2017'
p149
tp150
a(S'@SpecialReport Jarald Nadler another Democrat in complete denial that looks like a total fool on TV still saying Trump-Russia collusion?'
p151
S'3:19 PM - 21 Dec 2017'
p152
tp153
a(S'@RepJerryNadler just said "certain" collusion by Trump with Russia.  Provided no proof.  But that is not the point.  The  point is only politics.  He is simply a party hack.  As are all the Ds.  Party before country.'
p154
S'3:19 PM - 21 Dec 2017'
p155
tp156
a(S"Do not change the subject, Stein made a meeting with a shitty leader called Putin but that doesn't prove collusion with him/Russia."
p157
S'3:18 PM - 21 Dec 2017'
p158
tp159
a(S"For someone (Mueller)who's never said there was any collusion between Russia & the Trump gang,but just was hired to investigate,Fox News & trump sure are protesting a lot! LOLOLOL pic.twitter.com/dWhbwuDduk"
p160
S'3:18 PM - 21 Dec 2017'
p161
tp162
a(S'The only collusion that happened was between Obama and Russia.\n\nBut in an unscripted moment picked up by camera crews, the American president was more blunt: Let me get reelected first, he said; then I\xe2\x80\x99ll have a better chance of making something happen. pic.twitter.com/Ygng5zRrVt'
p163
S'3:18 PM - 21 Dec 2017'
p164
tp165
a(S'@RepJerryNadler  Sorry where is the evidence of the Russia collusion you\xe2\x80\x99re a moron McCabe is in trouble and so are the Democrats he tried to fix the election I hope they put you all in jail'
p166
S'3:18 PM - 21 Dec 2017'
p167
tp168
a(S'I have a bottle of whisky that says when the dust settles, it will reveal that the collusion was with Hillary, the Bureau - and indirectly, Russia via Fusion - not Trump...:)'
p169
S'3:17 PM - 21 Dec 2017'
p170
tp171
a(S"I beleive Mueller will get trump on something akin to money laundering and not collusion to throw the election, I also beleive all the political hacks in the congressional investigations & mainstream media are going to smear everyone they don't like using russia as cover #tytlive"
p172
S'3:16 PM - 21 Dec 2017'
p173
tp174
a(S"There's more evidence for vaccines causing autism then there is for Trump/Russia collusion."
p175
S'3:12 PM - 21 Dec 2017'
p176
tp177
a(S'Walter Shaub is a good man and Americas should listen and react to his comments.  The GOP fools will say ANYTHING to distract from the #TaxBillScam they just passed, trump/Russia collusion and gross adoration of the evil in the WH.'
p178
S'3:12 PM - 21 Dec 2017'
p179
tp180
a(S'Republicans demand answers over claims Obama gave Hezbollah a pass via the @FoxNews App. What about Russia collusion? All fake but this lock him up throw away the key!!! http://www.foxnews.com/politics/2017/12/21/republicans-demand-answers-over-claims-obama-gave-hezbollah-pass.html\xc2\xa0\xe2\x80\xa6'
p181
S'3:12 PM - 21 Dec 2017'
p182
tp183
a(S'if JR can say they failed at collusion because Russia had no good info...then Hillary lost..this is a nothing burger'
p184
S'3:11 PM - 21 Dec 2017'
p185
tp186
a(S'With all the #Collusion we have found with @HillaryClinton and @BarackObama with #Russia, #Iran and #SaudiArabia I\xe2\x80\x99m starting to think there may be something to this #rigged system @realDonaldTrump was getting bashed for mentioning. \n\n#MAGA \n#FollowTheWhiteRabbit '
p187
S'3:10 PM - 21 Dec 2017'
p188
tp189
a(S"I ask the question, if Mueller has the range to look at Russia Collusion in the election why isn't he looking at HRC , FBi, Dossier creation and FISA warrant?    Let's not overlook anything.      MUELLER."
p190
S'3:10 PM - 21 Dec 2017'
p191
tp192
a(S'Only your retarded brainwashed constituents believe any part of the Russia collusion fable.  Every attempt to subvert Trump and his America First agenda has failed and has boomeranged right back at you corrupt commie scum. https://twitter.com/repspeier/status/943900375928668160\xc2\xa0\xe2\x80\xa6'
p193
S'3:09 PM - 21 Dec 2017'
p194
tp195
a(S'Yeah after a yr of tax dollars wasted there is no proof of collusion with Russia..  U have 7 more yrs. Enjoy'
p196
S'3:08 PM - 21 Dec 2017'
p197
tp198
a(S'Very engaging read: "#Bannon believed #Russia collusion case was meritless,but blamed #Kushner for taking the meetings. \xe2\x80\x9c[Kushner was]  looking for picture of #Clinton taking the bag of cash from #Putin.That\xe2\x80\x99s [Jared\'s] maturity level."https://www.vanityfair.com/news/2017/12/bannon-for-president-trump-kushner-ivanka\xc2\xa0\xe2\x80\xa6'
p199
S'3:07 PM - 21 Dec 2017'
p200
tp201
a(S'Ramping up the Trump/Russia collusion BS!  #UraniumOne and @HillaryClinton is trending! Report on that newsworthy story!!!'
p202
S'3:05 PM - 21 Dec 2017'
p203
tp204
a(S'Where is the Russia collusion investigation looking at hillary obama Russia collusion??'
p205
S'3:04 PM - 21 Dec 2017'
p206
tp207
a(S'Omg. If youd wake up. The Trump Russia BS started via  ClintonPodesta email released immed after election by Wikileaks. Only collusion w Russia BHO HRC FBI & CIA. U best catch up & stop listening 2 LYING MSM. U R ALL GOING TO B IN 4 RUDE AWAKENING WHEN TRUTH COMES OUT.'
p208
S'3:04 PM - 21 Dec 2017'
p209
tp210
a(S'Actually it\xe2\x80\x99s the reverse. It\xe2\x80\x99s the political activists who created the Russian scandal, not the other way around. The only evidence of Russian collusion is Hillary getting $150 million for her slush fund after helping sell 20% of U.S. uranium to Russia.'
p211
S'3:04 PM - 21 Dec 2017'
p212
tp213
a(S'Sorry your twadddle about conversations over 10 yrs ago is not evidence of Russia collusion.'
p214
S'3:04 PM - 21 Dec 2017'
p215
tp216
a(S'@DWStweets wants govt shutdown\n\nOver \n\nIllegal Aliens getting amnesty.\n\nI want HER to get shutdown \n\nOver\n\nDNC collusion with Russia, DNC election cheating, Aiding and abetting Paki spies (Dem IT), etc etc etc https://twitter.com/dwstweets/status/943508328700837889\xc2\xa0\xe2\x80\xa6'
p217
S'3:03 PM - 21 Dec 2017'
p218
tp219
a(S"Probably after he's indicated for collusion with Russia!  #putinsbitch"
p220
S'3:02 PM - 21 Dec 2017'
p221
tp222
a(S'Stein having a dinner with Putin is no more a proof of collusion with Russia than Clinton going to the Trump wedding is a proof of Clinton-Trump collusion.'
p223
S'3:02 PM - 21 Dec 2017'
p224
tp225
a(S' As a country, yes Russia is real. You had to have meant as a country because the whole Collusion thing has been dead. It\xe2\x80\x99s deader than Hillary\xe2\x80\x99s political career'
p226
S'2:59 PM - 21 Dec 2017'
p227
tp228
a(S'\xe2\x80\x9cWSJ published a report, claiming that the \xe2\x80\x9cinsurance policy\xe2\x80\x9d term meant that the FBI needed to \xe2\x80\x9caggressively investigate allegations of collusion\xe2\x80\x9d between the Trump campaign and Russia.\xe2\x80\x9d  \xe2\x80\x94what? So, why is it an insurance policy. Shouldn\xe2\x80\x99t they investigate regardless of outcome?'
p229
S'2:59 PM - 21 Dec 2017'
p230
tp231
a(S"The point of the special prosecutor was collusion between Trump and Russia! Still waiting! The FACT that people have been removed from his team because they are so biased against Trump shows he didn't bother to vet any of them!"
p232
S'2:59 PM - 21 Dec 2017'
p233
tp234
a(S'This it brings me to an interesting possibility. Not Trump Russia collusion, but parallel cooperation between our nations. Separate movements with the same endgame--breaking the back of Babylon.'
p235
S'2:57 PM - 21 Dec 2017'
p236
tp237
a(S"A disturbing, sad, display by the cabinet. If this continues, along with the War on Mueller by Fox, we may need to be worried about out future. I've always thought the Republicans would act like adults, once the evidence of Trump's collusion with Russia was presented. Now????? https://twitter.com/steveschmidtses/status/943854124399022081\xc2\xa0\xe2\x80\xa6"
p238
S'2:56 PM - 21 Dec 2017'
p239
tp240
a(S'Those accusations were made by the corrupt previous administration to cover up their criminal acts and help them illegally regain power. The collusion is between previous DOJ, FBI and Obama admin & Russia. Pay attention honey.'
p241
S'2:55 PM - 21 Dec 2017'
p242
tp243
a(S'Exactly! AND..... based on what we now know about the Russian "collusion" investigation, AG Sessions should\'ve  NEVER recused himself. Actually, he should now UNrecuse himself! - Since the REAL collusion was between the Hillary camp, the DNC, and Russia all along.'
p244
S'2:55 PM - 21 Dec 2017'
p245
tp246
a(S'Mueller must have some really good stuff on lot of you all..wow...nervous little Russians...aka the Russian GOP... No id say collusion with Russia by Trump and the GOP probably ranks up there...'
p247
S'2:55 PM - 21 Dec 2017'
p248
tp249
a(S"This is NOT EVEN partisan, unless it's true.\n Putin\xe2\x80\x99s Man in the White House? Real Trump Russia Scandal is Not Mere Collusion, U.S. Counterspies Say http://www.newsweek.com/trump-putin-man-white-house-russia-investigation-scandal-moscow-kremlin-755321\xc2\xa0\xe2\x80\xa6"
p250
S'2:54 PM - 21 Dec 2017'
p251
tp252
a(S'@johncusack @MarkRuffalo .....Hmmm where did you say that collusion came from? Russia stuff? Oh and the sale or uranium where suddenly the Clinton foundation received a donation from......wait for it.........R.U.S.S.I.A.?'
p253
S'2:53 PM - 21 Dec 2017'
p254
tp255
a(S'No, 47% of morons who even after self admitted \'nothingburgers\' & 12 months of baseless smears from anonymous sources & fairy tales like Collusion & Golden Showers & searching and making shit up still believe Russia did "something". It\'s better than looking in Clintons direction'
p256
S'2:53 PM - 21 Dec 2017'
p257
tp258
a(S"Might have, could be.  Wow, when you develop 1% of the evidence of Trump Russia collusion that Obama administration actually did anything of the sort, be sure to let us know.  In the meantime, we'll be working hard to vote you and your morally corrupt GOP comrades out next Nov."
p259
S'2:49 PM - 21 Dec 2017'
p260
tp261
a(S'#ECFR \xd0\xba\xd0\xbe\xd0\xbb\xd0\xb5\xd0\xb4\xd0\xb5\xd0\xbd \xd1\x85\xd0\xb0\xd0\xb9\xd0\xba\xd1\x83 \xd0\xba\xd0\xbe\xd0\xbd\xd0\xba\xd1\x83\xd1\x80\xd1\x81:\n\nCollusion with Russia\nFake news! Hey, look over there\nIt\xe2\x80\x99s North Korea'
p262
S'2:47 PM - 21 Dec 2017'
p263
tp264
a(S'I know. Just look at the so called Russia Collusion with Mueller. He has been on a fake scandal for over a year already. Imagine how long it is going to take to get REAL criminals. Gonna be a LONG road! But well worth it!!'
p265
S'2:44 PM - 21 Dec 2017'
p266
tp267
a(S'So, what\'s the over/under that this "former fictional writer" @BRhodes came up w/fictional "Russia Collusion" narrative.......'
p268
S'2:43 PM - 21 Dec 2017'
p269
tp270
a(S"Hey Ned it sounds a lot like the Russia Collusion angle now doesn't it? https://twitter.com/nedprice/status/943616385397207040\xc2\xa0\xe2\x80\xa6"
p271
S'2:42 PM - 21 Dec 2017'
p272
tp273
a(S"YEAH! AND WHILE WE'RE AT IT, HOW ABOUT WE INVESTIGATE THE BURNING OF THE REICHSTAG! SOMEBODY NEEDS TO GET TO THE BOTTOM OF THAT! #FakeFuckingNews #Distraction #Russia #Collusion #TheResistancehttps://twitter.com/RandPaul/status/943852014055944192\xc2\xa0\xe2\x80\xa6"
p274
S'2:42 PM - 21 Dec 2017'
p275
tp276
a(S'Obvious by now: Russia collusion involved Obama, Hillary, Comey, Mueller, Rosenstein & McCabe  https://www.sott.net/article/368294-Obvious-by-now-Russia-collusion-involved-Obama-Hillary-Comey-Mueller-Rosenstein-McCabe\xc2\xa0\xe2\x80\xa6'
p277
S'2:42 PM - 21 Dec 2017'
p278
tp279
a(S'you forgot the arrow pointing at trump too. he\xe2\x80\x99s a traitor because of his passed #CorporateTaxCutBill and because of his collusion with putin and russia #TraitorTrump #TraitorHeller'
p280
S'2:41 PM - 21 Dec 2017'
p281
tp282
a(S'#Democrats and the #Russia collusion investigation 2018 pic.twitter.com/cVlA5xh1wE'
p283
S'2:40 PM - 21 Dec 2017'
p284
tp285
a(S'Then why is the fake Russia collusion bs still going? https://twitter.com/RealBigSol/status/943671763891781632\xc2\xa0\xe2\x80\xa6'
p286
S'2:39 PM - 21 Dec 2017'
p287
tp288
a(S'I think it is okay for you to investigate Obama, though I doubt you will find any collusion with Russia. The question is when all comes tumbling down on Trump and his sidekicks are found guilty in the Russia meddling of our election what happens next. Only time will tell.'
p289
S'2:39 PM - 21 Dec 2017'
p290
tp291
a(S"I'm talking about the initial stages of the investigation,  u are talking about Mueller probe which was supposed to look for collusion yet no one ever proved interference by Russia to begin with"
p292
S'2:38 PM - 21 Dec 2017'
p293
tp294
a(S'So this is the narrative? After everything being exposed about the dems, fbi, and Clinton/ Russia U1 collusion (REAL collusion) when the house falls on them it\xe2\x80\x99s  because Trump has an axe to grind. #delusional #unhinged'
p295
S'2:38 PM - 21 Dec 2017'
p296
tp297
a(S'What We Know About the Trump Campaign\xe2\x80\x99s Collusion With Russia https://fb.me/3zWji58W1\xc2\xa0'
p298
S'2:38 PM - 21 Dec 2017'
p299
tp300
a(S'And you are the "Queen" of false Narratives alluding that there was collusion between the Republicans and Russia. After one year there is not one piece of evidence uncovered by anyone to support your claim. So zip it.'
p301
S'2:36 PM - 21 Dec 2017'
p302
tp303
a(S'There was Clinton/DNC/FBI/DOJ Collusion to interfere in the election.  That was the ONLY collusion.  Russia was THEIR hoax.  And there is plenty of proof on that.  Let the prosecutions and prison sentences begin! Hillary needs an orange jumpsuit. pic.twitter.com/u62riO2DaP'
p304
S'2:36 PM - 21 Dec 2017'
p305
tp306
a(S'Dems\xe2\x80\x99 Russia Collusion Ruse: \xe2\x80\x98Blame Trump and Hope for the Best\xe2\x80\x99  https://amgreatness.com/2017/10/27/dems-russia-collusion-ruse-blame-trump-and-hope-for-the-best/\xc2\xa0\xe2\x80\xa6'
p307
S'2:36 PM - 21 Dec 2017'
p308
tp309
a(S'The only things they reported this year is "russia collusion" and "moore"\nSo all big stories.'
p310
S'2:36 PM - 21 Dec 2017'
p311
tp312
a(S'REMINDER: Google owns Crowdstrike who was at ground zero (DNC servers) for the \xe2\x80\x9cRussia-Trump Collusion\xe2\x80\x9d story... https://twitter.com/wikileaks/status/793510793904087040\xc2\xa0\xe2\x80\xa6'
p313
S'2:35 PM - 21 Dec 2017'
p314
tp315
a(S'OOPS!!!! LIAR???? CAN HE PROVE IT? Facing Libel Lawsuit, Trump Dossier Author Now Backs Away From Claims Of Any Trump-Russia Collusion http://dcwhispers.com/facing-libel-lawsuit-trump-dossier-author-now-backs-away-claims-trump-russia-collussion/#wEmPhYypzbHReF48.97\xc2\xa0\xe2\x80\xa6pic.twitter.com/XKfRZRkyV0'
p316
S'2:35 PM - 21 Dec 2017'
p317
tp318
a(S"So you don't believe these allegations should be investigated and you still believe (still unfounded) Trump Russia collusion claims should?"
p319
S'2:33 PM - 21 Dec 2017'
p320
tp321
a(S'CNN reporter \xe2\x80\x9cit\xe2\x80\x99s a big nothing burger\xe2\x80\x9d. You realize that the only Russia collusion is the DNC and Hillary. And now we have the evidence that Obama gave Hezbullah a free pass to sell drugs in America and use the profits to buy weapons to kill American and Jews.'
p322
S'2:32 PM - 21 Dec 2017'
p323
tp324
a(S'Hillary:Russia Collusion prior to the election...'
p325
S'2:32 PM - 21 Dec 2017'
p326
tp327
a(S'Here\'s a fact that you seem to have missed... there is NO Trump/Russia collusion. Even many on the "D" side have admitted to this fact. Millions of wasted tax payer dollars for what? Hunting for the wrong witch... should have looked at their own party. #UraniumOne'
p328
S'2:31 PM - 21 Dec 2017'
p329
tp330
a(S"Just me, collusion is collusion. Pushing for accountability?  Fair warning, accountability may be coming with Uranium1 opening up again. Problem is 'You' say collusion (Russia and Trump or campaign). Not proven. Could be. I doubt it but wait till its proven then cast your stones."
p331
S'2:30 PM - 21 Dec 2017'
p332
tp333
a(S"They want to alienate America's allies, so then they can have Russia rush in as our saviors.  All trumpsters will fall for it, they already think collusion is no big deal"
p334
S'2:28 PM - 21 Dec 2017'
p335
tp336
a(S"This administration is a disgusting joke to the American people and the world. Can't wait for them all to be gone and confirmed illigitimate!!for the collusion with Russia!!"
p337
S'2:28 PM - 21 Dec 2017'
p338
tp339
a(S'IT Brothers  have WAY MORE CLOUT than anyone knows. In Congress directing Johnson  & Brennan  on HOW TO ANSWER  RUSSIA COLLUSION  questions.The brother  was in CHARGE! I find it hard to believe  TG never noticed!'
p340
S'2:28 PM - 21 Dec 2017'
p341
tp342
a(S'now that is OBVIOUS to 60+ million of us, they have to address it! Obama/Hillary sold 20% of US Uranium 2 Russia & FBI was in on it! Let that sink in! True Russia Collusion. DEMS knew that we would find out about their Theft and Treason, so they hurried up= deflected it on POTUS!'
p343
S'2:27 PM - 21 Dec 2017'
p344
tp345
a(S'@POTUS Trump white house has shown a 90% of ranking people have ties 2 russia,republicans are more concerned with votes,treasonous the day will come when Trump is tied directly 2 russia collusion ,then what?'
p346
S'2:27 PM - 21 Dec 2017'
p347
tp348
a(S'@MSignorile There is no collusion with Russia and Soros won\xe2\x80\x99t buy lawsuits, the American people are about to awake. The \xe2\x80\x9cresistance\xe2\x80\x9d is filled with ignorants and anti-Caucasian racists and it\xe2\x80\x99s a sinking ship once the truth comes out.'
p349
S'2:27 PM - 21 Dec 2017'
p350
tp351
a(S'First it\xe2\x80\x99s collusion.  Not it\xe2\x80\x99s collusion to \xe2\x80\x9csteal the election\xe2\x80\x9d.  The goal posts keep moving.  His NSA Director already pleaded guilty for lying to FBI agents about RUSSIA!  The T Jr meetings were with RUSSIA!  The dossier claims he\xe2\x80\x99s being blackmailed by RUSSIA!!!'
p352
S'2:26 PM - 21 Dec 2017'
p353
tp354
a(S'Putin\xe2\x80\x99s Man in the White House? Real Trump Russia Scandal is Not Mere Collusion, U.S. Counterspies Say http://www.newsweek.com/trump-putin-man-white-house-russia-investigation-scandal-moscow-kremlin-755321?amp=1&__twitter_impression=true\xc2\xa0\xe2\x80\xa6'
p355
S'2:26 PM - 21 Dec 2017'
p356
tp357
a(S'Mueller has already discovered the team is up to their eyeballs in foreign influence and obstruction. Whether there was quid pro quo collusion is still up in the air.\n\nWhat we DO know is that Russia is actively meddling, spreading propaganda and disrupting democracies.'
p358
S'2:25 PM - 21 Dec 2017'
p359
tp360
a(S'#WakeUp and start paying attention. Russia interfered with our election. Remember the #RussianAd propaganda, DonJr Wikileaks, Flynn? The level of conspiring is to be determined. That\xe2\x80\x99s why they are investigating Trump for Russian collusion.'
p361
S'2:25 PM - 21 Dec 2017'
p362
tp363
a(S'Follow the Money: Clinton, Obama & the Real Russia Collusion https://www.realclearpolitics.com/2017/10/26/follow_the_money_clinton_obama_amp_the_real_russia_collusion_424876.html?ref=hvper.com\xc2\xa0\xe2\x80\xa6'
p364
S'2:25 PM - 21 Dec 2017'
p365
tp366
a(S"Worse than Watergate is Trump's collusion with Russia. https://twitter.com/RandPaul/status/943852014055944192\xc2\xa0\xe2\x80\xa6"
p367
S'2:24 PM - 21 Dec 2017'
p368
tp369
a(S'Stein: "This Russia smear, essentially, emerged after the\xc2\xa0DNC\xc2\xa0emails were exposed, showing collusion on the part of the DNC, to sabotage Sanders... Attorneys for DNC testified they had a right to determine the outcome as they pleased..."\n\n https://www.democracynow.org/2017/12/20/broadcast_exclusive_jill_stein_says_senate\xc2\xa0\xe2\x80\xa6'
p370
S'2:24 PM - 21 Dec 2017'
p371
tp372
a(S"I'm not going to read something based on something you googled and that somebody just slapped together,  if the democrats had anything on Trump do you not think they would of used it? Instead they had to come up with some fake Trump /Russia collusion story."
p373
S'2:24 PM - 21 Dec 2017'
p374
tp375
a(S"How about letting Democrats  pay for the rest of the useless Mueller Special Counsel?   Or better yet  Let's demand Mueller go and Investigate the real  Collusion with Clinton/Russia and the Trump Dossier."
p376
S'2:23 PM - 21 Dec 2017'
p377
tp378
a(S'@LouderwCrowder BREAKING AT CNN :DEWEY BEATS TRUMAN,now back to Trump Russia collusion.'
p379
S'2:23 PM - 21 Dec 2017'
p380
tp381
a(S'Ha.. more likely we\'re going to see a pic of the "grifters" Hillary and Bill being perp walked for the actual collusion with Russia Uranium One/Dossier-gate vs. the imaginary...'
p382
S'2:23 PM - 21 Dec 2017'
p383
tp384
a(S'All of those things are true. It is also true to say that there is no evidence of collusion with Russia to steal the election.'
p385
S'2:23 PM - 21 Dec 2017'
p386
tp387
a(S'The only evidence of collusion with Russia.  https://www.youtube.com/watch?v=XsFR8DbSRQE&feature=share\xc2\xa0\xe2\x80\xa6pic.twitter.com/MX2Bb5u0ms'
p388
S'2:23 PM - 21 Dec 2017'
p389
tp390
a(S'Time to investigate you both... sure there may be even more collusion and coverup w Russia.'
p391
S'2:22 PM - 21 Dec 2017'
p392
tp393
a(S'Boy nunes is in charge of this ridiculous investigation into Robert Mueller.  I want to know who is funding this distracting charade of an Investigation?  President is being rightfully investigated for poss collusion w Russia so pres has investigator investigated???Pure BS!'
p394
S'2:21 PM - 21 Dec 2017'
p395
tp396
a(S'PLENTY OF RUSSIA COLLUSION ON THE demothug SIDE! https://twitter.com/HotShot_78/status/943962993297166338\xc2\xa0\xe2\x80\xa6'
p397
S'2:19 PM - 21 Dec 2017'
p398
tp399
a(S'@RepDevinNunes So you are attacking our FBI and DOJ to protect the president? You don\xe2\x80\x99t care that Russia interfered with our elections? You don\xe2\x80\x99t care about Russian collusion with Trumps campaign? Who is lining your pockets? What are you afraid?'
p400
S'2:19 PM - 21 Dec 2017'
p401
tp402
a(S'Mueller\'s not ivestigatin\' "collusion with Russia", its a criminal conspiracy against the United States of America, which involved Russians.'
p403
S'2:18 PM - 21 Dec 2017'
p404
tp405
a(S"@RepSwalwell there's more evidence of DNC / Russia collusion than there is of Donald Trump Russia collusion to influence the last election"
p406
S'2:17 PM - 21 Dec 2017'
p407
tp408
a(S'Putin\xe2\x80\x99s Man in the White House? Real Trump Russia Scandal is Not Mere Collusion, U.S. Counterspies Say http://www.newsweek.com/trump-putin-man-white-house-russia-investigation-scandal-moscow-kremlin-755321\xc2\xa0\xe2\x80\xa6'
p409
S'2:16 PM - 21 Dec 2017'
p410
tp411
a(S'Colluded by staying silent on intel they had showing collusion between trump campaign and Russia. . Your argument is flawed. Bye bye wing nut'
p412
S'2:15 PM - 21 Dec 2017'
p413
tp414
a(S'We all agree we must get to the bottom of Russia collusion. This is not a left or right issue correct?  #UraniumOne'
p415
S'2:14 PM - 21 Dec 2017'
p416
tp417
a(S'Sure - the more Mueller continues the better it will be for Trump.  That\'s what you haven\'t figured out yet.  The real "Russia Collusion" came from the Dems... they\'re putting the noose around their own necks, it\'s quite fun to watch.'
p418
S'2:14 PM - 21 Dec 2017'
p419
tp420
a(S'oh like the story of Russian collusion between Russia and the Trump Campaign you started it  and Trump administration will end it.'
p421
S'2:14 PM - 21 Dec 2017'
p422
tp423
a(S"No Shit Paid DNC/Clinton's, follow the money Russia Collusion Uranium One 450+million to Clinton's ,Libya arms$ Benghazi cover up, Hillary's illegal server security breaches Billy's Tarmac AG lynch meeting FBI Tainted investigations,DNC/Clinton's Fusion GPS$"
p424
S'2:13 PM - 21 Dec 2017'
p425
tp426
a(S"Trump approving arms to Ukraine (against Obama's policy) plus Russia voting against the US in the UN is noteworthy enough to cast doubt on any so-called collusion or kompromat. http://thehill.com/policy/international/365906-trump-administration-approves-lethal-arms-sales-to-ukraine#.Wjwwl6aYTkQ.twitter\xc2\xa0\xe2\x80\xa6"
p427
S'2:11 PM - 21 Dec 2017'
p428
tp429
a(S'Isn\xe2\x80\x99t it amusing that it\xe2\x80\x99s turning out all the collusion with Russia was on Hillary\xe2\x80\x99s side?'
p430
S'2:11 PM - 21 Dec 2017'
p431
tp432
a(S'Imagine what the bill of endless investigations for Russia collusion could of been spent here What a difference redistribution of $ can do!'
p433
S'2:11 PM - 21 Dec 2017'
p434
tp435
a(S"There's literally nothing you idiots can do to distract the public from your own ineptitude, corruption & obvious collusion with Russia. You'll all end up fired, in jail or worse. Merry Christmas!  pic.twitter.com/96M6OboL2A"
p436
S'2:08 PM - 21 Dec 2017'
p437
tp438
a(S'So there was Trump-Russia collusion!\nBannon blames Jared Kushner for the Trump campaign colluded with Russia http://read.bi/2CQwvZu\xc2\xa0 via @PoliticsInsider'
p439
S'2:08 PM - 21 Dec 2017'
p440
tp441
a(S'This is crazy ! Sessions needs to get off his ass and do something !!\nThe man investigating the Russian \xe2\x80\x9ccollusion\xe2\x80\x9d personally brought uranium to Russia ! The #deepstate is much deeper then we know !https://twitter.com/wikileaks/status/891431096688271365\xc2\xa0\xe2\x80\xa6'
p442
S'2:07 PM - 21 Dec 2017'
p443
tp444
a(S'How Obama and Hillary Clinton Weaponized the Trump-Russia Collusion \xe2\x80\x98Dossier\xe2\x80\x99  https://www.globalresearch.ca/how-obama-and-hillary-clinton-weaponized-the-trump-russia-collusion-dossier/5616084\xc2\xa0\xe2\x80\xa6'
p445
S'2:07 PM - 21 Dec 2017'
p446
tp447
a(S'#LiberalismIsAMentalDisorder Still believing and trying to sell Russia Collusion. Nobody buying. #MAGA'
p448
S'2:06 PM - 21 Dec 2017'
p449
tp450
a(S'Sexual misconduct, collusion with Russia, hiding tax returns, 90 days spent on the golf course, on and on and on... keep protecting or making  up. Whatever you like to call it #GOPTaxBillScam #corruption #Fraud'
p451
S'2:06 PM - 21 Dec 2017'
p452
tp453
a(S'The Open Secret About Trump\xe2\x80\x99s Collusion With Russia | New Republic https://newrepublic.com/article/146381/open-secret-trumps-collusion-russia\xc2\xa0\xe2\x80\xa6'
p454
S'2:05 PM - 21 Dec 2017'
p455
tp456
a(S"@DevinNunes is a CLOWN as so aptly pointed out by @Morning_Joe & probably part of the collusion w) Russia & Donny Dumbfuck, which is why he's so desperate to squash Mueller's investigation. He's doesn't want to be in jail getting rear ended w) no insurance http://www.msnbc.com/morning-joe/watch/joe-scarborough-criticizes-devin-nunes-questioning-of-the-doj-fbi-1121513539661?cid=sm_npd_ms_fb_mj\xc2\xa0\xe2\x80\xa6"
p457
S'2:05 PM - 21 Dec 2017'
p458
tp459
a(S'Most Americans doubt #Trump on #Russia probe, and good reason. #DonaldTrump has proven himself to be a shady, manipulative, and deceitful ogre who lies every time he takes a breath. He has ZERO moral compass anywhere in him.\n\n#TrumpRussia #COLLUSION https://apple.news/Ach29DR8KQmGUmym9cWQvIQ\xc2\xa0\xe2\x80\xa6'
p460
S'2:03 PM - 21 Dec 2017'
p461
tp462
a(S'Like what? No evidence of Russia collusion. When you haters going to stop with your Russia conspiracy BS?'
p463
S'2:03 PM - 21 Dec 2017'
p464
tp465
a(S'Any elected official who votes yes with Trump on any new bills  or chooses to not represent those who elected them into office...should also be investigated for collusion with Russia.'
p466
S'2:03 PM - 21 Dec 2017'
p467
tp468
a(S"So....overwhelming evidence of collusion with Russia is a bogus conspiracy theory, but blaming Bernie's loss (by millions of votes) on the DNC rigging the primary, isn't an asinine conspiracy theory. \nMethinks the narcissist doth protest too much."
p469
S'2:02 PM - 21 Dec 2017'
p470
tp471
a(S"What's up with all these GOP senators who I respected coming to Trump's side? So disheartening. The only thing worse than Watergate is Trump's collusion with a foreign adversary, Russia. #Russiagatehttps://twitter.com/RandPaul/status/943852014055944192\xc2\xa0\xe2\x80\xa6"
p472
S'2:02 PM - 21 Dec 2017'
p473
tp474
a(S'The Open Secret About\nTrump\xe2\x80\x99s Collusion With Russia https://newrepublic.com/article/146381/open-secret-trumps-collusion-russia\xc2\xa0\xe2\x80\xa6 #DreamAct #climatechange #NikkiHaley #ThursdayThoughts #WinterSolstice #nevertrump #theresistance #trumprussia'
p475
S'2:01 PM - 21 Dec 2017'
p476
tp477
a(S"Can't waste enough taxpayer monies for a distraction to their collusion with Russia."
p478
S'2:01 PM - 21 Dec 2017'
p479
tp480
a(S'Your proof please. The last I heard after a year STILL no evidence of Russia collusion with Trump. Nice try though'
p481
S'2:01 PM - 21 Dec 2017'
p482
tp483
a(S'Mueller, a bull shine theory on Russia he nabs on to with all his prosecuting  political assassins he now has a big Russia Collusion Fraud Scam going to take Trump down'
p484
S'2:00 PM - 21 Dec 2017'
p485
tp486
a(S'MT @rolandsmartin So NOW team @RealDonaldTrump doesn\xe2\x80\x99t want Mueller to see their emails. See how karma is a mutha? The crowd who crowed about @hillaryclinton\xe2\x80\x99s emails now wants their emails private. This is how you know the Russia collusion is real. Team Donald real scared...!'
p487
S'2:00 PM - 21 Dec 2017'
p488
tp489
a(S"Debunked? Maybe in Hate-America Land.\n\nIn actual America it's anything but debunked.  #CrookedHillary is going down.\n\nAnd the only thing he's recused on is Collusion between Trump and Russia during the campaign.  i.e., Fantasy Land.\n\n#ThursdayThoughts #MAGAhttps://twitter.com/thinkprogress/status/943941674128076801\xc2\xa0\xe2\x80\xa6"
p490
S'1:59 PM - 21 Dec 2017'
p491
tp492
a(S'"#Russia" | #FBImWithHer | #BruceOhr #NellieOhr #PeterStrzok #LisaPage #BillPriestap #AndrewMcCabe | #FusionGPS #GlennSimpson | #SallyYates #Comey \n\n\xe2\x80\x9cBigger Than Watergate\xe2\x80\x9d \xe2\x80\x93 Rand Paul Discusses FBI and DOJ Collusion Against Candidate Donald Trump\xe2\x80\xa6\nhttps://youtu.be/0lVOTBKCgSw?t=18\xc2\xa0\xe2\x80\xa6\n#tcot'
p493
S'1:59 PM - 21 Dec 2017'
p494
tp495
a(S'The Trump Russia collusion was always #FakeNews \n\nThe real Russia collusion was #UraniumOne with Hillary.'
p496
S'1:59 PM - 21 Dec 2017'
p497
tp498
a(S'There\xe2\x80\x99s two types of #democrats - The ones who hate trump and use Russia to cover up their rigging, corruption and collusion and there\xe2\x80\x99s @TulsiGabbard'
p499
S'1:58 PM - 21 Dec 2017'
p500
tp501
a(S'Time to stop the russia stole the election fairy tales hoax and start investigating the Comey Mueller Clinton collusion activities!'
p502
S'1:58 PM - 21 Dec 2017'
p503
tp504
a(S'Without a Russia/Trump collusion charge; Obamas old justice & enforcement folks are in deep scat. #LockEmAllUp'
p505
S'1:57 PM - 21 Dec 2017'
p506
tp507
a(S"In addition to keeping Russia Collusion news from him, the WH musn't be letting Delusional Donnie from Queens know that America hates the tax cut law..."
p508
S'1:55 PM - 21 Dec 2017'
p509
tp510
a(S'Collusion! Money laundering with Russians! Russia " quid pro quo ", RUSSIA AGREED TO HACK HILLARY\'s EMAILS ( To Help Trump win the Presidency) IN RETURN FOR LIFTING THE SANCTIONS ON RUSSIA! The TRUTH IS CLEAR AS A BELL!! pic.twitter.com/EgOdAOGS7t'
p511
S'1:54 PM - 21 Dec 2017'
p512
tp513
a(S'@CNN @maggieNYT @JoyAnnReid @BanditRandom\xc2\xa0\n\nWow....\n\nhttps://www.vanityfair.com/news/2017/12/bannon-for-president-trump-kushner-ivanka\xc2\xa0\xe2\x80\xa6\n\nConfirms Trump Campaign Collusion w Russia\n\nConfirms everyone around @realDonaldTrump thinks he is a child.\n\nConfirms Trump views @nytimes not as fake but as "paper of record"\n\n#Resist #Resistance'
p514
S'1:53 PM - 21 Dec 2017'
p515
tp516
a(S'@SallyQYates Ms.Yates: This is now a street fight. Democrats try always to play by the rules. It is now irrelevant and inefficient : No more "Excuses" for Trump\'s collusion with Russia and , the complicit around hime (Session/Pence/Cohen/Nunes/McConnell /His children etc.) who'
p517
S'1:51 PM - 21 Dec 2017'
p518
tp519
a(S'How many times have Democrats said the same crap.  Russia collusion - any comment?'
p520
S'1:51 PM - 21 Dec 2017'
p521
tp522
a(S'Hello Joe, Do you think Pres Trump will decide to fire Special Counsel Meueller & try to end the Investigatiot into possible Collusion-Obstruction of Justice Charges against Pres Trump & his WH/Adm communication dealing with Russia-2016 Race?'
p523
S'1:50 PM - 21 Dec 2017'
p524
tp525
a(S"If it was a real Russian Collusion investigation then they'd be knocking on @HillaryClinton's door since she paid Russians for the phony dossier and sold Russia US Uranium. The only proof of collusion to date."
p526
S'1:48 PM - 21 Dec 2017'
p527
tp528
a(S'Where\'s the story on how wrong you were @seanhannity? "Congress, investigate Seth Rich Murder! @JulianAssange made comments u need to listen to! If Seth was wiki source, no Trump/Russia collusion https://twitter.com/kimdotcom/status/866378852964089856\xc2\xa0\xe2\x80\xa6 \xe2\x80\xa6"'
p529
S'1:46 PM - 21 Dec 2017'
p530
tp531
a(S'It is important for Senator Warren,Senator Blumenthal ,and Congresswoman Maxine Waters keep the Reublican on notice that the President is not above the law! Republicans are more interested in passing legislations that the Collusion with Russia.  The tax bill was the first example pic.twitter.com/mWwvkzRGRg'
p532
S'1:46 PM - 21 Dec 2017'
p533
tp534
a(S'Hey Sean! I remember that show! I AGREED with you that @jeffsessions only recused himself off of the Russia Collusion Investigation. @JakeSherman is leading the FAKE NEWS CHARGE and take FAKE CREDIT for a Story that you brought up first! I hope you are enjoying your vacation!'
p535
S'1:46 PM - 21 Dec 2017'
p536
tp537
a(S'You said from day 1 that the truth would come out of Russia collusion and libs/progressives would be sorry! Tick-Tock....boom!!'
p538
S'1:46 PM - 21 Dec 2017'
p539
tp540
a(S"All this while it turns out to be a FACT that @HillaryClinton & the DNC (same thing) paid for the phony Russian dossier? That was the ONLY proven collusion in all of this. Well, also the US Uranium she sold to Russia. But that's it. Trump did none of it. Dems are idiots!"
p541
S'1:45 PM - 21 Dec 2017'
p542
tp543
a(S'HERE\'S YOUR "RUSSIA" @nbc @CNNnewsroom COLLUSION! https://twitter.com/seanhannity/status/943883727502966784\xc2\xa0\xe2\x80\xa6'
p544
S'1:43 PM - 21 Dec 2017'
p545
tp546
a(S'Putin\xe2\x80\x99s Man in the White House? Real Trump Russia Scandal is Not Mere Collusion, U.S. Counterspies Say http://www.newsweek.com/trump-putin-man-white-house-russia-investigation-scandal-moscow-kremlin-755321?utm_campaign=NewsweekFacebookSF&utm_source=Facebook&utm_medium=Social\xc2\xa0\xe2\x80\xa6'
p547
S'1:43 PM - 21 Dec 2017'
p548
tp549
a(S'So you don\xe2\x80\x99t care that our own justice system and previous administration tried to rig the presidential election???\nAnd after 13 months of investigation still no evidence of Russia/Trump collusion'
p550
S'1:42 PM - 21 Dec 2017'
p551
tp552
a(S'SHE IS NOT THE PRESIDENT!! Deal with the monster that is there now: collusion with Russia, 2 people indicted, 2 people plead guilty to a felony! Do your job!!'
p553
S'1:41 PM - 21 Dec 2017'
p554
tp555
a(S'Stephen Cohen on Trump Russia Collusion Stories I\xe2\x80\x99ve Never Seen Media Malpractice Like This Grab https://fb.me/861AYt1ZY\xc2\xa0'
p556
S'1:41 PM - 21 Dec 2017'
p557
tp558
a(S'But #Russia collusion! https://twitter.com/davidharsanyi/status/943931439145455616\xc2\xa0\xe2\x80\xa6'
p559
S'1:39 PM - 21 Dec 2017'
p560
tp561
a(S"Very likely true.  Explains why Democrat's are clinging so ferociously to the phony Russia collusion story."
p562
S'1:38 PM - 21 Dec 2017'
p563
tp564
a(S'Really!!! The trump administration\xe2\x80\x99s collusion with Russia is worse than watergate. Rand Paul has zero credibility.'
p565
S'1:38 PM - 21 Dec 2017'
p566
tp567
a(S"We don\xe2\x80\x99t need a smokescreen created by White House backers. As the Russia probe gets closer 2 Trump, divisive tactics are being used 2 change the focus of the news. If Trump's campaign was involved n collusion w/the Russians as more info is revealing, we have a right 2 know."
p568
S'1:38 PM - 21 Dec 2017'
p569
tp570
a(S'Considering neither of you a) could find Russia on a map and b) can point to a single factual instance of collusion, your comments are moot'
p571
S'1:37 PM - 21 Dec 2017'
p572
tp573
a(S'Brian, Russia collusion is dead MERRY CHRISTMAS '
p574
S'1:37 PM - 21 Dec 2017'
p575
tp576
a(S'@JohnBerman doing everything he can not to let Jordan put out the TRUTH of the REAL collusion with RUSSIA, HILLARY CLINTON!!!!'
p577
S'1:37 PM - 21 Dec 2017'
p578
tp579
a(S'u still falling for that Russia lie- only collusion found so far was by your own party'
p580
S'1:36 PM - 21 Dec 2017'
p581
tp582
a(S'Uranium One the Real Russia Collusion!! pic.twitter.com/EXgC7rJPGt'
p583
S'1:34 PM - 21 Dec 2017'
p584
tp585
a(S'I thought the russia collusion happened BEFORE the election genius...'
p586
S'1:31 PM - 21 Dec 2017'
p587
tp588
a(S"I promise you, lawn boy, that if the Obama administration had done that, @realDonaldTrump  would not be president today. You very well know he alerted the GOP senate about Russia collusion so they could be bipartisan and the GOP didn't care one whit."
p589
S'1:30 PM - 21 Dec 2017'
p590
tp591
a(S"That is human nature to accept things that make sense to you. If it doesn't you push back. Example. Collusion. Trump campaign not organised enough to make detailed arrangement with Russia then cover their tracks so no one can uncover. They were novices at the way DC operates."
p592
S'1:30 PM - 21 Dec 2017'
p593
tp594
a(S'The only reason to have the Russia Trump collusion investigation is ignorance.'
p595
S'1:30 PM - 21 Dec 2017'
p596
tp597
a(S'Trump literally *TOLD* Russia to find said emails and release them in a campaign speech. Wikileaks (Assange has deep ties to Russia) subsequently did. That\xe2\x80\x99s collusion, dude. Sit down.'
p598
S'1:30 PM - 21 Dec 2017'
p599
tp600
a(S'Your Russia narrative is completely undercut by the fact that in OVER A YEAR there has been no evidence of collusion, except for by the Dems. You need another narrative, yours has expired'
p601
S'1:29 PM - 21 Dec 2017'
p602
tp603
a(S'The Michael Flynn legal plea deal is uncovering the corruption of both Trump and the Republicans. And they are so scared and Republicans are trying to cover-up the Trump-Russia "Collusion"'
p604
S'1:29 PM - 21 Dec 2017'
p605
tp606
a(S'@MaxBoot Here\xe2\x80\x99s the Russian collusion story you\xe2\x80\x99ve been dining out on now for months. Problem for you is it\xe2\x80\x99s about Russia colluding with Clinton, Inc. not Trump. https://twitter.com/nbcnews/status/943804518227210240\xc2\xa0\xe2\x80\xa6'
p607
S'1:28 PM - 21 Dec 2017'
p608
tp609
a(S' Facing Libel Lawsuit, Trump Dossier Author Now Backs Away From Claims Of Any Trump-Russia Collussion - http://DCWhispers.com\xc2\xa0 http://po.st/ZwYVWl\xc2\xa0 via @realdcwhispers #news #usa #trump #collusion'
p610
S'1:24 PM - 21 Dec 2017'
p611
tp612
a(S"Now Steele isn't too sure about the Trump-Russian Collusion. It's all falling apart! #TheStormIsHere\nChristopher Steele hedges on Russia dossier claims against Donald Trump - http://go.shr.lc/2Dg3RSp\xc2\xa0 - @washtimes"
p613
S'1:24 PM - 21 Dec 2017'
p614
tp615
a(S"Only Russia collusion was with Hillary so we'll see if you will serve her time"
p616
S'1:23 PM - 21 Dec 2017'
p617
tp618
a(S'#DCWhispers: #TrumpDossier author backs away from claims of #theDonald collusion with Russia. https://fb.me/NC6kbMU3\xc2\xa0'
p619
S'1:23 PM - 21 Dec 2017'
p620
tp621
a(S'The Open Secret About\nTrump\xe2\x80\x99s Collusion With Russia https://newrepublic.com/article/146381/open-secret-trumps-collusion-russia\xc2\xa0\xe2\x80\xa6'
p622
S'1:22 PM - 21 Dec 2017'
p623
tp624
a(S"@FoxNews also now saying the FBI had plan to assassinate Trump. Comey worked to keep Trump from getting elected as @Jim_Jordan OH Rep says!  That's hilarious since Comey 11 days before election announced reopening Hillary inv but never told Trump under inv for collusion w/Russia!"
p625
S'1:20 PM - 21 Dec 2017'
p626
tp627
a(S'This is about #Russia an enemy of our country interfering in our Democracy. The false rumors of coup, overreach, bias are coming from those who want the #MuellerInvestigation shut down. If @POTUS is innocent of collusion than he and @GOP must let him do his job'
p628
S'1:20 PM - 21 Dec 2017'
p629
tp630
a(S'RT Pink_About_it "RT StockMonsterVIP: So funny to see MSM and Democrats FREAKING over AG Jeff Sessions opening investigation into Uranium One. But, Why ???? I thought you all wanted to get to the bottom of Russia Collusion. \n\n#LockHerUpLoL\n#UraniumOn\xe2\x80\xa6 https://www.dailywire.com/news/24940/breaking-jeff-sessions-orders-new-look-uranium-one-ryan-saavedra\xc2\xa0\xe2\x80\xa6"'
p631
S'1:20 PM - 21 Dec 2017'
p632
tp633
a(S"Yup!  Look closely for real collusion with Russia from your Almighty Clinton God's"
p634
S'1:20 PM - 21 Dec 2017'
p635
tp636
a(S"Clinton News Network? Russia Russia Russia Mueller's Russian Collusion investigation scandalous a fabrication by the Dems Deap State left overs Diversion of the Truth to protect the Obama administration and The Clinton's"
p637
S'1:20 PM - 21 Dec 2017'
p638
tp639
a(S'Well we shall see. But so far you\xe2\x80\x99ve relied on MSM and failed. No evidence of a Trump- Russia collusion found.'
p640
S'1:20 PM - 21 Dec 2017'
p641
tp642
a(S'It appears that all of the collusion with Russia is being done by the Trump administration.'
p643
S'1:19 PM - 21 Dec 2017'
p644
tp645
a(S'The 2 guilty pleas were not for illegal activity connected to Russia but simply for lying to the fbi. Nothing about the Russian collusion has been proven or has any supporting evidence'
p646
S'1:19 PM - 21 Dec 2017'
p647
tp648
a(S'I thought you all wanted to get to the bottom of Russia Collusion. https://twitter.com/StockMonsterVIP/status/943919063381696513\xc2\xa0\xe2\x80\xa6'
p649
S'1:18 PM - 21 Dec 2017'
p650
tp651
a(S'One thing is very clear that the corrupt Republicans is totally a false desperation move that they are doing to cover-up the the true Trump-Russia "Collusion"!'
p652
S'1:18 PM - 21 Dec 2017'
p653
tp654
a(S'You need evidence to prove your idiotic assertion. Remember you have no evidence and no one else does because Russia-Collusion didn\xe2\x80\x99t occur!'
p655
S'1:18 PM - 21 Dec 2017'
p656
tp657
a(S"2/ It looks like from your profile you have kids. Do you want them to grow up in a country where tampered elections and collusion w/ outside forces becomes the new normal? Because that's what you're going to get if you discredit investigations into Russia collusion."
p658
S'1:18 PM - 21 Dec 2017'
p659
tp660
a(S'A rush on the Mueller investigation is to try and hide Trump`s clear guilt in the Trump-Russia "Collusion" facts!! https://twitter.com/NBCNews/status/943953007481417729\xc2\xa0\xe2\x80\xa6'
p661
S'1:18 PM - 21 Dec 2017'
p662
tp663
a(S'Daily Reminder: 412 Days of searching and still no President Trump - Russia Collusion. RT RT RT #Winning #Christmas #AmericaFirst #MerryChristmas #maga - Robert Mueller plays to the Dark Side of politics... - Come to the Dark Side - we have Nothingburgers. Retweet Thispic.twitter.com/LvaZVcaiAp'
p664
S'1:17 PM - 21 Dec 2017'
p665
tp666
a(S'Absolutely no evidence regarding any collusion of the Trump campaign w Russia. This is a completely fabricated story made up by Dems & FBI.'
p667
S'1:17 PM - 21 Dec 2017'
p668
tp669
a(S"@PressSec @realDonaldTrump best way to make Mueller probe go away is to simply make your #TaxReturns public. You say there's nothing to hide, it's a #hoax, this one act can go a long way to settling it. #Collusion #Russia"
p670
S'1:17 PM - 21 Dec 2017'
p671
tp672
a(S'Sure, no evidence on Trump but plenty on Dems being Russian butt kissers, THE RESET, URANIUM 1, RUSSIA TAKES CRIMEA, AFTER THE ELECTION, RUSSIA SECURE CHEMICAL WEAPONS, Dems & Russia, Russia, Russia. OBAMAmorons support Obama Bin Slamas Russian Collusion.'
p673
S'1:17 PM - 21 Dec 2017'
p674
tp675
a(S"I blame the Trump Campaign and Regime's apparent collusion with Russia for the appearance of collusion with Russia.\n#TrumpRussia"
p676
S'1:16 PM - 21 Dec 2017'
p677
tp678
a(S'In a new CNN poll, just 8% believe Trump and his \xe2\x80\x98no collusion\xe2\x80\x99 narrative in contrast to a 47% approval of Robert Mueller\xe2\x80\x99s handling of the Russia Investigation. \n\nTime to drag tired old \xe2\x80\x9cJudge\xe2\x80\x9d Pirro our to float another conspiracy theory on #FauxNews'
p679
S'1:14 PM - 21 Dec 2017'
p680
tp681
a(S'Exactly. This Russia/ Trump Campaign Election "Collusion" BS has been going on now for A YEAR AND A HALF...So Far..ZIP ZERO NADA Evidence on Russia Collusion ! IF they even had a SNIFF of Colusion -it would have LEAKED OUT BY NOW. NOTHING THERE https://twitter.com/DaveNYviii/status/943926335302459393\xc2\xa0\xe2\x80\xa6'
p682
S'1:14 PM - 21 Dec 2017'
p683
tp684
a(S'#Trump and #NikkiHaley plucking another move from the #Hitler playbook\n#Impeach #Invalidate #Resign\n#Treason #Collusion #Russia #AltRight #UNhttps://www.wdl.org/en/item/11598/\xc2\xa0'
p685
S'1:13 PM - 21 Dec 2017'
p686
tp687
a(S"We know you're anti-cop you don't have to prove it by making IGNORANT statements like that! Mueller was supposed to investigate collusion between Trump and Russia but has gone everywhere else and now we are finding out how far Obama's politicization of federal agencies has gone!"
p688
S'1:13 PM - 21 Dec 2017'
p689
tp690
a(S"Funny you bring up the whole Russia thing, wonder if you'll shout #collusion re @MayorMemphis and Greenspace (sham)? I'll wait..."
p691
S'1:13 PM - 21 Dec 2017'
p692
tp693
a(S'Dear Robert Mueller if you\'re"LISTENING" please investigate @DevinNunes bcuz as part of the Trump transition team it seems like he\'s trying EXTREMELY HARD to cover-up his collusion/coordination w/ RUSSIA!!! #WhatYouHidingNunes'
p694
S'1:12 PM - 21 Dec 2017'
p695
tp696
a(S'@TheLeadCNN @cnn funny they don\xe2\x80\x99t trust the intelligence when related 2 things they don\xe2\x80\x99t support like Russia collusion but trust them enough when supplying intel 2 Russia 2 help them about an ISIS plot against them! Hmmm'
p697
S'1:11 PM - 21 Dec 2017'
p698
tp699
a(S'Syrian/Russian collusion in violating sanctions #putin #olgino #trolls #fsb #putin #oligarchs #russia #syria #assad #cyberspetsnas #fakenewshttp://ow.ly/4GWO30hlV8m\xc2\xa0'
p700
S'1:10 PM - 21 Dec 2017'
p701
tp702
a(S'Two things here worse than Watergate. Trump and Russia collusion and the attack on the rule of law by members of the republican party.'
p703
S'1:09 PM - 21 Dec 2017'
p704
tp705
a(S"If I switched videos here with a Fox one dismantling the Russia campaign collusion theory you're comment above would be just as valid. The more ridiculous and incredulous one finds something seems to be determined by which team you're on"
p706
S'1:09 PM - 21 Dec 2017'
p707
tp708
a(S'Putin\xe2\x80\x99s Man in the White House? Real Trump Russia Scandal is Not Mere Collusion, U.S. Counterspies Say #SmartNewshttp://www.newsweek.com/trump-putin-man-white-house-russia-investigation-scandal-moscow-kremlin-755321\xc2\xa0\xe2\x80\xa6'
p709
S'1:08 PM - 21 Dec 2017'
p710
tp711
a(S'The media seems to have missed the part where the Russia investigation is the result of a fake dossier?  Funded by @HillaryClinton and the DNC.  In collusion with Russia.  In a failed attempt to sway the election.'
p712
S'1:08 PM - 21 Dec 2017'
p713
tp714
a(S'Theories like Uranium One, spying on Americans and collusion with Russia/FusionGPS?  Because if so, that\'s not promoting "far-right anti-Obama conspiracy theories..." it\'s laying out what happened.'
p715
S'1:08 PM - 21 Dec 2017'
p716
tp717
a(S'"Uranium One" Hillary sells access to the State Department and approves a 20% sell of UR to Russia.  Obama allows terrorist Hezbollah to run drugs for guns to get a bad Iran deal.  Yet leftists are obsessed with fake Trump collusion. pic.twitter.com/8WzymSzipY'
p718
S'1:08 PM - 21 Dec 2017'
p719
tp720
a(S'Trump WH is being investigated for collusion/obstruction of justice, etc. in Russia probe. @Jim_Jordan @RepMattGaetz @RepDeSantis @RepDevinNunes are coordinating with them to try and discredit the probe. They are not attorneys for Trump WH. #TreasonCaucushttps://twitter.com/NatashaBertrand/status/943894470516510721\xc2\xa0\xe2\x80\xa6'
p721
S'1:07 PM - 21 Dec 2017'
p722
tp723
a(S"@CNN Tell your female panel @realDonaldTrump isn't lying about Russia, 3 Intel agencies said there was no collusion, you guys just missed the boat and facts once again."
p724
S'1:07 PM - 21 Dec 2017'
p725
tp726
a(S'Trump is guilty as hell of collusion with Russia and countless other crimes and misdeeds !  Stop defending our criminal- in chief ! https://twitter.com/vadpradub/status/943875779837837312\xc2\xa0\xe2\x80\xa6'
p727
S'1:07 PM - 21 Dec 2017'
p728
tp729
a(S"I don't know of any major TV network saying Trump should be impeached. They're just reporting all the awful news of the Russia-collusion investigation."
p730
S'1:07 PM - 21 Dec 2017'
p731
tp732
a(S'RT DrMartyFox: This Is Why We Need A Federal Grand Jury Indictments And Prosecutions\n\nThe Senior #FBI & #DOJ #HillaryFanClub Refuses To Tell Us Whether They Used Our Money \nIn Collusion With The DNC & Russia To Pay For The #FakeDossier \n\nRepMattGaetz #Tu\xe2\x80\xa6pic.twitter.com/RPU6dqnrbj'
p733
S'1:07 PM - 21 Dec 2017'
p734
tp735
a(S'@SilverAdie you are pathetic. There has been NO definite proof of Trump Russia collusion. Most of your tweet was beside the point anyway. All you do is yell. Also, great job spewing poison then blocking me. Your maturity is really showing. Go climb your ego and jump to your IQ.'
p736
S'1:06 PM - 21 Dec 2017'
p737
tp738
a(S'If you still think that the collusion with Russia is from Trump camp, you are the proof that Operation Mockingbird was effective. Propaganda.\nNow, open your eyes over the next month. \n\n#QAnonhttps://twitter.com/wikileaks/status/891431096688271365\xc2\xa0\xe2\x80\xa6'
p739
S'1:05 PM - 21 Dec 2017'
p740
tp741
a(S"Me too I am proud I switched, \n Don't you love it Hilary and Obama investigation announced today over their Russia deal,selling our Uranium and personally profitting, That's the Russian collusion.This is getting good getting some popcorn and enjoying the show "
p742
S'1:04 PM - 21 Dec 2017'
p743
tp744
a(S"GOP member of House Judiciary Committee to Robert Mueller: 'Put up or shut' about Trump-Russia 'collusion' (Video) https://thenationalsentinel.com/2017/12/21/gop-member-of-house-judiciary-committee-to-robert-mueller-put-up-or-shut-about-trump-russia-collusion-video/\xc2\xa0\xe2\x80\xa6 via @JDHeyes"
p745
S'1:03 PM - 21 Dec 2017'
p746
tp747
a(S'You have him confused with Hillary. Hillary/Russia collusion and Hillary/Russia/FBI collusion.'
p748
S'1:02 PM - 21 Dec 2017'
p749
tp750
a(S'Calling @RepAdamSchiff @cnnbrk is frantically looking for you to explain how this is just a distraction to the real Russia...Russia...Russia collusion case. I guess Putin is content to let a few Russian soldiers die to keep up appearances.'
p751
S'1:02 PM - 21 Dec 2017'
p752
tp753
a(S'Too bad the Trump/Russia collusion "theory" wasn\'t as well sourced. Is anyone else tired of the media running stories with no facts or identifiable witnesses to corroborate? They could take lessons from Politico of which I am also not a fan.'
p754
S'1:01 PM - 21 Dec 2017'
p755
tp756
a(S"Everything Trump has done so far does not fit the Russia collusion narrative...  Putin probably thought Trump would side with the East on global affairs and it's turned out to be quite the opposite...  Trump wants a stronger NATO"
p757
S'1:00 PM - 21 Dec 2017'
p758
tp759
a(S'From a dossier "proving" collusion, to a dossier saying it\'s "possible". A decent attorney would have a field day.\n\nChristopher Steele hedges on Russia dossier claims...- @washtimes'
p760
S'12:59 PM - 21 Dec 2017'
p761
tp762
a(S'#NeverTrumpHillary When @HillaryClinton @DNC Playbook Is; Pretend Trump Is Nixon Rather Than Remind #NotMeUs Trump Is More Similar To Clinton 1996\xe2\x80\x99s \xe2\x80\x98China-Gate\xe2\x80\x99 & Russia-Gate http://bit.ly/2A5JRUP\xc2\xa0 Clinton\xe2\x80\x99s re-election 1996 marred by shockingly similar collusion w/Chinese'
p763
S'12:59 PM - 21 Dec 2017'
p764
tp765
a(S'The floor is Trump/Russia collusion: pic.twitter.com/nMr4yMfADz'
p766
S'12:58 PM - 21 Dec 2017'
p767
tp768
a(S'Russian collusion is when the Dems paid $12 for the Trump dossier. And when Podesta group helped Ukraine strongman. Please, Russia is the wild west. Do you know anybody in biz world? Both Repubs and Dems are dirty in this arena.'
p769
S'12:58 PM - 21 Dec 2017'
p770
tp771
a(S'Did you miss the part where the Russia investigation is the result of a fake dossier?  Funded by @HillaryClinton and the DNC.  In collusion with Russia.'
p772
S'12:57 PM - 21 Dec 2017'
p773
tp774
a(S"How is it possible that someone could believe that conspiracy theory and not believe the Russia collusion probe? Literally Trump's campaign manager and NSA head have been indicted and or convicted of illegal work with Russia. Plus Russia meddled in our election."
p775
S'12:55 PM - 21 Dec 2017'
p776
tp777
a(S'US finds no collusion with Russia also. Is that so hard to admit?'
p778
S'12:54 PM - 21 Dec 2017'
p779
tp780
a(S".@Newsweek published parts of @lukeharding1968's new book on Trump-Russia collusion, bc we're cool like that http://www.newsweek.com/2017/12/29/donald-trump-russia-secret-deutsche-bank-753780.html\xc2\xa0\xe2\x80\xa6"
p781
S'12:53 PM - 21 Dec 2017'
p782
tp783
a(S'Wishful thinking Congress has no kahones Believe it when it happens These R the same morons who do not  know what \xe2\x80\x9cno russia trump collusion\xe2\x80\x9d means'
p784
S'12:52 PM - 21 Dec 2017'
p785
tp786
a(S'That\'s silly. There is no Russia-Trump collusion. Democrats tried to rig the system to get Hillary elected. When it didn\'t work, they made up the "Russia" story to try to harm President Trump. That didn\'t work either.'
p787
S'12:52 PM - 21 Dec 2017'
p788
tp789
a(S'The real Russia collusion was Hillary\xe2\x80\x99s Uranium One deal'
p790
S'12:52 PM - 21 Dec 2017'
p791
tp792
a(S'Fact - if this was the US #PMNoEthics #Trudeau would be impeached, removed from office for his pay for play & ethics violations but sadly #Canadian media & idiot #liberal voters will give him a pass & rant on about fake #trump #Russia collusion BS instead'
p793
S'12:51 PM - 21 Dec 2017'
p794
tp795
a(S'I wish #Goodlatte was as concerned with actual evidence of our @POTUS And his Administrations #Collusion & #Conspiring with a foreign enemy #Russia. #Putin is working from our oval office.'
p796
S'12:48 PM - 21 Dec 2017'
p797
tp798
a(S'##Russia #Collusion = #UraniumOne\n#LockHerUp, end the #Obama #Coveruphttps://twitter.com/ScottPresler/status/943845502847782912\xc2\xa0\xe2\x80\xa6'
p799
S'12:48 PM - 21 Dec 2017'
p800
tp801
a(S'Putin\xe2\x80\x99s Man in the White House? Real Trump Russia Scandal is Not Mere Collusion, U.S. Counterspies Say http://flip.it/v4uVKp\xc2\xa0'
p802
S'12:46 PM - 21 Dec 2017'
p803
tp804
a(S"@DevinNunes is a CLOWN as so aptly pointed out by @Morning_Joe & probably part of the collusion w) Russia & Donny Dumbfuck, which is why he's so desperate to squash Mueller's investigation. He's doesn't want to be in jail getting rear ended w) no insurance https://youtu.be/ui93FaPiB6I\xc2\xa0"
p805
S'12:46 PM - 21 Dec 2017'
p806
tp807
a(S'The Open Secret About\nTrump\xe2\x80\x99s Collusion With Russia https://newrepublic.com/article/146381/open-secret-trumps-collusion-russia\xc2\xa0\xe2\x80\xa6'
p808
S'12:46 PM - 21 Dec 2017'
p809
tp810
a(S"I agree there will never be proof of Trump Russia collusion. But #TrumpIsAConMan and #YouAreTheRube. #DrainTheSwamp is actually #DrainYourWallet. He's already sabotaged health care for millions and next year he'll be coming for your social security money."
p811
S'12:44 PM - 21 Dec 2017'
p812
tp813
a(S'A lot of bs crap about #Trump-#Russia collusion. The #Swamp chickens are dumber than ever. They like to drag it on, as to hold onto their own power.https://twitter.com/Heritage/status/943649483761639425\xc2\xa0\xe2\x80\xa6'
p814
S'12:44 PM - 21 Dec 2017'
p815
tp816
a(S'@ABC @BBCWorld @CBSNews @FoxNews @NBCNews\n#Russia #Collusion = #Nothingburger\nAwan Brothers -- multiple felonies, serious security issues. Get on it!https://twitter.com/TomFitton/status/943880315675795456\xc2\xa0\xe2\x80\xa6'
p817
S'12:43 PM - 21 Dec 2017'
p818
tp819
a(S'The Open Secret About\nTrump\xe2\x80\x99s Collusion With Russia https://buff.ly/2BLWK3R\xc2\xa0pic.twitter.com/VUm2nOsSFw'
p820
S'12:43 PM - 21 Dec 2017'
p821
tp822
a(S'@DiamondandSilk  the year 2030  Robert mueller investigation still on going  on Russia collusion while  Clinton\xe2\x80\x99s and Obamas vacation in Russia with mueller'
p823
S'12:42 PM - 21 Dec 2017'
p824
tp825
a(S"Great segment!\n\n'Tucker: 2016 Russia Collusion 'Witch Hunt' Now Extends to Jill Stein'\n\nhttp://insider.foxnews.com/amp/article/59500\xc2\xa0\xe2\x80\xa6pic.twitter.com/TMs4XHCFDd"
p826
S'12:42 PM - 21 Dec 2017'
p827
tp828
a(S'Yes we need to learn the truth of what obama was up to during trump transition, collusion with DOJ about Hezbollah, why the obama DOJ was interfered my to great rote this Hillary and the Clinton deal with Russia.  We need answers'
p829
S'12:41 PM - 21 Dec 2017'
p830
tp831
a(S'Their is none. Unless you mean Hillary and Russia collusion'
p832
S'12:41 PM - 21 Dec 2017'
p833
tp834
a(S"The issue is more about MSM wasting time on Russian collusion...over a year now and where's the news?... yet spending very little time on actual HRC Russia Uranium deal...Imagine if Trump sold our Uranium to Russia."
p835
S'12:40 PM - 21 Dec 2017'
p836
tp837
a(S'@krassenstein Uh-Oh...Russia collusion story keeps unravelling.  Not long before the complete 180 into a HIllary indictment...\nOf course your newfound love for Bob Mueller will be far away in the rear view mirror as you accuse him of being a Republican\nhttps://townhall.com/tipsheet/katiepavlich/2017/12/07/doj-officials-demoted-for-dossier-contacts-n2419601\xc2\xa0\xe2\x80\xa6'
p838
S'12:39 PM - 21 Dec 2017'
p839
tp840
a(S'@FoxNews there is no collusion with Trump & Russia.'
p841
S'12:37 PM - 21 Dec 2017'
p842
tp843
a(S"Mostly? The fake dossier that the DNC and FBI paid for from Russia is the collusion. They are all in trouble and floundering over each other. The uranium one is being investigated for corruption. I don't care if it's a republican or democrat. I'm independent so try that again."
p844
S'12:35 PM - 21 Dec 2017'
p845
tp846
a(S'We all know it is BS.\nPoll: 63 percent say Trump-Russia collusion investigation by Justice Dept. harming the country -  Americans for Limited Government'
p847
S'12:35 PM - 21 Dec 2017'
p848
tp849
a(S"Respectfully, I have an idea: let's agree to disagree and see what happens in six months -- deal?  If that doesn't seem like enough time to find evidence please share your thoughts on how much time you think is needed for Trump Russia collusion evidence to be exposed?"
p850
S'12:35 PM - 21 Dec 2017'
p851
tp852
a(S'No. Ore \xe2\x80\x9cfaux news\xe2\x80\x9d than the liberals claim of Russian collusion. The only difference is that the Hillary Uranium One investigation is just beginning and Trumps Russia collusion has been going for nearly a year with still ZERO proof of a crime.'
p853
S'12:35 PM - 21 Dec 2017'
p854
tp855
a(S'And the most obstructed president ever. Mainly caused by lies by the Liberal Media Industrial Complex and Democrats with no more intellectual honesty than a Brothers Grimm fairytale like Trump/Russia. \xe2\x80\x9cCollusion\xe2\x80\x9d'
p856
S'12:33 PM - 21 Dec 2017'
p857
tp858
a(S'Ok. There is no Russia/trump collusion. It\xe2\x80\x99s a conspiracy theory that dems dreamt up because they need something to cry about otherwise their lives are meaningless'
p859
S'12:32 PM - 21 Dec 2017'
p860
tp861
a(S'2. More news comes out daily that strips the merit from the entire Russia collusion fake narrative.'
p862
S'12:32 PM - 21 Dec 2017'
p863
tp864
a(S'Trump-jitsu. Russia collusion is turning into FBI/DOJ collusion'
p865
S'12:30 PM - 21 Dec 2017'
p866
tp867
a(S'You have obviously seen collusion with Trump/Russia so time soften the blow. You have zero respect for rule if law. Go graze sheep!'
p868
S'12:30 PM - 21 Dec 2017'
p869
tp870
a(S'@HuckSawyer2 hey huck bring on ur evidence, we r adults, prove ur charges, u seem to believe that holding only the rite accountable is the right thing to do, is that what ur saying,  r u just talking to make noise, everything points at corrupt obama gang collusion w/russia&iran'
p871
S'12:30 PM - 21 Dec 2017'
p872
tp873
a(S'Where\xe2\x80\x99s your proof of obstruction of justice? And PLEASE site one piece of evidence of trumps collusion with Russia '
p874
S'12:29 PM - 21 Dec 2017'
p875
tp876
a(S'Russia voted against the US cause as well.  I thought we had them under our thumb with copious amounts of collusion. Damn you Russia!!!'
p877
S'12:26 PM - 21 Dec 2017'
p878
tp879
a(S'https://www.nbcnews.com/news/us-news/prosecutors-ask-fbi-agents-info-uranium-one-deal-n831436\xc2\xa0\xe2\x80\xa6 Finally investigating *real* Russia collusion!\n"...some of the people associated with the deal contributed millions of dollars to the Clinton Foundation. And Bill Clinton was paid $500,000 for a Moscow speech by a Russian investment bank... "'
p880
S'12:25 PM - 21 Dec 2017'
p881
tp882
a(S'What makes his tweet truly troubling is that Rand and other @GOP primary opponents of #Trump were also victims of #Russian attacks and #Collusion. #Russia #Mueller #MuellerIsComing #MuellerTime #JillStein #TheResistance #MSNBC #TrumpRussia #maddow #Resistance #DemForce #Opinion'
p883
S'12:25 PM - 21 Dec 2017'
p884
tp885
a(S'Trump: Sessions I\'m freaking guilty with this Russia collusion thing. Can you help me out?\n\nSessions: I got you boss!\n\nSessions: Today we announce we are re-opening the "Uranium One" Deal for the 1,289 time. Yes, we won\'t find anything but it pleases boss man!'
p886
S'12:24 PM - 21 Dec 2017'
p887
tp888
a(S'The search for Trump Russia collusion is like looking for "one" transitional fossil, impossible to find! pic.twitter.com/ZzsTI89W2L'
p889
S'12:24 PM - 21 Dec 2017'
p890
tp891
a(S'Nothing to do with #POTUS & Russia Collusion. You\xe2\x80\x99re going to be as shocked by the backfire as you were the 2016 election. #Duped'
p892
S'12:22 PM - 21 Dec 2017'
p893
tp894
a(S'Prosecutors ask FBI for info on Uranium One deal:\nThis is way overdue.  Absolute maddness of Obama to let Hilary hand Russia 1/5 of our Uranium! And they\xe2\x80\x99re accusing Trump of collusion???\nhttps://www.nbcnews.com/news/us-news/prosecutors-ask-fbi-agents-info-uranium-one-deal-n831436\xc2\xa0\xe2\x80\xa6'
p895
S'12:18 PM - 21 Dec 2017'
p896
tp897
a(S'(2) Congressional Republicans who knowingly assisted him with fraud and (their) financial self enrichment, collusion with Russia and repeated attempts to take away the basic rights of the American people.'
p898
S'12:17 PM - 21 Dec 2017'
p899
tp900
a(S'DA Uranium One is the real Russia collusion.'
p901
S'12:16 PM - 21 Dec 2017'
p902
tp903
a(S"The media controls public dialogue and narrative. If they're not asking questions then it's out of public mind. They are busy distracting us with phony Trump-Russia non collusion. #whiteout #blackout #mediabias https://twitter.com/realjmannarino/status/942155396634087427\xc2\xa0\xe2\x80\xa6"
p904
S'12:14 PM - 21 Dec 2017'
p905
tp906
a(S'Russia Russia Russia... here it is your Russia Russia Russia indictments are coming!  Not for Trump... but for HILLARY   #LockHerUp    No collusion for TRUMP, but pic.twitter.com/ASVcoofsbz'
p907
S'12:13 PM - 21 Dec 2017'
p908
tp909
a(S"Agree and it is so strange that the Left want to spend money and time having an investigation about Russian collusion affecting our election but they don't give a  rat's ash about Russia having access to what use to be OUR uranium. Uranium one #NotGoingAwayhttps://twitter.com/CharlieDaniels/status/943832075827924992\xc2\xa0\xe2\x80\xa6"
p910
S'12:13 PM - 21 Dec 2017'
p911
tp912
a(S'Top under reported stories from @FoxNews \n-Flynn pleaded guilty to lying about Russia\n-Papadopoulos pleaded guilty to lying about Russia\n-Manafort indicted for money laundering w / Russia\n-Gates indicted for money laundering w / Russia\n-@DonaldJTrumpJr collusion w/ Russia'
p913
S'12:13 PM - 21 Dec 2017'
p914
tp915
a(S'What Mueller actually found was that Manafort (prior to Trump) worked worked with Hillary\'s main guy, John Podesta and his brother, Tony Podesta at the Podesta Group. They did some shady stuff and they\'re in trouble for it. FBI cleared Flynn of any Russia, "collusion."'
p916
S'12:12 PM - 21 Dec 2017'
p917
tp918
a(S"They want to distract from the real investigations into Trump and the GOP's collusion with Russia to influence our democratic election process. The truth will come out."
p919
S'12:10 PM - 21 Dec 2017'
p920
tp921
a(S'you have obviously given up on even attempting to help middle-class.  It is all about you.  You are destroying America\xe2\x80\x99s respect around the world, threatening the U.N. / selling our dignity and morality for money.  The RUSSIA COLLUSION seems even more realistic pic.twitter.com/kwV2x12aOm'
p922
S'12:09 PM - 21 Dec 2017'
p923
tp924
a(S'Donald and don jr had a meeting about receiving stolen goods from a enemy of America  (Russia) its called collusion'
p925
S'12:06 PM - 21 Dec 2017'
p926
tp927
a(S"OH. MY. GOD. Trump/Russia collusion is what's worse than Watergate, and YOU'RE COMPLICIT, Senator. https://twitter.com/RandPaul/status/943852014055944192\xc2\xa0\xe2\x80\xa6"
p928
S'12:05 PM - 21 Dec 2017'
p929
tp930
a(S"Senator Rand Paul calls for investigation into Obama officials colluding to prevent Trump from being elected - He wants to know why Mueller's investigation into alleged Trump/Russia collusion appears so obviously partisan"
p931
S'12:04 PM - 21 Dec 2017'
p932
tp933
a(S'To sum up, the unhinged left\xe2\x80\x99s playbook is as follows:\n\nStep 1 - Disagree\n\nStep 2 - Cry\n\nStep 3 - Blame Russia / collusion\n\nStep 4 - Call the opponent a racist\n\nStep 5 - Insinuate your opponent\xe2\x80\x99s untimely demise; to wit, you may be suicided.\n\nRepeat 2-5 as needed.'
p934
S'12:04 PM - 21 Dec 2017'
p935
tp936
a(S'gUy under investigation for colluding with rUssia orders investigation on collusion with rUssiaThe banana  republic of tRumpUSA? https://twitter.com/thehill/status/943826404625567745\xc2\xa0\xe2\x80\xa6'
p937
S'12:03 PM - 21 Dec 2017'
p938
tp939
a(S'the democrats(led by frankenfeinstein)want 2 discredit competition while the @GOP wants 2 redirect a "FAKE" russia collusion story they can\'t make go away(fed completely by @DNC+HRC elements). the ONLY truth of tRump+russia is illegal business deals with russian oligarchs+tRump.'
p940
S'12:02 PM - 21 Dec 2017'
p941
tp942
a(S"Erik, je bent -net als de links-liberale media in de #US- druk bezig de #UraniumOneDeal te downplayen. Hier staan alle events nog eens op 'n rij: https://www.homelandsecurityus.com/understanding-uranium-one-scandal/\xc2\xa0\xe2\x80\xa6   'Smoking gun evidence of #collusion and more betw. #Russia and #Hillary +#BillClinton + #ClintonFoundation !"
p943
S'12:02 PM - 21 Dec 2017'
p944
tp945
a(S'I would love to see a slither of Russia collusion, libtards \n#ProtectMueller'
p946
S'12:01 PM - 21 Dec 2017'
p947
tp948
a(S'Another great thread. A must read to understand the mechanics and the extent of the crimes involved in this state-sponsored "Russia Collusion!" scandal. https://twitter.com/Imperator_Rex3/status/943786618002878464\xc2\xa0\xe2\x80\xa6'
p949
S'12:00 PM - 21 Dec 2017'
p950
tp951
a(S'Mueller and Rosenstein both heavily conflicted in regards to Uranium One. If Sessions turns up the heat, Bob and Rod will have to back down. The Dems will rue the day they started this Russia collusion nonsense.'
p952
S'11:59 AM - 21 Dec 2017'
p953
tp954
a(S'Uranium One Clinton Foundation sample to Moscow by Mueller, yeah Russia collusion but not by President Trump.'
p955
S'11:59 AM - 21 Dec 2017'
p956
tp957
a(S'No we not Russia Trump collusion allegations.'
p958
S'11:59 AM - 21 Dec 2017'
p959
tp960
a(S'There is no reason to #ProtectMueller .\nThere is 0 evidence of Russia collusion \nThere is 0 evidence of Russia collusion \nThere is 0 evidence of Russia collusion \nThere is 0 evidence of Russia collusion \nThere is 0 evidence of Russia collusion'
p961
S'11:58 AM - 21 Dec 2017'
p962
tp963
a(S"uranium one still curious to hear fbi informant on Russia collusion with the Clinton foundation. my dad prime is when liberals say it's no big deal it's just 20 percent of weapons grade uranium. no big deal huh"
p964
S'11:57 AM - 21 Dec 2017'
p965
tp966
a(S'One good thing the Mueller investigation has done is to uncover the real collusion. Could it turn out to be Obama and Russia? LOL https://twitter.com/RandPaul/status/943852014055944192\xc2\xa0\xe2\x80\xa6'
p967
S'11:56 AM - 21 Dec 2017'
p968
tp969
a(S"It's simple. Russia collusion, look who is president. Question the president, and read into his history and tweets."
p970
S'11:56 AM - 21 Dec 2017'
p971
tp972
a(S'0 evidence of Russia collusion '
p973
S'11:56 AM - 21 Dec 2017'
p974
tp975
a(S'"Bannon believed the Russia collusion case was meritless, but he blamed Kushner for taking meetings during the campaign that gave the appearance the Trump team sought Putin\xe2\x80\x99s help."'
p976
S'11:56 AM - 21 Dec 2017'
p977
tp978
a(S'Trump increased sanctions against Russia, Russia voted against the US in the UN vote, if there is collusion they suck at it'
p979
S'11:55 AM - 21 Dec 2017'
p980
tp981
a(S'Hillary stole our uranium and sold it to Russia! Collusion with Russia was with the democrates! Stop the illegal witch hunt of the corrupt dems! They are so evil! God help us!'
p982
S'11:55 AM - 21 Dec 2017'
p983
tp984
a(S'Oh, look! Shiny object! No collusion with Russia! No tax giveaways to the rich! https://twitter.com/ThePlumLineGS/status/943913871831691264\xc2\xa0\xe2\x80\xa6'
p985
S'11:55 AM - 21 Dec 2017'
p986
tp987
a(S"Hillary, Podesta & Mook hatched Trump/Russia Collusion script.  This will make a great movie script.  Putin says, it's real except it was Bill Clinton not Trump https://twitter.com/dbongino/status/943856001199067137\xc2\xa0\xe2\x80\xa6"
p988
S'11:54 AM - 21 Dec 2017'
p989
tp990
a(S'The"Trump/Russia collusion" narrative is now on life support and the Dems are desperately trying to resuscitate it. Mueller flailing wildly now, making a fool of himself. Sessions should end this charade.'
p991
S'11:54 AM - 21 Dec 2017'
p992
tp993
a(S'Yes we do and it\xe2\x80\x99s been a year of no collusion between PRESIDENT TRUMP and Russia.\nThere are mountains of proof clinton, obama & the fbi coluded with Russia.\nThen there\xe2\x80\x99s that pesky #UraniumOne sale and pay for play.\nYou treasonous left are going down.\nYou argue with yourself lolpic.twitter.com/1JWVeErsY9'
p994
S'11:54 AM - 21 Dec 2017'
p995
tp996
a(S'@realDonaldTrump thinks forcing @jeffsessions to investigate Hillary will distract from his Russia collusion and obstruction of justice. Trump is so pathetic.'
p997
S'11:53 AM - 21 Dec 2017'
p998
tp999
a(S"Facts:\n-Flynn pleaded guilty to lying about Russia\n-Papadopoulos pleaded guilty to lying about Russia\n-Manafort indicted for money laundering w / Russia\n-Gates indicted for money laundering w / Russia\n-@DonaldJTrumpJr admitted to attempted collusion w/ Russia\n\nWhat's your agenda?"
p1000
S'11:52 AM - 21 Dec 2017'
p1001
tp1002
a(S'"Uranium One" Democrats create a false narrative of Russia collusion as Insurance policy to sabotage Trump presidency, meanwhile, Hillary Clinton illegally transfers Uranium to RUSSIA for their Nuclear Weapons!!! What is the real danger?!!'
p1003
S'11:52 AM - 21 Dec 2017'
p1004
tp1005
a(S'Kinda like the while Russia Collusion thingamajig'
p1006
S'11:51 AM - 21 Dec 2017'
p1007
tp1008
a(S'@realDonaldTrump The ENTIRE world is laughing at you. Even Russia which OWNS you. COLLUSION = TREASON. #ustoo'
p1009
S'11:49 AM - 21 Dec 2017'
p1010
tp1011
a(S'She started her blaming tour with Trump and Russia.  Of course the only evidence of collusion is Bill and Hillary.  \n\nOh and Claire McCaskill lying about meeting the ambassador.'
p1012
S'11:48 AM - 21 Dec 2017'
p1013
tp1014
a(S'Uranium one is fake news just to distract from the Trump Russia collusion. All Hannity does is promote lies and hate. He is trumps lap dog and propaganda machine. He is a glorified talk show host without a journalistic bone in his body. #MuellerTime'
p1015
S'11:48 AM - 21 Dec 2017'
p1016
tp1017
a(S'The Open Secret About\nTrump\xe2\x80\x99s Collusion With Russia https://newrepublic.com/article/146381/open-secret-trumps-collusion-russia\xc2\xa0\xe2\x80\xa6'
p1018
S'11:46 AM - 21 Dec 2017'
p1019
tp1020
a(S'Green Party\xe2\x80\x99s Jill Stein reportedly under investigation for possible Russia collusion - Stein dined with Russian president Vladimir Putin during a 2015 Moscow event that was also attended by Trump\xe2\x80\x99s former national security adviser Mike Flynn. Source:... http://ow.ly/rzeo50fQh2M\xc2\xa0'
p1021
S'11:45 AM - 21 Dec 2017'
p1022
tp1023
a(S'please explain how you can have an investigation in to collusion by POTUS and Russia but not reveal the source of the dossier?'
p1024
S'11:43 AM - 21 Dec 2017'
p1025
tp1026
a(S'Take a minute and think about it. If there was any I mean any kind of collusion with trump and Russia it would of been out. Mueller is getting sloppy he is discrediting this whole investigation. The collusion is with Russia and the dems and apparently the FBI'
p1027
S'11:43 AM - 21 Dec 2017'
p1028
tp1029
a(S"You're dumb, even for a fucking libtard..\nTrump Russia Collusion (including fake golden shower tape)\nFast and Furious Gun Running\nRigged Clinton/Sanders primary\nGlobal Warming\nObama espionage on candidates\nCNN giving Hillary debate questions\nIran cartel support\nMedia collusion"
p1030
S'11:43 AM - 21 Dec 2017'
p1031
tp1032
a(S"But...but... but... Trump's collusion with Russia... "
p1033
S'11:43 AM - 21 Dec 2017'
p1034
tp1035
a(S"You are all nutcases. Trump just sold weapons to the Ukraine -Russia's biggest political enemy, but of course - Russian collusion! He cut your taxes, and you are still moaning."
p1036
S'11:41 AM - 21 Dec 2017'
p1037
tp1038
a(S'Russian interference collusion gets my vote but by the dems led by hillary clinton. I find it stunning that dems continue this colluding with Russia nonsence especially in light of revelations regarding the dems HRC and their efforts to manipulate our election eith what can'
p1039
S'11:40 AM - 21 Dec 2017'
p1040
tp1041
a(S'Putin\xe2\x80\x99s Man in the White House? Real Trump Russia Scandal is Not Mere Collusion, U.S. Counterspies Say - Newsweek.     -Putin\xe2\x80\x99s Asset in Washington D.C.?  He will work for Russia, even when it means harming the U.S.A.? Major complication? He\xe2\x80\x99s President! https://apple.news/AEQ5jYFbOQKij76FrQr8jZw\xc2\xa0\xe2\x80\xa6'
p1042
S'11:39 AM - 21 Dec 2017'
p1043
tp1044
a(S'Netanyahu being investigated by #Israel police 4 poss corruption.Trump being investigation 4 poss collusion with #Russia. Both say it was right to declare #Jerusalem as capital. Maybe, but I have a difficult time believing 2 leaders under investigation 4 being lying cheats. #UNGA'
p1045
S'11:38 AM - 21 Dec 2017'
p1046
tp1047
a(S'Newsweek: Putin\xe2\x80\x99s Man in the White House? Real Trump Russia Scandal is Not Mere Collusion, U.S.... https://tmblr.co/Zgo2ib2TCx0Bt\xc2\xa0'
p1048
S'11:37 AM - 21 Dec 2017'
p1049
tp1050
a(S'\xe2\x80\x98They literally own him\xe2\x80\x99: Wall Street expert explains how Russian banks could use Trump\xe2\x80\x99s debt as leverage https://www.rawstory.com/2017/12/they-literally-own-him-wall-street-expert-explains-how-russian-banks-could-use-trumps-debt-as-leverage/#.WjwNDvDut6w.twitter\xc2\xa0\xe2\x80\xa6 Clear Trump-Russia "Collusion" because of Trump`s deep debt`s to Russia!!'
p1051
S'11:37 AM - 21 Dec 2017'
p1052
tp1053
a(S'Sorta helps to continue to blow the \xe2\x80\x9cTrump-Russia Collusion\xe2\x80\x9d narrative out of the water even more.\nI know the Russians will be pissed about some of this for sure.'
p1054
S'11:37 AM - 21 Dec 2017'
p1055
tp1056
a(S"Last-ditch effort to coronate their corrupt 'femagogue' in order to cover up THEIR collusion with Russia, the Deep State, the #FakeNewsIndustrialComplex, and just plain undermining everything America stands for?"
p1057
S'11:37 AM - 21 Dec 2017'
p1058
tp1059
a(S"Hillary was not SoS. On the board but not on Uranium One deal? And donor sold his stake?\n\nUsing this logic Trump wasn't even President when Russia helped him win and would have had to strong-arm other people into Russian collusion. \n\nSo everyone's innocent, right @JoyAnnReid !:@?https://twitter.com/RanttNews/status/943846847646502915\xc2\xa0\xe2\x80\xa6"
p1060
S'11:35 AM - 21 Dec 2017'
p1061
tp1062
a(S'It could explain how they were so quickly able to devise a \xe2\x80\x9cCollusion With Russia\xe2\x80\x9d scandal. https://twitter.com/doranimated/status/943917473191153664\xc2\xa0\xe2\x80\xa6'
p1063
S'11:35 AM - 21 Dec 2017'
p1064
tp1065
a(S'Finally, the financial ties to Russia seem to be the biggest issue in the investigation thus far. Trump has consistently denied collusion with and financial ties to Russia. Releasing his tax returns would go a long way to prove his case. Why not?'
p1066
S'11:32 AM - 21 Dec 2017'
p1067
tp1068
a(S'what kind of #moron thinks people will believe it\'s "just a grassroots voter like you" when it says "collusion with Russia" about JIll Stein like it\'s a real thing -- and if this #tool actually believes it, how dumb is that? #AstroturfersRDimbulbs (otherwise they wouldn\'t be one)'
p1069
S'11:31 AM - 21 Dec 2017'
p1070
tp1071
a(S'You guys are painting this like there is some sort of collusion with Russia or something. What? There probably is? Oh, carry on then.'
p1072
S'11:30 AM - 21 Dec 2017'
p1073
tp1074
a(S'The Open Secret About Trump\xe2\x80\x99s Collusion With Russia\n#mueller #trumprussia #resist #msnbc @newrepublichttps://newrepublic.com/article/146381/open-secret-trumps-collusion-russia\xc2\xa0\xe2\x80\xa6'
p1075
S'11:30 AM - 21 Dec 2017'
p1076
tp1077
a(S'Russia Investigation "red herring"; Trump won because of collusion & interference by Israel/Netanyahu US Jewish community voted for Trump, payoff Trump unilateral declaration re Jerusalem. Bad for US bad for US Citizens. Trump controlled by Netanyahu. Dems barking up wrong tree'
p1078
S'11:29 AM - 21 Dec 2017'
p1079
tp1080
a(S'"Reminder: the Russia hysteria was created after leaked DNC emails exposed collusion to sabotage Bernie Sanders & rig the "Democratic" primaries. The DNC claimed it was hacked by Russia, yet refused to let the FBI investigate its server." - Jill Stein https://twitter.com/DrJillStein/status/943605859464204288\xc2\xa0\xe2\x80\xa6'
p1081
S'11:28 AM - 21 Dec 2017'
p1082
tp1083
a(S'They had everything to do with Russia and wait til the end there will be more on Collusion. But you believe your conspiracy go ahead whatever floats your boat.'
p1084
S'11:26 AM - 21 Dec 2017'
p1085
tp1086
a(S'Only explanation that fits, Nunez is dirty as hell. Is it taking illegal campaign money from Russia or is it collusion. Either Muller takes him down or CA does next year. Stick a fork in treason weasel, he\xe2\x80\x99s done.'
p1087
S'11:25 AM - 21 Dec 2017'
p1088
tp1089
a(S'You are right: even the President shouldn\xe2\x80\x99t be above the law. #Russia #Collusion'
p1090
S'11:24 AM - 21 Dec 2017'
p1091
tp1092
a(S"There was no Russia collusion. You have no evidence. Imagine all the sexual harassment settlements Democrats could pay for with the money wasted on Mueller's witch hunt."
p1093
S'11:24 AM - 21 Dec 2017'
p1094
tp1095
a(S"But I see you're one for comedy, given that you believe in the debunked Russia-Trump collusion fairy tale."
p1096
S'11:23 AM - 21 Dec 2017'
p1097
tp1098
a(S'@Heavenisabeach @LouiseMensch A year later and still No Proof of Russia Collusion. And Bannon\xe2\x80\x99s and Trump\xe2\x80\x99s execution is scheduled for when? Bwahahahahaha. pic.twitter.com/Uc9ZdXaJAN'
p1099
S'11:22 AM - 21 Dec 2017'
p1100
tp1101
a(S'@RandPaul We already have more information to suggest Obama admin collusion against Trump than evidence to suggest Trump collusion with Russia. DOJ and FBI stonewalling Congress must stop. The public needs to know what the FBI did to obtain FISA court warrants.'
p1102
S'11:21 AM - 21 Dec 2017'
p1103
tp1104
a(S"~ Trump's victory blab kaplanagram style! ~\n\nMAKE AMERICA GREAT AGAIN = A Gaga Miamian Racketeer \n\nShow any collusion with Russia = Yo, shall I wash our twin cousins?\n\nThe MAGA Agenda = Hate - Damage - Nag \n\nmainstream 'meadia' = red meat mania aims\n\n(\xc2\xa92017 #kaplanagram.com)"
p1105
S'11:20 AM - 21 Dec 2017'
p1106
tp1107
a(S'But you\xe2\x80\x99re here bitching about something a lot of people on DC do while Republicans aid collusion with Russia?'
p1108
S'11:20 AM - 21 Dec 2017'
p1109
tp1110
a(S'Green Party\xe2\x80\x99s Jill Stein reportedly under investigation for possible Russia collusion http://www.occuworld.org/news/3847626\xc2\xa0'
p1111
S'11:20 AM - 21 Dec 2017'
p1112
tp1113
a(S'I am convinced congressional republicans are going to such lengths to protect trump because they are dirty as hell, either from illegally taking campaign money f/Russia or being involved with actual collusion. They are desperately fight for their lives. They will get caught.'
p1114
S'11:19 AM - 21 Dec 2017'
p1115
tp1116
a(S'It was a series of unfortunate events that helped fuel the bogus Russia collusion fairy tale.'
p1117
S'11:19 AM - 21 Dec 2017'
p1118
tp1119
a(S"Nice try, treason monkey.  You'd rather investigate fake crimes than the real collusion of Trump with Russia?  How much is Putin paying you?"
p1120
S'11:19 AM - 21 Dec 2017'
p1121
tp1122
a(S"Not all of us up here are crazy like this guy. I'm up here, a union member, and Trump supporter. There is zero evidence of collusion with Russia. They don't have anything else to focus on right now. Those 20 points disappear quickly when you put a face to the candidate."
p1123
S'11:18 AM - 21 Dec 2017'
p1124
tp1125
a(S'RUSH Limbaugh: \n\nLegendary anchor man @tombrokaw took a hard swing at Fox News on PMSNBC Couple Morning Joe & Mika show\n\nThis is all ca-ca \n\nFox News is the only place where the TRUTH is being reported on bogus DNC paid Russia Collusion, fake dossier'
p1126
S'11:18 AM - 21 Dec 2017'
p1127
tp1128
a(S'Reminder: the Russia hysteria was created after leaked DNC emails exposed collusion to sabotage Bernie Sanders & rig the "Democratic" primaries. The DNC claimed it was hacked by Russia, yet refused to let the FBI investigate its server. https://twitter.com/DrJillStein/status/943605859464204288\xc2\xa0\xe2\x80\xa6'
p1129
S'11:16 AM - 21 Dec 2017'
p1130
tp1131
a(S'Hanniity what a punk.  Sessions is only doing this because you\xe2\x80\x99re foolishness in trying to take the focus off of dingleberry Trump & his Russia collusion. Sessions probably got orders from Trump.'
p1132
S'11:15 AM - 21 Dec 2017'
p1133
tp1134
a(S'You are hilarious! Obviously you are trying to distract from something you or GOP are trying to cover up. Only collusion was done by tRump & Russia. Now you make us wonder how deeply you may be involved. Maybe got Russian $$. Hum...now THAT is should be an investigation! https://twitter.com/RandPaul/status/943852014055944192\xc2\xa0\xe2\x80\xa6'
p1135
S'11:15 AM - 21 Dec 2017'
p1136
tp1137
a(S'INVESTIGATE THE COMMISSION ON PRESIDENTIAL @DEBATES NOW!\n\nYou cant cite participation in alternative debates as evidence of Russia collusion when the Reps/Dems collude to prevent Americans from knowing all their choices & to keep them off mainstream media\n\nhttps://ivn.us/2017/12/20/jill-stein-investigated-russian-ties-next-larry-king/?utm_source=Newsletter&utm_campaign=de2918c88e-ivn_newsletter_12_21_2017&utm_medium=email&utm_term=0_24d080cf45-de2918c88e-78001953&mc_cid=de2918c88e&mc_eid=f3ae058d16\xc2\xa0\xe2\x80\xa6'
p1138
S'11:12 AM - 21 Dec 2017'
p1139
tp1140
a(S"They seem to lead to @DNC collusion with Russia, so yes by all means let's continue to uncover this act of Sedition https://twitter.com/RepRoybalAllard/status/943913764939816960\xc2\xa0\xe2\x80\xa6"
p1141
S'11:12 AM - 21 Dec 2017'
p1142
tp1143
a(S"But... But...  I thought Russia Collusion is American's #1 threat. 6 people drop dead everytime some utters P*tin's name"
p1144
S'11:11 AM - 21 Dec 2017'
p1145
tp1146
a(S'Collusion\n\nTrump contacted Putin to have Russia supply money to major corporations for emoloyee bonuses to make... https://fb.me/INa1Zzi9\xc2\xa0'
p1147
S'11:11 AM - 21 Dec 2017'
p1148
tp1149
a(S'I was on Facebook over the FBI / DOJ investigations and the libs gave up in 3 separate topics I invaded with "Russia Collusion" showing the Dems and Rinos are guilty of doing it . NOT Trump I linked to 20 diff stories and shut them up '
p1150
S'11:11 AM - 21 Dec 2017'
p1151
tp1152
a(S'REAL Russia Collusion courtesy of DNC & McCain https://twitter.com/Hardline_Stance/status/943914358823931904\xc2\xa0\xe2\x80\xa6'
p1153
S'11:10 AM - 21 Dec 2017'
p1154
tp1155
a(S"\xe2\x80\x9cLet\xe2\x80\x99s be clear. Glenn conducted the investigation. Glenn hired Chris Steele. Chris Steele worked for Glenn.\xe2\x80\x9d \n\nFusion GPS was Paid over $14M to Fabricate Collusion. #PeterStrzok's wife also worked for #FusionGPS and she got a #HamRadio license to falsify messages sent to RUSSIA!"
p1156
S'11:10 AM - 21 Dec 2017'
p1157
tp1158
a.