(lp0
(S"No proof of Trump-Russia collusion, but we're wasting taxpayer money to investigate. ISIS claims responsibility for Vegas shooter-let them!"
p1
S'4:37 PM - 2 Oct 2017'
p2
tp3
a(S"You can't be serious. The Russia collusion evidence piles up daily."
p4
S'4:35 PM - 2 Oct 2017'
p5
tp6
a(S"Nunes is running the Intel Committee on EVERYTHING they're doing other than Russia-Trump collusion. (which we now know never happened)"
p7
S'4:32 PM - 2 Oct 2017'
p8
tp9
a(S'WHATS SHE GOT TO DO WITH TRUMPS COLLUSION WITH RUSSIA'
p10
S'4:28 PM - 2 Oct 2017'
p11
tp12
a(S"It's all to get your guns it's phony get your mind off other things happening like Russia collusion with Zuckerberg also"
p13
S'4:23 PM - 2 Oct 2017'
p14
tp15
a(S"Republican collusion with Vladimir Putin's Russia has\xc2\xa0 metastasized to all levels of the party! http://fw.to/ep5FdVl\xc2\xa0"
p16
S'4:21 PM - 2 Oct 2017'
p17
tp18
a(S'And a president trying to get us ALL killed with taunting N. Korea...and in collusion with Russia. S.O.S. ANYONE'
p19
S'4:08 PM - 2 Oct 2017'
p20
tp21
a(S'@carldemaio Aftr almst 1yr of investing FBI can\xe2\x80\x99t say no Trump Russia collusion but after 3 hrs on job says No LV shooter/ISIS connection!'
p22
S'4:04 PM - 2 Oct 2017'
p23
tp24
a(S'And remember this is same FBI that after a year of looking, can\'t say to the public "Trump/Russia collusion is a nothing burger".'
p25
S'4:00 PM - 2 Oct 2017'
p26
tp27
a(S"They rule this out in hours but can't rule out Trump /Russia collusion after a year. I don't trust the FBI."
p28
S'4:00 PM - 2 Oct 2017'
p29
tp30
a(S'Clinton Kremlin Collusion.  Must investigate. Cash to Clintons / Foundation.  Uranium to Russia. Follow the Money!'
p31
S'3:59 PM - 2 Oct 2017'
p32
tp33
a(S"#LasVegas Its odd that within 12 hours..FBI confirmed  its not ISIS related?But 9 months later..haven't found anything on Russia collusion??"
p34
S'3:59 PM - 2 Oct 2017'
p35
tp36
a(S'deb, name yours on trump collusion w russia.....crickets as usual from left. they own this shooter, left, msm, dimocrats, hitlery'
p37
S'3:59 PM - 2 Oct 2017'
p38
tp39
a(S"Have you noticed that every time Mueller has more inf. about Trump's Russia Collusion he comes out and attacks Hillary? He knows he CHEATED!"
p40
S'3:56 PM - 2 Oct 2017'
p41
tp42
a(S'The same FBI who has taken more than a year to discover Trump-Russia collusion says this s not ISIS in under 4 hours? Lying @FBI!https://twitter.com/wemustceasefire/status/914882833667313667\xc2\xa0\xe2\x80\xa6'
p43
S'3:55 PM - 2 Oct 2017'
p44
tp45
a(S'What happened to impeaching Trump for collusion with Russia? \n\nYou rotund little troll!'
p46
S'3:54 PM - 2 Oct 2017'
p47
tp48
a(S'@Lawrence and collusion with Russia Putin and the hacking of the election and he knows hes guilty, so does other in his cabinet and others.'
p49
S'3:54 PM - 2 Oct 2017'
p50
tp51
a(S"Hillary beat Trump by 3 Million Votes even w Russia's Collusion. Hillary gets more Likes & Tweets than Tramp. Good reason to attack her!"
p52
S'3:52 PM - 2 Oct 2017'
p53
tp54
a(S'And they still voted for Hillary. Only Collusion it appears is between Facebook and Russia'
p55
S'3:46 PM - 2 Oct 2017'
p56
tp57
a(S'We need to get to bottom of Trump collusion with Russia...Trump giving US up to Putin...'
p58
S'3:45 PM - 2 Oct 2017'
p59
tp60
a(S"That didn't take long. WashPost back to pushing the Russia collusion story. Forget the tragedy in Vegas. Russia! https://www.washingtonpost.com/politics/trumps-company-had-more-contact-with-russia-during-campaign-according-to-documents-turned-over-to-investigators/2017/10/02/2091fe5e-a6c0-11e7-850e-2bdd1236be5d_story.html?utm_term=.f61662df4652\xc2\xa0\xe2\x80\xa6"
p61
S'3:41 PM - 2 Oct 2017'
p62
tp63
a(S'Over 50% of the USA is unaware of Trump-Russia collusion/treason. Thank you @foxNews, on their knees, mouth open, to any Republican.'
p64
S'3:39 PM - 2 Oct 2017'
p65
tp66
a(S'They can make that decision within 24 hrs yet over a yr still investigating "Trump Russia collusion". They are a joke.'
p67
S'3:36 PM - 2 Oct 2017'
p68
tp69
a(S'@HillaryClinton ANYWHERE NEAR THE WHITE HOUSE!!!! So cut the crap with the Russia collusion.  The fact is, you are a terrible candidate, you'
p70
S'3:36 PM - 2 Oct 2017'
p71
tp72
a(S'Impeach Trump collusion with Russia moluments Claus obstruction of justice pay for play corruption starting wars dividing Americans'
p73
S'3:32 PM - 2 Oct 2017'
p74
tp75
a(S'Since the left is pushing a bs Russia collusion, what would you expect? Dope.'
p76
S'3:32 PM - 2 Oct 2017'
p77
tp78
a(S'Some people still think, when we say "collusion,"we mean Russia hacked voting booths. THIS is what we mean: Trump admin\'s connects to Russia https://twitter.com/natashabertrand/status/914932430859116549\xc2\xa0\xe2\x80\xa6'
p79
S'3:22 PM - 2 Oct 2017'
p80
tp81
a(S'Russia collusion: pic.twitter.com/SiyYeqKeXF'
p82
S'3:17 PM - 2 Oct 2017'
p83
tp84
a(S"Junior I'm not the one creating a conspiracy about TRUMP being in collusion with Russia when the FBI & Democrats haven't produced shit"
p85
S'3:17 PM - 2 Oct 2017'
p86
tp87
a(S'...still waiting on that special counsel you called on to show collusion of Trump & Russia.'
p88
S'3:16 PM - 2 Oct 2017'
p89
tp90
a(S'FBI Rules Out ISIS Connection to Vegas Massacre in Less Than 24 Hours \xe2\x80\x94 But They\xe2\x80\x99re Still Looking for Collusion Between Trump and Russia'
p91
S'3:12 PM - 2 Oct 2017'
p92
tp93
a(S"Dear, if that is your defense for the GOP collusion with Russia and NRA, don't make a career out of debating."
p94
S'3:05 PM - 2 Oct 2017'
p95
tp96
a(S'And after investigating Trump for a year, still can\'t "determine collusion" between His campaign and Russia?'
p97
S'3:04 PM - 2 Oct 2017'
p98
tp99
a(S'Definitely not unsure about Trump Russia ties! Can you say #collusion ?  https://www.washingtonpost.com/politics/trumps-company-had-more-contact-with-russia-during-campaign-according-to-documents-turned-over-to-investigators/2017/10/02/2091fe5e-a6c0-11e7-850e-2bdd1236be5d_story.html?utm_term=.a4c2f6038baf\xc2\xa0\xe2\x80\xa6'
p100
S'3:03 PM - 2 Oct 2017'
p101
tp102
a(S'THREAD: Lots  of Russia collusion amid the lies and denying it ever happened @Scotus @SenateDems @SenFeinstein @RepAdamSchiff'
p103
S'3:02 PM - 2 Oct 2017'
p104
tp105
a(S'Theyre quite literally psychotic.\nRussia collusion paranoid delusions. https://twitter.com/gtgrock/status/914938472456171522\xc2\xa0\xe2\x80\xa6'
p106
S'3:00 PM - 2 Oct 2017'
p107
tp108
a(S"Sadly, if only non-GOP voters, there's no number. With us gone, less time GOP has to spend on voter disenfranchisement & Russia collusion."
p109
S'2:59 PM - 2 Oct 2017'
p110
tp111
a(S'Which one settled for 25 million in fraud in January? Which one is under FBI investigation for collusion with Russia? Hint: not Hillary '
p112
S'2:58 PM - 2 Oct 2017'
p113
tp114
a(S'Interesting, 12 hours after Vegas mass shooting, FBI rules out international connection to terrorists; however,14 months no collusion Russia'
p115
S'2:47 PM - 2 Oct 2017'
p116
tp117
a(S"NEWS FLASH!!!\n#RushIsRight again!\nFBI on shooter; 'no collusion', but on Trump/Russia...\nhttps://www.rushlimbaugh.com/daily/2017/10/02/caller-makes-a-great-point-fbi-rules-out-isis-connection-to-vegas-massacre-in-less-than-24-hours-but-theyre-still-looking-for-collusion-between-trump-and-russia/\xc2\xa0\xe2\x80\xa6\n#JustSayin'\nThat is all."
p118
S'2:47 PM - 2 Oct 2017'
p119
tp120
a(S'pls stop ur obsession abt russia collusion (not even a crime)-fake news. let mueller do his job. nothing there or it would have been leaked already. election is over. get over it. stop this fake news story obsession n report real news.'
p121
S'2:46 PM - 2 Oct 2017'
p122
tp123
a(S'Yea we know more about this asshole in one day but nothing on the Russia collusion or Hillary for months.'
p124
S'2:42 PM - 2 Oct 2017'
p125
tp126
a(S'Roger Stone: No Trump collusion with\xc2\xa0Russia http://mysourcespot.com/blog/2017/10/02/roger-stone-no-trump-collusion-with-russia/\xc2\xa0\xe2\x80\xa6pic.twitter.com/6iZYoeafIY'
p127
S'2:40 PM - 2 Oct 2017'
p128
tp129
a(S'The Trump-Russia CONNECTION is a foregone conclusion. Collusion or lawbreaking however, is still the question. But cool meme!'
p130
S'2:40 PM - 2 Oct 2017'
p131
tp132
a(S'Roger i love those moves !  that says it all RUSSIA COLLUSION IS A HOAX !'
p133
S'2:34 PM - 2 Oct 2017'
p134
tp135
a(S'Now is not the right time to talk with NK or to talk about gun control or PR or the tax cut for the wealthy or collusion with Russia. Vexing'
p136
S'2:27 PM - 2 Oct 2017'
p137
tp138
a(S"This is about as true as the collusion between Trump and Russia. Get back to work, I'm not paying you to tweet false information."
p139
S'2:24 PM - 2 Oct 2017'
p140
tp141
a(S'The only collusion is  Russia and Democrats colluding to help Hillary! Why would Russia want trump to win? He will kick their asses! https://twitter.com/LainaCaldwell/status/914940793458061312\xc2\xa0\xe2\x80\xa6'
p142
S'2:14 PM - 2 Oct 2017'
p143
tp144
a(S"Collusion??  Donald Trump's company had contact with Russia during 2016 presidential campaign - The Washington Post https://www.washingtonpost.com/politics/trumps-company-had-more-contact-with-russia-during-campaign-according-to-documents-turned-over-to-investigators/2017/10/02/2091fe5e-a6c0-11e7-850e-2bdd1236be5d_story.html?tid=sm_tw&utm_term=.048817d5c82b\xc2\xa0\xe2\x80\xa6"
p145
S'2:12 PM - 2 Oct 2017'
p146
tp147
a(S'Noooo, this is what he loves, Russia collusion is pushed back too, distractions, sadly but they are.'
p148
S'2:11 PM - 2 Oct 2017'
p149
tp150
a(S'if not the gun debate, then let\xe2\x80\x99s talk collusion w/ russia, climate change, tax reform that only benefits the rich, universal healthcare...'
p151
S'2:07 PM - 2 Oct 2017'
p152
tp153
a(S"Right. FBI has immediate conclusion without facts but after months of Mueller investigation can't conclude there wasn't Russia collusion?"
p154
S'2:00 PM - 2 Oct 2017'
p155
tp156
a(S'Where is your coverage of the HRC collusion with Russia scandal'
p157
S'1:59 PM - 2 Oct 2017'
p158
tp159
a(S'Is "Puerto Rico cholera" the new "Russia collusion"? Need to know so I can jump from conclusion to conclusion along with you. Where to, next? Back to "racist" ?'
p160
S'1:54 PM - 2 Oct 2017'
p161
tp162
a(S'But They\xe2\x80\x99re Still Looking for Collusion Between Trump and Russia\n#TCOT #MAGA https://www.rushlimbaugh.com/daily/2017/10/02/caller-makes-a-great-point-fbi-rules-out-isis-connection-to-vegas-massacre-in-less-than-24-hours-but-theyre-still-looking-for-collusion-between-trump-and-russia/\xc2\xa0\xe2\x80\xa6'
p163
S'1:52 PM - 2 Oct 2017'
p164
tp165
a(S'somehow . This is part of the trump Russia collusion. I just know it .'
p166
S'1:48 PM - 2 Oct 2017'
p167
tp168
a(S"https://www.washingtonpost.com/amphtml/politics/trumps-company-had-more-contact-with-russia-during-campaign-according-to-documents-turned-over-to-investigators/2017/10/02/2091fe5e-a6c0-11e7-850e-2bdd1236be5d_story.html\xc2\xa0\xe2\x80\xa6 You poor idiots @washingtonpost! What are you going to do when they can't find collusion with Russia?"
p169
S'1:45 PM - 2 Oct 2017'
p170
tp171
a(S'Roger Stone: Allegations of Russia Collusion Are False https://youtu.be/7yMv6TwYNkY\xc2\xa0 via @YouTube'
p172
S'1:44 PM - 2 Oct 2017'
p173
tp174
a(S"FBI quickly discovered this background info on an unknown assailant but  are STILL trying & unable to uncover Trump's Russia Collusion"
p175
S'1:43 PM - 2 Oct 2017'
p176
tp177
a(S'Oh, like the Russia collusion; evidence will be here any day now, right?. But go ahead and put that speculation on blast.'
p178
S'1:38 PM - 2 Oct 2017'
p179
tp180
a(S'Maybe the 20% uranium she sold to Russia? Lil more dangerous than a gun. Then screaming Collusion. No Law killed anyone! Turn CNN off'
p181
S'1:38 PM - 2 Oct 2017'
p182
tp183
a(S'Yet it takes them 10 months, and counting, to search for Russia Trump collusion.'
p184
S'1:37 PM - 2 Oct 2017'
p185
tp186
a(S"For almost a year now the entire world has looked for collusion between Trump and Russia. It just ain't there people!!! Idiots"
p187
S'1:34 PM - 2 Oct 2017'
p188
tp189
a(S'@FBI Rules out ISIS connection to LV tragedy less than 24hrs! They\xe2\x80\x99re still looking for collusion b/w Trump & Russia!'
p190
S'1:19 PM - 2 Oct 2017'
p191
tp192
a(S'BREAKING: trump insists now is not the time to discuss the investigation into his collusion with Russia or \xe2\x80\x9cgun stuff\xe2\x80\x9d'
p193
S'1:15 PM - 2 Oct 2017'
p194
tp195
a(S'Hey everybody: TRUMPH RUSSIA collusion\nhttps://twitter.com/AllisonMichs/status/914930813866831873\xc2\xa0\xe2\x80\xa6'
p196
S'1:13 PM - 2 Oct 2017'
p197
tp198
a(S'No that was Hillary, Russia, Facebook, Twitter collusion'
p199
S'1:12 PM - 2 Oct 2017'
p200
tp201
a(S'the Russia scandal churns on.  The paper trail is revealing that not only is the Russia scandal real news, but there is mounting evidence of the sort of relationship that would easily open the door to election collusion.\nhttps://goo.gl/LndmdK\xc2\xa0'
p202
S'1:10 PM - 2 Oct 2017'
p203
tp204
a(S'Limbaugh: FBI Rules Out ISIS Connection to Vegas in < 24 Hrs \xe2\x80\x94 Still Looking 4 Trump-Russia Collusion(Transcript) https://www.rushlimbaugh.com/daily/2017/10/02/caller-makes-a-great-point-fbi-rules-out-isis-connection-to-vegas-massacre-in-less-than-24-hours-but-theyre-still-looking-for-collusion-between-trump-and-russia/\xc2\xa0\xe2\x80\xa6 pic.twitter.com/bXWFzxTrHJ'
p205
S'1:06 PM - 2 Oct 2017'
p206
tp207
a(S"But almost a year an FBI still doesn't know on Russia an Trump collusion..lol https://twitter.com/mitchellvii/status/914937275804520449\xc2\xa0\xe2\x80\xa6"
p208
S'1:05 PM - 2 Oct 2017'
p209
tp210
a(S'Sounds like collusion.  @realDonaldTrump will be investigated by Congress & special persecutor Mueller for this.  @MarkSleboda1 @mtracey'
p211
S'1:02 PM - 2 Oct 2017'
p212
tp213
a(S'@FBI quickly says #LasVegasShooting not tied 2 ISIS yet unable 2 determine Russia collusion...http://www.washingtontimes.com/news/2017/oct/2/las-vegas-shooting-more-20-dead-100-wounded-after-/\xc2\xa0\xe2\x80\xa6 @foxnews #lnyhbt #tgdn'
p214
S'1:01 PM - 2 Oct 2017'
p215
tp216
a(S'He WANTS a war to distract us from all the information coming out about ties to and collusion with Russia. \n\n#MAGA or #MRGA ?https://twitter.com/thehill/status/914941073302212608\xc2\xa0\xe2\x80\xa6'
p217
S'12:53 PM - 2 Oct 2017'
p218
tp219
a(S"Funny they've been investigating Trump/Russia collusion for months with no conclusion. Funny how that works out like that."
p220
S'12:50 PM - 2 Oct 2017'
p221
tp222
a(S'They so quickly determined this but r still looking 4 Trump/Russia collusion? No, I don\xe2\x80\x99t trust the FBI right now.'
p223
S'12:48 PM - 2 Oct 2017'
p224
tp225
a(S'Another day, another #TrumpCrimeFamily-Russia connection\n\n#NotMyPresident #Russiagate #Collusion #BenedictDonald http://fb.me/3syp5twF8\xc2\xa0'
p226
S'12:47 PM - 2 Oct 2017'
p227
tp228
a(S"In 12 hours they know this but over 12 months and they can't say no collusion with Russia."
p229
S'12:37 PM - 2 Oct 2017'
p230
tp231
a(S'Not your typical Monday...this would be headline news on any other day. #treason #collusion #russia https://twitter.com/thehill/status/914936719463591937\xc2\xa0\xe2\x80\xa6'
p232
S'12:35 PM - 2 Oct 2017'
p233
tp234
a(S"FBI is so busy investigating hoax such as Russia Collusion and emails from right left and right, they can't... http://fb.me/1qMSTO7Va\xc2\xa0"
p235
S'12:34 PM - 2 Oct 2017'
p236
tp237
a(S'Oh wow! You must be the one with the actual evidence of Trumps collusion with Russia!!  I would love to see it. Could you post with tweet?'
p238
S'12:30 PM - 2 Oct 2017'
p239
tp240
a(S'10 HOURS & GOV/MEDIA SAYS NO NO NO CONNECTION TO ISIS\n\n1 YEAR LATER GOV/MEDIA STILL LOOKING FOR RUSSIA COLLUSION W PRES T\n\nIDIOTS'
p241
S'12:30 PM - 2 Oct 2017'
p242
tp243
a(S'BREAKING: the Left is STILL hanging all their hopes and prayers on finding evidence of "Trump/Russia Collusion." Hang in there! lol'
p244
S'12:25 PM - 2 Oct 2017'
p245
tp246
a(S'Russia collusion? pic.twitter.com/RgP7mpwiJX'
p247
S'12:21 PM - 2 Oct 2017'
p248
tp249
a(S'Uranium is slightly more dangerous than a gun. Yet, she thought it would be a good idea to let RUSSIA HV 20% of ours! Then scream collusion?'
p250
S'12:18 PM - 2 Oct 2017'
p251
tp252
a(S'FBI rules out ISIS connection to Vegas in less than 24 hours but they\xe2\x80\x99re still looking for Trump & Russia collusion. https://www.rushlimbaugh.com/daily/2017/10/02/caller-makes-a-great-point-fbi-rules-out-isis-connection-to-vegas-massacre-in-less-than-24-hours-but-theyre-still-looking-for-collusion-between-trump-and-russia/\xc2\xa0\xe2\x80\xa6'
p253
S'12:16 PM - 2 Oct 2017'
p254
tp255
a(S'Well Trump is def linked to Russia. Collusion on the other hand is fake news.'
p256
S'12:15 PM - 2 Oct 2017'
p257
tp258
a(S'But still won\xe2\x80\x99t admit no evidence of Trump - Russia collusion.'
p259
S'12:13 PM - 2 Oct 2017'
p260
tp261
a(S'Maybe you should look up collusion. He had a meetimg with a russian attorney. Also wasnt Obama warned about Russia months before election?'
p262
S'12:04 PM - 2 Oct 2017'
p263
tp264
a(S"So, then...can we talk about climate change? Or Black Lives Matter? Or Puerto Rico? Or Trump's collusion with Russia? Or...Or...Or... #GOPDenialKills"
p265
S'12:02 PM - 2 Oct 2017'
p266
tp267
a(S'Oliver Stone is already writing the movie script: Russia - Trump collusion drives man to purchase illegal assault weapons off black market'
p268
S'11:56 AM - 2 Oct 2017'
p269
tp270
a(S"Investigate Hillary's Uranium One Collusion with Russia http://dlvr.it/PVk07j\xc2\xa0 http://ow.ly/PHx1N\xc2\xa0 #MAGA #PJNETpic.twitter.com/JQwACi8X4O"
p271
S'11:55 AM - 2 Oct 2017'
p272
tp273
a(S'What? A real Russia collusion story !'
p274
S'11:55 AM - 2 Oct 2017'
p275
tp276
a(S'FBI Rules Out ISIS Connection to Vegas in 24 Hours \xe2\x80\x94 But Still Looking for Collusion Between Trump and Russia https://www.rushlimbaugh.com/daily/2017/10/02/caller-makes-a-great-point-fbi-rules-out-isis-connection-to-vegas-massacre-in-less-than-24-hours-but-theyre-still-looking-for-collusion-between-trump-and-russia/\xc2\xa0\xe2\x80\xa6'
p277
S'11:48 AM - 2 Oct 2017'
p278
tp279
a(S'Russia and Black Lives Matter Collusion!? Check out the latest episode! https://youtu.be/0PXd5LMKPDI\xc2\xa0 #blm #russia #facebook'
p280
S'11:47 AM - 2 Oct 2017'
p281
tp282
a(S'Why. Are. You. So. Clueless. Enjoy your Leftist delusion! You probably believe the MSM stories about Russia collusion. Back in reality.'
p283
S'11:46 AM - 2 Oct 2017'
p284
tp285
a(S"Deflecting to HRC again. 1) FBI & Congress investigated her & she wasn't charged 2) This is re: collusion between Trump's campaign & Russia"
p286
S'11:45 AM - 2 Oct 2017'
p287
tp288
a(S'\xe2\x80\x9cParanoid Conspiracies\xe2\x80\x9d like Russia collusion delusion MSM has been pushing for a year with no evidence yet?'
p289
S'11:40 AM - 2 Oct 2017'
p290
tp291
a(S'Facebook: a few Russia! ads vs their own collusion w/Hillary\n & censored conservatives\n@HAGOODMANAUTHORhttps://www.youtube.com/watch?v=0tSA3zvRTHE\xc2\xa0\xe2\x80\xa6'
p292
S'11:25 AM - 2 Oct 2017'
p293
tp294
a(S'They could determine in<than 24 hrs shooter was not ISIS; yet 9 mos later still looking 4 collusion btwn Trump& Russia -Rush Limbaugh caller'
p295
S'11:21 AM - 2 Oct 2017'
p296
tp297
a(S'In less than 12 hours they figure this out, but it takes years to figure Trump Russia collusion.'
p298
S'11:20 AM - 2 Oct 2017'
p299
tp300
a(S'How to tame Putin http://politi.co/2xMa1XX\xc2\xa0 via @politico#putin #russia #trump #collusion #gop #america #europe #american #european #politics'
p301
S'11:20 AM - 2 Oct 2017'
p302
tp303
a(S"Isn't Mueller still looking for evidence for the Russia/Trump collusion??? Yep you're right, AP & FBI denied SP was connected to Islam!"
p304
S'11:18 AM - 2 Oct 2017'
p305
tp306
a(S'Collusion with Russia andFacebook not to mention Facebook is a racist company.'
p307
S'11:16 AM - 2 Oct 2017'
p308
tp309
a(S'Ah Ha, the smoking evidence of Russia collusion. https://twitter.com/markknoller/status/914905624508542981\xc2\xa0\xe2\x80\xa6'
p310
S'11:15 AM - 2 Oct 2017'
p311
tp312
a(S'Hillary gave Russia 20% of US Uranium, she gets $150000 in hr Foundation! Then Bill gets $150000 fr speeches in Russia. Collusion!'
p313
S'11:10 AM - 2 Oct 2017'
p314
tp315
a(S"@FoxNews Funny how 12 hours  after the shooting. They say he has no ties to ISIS but in 12 Months they can't find any Trump Russia collusion"
p316
S'11:09 AM - 2 Oct 2017'
p317
tp318
a(S'Don\'t know but funny the FBI could rule out ISIS in hours but can\'t figure out Trump/Russia "collusion" after searching for months. https://twitter.com/mitchellvii/status/914899972415422464\xc2\xa0\xe2\x80\xa6'
p319
S'11:07 AM - 2 Oct 2017'
p320
tp321
a(S'Batshit nonsense. But you seem like conspiracies are your thing. Any thoughts on Trumps collusion w/Russia to rig a US election?'
p322
S'10:55 AM - 2 Oct 2017'
p323
tp324
a(S'#1 "trending" on Facebook is Russia collusion. While the largest US mass shooting in Las Vegas last night is 5th?  FB = fake news. @MarkDicepic.twitter.com/JFdxQjhBfK'
p325
S'10:54 AM - 2 Oct 2017'
p326
tp327
a(S'Funny FBI can determine this in less than 12 hours and still have no proof of Russia collusion after > 12 months http://nypost.com/2017/10/02/fbi-las-vegas-shooter-had-no-connection-to-terror-groups/\xc2\xa0\xe2\x80\xa6'
p328
S'10:49 AM - 2 Oct 2017'
p329
tp330
a(S'FBI already says not part of terrorist group, as of yet after 9 months can\xe2\x80\x99t prove ANY Trump/Russia collusion.'
p331
S'10:47 AM - 2 Oct 2017'
p332
tp333
a(S'Going around the circle again. Attack trump Russia collusion, kill our police, take down our statues, NFL going after our flag, now, guns'
p334
S'10:46 AM - 2 Oct 2017'
p335
tp336
a(S"It is my opinion that this gormless twit is in collusion with Russia's campaign of spreading divisive propaganda."
p337
S'10:46 AM - 2 Oct 2017'
p338
tp339
a(S'Within 12hrs FBI, shooter has no connection to ISIS. 1yr later they still do not know if Trump  collusion with Russia!! WOW!'
p340
S'10:44 AM - 2 Oct 2017'
p341
tp342
a(S"Sorry, that was a failed Russia collusion joke. It's getting so hard to be witty these days!"
p343
S'10:36 AM - 2 Oct 2017'
p344
tp345
a(S'Why not accept this?  Leftists quickly and heartedly accept Trump/Russia collusion with NO evidence - Just Rumor!'
p346
S'10:34 AM - 2 Oct 2017'
p347
tp348
a(S"Funny how 12 hours  after the shooting. They say he has no ties to ISIS . But in 12 Months they can't find any Trump Russia collusion."
p349
S'10:26 AM - 2 Oct 2017'
p350
tp351
a(S'Trump and his swamp may have hired this gun man in Las Vegas 2 distract from Russia, NK, Puerto Rico, emails, collusion..name it.'
p352
S'10:22 AM - 2 Oct 2017'
p353
tp354
a(S"And with that announcement, there is more evidence in 24 hrs of THAT, than there is after a yr of @POTUS/Russia collusion...just sayin'... https://twitter.com/ScottPresler/status/914867168885559296\xc2\xa0\xe2\x80\xa6"
p355
S'10:14 AM - 2 Oct 2017'
p356
tp357
a(S"This in less than 24 hours, but after a year with no evidence of Trump/Russia collusion they're still investigating...."
p358
S'10:08 AM - 2 Oct 2017'
p359
tp360
a(S'FBI knows for a fact not Isis related in nine hours ,, but nine months still can\xe2\x80\x99t prove Trump had no collusion with Russia !!!!!W T F'
p361
S'10:07 AM - 2 Oct 2017'
p362
tp363
a(S"I can tell you why there is no collusion between Trump and Russia. That's why they can't tell you any thing"
p364
S'10:07 AM - 2 Oct 2017'
p365
tp366
a(S'ty for ur response. i cant believe cnn n fake news media for their continuing obsession with russia collusion (not even a crime)-fake news story. they should let mueller do his job. nothing there, or it would have been leaked already.'
p367
S'10:02 AM - 2 Oct 2017'
p368
tp369
a(S"Fascinating that within hrs FBI can claim that the shooter was not ISIS but 9 months of investigation can't resolve  Russia collusion issue"
p370
S'10:02 AM - 2 Oct 2017'
p371
tp372
a(S"Perhaps he'll be the first president to be jailed for collusion with Russia..."
p373
S'9:59 AM - 2 Oct 2017'
p374
tp375
a(S'American Patriot Daily \xe2\x80\x93 This Leak Just Ended The Russia Collusion Story And No One Could Believe It http://www.americanpatriotdaily.com/featured/leak-just-ended-the-russia-collusion-story/\xc2\xa0\xe2\x80\xa6'
p376
S'9:59 AM - 2 Oct 2017'
p377
tp378
a(S'After 1 yr Fed agencies can\xe2\x80\x99t conclude Trump collusion w/Russia BUT DID CONCLUDE NO ISLAMIC CONNECTION IN VEGAS EVEN AFTER ISIS CONFESSED!'
p379
S'9:58 AM - 2 Oct 2017'
p380
tp381
a(S'12 hours after tragic Vegas event, ruled out ISIS connection. Yet, 1 year later, still searching for Trump/Russia collusion evidence. #MAGA'
p382
S'9:57 AM - 2 Oct 2017'
p383
tp384
a(S'We do know he has Russia ties. The specific act of collusion is being investigated.'
p385
S'9:54 AM - 2 Oct 2017'
p386
tp387
a(S'Strange in 12hrs the @FBI can say no affiliation with #ISIS yet with a yr they\xe2\x80\x99re still looking for #Russia collusion with no evidence '
p388
S'9:52 AM - 2 Oct 2017'
p389
tp390
a(S"But 9 months in and they can't find Russia collusion "
p391
S'9:46 AM - 2 Oct 2017'
p392
tp393
a(S'So in less then 12 hours the FBI came to this conclusion but 6 months later zero evidence of Trump/Russia collusion. Ha classic https://twitter.com/ap/status/914879048140115968\xc2\xa0\xe2\x80\xa6'
p394
S'9:43 AM - 2 Oct 2017'
p395
tp396
a(S"Caller on Rush's show just made good point. 12 hrs in & @fbi says they don't think this is ISIS but 9 mths in NO proof of #RUSSIA collusion"
p397
S'9:43 AM - 2 Oct 2017'
p398
tp399
a(S'12 hours they know it\xe2\x80\x99s not Isis; 9 months they\xe2\x80\x99re still convinced of Russian Collusion #lasvegas #russia #taketheknee #democrats'
p400
S'9:43 AM - 2 Oct 2017'
p401
tp402
a(S'Trump winning and Russia collusion? not so funny... Peeping elf Ted Cruz? kinda funny... pic.twitter.com/NzF8ISVjR5'
p403
S'9:35 AM - 2 Oct 2017'
p404
tp405
a(S'Yea, & you did not question the point of Mueller being one of the Defendants in the Russia Collusion story, But U knew that, NOT!'
p406
S'9:32 AM - 2 Oct 2017'
p407
tp408
a(S'Seriously! They can determine this so quickly but the collusion with Russia and Trump BS goes on forever! https://twitter.com/thomas1774paine/status/914886828125310976\xc2\xa0\xe2\x80\xa6'
p409
S'9:30 AM - 2 Oct 2017'
p410
tp411
a(S"Wasn't Rob Ford elected mayor of Toronto? Trump won thru collusion with Russia, but America elected Barack Obama, and there are many great and caring politicians in national, state, and local offices across the country. Don't paint us all with the same brush."
p412
S'9:28 AM - 2 Oct 2017'
p413
tp414
a(S"She's very 'tweety' today. Racism didn't work. Nazi-ism didn't work, Russia didn't work, Hollywood, MSM collusion didn't. For her, this might."
p415
S'9:23 AM - 2 Oct 2017'
p416
tp417
a(S'All resources are being expended on fake Russia Collusion. Meanwhile this Vegas kind of terrorism happens. Daily $200K can help fight terror'
p418
S'9:16 AM - 2 Oct 2017'
p419
tp420
a(S"Collusion, but not the kind the Dems wanted...Trump's Foes Won't Let Facts End Trump-Russia Stories http://www.newsmax.com/Hirsen/assange-mueller-podesta-zuckerberg/2017/10/02/id/817052/\xc2\xa0\xe2\x80\xa6 via @Newsmax"
p421
S'9:02 AM - 2 Oct 2017'
p422
tp423
a(S'Perhaps Robert Mueller can better use his energy investigating this and not the false narrative of Trump/Russia collusion!'
p424
S'9:01 AM - 2 Oct 2017'
p425
tp426
a(S"#Russia Collusion is a Big LIE!! #mueller ain't got shit!https://twitter.com/JulianAssange/status/914681788408254464\xc2\xa0\xe2\x80\xa6"
p427
S'8:59 AM - 2 Oct 2017'
p428
tp429
a(S'Oh yeah we forgot about the collusion between Facebook and Russia momentarily prosecute investigate Zuckerberg tried to fix election'
p430
S'8:57 AM - 2 Oct 2017'
p431
tp432
a(S'No, not if it takes them two years to "Investigate Russia Collusion"'
p433
S'8:54 AM - 2 Oct 2017'
p434
tp435
a(S'Special Report: #OBAMA ADMIN COLLUSION AS  HP Enterprise let Russia scrutinize cyberdefense system used by Pentagon https://reut.rs/2x9RdA0\xc2\xa0'
p436
S'8:48 AM - 2 Oct 2017'
p437
tp438
a(S'Like you did with all those \xe2\x80\x9canonymous sources\xe2\x80\x9d with the phone Russia collusion non scandal? https://twitter.com/brianstelter/status/914861341122465794\xc2\xa0\xe2\x80\xa6'
p439
S'8:43 AM - 2 Oct 2017'
p440
tp441
a(S'Of course Pence\xe2\x80\x99s mental capacity is in question too with his willingness to lie repeatedly for Trump & his possible collusion w/ Russia.'
p442
S'8:39 AM - 2 Oct 2017'
p443
tp444
a(S'Collusion with Russia, China, Middle East!!!!!!'
p445
S'8:34 AM - 2 Oct 2017'
p446
tp447
a(S'This is rich coming from the unreliable faux news man himself who went on and on and on about Russia collusion without facts.'
p448
S'8:30 AM - 2 Oct 2017'
p449
tp450
a(S'Will you say the same thing about #Russia interference in 2016 election, collusion with #Trump campaign?https://twitter.com/DavidAFrench/status/914861484508942337\xc2\xa0\xe2\x80\xa6'
p451
S'8:29 AM - 2 Oct 2017'
p452
tp453
a(S'Ha Ha  Hillary The Hum won Popular vote if you include 1,000s  illegal immigrants  and dead people  and her Russia collusion with Facebook'
p454
S'8:28 AM - 2 Oct 2017'
p455
tp456
a(S'Be careful democrats, you just might bring to light your own collusion with Russia--- https://twitter.com/gerfingerpoken/status/914858880051462145\xc2\xa0\xe2\x80\xa6'
p457
S'8:26 AM - 2 Oct 2017'
p458
tp459
a(S'Russia wants to create as much discord as possible for whatever reasons possible...do not let trump pivot away from Russia collusion... https://twitter.com/RVAwonk/status/914757236492263424\xc2\xa0\xe2\x80\xa6'
p460
S'8:15 AM - 2 Oct 2017'
p461
tp462
a(S'CNN find collusion with Russia! and it\xe2\x80\x99s with BLM https://youtu.be/0PXd5LMKPDI\xc2\xa0pic.twitter.com/nAFcTnb9Q1'
p463
S'8:10 AM - 2 Oct 2017'
p464
tp465
a(S'Clooney Collusion:Russia-Putin-Clinton-Podesta-Obama-Ukraine-Charities-Boeing\nCisco-Russian/Ukraine billionaires-etc\nhttps://rednationrising.wordpress.com/2017/08/13/clooney-collusion/\xc2\xa0\xe2\x80\xa6'
p466
S'8:10 AM - 2 Oct 2017'
p467
tp468
a(S'Syrian/Russian collusion in violating sancations #syria #russia http://ow.ly/bGTE30fyizc\xc2\xa0'
p469
S'8:10 AM - 2 Oct 2017'
p470
tp471
a(S'Lol. Since when is evidence important?  Maybe it was Russia collusion ?'
p472
S'7:53 AM - 2 Oct 2017'
p473
tp474
a(S'WOW: GLOBALISTS DISCOVERED ANOTHER RUSSIAN COLLUSION LAYER: Why Russia should love climate-change deniers https://www.bloomberg.com/view/articles/2017-10-02/why-russia-should-love-climate-change-deniers\xc2\xa0\xe2\x80\xa6 via @bv'
p475
S'7:47 AM - 2 Oct 2017'
p476
tp477
a(S'Perhaps this mindset should have been applied when unsubstantiated stories about Russia collusion were reported by you'
p478
S'7:41 AM - 2 Oct 2017'
p479
tp480
a(S'That applies to your Russia, Russia Russia COLLUSION & your spreading evil conspiracy theories about Americas President Trumps MENTAL HEALTH'
p481
S'7:40 AM - 2 Oct 2017'
p482
tp483
a(S"Russia?  He's a 64 yr old man living in a retirement community  No Russian collusion. I read all twts hoping 4 humanity not u. Love a 2nd"
p484
S'7:40 AM - 2 Oct 2017'
p485
tp486
a(S'Highlights of the @GOP agenda--gun advocates, tax cuts for the wealthy, reduced voting rights, Russia collusion, spineless Trump enablers.. https://twitter.com/thehill/status/914852751800246272\xc2\xa0\xe2\x80\xa6'
p487
S'7:37 AM - 2 Oct 2017'
p488
tp489
a(S'They have been against him since the election just look, their Russia collusion crap has been shot to hell! They even complain about the US Navy Hospital Ship and who sends a ship into a hurricane oh yeah a idiot'
p490
S'7:29 AM - 2 Oct 2017'
p491
tp492
a(S"Investigate Hillary's Uranium One Collusion with Russia http://dlvr.it/PVk07j\xc2\xa0 http://ow.ly/PHx1N\xc2\xa0 #MAGA #PJNETpic.twitter.com/tGrXQcz4yt"
p493
S'7:25 AM - 2 Oct 2017'
p494
tp495
a(S'#StephenPaddock is what happens when leftists MSM push Russia collusion and Resist narrative. \n#lasvegas\n#shooter\n#LVMPD'
p496
S'7:18 AM - 2 Oct 2017'
p497
tp498
a(S'The untold story of Jack Abramoff\xe2\x80\x99s Russia Collusion \xe2\x80\x93 GOP Watchdog http://thegopwatchdog.com/the-untold-story-of-jack-abramoffs-russia-collusion/\xc2\xa0\xe2\x80\xa6'
p499
S'7:18 AM - 2 Oct 2017'
p500
tp501
a(S'Tillerson is not going to resign. He is the only Russia-Trump collusion insider left n the inner circle. Mueller should have his number thou'
p502
S'7:14 AM - 2 Oct 2017'
p503
tp504
a(S'Russia collusion investigation started in summer 2016.'
p505
S'7:08 AM - 2 Oct 2017'
p506
tp507
a(S'What part of Russian collusion and interference do you not understand?  Your pure lack of understanding all things Russia is why she is not in office. Goodness you\xe2\x80\x99re making me crazy. I\xe2\x80\x99m finished explaining facts when someone is not willing to listen. Our conversation is over'
p508
S'7:04 AM - 2 Oct 2017'
p509
tp510
a(S"Democrats' Real, Pervasive Collusion With Russia  Lost In Media's Hysterical Anti-Trump Campaign http://www.investors.com/politics/editorials/democrats-real-pervasive-collusion-with-russia-somehow-lost-in-medias-hysterical-anti-trump-campaign/\xc2\xa0\xe2\x80\xa6 via @IBDeditorials"
p511
S'7:03 AM - 2 Oct 2017'
p512
tp513
a(S"Investigate Hillary's Uranium One Collusion with Russia http://dlvr.it/PVk07j\xc2\xa0 http://ow.ly/PHx1N\xc2\xa0 #MAGA #PJNETpic.twitter.com/biIJmPF981"
p514
S'6:59 AM - 2 Oct 2017'
p515
tp516
a(S'80% of women crossing border get raped\nHe was spied on during campaign \nStill no Russia collusion evidence\nEtc .... not enough characters'
p517
S'6:56 AM - 2 Oct 2017'
p518
tp519
a(S'Haha....Almost a year later, nothing on Russia collusion.'
p520
S'6:55 AM - 2 Oct 2017'
p521
tp522
a(S'Roger Stone Denies Any Collusion With Russia https://www.yahoo.com/entertainment/roger-stone-denies-collusion-russia-075148165.html?.tsrc=fauxdal\xc2\xa0\xe2\x80\xa6'
p523
S'6:48 AM - 2 Oct 2017'
p524
tp525
a(S'The collusion with Russia goes to the HIGHEST levels of American government/Republican politicans/corporations...TREASON ON ALL LEVELS! https://twitter.com/Reuters/status/914845694724395008\xc2\xa0\xe2\x80\xa6'
p526
S'6:46 AM - 2 Oct 2017'
p527
tp528
a(S'Evidence of Media collusion? got it!\nEvidence of social media collusion? yup!\nEvidence of Russia collusion? Crickets.'
p529
S'6:38 AM - 2 Oct 2017'
p530
tp531
a(S"Special counsel Robert Mueller took time off, from investigating the Trump campaign's potentially illegal collusion with Russia, to be on W\xe2\x80\xa6 pic.twitter.com/gKdHeShyI7"
p532
S'6:35 AM - 2 Oct 2017'
p533
tp534
a(S'Sanitized versions leaving out democrats collusion with Russia.'
p535
S'6:16 AM - 2 Oct 2017'
p536
tp537
a(S'Strange how nobody wants to investigate this, the real Russia collusion.'
p538
S'6:14 AM - 2 Oct 2017'
p539
tp540
a(S'Let\xe2\x80\x99s see you @realDonaldTrump distracts us from this #VegasShooting, #PuertoRico, and his collusion with #Russia today...'
p541
S'5:58 AM - 2 Oct 2017'
p542
tp543
a(S'Her husband may have planned this so the world will stop talking about his failure in PR and his collusion with russia. Sad.'
p544
S'5:42 AM - 2 Oct 2017'
p545
tp546
a(S'If we\'re unable to speak openly about collusion in the election of 1968--all of this Russia "tinkering" in 2016 is, honestly, a circle jerk'
p547
S'5:40 AM - 2 Oct 2017'
p548
tp549
a(S"@realDonaldTrump @POTUS @GOP @WhiteHouse Isn't this a convenient distraction from your lack of leadership in PR and your collusion w/Russia"
p550
S'5:39 AM - 2 Oct 2017'
p551
tp552
a(S"That's funny, I thought it was red for their collusion with Russia."
p553
S'5:35 AM - 2 Oct 2017'
p554
tp555
a(S"Juan Williams: Trump's smokescreen on Russia won't work | TheHill\nhttps://www.google.com/amp/thehill.com/opinion/white-house/353367-juan-williams-trumps-smokescreen-on-russia-wont-work%3Famp\xc2\xa0\xe2\x80\xa6 #TrumpRussia #Mueller #Trump #Collusion #Impeach45"
p556
S'5:35 AM - 2 Oct 2017'
p557
tp558
a(S'10 months ago RT bought number of adds on Facebook as CNN did too and now the fake news Russia collusion guys go McCartey style ballistic'
p559
S'5:27 AM - 2 Oct 2017'
p560
tp561
a(S'Indict Trump? Why? If you say anything with the words "Russia" & "collusion", you\'ll prove you\'re as stupid as we think you are. 2/'
p562
S'5:25 AM - 2 Oct 2017'
p563
tp564
a(S'Things you succeed at\nCollusion with russia\nStealing tax payer money\nAvoiding work\nDividing the country\nDefending racism\nGroping women\nLies'
p565
S'5:20 AM - 2 Oct 2017'
p566
tp567
a(S'charges of collusion w Russia to come at @realDonaldTrump RT if you think he should resign if convicted'
p568
S'5:06 AM - 2 Oct 2017'
p569
tp570
a(S'@POTUS Pardon Assange & get the Dems off you by exposing the fraudulent Russia collusion accusations against you. \n\nhttps://pjmedia.com/video/rohrabacher-assange-has-absolute-proof-of-who-gave-him-dnc-emails-and-it-aint-the-russians/\xc2\xa0\xe2\x80\xa6'
p571
S'5:05 AM - 2 Oct 2017'
p572
tp573
a(S'This is yet another reason to continue to push the Trump Russia collusion to obstruct & deflect facts and truths about Obama administration'
p574
S'4:55 AM - 2 Oct 2017'
p575
tp576
a(S'ABC, Martha Raddatz, CAUGHT IN A LIE, About Trump Russia Collusion https://www.youtube.com/watch?v=Iaaecaym6qw&feature=share\xc2\xa0\xe2\x80\xa6'
p577
S'4:49 AM - 2 Oct 2017'
p578
tp579
a(S'Can I trust that a search of your timeline will have no references to russia or collusion?'
p580
S'4:28 AM - 2 Oct 2017'
p581
tp582
a(S'As the FBI investigation into possible collusion with Russia by the Trump campaign began to zero in on Pence, he did a telling about-face,'
p583
S'4:16 AM - 2 Oct 2017'
p584
tp585
a(S'@PaulManafort #Mueller&FBI have #NOEvidence of Russia collusion w/ @POTUS, or Russia hacking DNC.Feds R ABUSING U to get U to turn on #TRUMPhttps://twitter.com/jerome_corsi/status/914723140189777922\xc2\xa0\xe2\x80\xa6'
p586
S'4:13 AM - 2 Oct 2017'
p587
tp588
a(S'Liberal ideals based on lies. Hands up dont shoot, Baltimore, Trayvon, Russia Collusion, PR late response. All BS! https://twitter.com/claytravis/status/914668795544862721\xc2\xa0\xe2\x80\xa6'
p589
S'4:05 AM - 2 Oct 2017'
p590
tp591
a(S'@realDonaldTrump lawyers NOT Presenting Cost of Committees and SC, SC conflicts of going to Russia re Uranium +; Show Collusion or Close it'
p592
S'3:54 AM - 2 Oct 2017'
p593
tp594
a(S"Are you sure that it isn't Red to acknowledge #Collusion with #Russia?"
p595
S'3:16 AM - 2 Oct 2017'
p596
tp597
a(S'Race Race Race ohhh shiny thingy Russia Russia Russia ohhh shiny thingy Collusion Collusion Collusion!  JUST MAKE SHIT UP1  Sickening!'
p598
S'2:48 AM - 2 Oct 2017'
p599
tp600
a(S'Yet Another Hole In The Russia Collusion Narrative http://ift.tt/2x9pUG9\xc2\xa0'
p601
S'2:05 AM - 2 Oct 2017'
p602
tp603
a(S"Further, the RUSSIA COLLUSION investigation may parlay into inquiry on BS' involvement with, perhaps, lower tier Russians."
p604
S'1:11 AM - 2 Oct 2017'
p605
tp606
a(S'@realDonaldTrump Rohrabacher has evidence to disprove Russia-Trump collusion WikiLeaks J Assange will provide the evidence/exchange 4 pardon'
p607
S'12:57 AM - 2 Oct 2017'
p608
tp609
a(S'Collusion w Russia, truth will be revealed...'
p610
S'12:52 AM - 2 Oct 2017'
p611
tp612
a(S"Yes. The reality is that Libs love Russia. Liberals are the ones having ties of collusion with Putin and not POTUS.\nDNC also colluded with Ukraine to undermine Trump's chances to the presidency. #Hypocrites."
p613
S'12:39 AM - 2 Oct 2017'
p614
tp615
a(S'When their collusion with Russia and concern for their wallets ends'
p616
S'12:11 AM - 2 Oct 2017'
p617
tp618
a(S"...being investigated for collusion with Russia who helped him win an election he didn't even really win.Drain the swamp? He's the dam!"
p619
S'12:01 AM - 2 Oct 2017'
p620
tp621
a(S"That's usually how bots operate...in collusion with other bots. Ha, NFL battle just a distraction from Russia...all heil Captain Cheeto!"
p622
S'11:58 PM - 1 Oct 2017'
p623
tp624
a(S'The Trump Cartel a criminal enterprise incharge of running our country. Money laundering, cheat schemes, Russia collusion, there is the WAVE pic.twitter.com/BGlPRHSxMQ'
p625
S'11:39 PM - 1 Oct 2017'
p626
tp627
a(S'@ChuckGrassley @SenFeinstein Clinton Podesta Facebook Zuckerberg Russia Collusion #proofhttps://youtu.be/QknSodr45ts\xc2\xa0'
p628
S'11:35 PM - 1 Oct 2017'
p629
tp630
a(S'What a complete Fraud this investigation is.  Where is the "Russia Collusion"? Why does podesta get a pass for lobbying ukraine as well?'
p631
S'11:29 PM - 1 Oct 2017'
p632
tp633
a(S'Lacking Evidence Of Russia Collusion, DOJ Torments Manafort To Force Him To Rat Out Others; Doesn\xe2\x80\x99t Now Anything \nhttp://www.washingtontimes.com/news/2017/oct/1/andrew-weissmann-torments-paul-manafort-to-snare-b/\xc2\xa0\xe2\x80\xa6'
p634
S'11:23 PM - 1 Oct 2017'
p635
tp636
a(S'Did you come up with that all by yourself? Russia - PR. Must be some collusion going on.'
p637
S'11:12 PM - 1 Oct 2017'
p638
tp639
a(S'#TrumpRussia #Russia #Collusion https://twitter.com/funder/status/914493255588483072\xc2\xa0\xe2\x80\xa6'
p640
S'11:03 PM - 1 Oct 2017'
p641
tp642
a(S"Since Trump/Russia collusion's a big Nothing-Burger maybe we could get Meuller to go after these guys. Yeah Right. #WhenHellFreezesOverpic.twitter.com/iQASG4DWJs"
p643
S'10:55 PM - 1 Oct 2017'
p644
tp645
a(S'BREAKING:  WikiLeaks Founder  Drops Russiagate  Bombshell exposing the Dems collusion with Russia https://www.youtube.com/watch?v=rpB10QbyjLg&feature=share\xc2\xa0\xe2\x80\xa6'
p646
S'10:43 PM - 1 Oct 2017'
p647
tp648
a(S'Yep. This is where collusion came in. Russia needed Trump campaign help w/ micro targeting hence all the mtgs Jared & DT Jr. had w/ Russia.'
p649
S'10:38 PM - 1 Oct 2017'
p650
tp651
a(S"CNN Has Proof Of Russia 'Collusion'... With Black Lives Matter http://po.st/JLX3nH\xc2\xa0 via @po_st"
p652
S'10:22 PM - 1 Oct 2017'
p653
tp654
a(S'The media has dropped the ball.  Ever since the Russia collusion story fizzled out\n\nhttps://www.bloomberg.com/view/articles/2017-09-30/no-trump-didn-t-botch-the-puerto-rico-crisis\xc2\xa0\xe2\x80\xa6'
p655
S'10:03 PM - 1 Oct 2017'
p656
tp657
a(S'All they still talk about is Trump Russia election collusion   not the Clinton ads  they say are not important   only care about Trump'
p658
S'9:54 PM - 1 Oct 2017'
p659
tp660
a(S'More evidence that its DNC collusion on the Russia story, not Trump. https://twitter.com/CNNPolitics/status/914712303433666560\xc2\xa0\xe2\x80\xa6'
p661
S'9:52 PM - 1 Oct 2017'
p662
tp663
a(S'Breaking: Russia collusion confirmed \xe2\x80\x93 Media silent http://fb.me/1pzk6pafu\xc2\xa0'
p664
S'9:49 PM - 1 Oct 2017'
p665
tp666
a(S'Ya but @AZgal123 can disgrace this country voting for a bigot w/ no diplomacy taunting NK to distract fr his Russia collusion. #FreeSpeech'
p667
S'9:46 PM - 1 Oct 2017'
p668
tp669
a(S"this fb story is cnn's continuing obsession with russia collusion (not even a crime)-fake news story. americans r smart, they dont vote based on fb or twitter. russia has been meddling for decades. election over. get over it. pls."
p670
S'9:35 PM - 1 Oct 2017'
p671
tp672
a(S'@FoxNews @cnn@realdonaldtrump After Watching"Putin\'s control of Russia" how can anyone with a straight face call Trump &Russian Collusion?'
p673
S'9:25 PM - 1 Oct 2017'
p674
tp675
a(S'$TWTR These Fake News Stories about Trump and Russia Collusion, Get over it Twitter is Real News. Tired of the Fake BS Stories w/Russia'
p676
S'9:20 PM - 1 Oct 2017'
p677
tp678
a(S'#DPRK #deception continues in its interdicted #RPG #shipement to #Egypt and #collusion with #Russia, #China and #Iran.'
p679
S'9:20 PM - 1 Oct 2017'
p680
tp681
a(S'Hillary B Russia/collusion/Uranium 1 4-Obama Y not investigate Russia in 2009?'
p682
S'9:11 PM - 1 Oct 2017'
p683
tp684
a(S"He's been aching to get US in a war so distract from his & GOP collusion with Russia & Putin."
p685
S'9:00 PM - 1 Oct 2017'
p686
tp687
a(S"Mueller is after anything he can find going 10 years or more back because there's no evidence of Trump Russia collusion, witch hunt. pic.twitter.com/aN0mWs84sN"
p688
S'8:43 PM - 1 Oct 2017'
p689
tp690
a(S'Maybe you should talk to Hillary & the Dems. They\xe2\x80\x99re the only ones that there is actual proof of collusion with Russia. \nSo there\xe2\x80\x99s that....'
p691
S'8:31 PM - 1 Oct 2017'
p692
tp693
a(S"Hmmm pushed by Bannon, big fan of Putin apparently. Man I just can't figure out why people keep pushing this Russia collusion thing!"
p694
S'8:21 PM - 1 Oct 2017'
p695
tp696
a(S"I don't trust trump and I think there is something to this collusion with Russia https://twitter.com/1IronMan2017/status/914535536727117824\xc2\xa0\xe2\x80\xa6"
p697
S'8:21 PM - 1 Oct 2017'
p698
tp699
a(S"Well, on the other side of the coin, if the Dems hadn't made up all the collusion with Russia lies, he wouldn't need the lawyers?"
p700
S'8:15 PM - 1 Oct 2017'
p701
tp702
a(S'Impeach impeach impeach collusion collusion collusion Russia Russia Russia Trump Trump trump racists racists sheeple sound like parrots'
p703
S'8:13 PM - 1 Oct 2017'
p704
tp705
a(S'Based on what? America growing again? Or Hillary\xe2\x80\x99s emails, Crooked Foundation Fake Trump Russia collusion, known Muslim Obama? Get on meds!'
p706
S'8:11 PM - 1 Oct 2017'
p707
tp708
a(S'I am open to changing my mind when I see some concrete evidence, particularly where it concerns Trumps collusion with Russia.Real evidence.'
p709
S'8:09 PM - 1 Oct 2017'
p710
tp711
a(S'Wouldn\'t any serious Russia "collusion" investigation begin with asking @JulianAssange under oath where he got the #DNC emails?\n\nNot Russia: https://twitter.com/OANN/status/913763955054608385\xc2\xa0\xe2\x80\xa6'
p712
S'8:07 PM - 1 Oct 2017'
p713
tp714
a(S'Russia giving cover to Iran could doom nuclear deal as Trump considers whether to certify http://fxn.ws/2ws3r7E\xc2\xa0 #FoxNews Collusion!'
p715
S'8:03 PM - 1 Oct 2017'
p716
tp717
a(S'There no evidence of collusion between Julian and Russia and you know that. You are just angry your favorite corrupt politician lost.'
p718
S'8:03 PM - 1 Oct 2017'
p719
tp720
a(S"Collusion with Russia,  calling foe the firing of NFL players, and once he's in court, I'll go on a limb and say purgery"
p721
S'7:58 PM - 1 Oct 2017'
p722
tp723
a(S"https://mobile.nytimes.com/2017/09/07/us/politics/russia-facebook-twitter-election.html?smid=tw-nytimesworld&smtyp=cur&referer=https://t.co/S7z3UIK9Yd?amp=1\xc2\xa0\xe2\x80\xa6 THE JUSTICE DEPARTMENT PROBEintoTrump's RUSSIA COLLUSION,questionsDonald Trump JrTODAYFor5Hours! TRUMPinbDEEPdoodoo!"
p724
S'7:56 PM - 1 Oct 2017'
p725
tp726
a(S'Trump is using everything at his disposal to distract from his collusion with Russia to win the election. Including Puerto Rico & NFL anthem pic.twitter.com/CZHSHZ86FZ'
p727
S'7:53 PM - 1 Oct 2017'
p728
tp729
a(S'with your collusion with Russia you traitor!!'
p730
S'7:52 PM - 1 Oct 2017'
p731
tp732
a(S'Prove Russia collusion, or STFU.'
p733
S'7:51 PM - 1 Oct 2017'
p734
tp735
a(S'But collusion in pursuit of a crime is illegal.  They use RICO to Braden the net when fighting organized crime. pro illegals blame Russia?'
p736
S'7:49 PM - 1 Oct 2017'
p737
tp738
a(S'Cat, I seriously doubt any collusion between Trump and Russia.'
p739
S'7:34 PM - 1 Oct 2017'
p740
tp741
a(S"Don't get distracted by the #chaos he's creating! #Russia #Collusion #TaxReturns #Impeach #UnfollowTrumphttps://twitter.com/nbcnews/status/914613694822195200\xc2\xa0\xe2\x80\xa6"
p742
S'7:20 PM - 1 Oct 2017'
p743
tp744
a(S'#Resistance #Persist #Resign #ImpeachTrumpNow #TraitorTrump #Russia\n#Collusion #VoterFraud #Hacking #Impeachment #WomensMarch #DumpTrump'
p745
S'7:18 PM - 1 Oct 2017'
p746
tp747
a(S"Btw...dems didn't call out Putin for 'hacking into dc computers. Dems refused the FBI to look into it. Collusion btwn bho, hrs & Russia"
p748
S'7:16 PM - 1 Oct 2017'
p749
tp750
a(S'Why is anyone listening to this joke of a human ,his own Brother didn\xe2\x80\x99t even allow him in on Russia Collusion and obstruction #ResignNow45'
p751
S'7:10 PM - 1 Oct 2017'
p752
tp753
a(S'ANOTHER SL (skanky liar) lie.  uh sweetheart (SINCE YOU ARE NOT A FEMINIST) I think you got your facts wrong.  it was Russia in collusion with trump that used facebook to spread lies.  now you spread them by yourself  christian?'
p754
S'6:52 PM - 1 Oct 2017'
p755
tp756
a(S'I thought it was collusion of Trump and team with Russia re: election. So why would FB ads bought by Russian trolls have any relevance?'
p757
S'6:51 PM - 1 Oct 2017'
p758
tp759
a(S"Waiting w/bated breath 4PROOF of U.S./Russia  election meddling collusion/seems2have morphed into hunt4 any(?)hi-crime, misdemeanor 'deals'! pic.twitter.com/rW3PnSl0ij"
p760
S'6:50 PM - 1 Oct 2017'
p761
tp762
a(S'DRPK is a Soviet straw-man designed to distract us from Russia collusion story'
p763
S'6:50 PM - 1 Oct 2017'
p764
tp765
a(S'Russia tells Trump Jr we have information that will hurt Clinton lets meet Jr says back I love it they meet this is collusion & both confess'
p766
S'6:44 PM - 1 Oct 2017'
p767
tp768
a(S'Leaked Descriptions Of Infamous "Russia Ads" Derail Collusion Narrative... http://www.zerohedge.com.convey.pro/l/eM9r3km\xc2\xa0 by #Gabriel4Justice via @c0nvey'
p769
S'6:40 PM - 1 Oct 2017'
p770
tp771
a(S'A must see.  A hilarious explanation of the @realDonaldTrump Russia collusion. Thx @billmaher  for this.  I had a good laugh!https://twitter.com/billmaher/status/914004102811488256\xc2\xa0\xe2\x80\xa6'
p772
S'6:32 PM - 1 Oct 2017'
p773
tp774
a(S'Feb. 28, 2017: GOP Blocks Effort to Clarify Trump-Russia Collusion. Read the full timeline here:  http://bit.ly/2lLDn5Z\xc2\xa0'
p775
S'6:28 PM - 1 Oct 2017'
p776
tp777
a(S'Did DT release his 2013-2016 tax returns as he promised if elected? Collusion & businesses w Russia when it was sanctioned under BO?'
p778
S'6:20 PM - 1 Oct 2017'
p779
tp780
a(S'.@jaredkushner used #CambridgeAnalytica #Mercers 2 microtarget "Blue Wall" states. #Russia targeted same 3 states. #Coincidence #Collusion ? https://twitter.com/amy_siskind/status/914643169630932992\xc2\xa0\xe2\x80\xa6'
p781
S'6:13 PM - 1 Oct 2017'
p782
tp783
a(S'Roger Stone denies any collusion with Russia http://dlvr.it/Prlknh\xc2\xa0'
p784
S'6:02 PM - 1 Oct 2017'
p785
tp786
a(S"I'm sure there's way more to add to the list....but I'll at least conclude w/ possible collusion w/ Russia!!"
p787
S'5:53 PM - 1 Oct 2017'
p788
tp789
a(S"fake news media's penchant for fake news, like russia collusion (not even a crime)-fake news is tiring and sickening for all americans. nothing there. if there is something there, it would have been leaked already. let mueller do his job, n report real news."
p790
S'5:53 PM - 1 Oct 2017'
p791
tp792
a(S'These are the same fools who screamed Russia collusion. They are stretching it a bit more to incluse anyone not them must be a Russian bot.'
p793
S'5:51 PM - 1 Oct 2017'
p794
tp795
a(S"If Zuckerberg provides Mueller all of the evidence proving Trump's collusion with Russia needed for impeachment, we will forgive him!!!"
p796
S'5:41 PM - 1 Oct 2017'
p797
tp798
a(S'You want a war with NoKo to distract from your collusion with Russia. #FakePresident #TrumpResign #humangarbage'
p799
S'5:36 PM - 1 Oct 2017'
p800
tp801
a(S'And thanks for helping me by writing a cover-up statement about my Russia collusion. I Love It!! (especially later in the year)'
p802
S'5:35 PM - 1 Oct 2017'
p803
tp804
a(S"Russia. Is last week's story. Now collusion of DNC & Facebook."
p805
S'5:33 PM - 1 Oct 2017'
p806
tp807
a(S'I am about done with NYT keep it only for Russia collusion- I will drop when Mueller shares his findings'
p808
S'5:15 PM - 1 Oct 2017'
p809
tp810
a(S"You are a brainwashed fool.  The only  collusion  there has ever been between Russia  and our country  was with dumbocrats.  Since the 80's"
p811
S'5:08 PM - 1 Oct 2017'
p812
tp813
a(S'50 Cent says Trump offered him $500,000 to help win over black voters http://www.huffingtonpost.com/entry/50-cent-trump-2016-campaign_us_59cd0a00e4b0210dfdfc874c\xc2\xa0\xe2\x80\xa6 via @HuffPostEnt\n\nYet people are still trying to deny his collusion with Russia. POS cheater, just wait until it all catches up with him. #IMPEACHTRUMP #PenceKnew #RESIST #HurryMueller'
p814
S'5:06 PM - 1 Oct 2017'
p815
tp816
a(S'@SpeakerRyan \nWant to make sure you are fully AWARE of what WE are planning. No Russia collusion here dude! WE R ANGRY! https://twitter.com/gbroh10/status/914505824881451008\xc2\xa0\xe2\x80\xa6'
p817
S'4:58 PM - 1 Oct 2017'
p818
tp819
a(S'How about collusion with Russia? Draft dodging? My family fought for this country. You have no respect for the flag.'
p820
S'4:53 PM - 1 Oct 2017'
p821
tp822
a(S"Need to move beyond questioning trump-Russia collusion, that's evident, & focus on potential GOP-Russia ties that promote trump's actions"
p823
S'4:52 PM - 1 Oct 2017'
p824
tp825
a(S'Nowadays journalists are more interested in getting Retweets than solving a proper case. If not this Russia-collusion case would have closed'
p826
S'4:47 PM - 1 Oct 2017'
p827
tp828
a(S'<sarc> RT? This is definitely evidence of Trump/Russia collusion. </sarc> https://www.rt.com/document/59cf0e02fc7e9344288b4567/amp/405093-hillary-clinton-email-dump\xc2\xa0\xe2\x80\xa6'
p829
S'4:44 PM - 1 Oct 2017'
p830
tp831
a(S'You need to chill peoples lives are at stake.  Read a book & learn some history.   #PuertoRico #Resign #impeach #Russia #collusion #mueller'
p832
S'4:41 PM - 1 Oct 2017'
p833
tp834
a(S'Odd only Russia collusion is with HRC.  ANTIFA is Communist.  Clinton Money laundering'
p835
S'4:27 PM - 1 Oct 2017'
p836
tp837
a(S'NFL \nNK - B. Clinton\nDACA - Obama\nPuerto Rico - Yulin Carmen\nRussia Collusion \nObstruction - Comey\nWhite Supremacists - White Supremacists'
p838
S'4:23 PM - 1 Oct 2017'
p839
tp840
a(S'No one will ask that question... if asked the response will be, "Donald Trump... Russia... collusion... impeach!"\n\nWait what?!?! https://twitter.com/findmenapping/status/914626602427994113\xc2\xa0\xe2\x80\xa6'
p841
S'4:17 PM - 1 Oct 2017'
p842
tp843
a(S'Why Is Jared Kushner Allowed Near The White House, Let Alone HAVE Security Clearance? ENABLING, AIDING, ABETTING RUSSIA/ TRUMP COLLUSION...'
p844
S'4:12 PM - 1 Oct 2017'
p845
tp846
a(S"wait, wasn't their collusion with Russia? what about the recount we voted this is America @POTUS won Hillary was worried he wouldn't concedehttps://twitter.com/MsRuthedelaRosa/status/914153684933607424\xc2\xa0\xe2\x80\xa6"
p847
S'4:08 PM - 1 Oct 2017'
p848
tp849
a(S'LolTrump Russia collusion too?'
p850
S'4:08 PM - 1 Oct 2017'
p851
tp852
a(S'Anderson Cooper can\xe2\x80\x99t use the Russia collusion story anymore, so  use the Puerto Rico disaster for ratings, how pathetic'
p853
S'4:03 PM - 1 Oct 2017'
p854
tp855
a(S'6/ Remember: The Steele \xe2\x80\x9cdossier\xe2\x80\x9d (particularly, but not only, memo #095) is the locus classicus of the Trump-Russia collusion story.'
p856
S'4:03 PM - 1 Oct 2017'
p857
tp858
a(S"No. Instead of planes crashing into buildings. We'll have missiles crashing into cities. Another distraction from your collusion with Russia"
p859
S'3:59 PM - 1 Oct 2017'
p860
tp861
a(S'@ladyjillian12 @realDonaldTrump Discarded & joining other failed narratives; Russia collusion, NOKO. Next up, PR  #MAGA'
p862
S'3:59 PM - 1 Oct 2017'
p863
tp864
a(S'My opinion of him is my constitutional right as an American Citizen. He is being investigated for collusion with Russia, OUR Countries enemy'
p865
S'3:57 PM - 1 Oct 2017'
p866
tp867
a(S'Yes, and Senator Reed\'s answer at the CFR conflab hit all the "talking points," while conceding no evidence of Trump, Russia collusion.'
p868
S'3:57 PM - 1 Oct 2017'
p869
tp870
a(S'collusion with Russia not good enough for you?'
p871
S'3:49 PM - 1 Oct 2017'
p872
tp873
a(S'COLLUSION -- first with Russia...now China!!!!'
p874
S'3:49 PM - 1 Oct 2017'
p875
tp876
a(S"CIA Clinton ally trashes 'Russiagate','Trump Dossier': admits 'no collusion' between Trump and Russia http://theduran.com/cia-clinton-ally-trashes-russiagatetrump-dossier/\xc2\xa0\xe2\x80\xa6"
p877
S'3:48 PM - 1 Oct 2017'
p878
tp879
a(S'John Brennan ran with whole Trump/Russia collusion lie. Now we find out he was doing colluding w/Russia to bring down Trump.'
p880
S'3:44 PM - 1 Oct 2017'
p881
tp882
a(S'Mueller just is on s witch Hunt. The day Comey said there was no collusion between Russia and Trump, Mueller expanded it to some new charge https://twitter.com/susangarnett11/status/914587499363581952\xc2\xa0\xe2\x80\xa6'
p883
S'3:34 PM - 1 Oct 2017'
p884
tp885
a(S'Shows how deep Ryan is in Trump Russia collusion!'
p886
S'3:30 PM - 1 Oct 2017'
p887
tp888
a(S'Were did I first read about what Reed said? US Senator: No Evidence of Collusion Between Trump Campaign, Russia https://sputniknews.com/us/201709301057825096-usa-senator-no-evidence-russia-trump-collusion/\xc2\xa0\xe2\x80\xa6'
p889
S'3:30 PM - 1 Oct 2017'
p890
tp891
a(S'#whywemustimpeachtrumpin7words Russia Ads Derail Collusion Narrative" They Showed Support For Clinton" | Zero Hedge\nhttp://www.zerohedge.com/news/2017-09-25/leaked-descriptions-infamous-russia-ads-derail-collusion-narrative-they-showed-suppo\xc2\xa0\xe2\x80\xa6'
p892
S'3:29 PM - 1 Oct 2017'
p893
tp894
a(S'I sure hope the collusion with Russia is false. I also hope the 47 death counts on the Clintons is just pure coincidence as well.'
p895
S'3:28 PM - 1 Oct 2017'
p896
tp897
a(S'Collusion with Russia is a Federal offence\n#WhyWeMustImpeachTrumpin7Words'
p898
S'3:18 PM - 1 Oct 2017'
p899
tp900
a(S'@brianstelter all pushed the fake Trump /Russia collusion conspiracy are going to be a big fraud! You allowed Hillary to run a criminal'
p901
S'3:14 PM - 1 Oct 2017'
p902
tp903
a(S'What we hear: I did not have #Collusion with that #Russia. #PariahInChief #WagTheDog'
p904
S'3:12 PM - 1 Oct 2017'
p905
tp906
a(S"I thought your semi-boss @realDonaldTrump said there was no collusion; Putin didn't hack anything. Why is the CIA so interested in Russia? https://twitter.com/CIA/status/914517513190305792\xc2\xa0\xe2\x80\xa6"
p907
S'3:10 PM - 1 Oct 2017'
p908
tp909
a(S'The Russia Collusion story is one big lie & #media propagandized this story 4 the past year. This is how corrupt US med\xc3\xada is, agenda driven!https://twitter.com/drudge_report/status/914585782412701696\xc2\xa0\xe2\x80\xa6'
p910
S'3:09 PM - 1 Oct 2017'
p911
tp912
a(S'@realDonaldTrump continued silence & inaction on #RUSSIA only further proves HE IS #PUTINSPUPPET! \n#DonTheConExposed #TrumpRussia #Collusion #Obstruction #Impeach45 #MuellerTimepic.twitter.com/WdlTn8kCm2'
p913
S'3:09 PM - 1 Oct 2017'
p914
tp915
a(S"I hope you all understand this man won't give up until he has a WAR to distract us from his collusion with Russia."
p916
S'3:04 PM - 1 Oct 2017'
p917
tp918
a(S'Dec 1 Meuller reveals deep collusion betw Russia and Trump campaign.\nDec 3 Launch\nDec 4 Launch\nDec 5 Launch'
p919
S'3:03 PM - 1 Oct 2017'
p920
tp921
a(S"He is complicit in the collusion with Russia! Also he can never annoy Trump's base as he gets ready to challenge Trump in 2020. https://twitter.com/cmclymer/status/914200328932904960\xc2\xa0\xe2\x80\xa6"
p922
S'3:00 PM - 1 Oct 2017'
p923
tp924
a(S"Russia is their way of deflecting the lefts anger from the DNC and the media's collusion. the left are sheep."
p925
S'2:56 PM - 1 Oct 2017'
p926
tp927
a(S'Your Russian hacking has been proved wrong on numerous occasions. The only collusion with Russia and foreign governments is through the dnc'
p928
S'2:55 PM - 1 Oct 2017'
p929
tp930
a(S'The only thing you haven\xe2\x80\x99t failed in was collusion with Russia to throw a Presidential election. Now you are trying to lose a nuclear war? https://twitter.com/realdonaldtrump/status/914565910798782465\xc2\xa0\xe2\x80\xa6'
p931
S'2:49 PM - 1 Oct 2017'
p932
tp933
a(S"Where's your proof? Cause I'll tell you, trump runs his mouth SO much that even everyday citizens can now track his collusion with Russia."
p934
S'2:46 PM - 1 Oct 2017'
p935
tp936
a(S'Mueller is looking into his ass crack for Trump Russia collusion'
p937
S'2:40 PM - 1 Oct 2017'
p938
tp939
a(S"Anyone who doubts the Trump-Russia collusion, must see this; it'll put everything into perspective.\n\nhttps://youtu.be/lw2BVI9OhC4\xc2\xa0"
p940
S'2:35 PM - 1 Oct 2017'
p941
tp942
a(S"You did NOTHING about all of Trump's massive conflicts of interest, Russia collusion, etc. You are a hypocrite of the highest order."
p943
S'2:33 PM - 1 Oct 2017'
p944
tp945
a(S'#WhyWeMustImpeachTrumpin7Words\nCollusion with Russia is a treasonous act. pic.twitter.com/dTlbI36ATs'
p946
S'2:28 PM - 1 Oct 2017'
p947
tp948
a(S'.This map means nothing knowing Russia Collusion and the Emachines and tabulators were preprogrammed to favor Republicans.'
p949
S'2:18 PM - 1 Oct 2017'
p950
tp951
a(S"Absolute drivel. Trump did not need 'Russia'\nFast becoming clear that only 'collusion' was btwn Facebook & Russia.\nTrump had policies"
p952
S'2:18 PM - 1 Oct 2017'
p953
tp954
a(S'If @JulianAssange is correct I find the Facebook interference/collusion FAR more disturbing than this (non) Russia thing.'
p955
S'2:13 PM - 1 Oct 2017'
p956
tp957
a(S'really, so you now know the facts re: #GoebellsMedia\n& #Democrats faux #Trump-#Russia #collusion & the\ntruth about #HillaryKGBClintion etal?'
p958
S'2:12 PM - 1 Oct 2017'
p959
tp960
a(S'Derelict, unfit, unqualified, & most probably in collusion with Russia as a traitor toward US interests #TrumpMustGo'
p961
S'2:09 PM - 1 Oct 2017'
p962
tp963
a(S'There is WAY MORE to the Russia collusion story than emails.'
p964
S'2:08 PM - 1 Oct 2017'
p965
tp966
a(S"NFL, North Korea, DACA, Puerto Rico\nRussia Collusion, Obstruction of Justice,\nWhite Supremacist Support\nWe didn't start the fire, Trump did."
p967
S'2:02 PM - 1 Oct 2017'
p968
tp969
a(S"Kim Jong Un saw how you handled:\n*a travel ban\n*repealing Obamacare\n*hiding Russia collusion\n*Puerto Rico\n\nHe's not worried."
p970
S'2:02 PM - 1 Oct 2017'
p971
tp972
a(S'Mueller is on the verge of losing his job. WikiLeaks founder confirms no collusion. But there is w/ Zuckerberg, Clinton, Podesta and Russia'
p973
S'2:00 PM - 1 Oct 2017'
p974
tp975
a(S'CNN is all about being as anti American as possible even crossing the lines into inciting collusion and even treason. Better job than Russia'
p976
S'1:59 PM - 1 Oct 2017'
p977
tp978
a(S"You are delusional ALL evidence of collusion with Russia SO FAR points 2 Democrats Obama,Clinton,Podesta \nResearch if you don't believe"
p979
S'1:55 PM - 1 Oct 2017'
p980
tp981
a(S"Yeah! Here's you Libtards Russia Collusion Greedy Corrupt Dem's. https://twitter.com/starcrosswolf/status/914586113389580289\xc2\xa0\xe2\x80\xa6"
p982
S'1:53 PM - 1 Oct 2017'
p983
tp984
a(S'@realDonaldTrump needs a war to survive his collusion with Russia and distract from his devastating loss of popular vote and jail time pic.twitter.com/5RiWRDsgmt'
p985
S'1:48 PM - 1 Oct 2017'
p986
tp987
a(S"I'm going to try to crash the obstacles in the way of Trump, which happens to be his staff. I can prove there was no collusion with Russia. pic.twitter.com/NYcYsdURLb"
p988
S'1:46 PM - 1 Oct 2017'
p989
tp990
a(S'This Dotard is trying to start a war to detract from his many other failures and crimes (Russia collusion, money laundering, etc.) https://twitter.com/realdonaldtrump/status/914497877543735296\xc2\xa0\xe2\x80\xa6'
p991
S'1:43 PM - 1 Oct 2017'
p992
tp993
a(S'Rep. Dana Rohrabacher (R-Calif.) says he has seen evidence that could disprove Russia-Trump collusion accusations... http://fb.me/EYUR551u\xc2\xa0'
p994
S'1:39 PM - 1 Oct 2017'
p995
tp996
a(S'CLINTON NEWS NETWORK has no shame they have been wrong about every story,wire tapping,Hillary 4 president, Russia collusion, Puerto Rico WOW'
p997
S'1:36 PM - 1 Oct 2017'
p998
tp999
a(S"Can't wait to see how the liberal trolls turn this into racism, sexism, collusion, Russia, Russia, white supremacy, bla bla bla...."
p1000
S'1:36 PM - 1 Oct 2017'
p1001
tp1002
a(S'Stop playing nuclear chicken with this. Fix PR. Admit to collusion with Russia.  Nuclear war is not a diversionary tactic. https://twitter.com/statedeptspox/status/914557115645202432\xc2\xa0\xe2\x80\xa6'
p1003
S'1:34 PM - 1 Oct 2017'
p1004
tp1005
a(S'*without saying the words \xe2\x80\x9ccollusion\xe2\x80\x9d or \xe2\x80\x9cRussia\xe2\x80\x9d'
p1006
S'1:34 PM - 1 Oct 2017'
p1007
tp1008
a(S"Maxine Waters guarantees Trump-Russia collusion and says it's time to demand the president's impeachment http://www.newsweek.com/trump-russia-collusion-impeachment-waters-669866\xc2\xa0\xe2\x80\xa6"
p1009
S'1:30 PM - 1 Oct 2017'
p1010
tp1011
a(S"The only thing the Russia investigation is finding is HRC & Dem collusion.  But don't worry Sessions is part of the swamp."
p1012
S'1:29 PM - 1 Oct 2017'
p1013
tp1014
a(S"You've failed at integrity\nyou've failed at compassion\nyou've failed at decency\nyou've failed at honesty\nBut not failed at Russia collusion pic.twitter.com/TmT5YAScuM"
p1015
S'1:26 PM - 1 Oct 2017'
p1016
tp1017
a(S'Hey mitt, "the 80\'s called & they want their foreign policy back." Russia collusion'
p1018
S'1:23 PM - 1 Oct 2017'
p1019
tp1020
a(S'While Sec of State, Hillary sold 20% of US uranium to Russia for a $145 million payment to the Clinton Foundation.\nActual Russian collusion.'
p1021
S'1:20 PM - 1 Oct 2017'
p1022
tp1023
a(S'The only thing real news media is doing is to expose your racism, incompetence, bigotry & collusion with Russia. Mueller is in hot pursuit'
p1024
S'1:19 PM - 1 Oct 2017'
p1025
tp1026
a(S'#WhyWeMustImpeachTrumpin7Words\nRussia Russia Russia Russia Russia Russia collusion.'
p1027
S'1:17 PM - 1 Oct 2017'
p1028
tp1029
a(S'With Trump,they see bad or no leadership!They see racism, collusion with Russia,chaos in the White House!Republicans doing nothing about it!'
p1030
S'1:07 PM - 1 Oct 2017'
p1031
tp1032
a(S'This is more proof of trumps collusion with Russia.'
p1033
S'1:01 PM - 1 Oct 2017'
p1034
tp1035
a(S'Coupled with gross incompetence, negligence, ignoring Emoluments Clause, and an increasingly probable collusion with Russia...it could be.'
p1036
S'12:57 PM - 1 Oct 2017'
p1037
tp1038
a(S'Exactly! #MTP Corrupted #Election2016 Coverage W #DNC #Media Collusion Outed by @wikileaks followed by 48 Straight weeks #Fake Trump Russia! https://twitter.com/sandymc29353729/status/914570980005109760\xc2\xa0\xe2\x80\xa6'
p1039
S'12:56 PM - 1 Oct 2017'
p1040
tp1041
a(S"You're going to jail. Russia. Collusion. Impeach daddy."
p1042
S'12:55 PM - 1 Oct 2017'
p1043
tp1044
a(S'Leaked Descriptions Of Infamous "Russia Ads" Derail Collusion Narrative They Showed Support For Clinton | Zero Hedge http://www.zerohedge.com/news/2017-09-25/leaked-descriptions-infamous-russia-ads-derail-collusion-narrative-they-showed-suppo\xc2\xa0\xe2\x80\xa6'
p1045
S'12:49 PM - 1 Oct 2017'
p1046
tp1047
a(S'Bet there will be no special counsel investigation for any McCain/Russia collusion... https://twitter.com/RogerJStoneJr/status/914186734941990912\xc2\xa0\xe2\x80\xa6'
p1048
S'12:44 PM - 1 Oct 2017'
p1049
tp1050
a(S'Russia collusion. Fraud. Treasonous. Oh, no not trump. Hillary.'
p1051
S'12:44 PM - 1 Oct 2017'
p1052
tp1053
a(S'whats up with RUSSIAN SANCTIONS?  Russia has already attacked our democracy & sovereignty-ur unwillingness to address eludes to COLLUSION pic.twitter.com/0qLCjuoZLx'
p1054
S'12:44 PM - 1 Oct 2017'
p1055
tp1056
a(S"Until there's proof of Russia collusion, from anyone but the Democrats, sanctions should be ignored. Show me proof I'll support sanctions"
p1057
S'12:42 PM - 1 Oct 2017'
p1058
tp1059
a(S'Russia collusion https://www.bing.com/videos/search?q=obama+tells+vladimer+he+will+have+more+flexibility&view=detail&mid=6027119390092770D8D86027119390092770D8D8&FORM=VIRE&PC=APPL\xc2\xa0\xe2\x80\xa6'
p1060
S'12:41 PM - 1 Oct 2017'
p1061
tp1062
a(S'I know. All this collusion by the Clinton campaign with Facebook and Russia is so disturbing'
p1063
S'12:40 PM - 1 Oct 2017'
p1064
tp1065
a(S'"But piss document?"  Pretty much proven fake.  "But russia hacked election"  Most states still use paper ballets.  "Russia Collusion"  No'
p1066
S'12:39 PM - 1 Oct 2017'
p1067
tp1068
a(S'trump wants war to cover up Russia collusion.\n\nBBC News - Trump to Tillerson: N Korea negotiations a waste of time http://www.bbc.com/news/world-us-canada-41460205\xc2\xa0\xe2\x80\xa6'
p1069
S'12:37 PM - 1 Oct 2017'
p1070
tp1071
a(S'#WhyWeMustImpeachTrumpin7Words \nBecause of a fake Russia collusion story'
p1072
S'12:36 PM - 1 Oct 2017'
p1073
tp1074
a(S'The golden rule of democrats/liberals-whatever they are guilty of blame it on conservatives,republicans & whites.Russia collusion-Democrats! https://twitter.com/dineshdsouza/status/914302600404639746\xc2\xa0\xe2\x80\xa6'
p1075
S'12:33 PM - 1 Oct 2017'
p1076
tp1077
a(S"NFL protests: Now about @realDonaldTrump \nPuerto Rico: Now about @realDonaldTrump\nRussia collusion: What about @HillaryClinton's emails?"
p1078
S'12:32 PM - 1 Oct 2017'
p1079
tp1080
a(S"Quick go back to the Russia collusion narrative this isn't working"
p1081
S'12:31 PM - 1 Oct 2017'
p1082
tp1083
a(S'@realDonaldTrump must realize that the only Fake News was that which Russia used to attack us with the help of Repub collusion. #Resistance'
p1084
S'12:31 PM - 1 Oct 2017'
p1085
tp1086
a(S'He wants war to take away attention from collusion with Russia.'
p1087
S'12:30 PM - 1 Oct 2017'
p1088
tp1089
a(S"Investigate Hillary's Uranium One Collusion with Russia http://dlvr.it/PVk07j\xc2\xa0 http://ow.ly/PHx1N\xc2\xa0 #MAGA #PJNETpic.twitter.com/Jt0UhgxP4F"
p1090
S'12:30 PM - 1 Oct 2017'
p1091
tp1092
a(S'Transgender bathrooms, Russia collusion, black live matter, Trump being racist, sexist. Racist emoji\xe2\x80\x99s. The entire antifa movement.'
p1093
S'12:30 PM - 1 Oct 2017'
p1094
tp1095
a(S"Americans! I know we are kept very busy with the horrid actions & talk from #OrangeHitler. Please don't forget his collusion with Russia."
p1096
S'12:27 PM - 1 Oct 2017'
p1097
tp1098
a(S'This is just a stupid way to distract from Trumps inept policies or lack of and the investigation into his collusion with russia.'
p1099
S'12:24 PM - 1 Oct 2017'
p1100
tp1101
a(S"You gotta LOVE @RogerJStoneJr he's not worried about the Russia collusion myth https://twitter.com/RogerJStoneJr/status/914526555862441984/video/1\xc2\xa0\xe2\x80\xa6"
p1102
S'12:20 PM - 1 Oct 2017'
p1103
tp1104
a(S'Not everyone is so dumb. You\'ll find, soon enough, that the "fake news" isn\'t fake at all. Even Fox will acknowledge Trump-Russia collusion,'
p1105
S'12:19 PM - 1 Oct 2017'
p1106
tp1107
a(S'#WhyWeMustImpeachTrumpin7Words\nClimate Change, North Korea, Russia Collusion, Racist.'
p1108
S'12:19 PM - 1 Oct 2017'
p1109
tp1110
a(S'Uh oh, Russia collusion crowd is gonna come out in opposition to the Kurds when they hear this.'
p1111
S'12:16 PM - 1 Oct 2017'
p1112
tp1113
a(S'Way to undermine the Sec of State. You must really need this war to divert from your collusion with Russia.'
p1114
S'12:14 PM - 1 Oct 2017'
p1115
tp1116
a(S"Here's your Russia collusion pic.twitter.com/T6wEezIx8g"
p1117
S'12:12 PM - 1 Oct 2017'
p1118
tp1119
a(S'Trump/Russia collusion distraction https://twitter.com/MSNBC/status/914560835430707200\xc2\xa0\xe2\x80\xa6'
p1120
S'12:08 PM - 1 Oct 2017'
p1121
tp1122
a(S'Consider:\nA ruse btwn #putin & 45 to throw us off #trumpRussiaCoverUp &collusion? NK taken by #Russia after WWII #LiarInChief #PutinsPuppethttps://twitter.com/numbersmuncher/status/914501133233741830\xc2\xa0\xe2\x80\xa6'
p1123
S'12:08 PM - 1 Oct 2017'
p1124
tp1125
a(S'Because he wants at that nuclear button to distract the world from his Trump/Russia collusion. Crazyman Donnie'
p1126
S'12:07 PM - 1 Oct 2017'
p1127
tp1128
a(S"Lol, yeah, you're not paranoid or delusional or anything.  It's been almost a year, where's all the evidence of collusion with Russia?"
p1129
S'12:04 PM - 1 Oct 2017'
p1130
tp1131
a(S"Pres Trump, Obama had a phony red line. It took collusion w/Russia to extract Obama's failure. #MAGA"
p1132
S'12:04 PM - 1 Oct 2017'
p1133
tp1134
a(S'Collusion? All Intel agencies including CIA try this stuff. Russia is no different, divide & conquer. https://twitter.com/charliekirk11/status/913175993157914624\xc2\xa0\xe2\x80\xa6'
p1135
S'11:57 AM - 1 Oct 2017'
p1136
tp1137
a(S'People Please keep your Eyes Open.Trump Lies Russia Collusion Follow the Money.Destruction Corruption Taxes DACA Pardon EPA No More LIES.'
p1138
S'11:55 AM - 1 Oct 2017'
p1139
tp1140
a(S'Hey after 9 months zero convictions, yet lot proof/allegations Dems had Russia collusion. FB recent one. Ads against trump. MSM want u hate'
p1141
S'11:52 AM - 1 Oct 2017'
p1142
tp1143
a(S"So it's okay for him to lie to us if he's not under oath? Do u truly believe there was no collusion w/ Russia & he did not obstruct justice?"
p1144
S'11:51 AM - 1 Oct 2017'
p1145
tp1146
a(S'Trump has done it Again. He has taken over the Media. People Please keep watching What they Do Taxes Russia Collusion ACA Distraction.'
p1147
S'11:51 AM - 1 Oct 2017'
p1148
tp1149
a.