(lp0
(S"It would make more sense that Russia helped Trump get elected WITHOUT collusion, and then Putin would tell him look what we did for you. Now pay us back. Actual cooperation during the campaign can be ruled out unless we get into really wicked motives on Russia's part."
p1
S'3:58 PM - 6 Dec 2017'
p2
tp3
a(S"I would bet that anyone on the Mueller investigating team into Russia collusion, and who publicly or privately expressed hate for @realDonaldTrump, could not and would not be objective or unbiased.  Liberal thinking doesn't allow for that, and that's been proved again and again.https://twitter.com/PoliticalShort/status/938511933837402112\xc2\xa0\xe2\x80\xa6"
p4
S'3:56 PM - 6 Dec 2017'
p5
tp6
a(S'* @ChuckGrassley is dragging his feet in the Russia collusion investigation. What does he have to hide? Is he complicit in the crimes? One has to wonder why he is using his position to obstruct the investigation.'
p7
S'3:54 PM - 6 Dec 2017'
p8
tp9
a(S"Time for him and all the cronies to go. They keep changing the story and can't prove collusion with Russia.  Sessions needs to get his own special investigation into the last administration"
p10
S'3:51 PM - 6 Dec 2017'
p11
tp12
a(S'\xe2\x80\x98Russia collusion allegations unproven https://www.rt.com/usa/412150-trump-kushner-netanyahu-israel/?utm_source=browser&utm_medium=aplication_chrome&utm_campaign=chrome#.WiiCd7M7-DE.twitter\xc2\xa0\xe2\x80\xa6'
p13
S'3:51 PM - 6 Dec 2017'
p14
tp15
a(S'Retweet by @valuepointorg RT @puddingnacloud: #POTUS kicking A$$ & taking names while Libs focus on the Russia Collusion Delusion - #PresidentTrump is changing everything to #MAGA '
p16
S'3:51 PM - 6 Dec 2017'
p17
tp18
a(S"ICYMI: From \xe2\x80\x9cno collusion\xe2\x80\x9d to \xe2\x80\x9ccollusion is not illegal.\xe2\x80\x9d Trump\xe2\x80\x99s lines on the Russia scandal + @jacobwe & @lukeharding1968 dive into all things L'Affaire Russe.https://megaphone.link/SM2669403620\xc2\xa0"
p19
S'3:50 PM - 6 Dec 2017'
p20
tp21
a(S"'Russia collusion allegations unproven; what we are looking at is Israel-gate \xe2\x80\x94 Max Blumenthal. #RussiaGate Is #IsrealGate but nobody gives a fuck about those criminals because they actually interfere in our elections.\nhttps://www.rt.com/usa/412150-trump-kushner-netanyahu-israel/?utm_source=rss&utm_medium=rss&utm_campaign=RSS\xc2\xa0\xe2\x80\xa6"
p22
S'3:50 PM - 6 Dec 2017'
p23
tp24
a(S'If they the investigation says they can\'t prove collusion I\'m fully ready to accept that but I still want to know if Russia interfered and if we can do something to keep our process safe fromforeign governments. To me it\'s less about "getting Trump" and more about our elections.'
p25
S'3:49 PM - 6 Dec 2017'
p26
tp27
a(S'Waiting on that Russia collusion pic.twitter.com/hiJmqEyBme'
p28
S'3:49 PM - 6 Dec 2017'
p29
tp30
a(S"He doesn't want peace. He has always promoted hate and violence. That is what he represents. Trump/Russia collusion impeach trump"
p31
S'3:48 PM - 6 Dec 2017'
p32
tp33
a(S'Dear George: boomerang! Russia collusion all Hillary & Dems. This is going to bite you big time!'
p34
S'3:47 PM - 6 Dec 2017'
p35
tp36
a(S'Washington Post: Three pressing questions about @realDonaldTrump-Russia collusion that @realDonaldTrump Jr. can a...http://go.pigro.ai/tbot\xc2\xa0'
p37
S'3:47 PM - 6 Dec 2017'
p38
tp39
a(S'California on fire; Puerto Rico without food, power or water; Middle East unrest to intensify; N Korean nukes; Russia cyber warfare, POTUS sniffing & slurring through collusion; congress completely lost their minds. Fuckin\xe2\x80\x99 2017, man.'
p40
S'3:46 PM - 6 Dec 2017'
p41
tp42
a(S'See the moment Flynn gleefully texted about Russia deal at #Trump inauguration\n(Collusion, collaboration, and foreign influence.  An agent of Putin)\nhttps://shareblue.com/see-the-moment-flynn-gleefully-texted-about-russia-deal-at-trump-inauguration/\xc2\xa0\xe2\x80\xa6'
p43
S'3:45 PM - 6 Dec 2017'
p44
tp45
a(S'Not one of the big mouth Politicians commented on the corrupt collusion selling uranium to Russia. Their corrupt media friends using sex scandals to divert the news.\nTHE MEDIA MUST REPORT THE TRUTH TO AMERICA.WE HAVE THE CORRUPT LYING+SMEARING THE BEST PRESIDENT WE EVER HAD #CNN pic.twitter.com/VWa4DZbsBx'
p46
S'3:45 PM - 6 Dec 2017'
p47
tp48
a(S'And Trump doesn\xe2\x80\x99t give a shit! He\xe2\x80\x99s just created a huge smokescreen distraction away from Mueller\xe2\x80\x99s investigation into his collusion with Russia to throw the election in his favor.'
p49
S'3:44 PM - 6 Dec 2017'
p50
tp51
a(S"'collusion' - k\xc9\x99\xcb\x88l(j)u\xcb\x90\xca\x92(\xc9\x99)n/ - noun\n'secret or illegal cooperation or conspiracy in order to deceive others. 'Flynn's Secret Text Messages Show Trump Colluded With Russia', Experts Say http://www.newsweek.com/mike-flynns-secret-messages-show-trump-colluded-russia-experts-740246\xc2\xa0\xe2\x80\xa6 #TrumpRussia #Flynn"
p52
S'3:44 PM - 6 Dec 2017'
p53
tp54
a(S'Hillary & the DNC are the only ones who worked w Russia during campaign. Everyone knows Hillary & Podesta made up the Russia Collusion.'
p55
S'3:44 PM - 6 Dec 2017'
p56
tp57
a(S'You do know Russia collusion was debunked right?'
p58
S'3:43 PM - 6 Dec 2017'
p59
tp60
a(S'#POTUS kicking A$$ & taking names while Libs focus on the Russia Collusion Delusion - #PresidentTrump is changing everything to #MAGA '
p61
S'3:50 PM - 6 Dec 2017'
p62
tp63
a(S"You're a chaos merchant. I'm guessing your hope is that the ensuing carnage will take our minds off of your Russia collusion problem. It won't work."
p64
S'3:43 PM - 6 Dec 2017'
p65
tp66
a(S'1. Tax plan through the Senate\n2. Full Travel Ban in effect\n3. Embassy is moving to Jerusalem\n4. No \xe2\x80\x9cTrump/Russia\xe2\x80\x9d collusion\n5. Fake News Exposed Hourly \nWinning never gets old! pic.twitter.com/hcxota4ZBo'
p67
S'3:42 PM - 6 Dec 2017'
p68
tp69
a(S'Do you remember the latrine of economic that Mr Bush left to Obama, the mess in Iraq and Afghanistan? Obama left a very steady economic to Mr45, or were you too young to remember that? I bet Mr45 would start a war with NK to distract the attention from the Russia collusion. pic.twitter.com/6L2ISNbMPv'
p70
S'3:41 PM - 6 Dec 2017'
p71
tp72
a(S"That doesn't matter to Trump as long as it takes focus off of the Russia story. #collusion"
p73
S'3:41 PM - 6 Dec 2017'
p74
tp75
a(S'"Collusion with Russia" is the biggest hoax played on the American Republic by #DeepState #obamaSpyRing #ClintonCrimeFamily EVER.\nNo one but outsider President Trump had the courage or temerity to go into these no-go DeepState zones, to DRAIN THEM ALL inside-out, & they knew it.https://twitter.com/foxnewsvideo/status/938229727948656640\xc2\xa0\xe2\x80\xa6'
p76
S'3:41 PM - 6 Dec 2017'
p77
tp78
a(S'Hillary Clinton & Barack Obama hide a shitload of Russian sanctions while offering up a reset button,& this is called a good attempt at a new beginning .Anything Donald Trump does as it pertains to Russia is called collusion hmm'
p79
S'3:40 PM - 6 Dec 2017'
p80
tp81
a(S'But Kushner still has clearance\nIvanka still has clearance\nNunes is still on committee\nRyan is on tape talking about "family" of GOP russia collusion\nMcConnell took Russian money; wife family ships illegal drugs\nDeVos company had server to russia\nRoss has many ties to russia/ML$'
p82
S'3:40 PM - 6 Dec 2017'
p83
tp84
a(S"Mueller is tracking the cash so a transaction that Trump made numerous years ago in Russia possibly has something to do 2015-2016 with Russian collusion that's interesting keep following the cash"
p85
S'3:40 PM - 6 Dec 2017'
p86
tp87
a(S'Texting on the taxpayers dime is never okay. Taxpayers money should be used in the most cost effective way. This Russia collusion investigation is going no where. Stop wasting my taxes and do ur job.'
p88
S'3:40 PM - 6 Dec 2017'
p89
tp90
a(S'As a woman, I know the difference between lies and truth. You should too. Surprised in you Kat. Did you believe Russia collusion too? '
p91
S'3:35 PM - 6 Dec 2017'
p92
tp93
a(S'very sad 2 see how many Dems are practicing "unconstitutional"..steps to impeach @POTUS for their own motives..not honoring fair election 2016.& using false Russia gate to smear @realDonaldTrump when evidences shows the Dems have more collusion w Russia like U-deal, dossier, etc. https://twitter.com/NIVIsa4031/status/938263085877481472\xc2\xa0\xe2\x80\xa6'
p94
S'3:35 PM - 6 Dec 2017'
p95
tp96
a(S'No because Dems are never next.  They always skate and the GOP always gets punished even when it does nothing like the Russia collusion fantasy.'
p97
S'3:34 PM - 6 Dec 2017'
p98
tp99
a(S'Lying to the FBI ? Def Russia collusion! Trump colluded with Russia to take out ISIS ?!!! Omg ! pic.twitter.com/1xxBje5s7V'
p100
S'3:34 PM - 6 Dec 2017'
p101
tp102
a(S"Well looks like I was right. U still don't know that the only Russia collusion was with Clinton & Obama! Do u want ppl to know how uninformed & brainwashed u r just to get attention?"
p103
S'3:34 PM - 6 Dec 2017'
p104
tp105
a(S'So they are ignoring the many times Trump team members sent info via private email, the use of unsecured phone by Trump, possible collusion with Russia...but by God, lets continue  the Clinton diversion and waste more tax payer dollars.'
p106
S'3:34 PM - 6 Dec 2017'
p107
tp108
a(S'To save himself from the scandal of collusion with Russia during presidential elections #Jerusalem #Trumphttps://twitter.com/MiddleEastEye/status/938547380563140608\xc2\xa0\xe2\x80\xa6'
p109
S'3:33 PM - 6 Dec 2017'
p110
tp111
a(S"I can't understand - Clintons can get MILLIONS $$$ from Russia, etc. and it's 'nothing to see here'. You're not stupid. You're liars.\n'The Russians' were trying to make nice with both parties, duh! \nOnly Clintons got money! = collusion.\n#MAGA Trump did not. = not collusion."
p112
S'3:32 PM - 6 Dec 2017'
p113
tp114
a(S'tRump wanted a smokescreen distraction from his collusion with Russia so here it is! What happened to healthcare? #25thThe45th'
p115
S'3:32 PM - 6 Dec 2017'
p116
tp117
a(S'Donny Drumpf is LITERALLY burning down California now too because Russia/Hitler/KKK collusion amirite @chelseahandler??https://twitter.com/chelseahandler/status/938463066273878016\xc2\xa0\xe2\x80\xa6'
p118
S'3:31 PM - 6 Dec 2017'
p119
tp120
a(S'The so-called Russia Collusion probe is nothing more than an attempt by Obama/Clinton operatives to nullify the election. #DrainTheSwamp #DrainTheDeepState http://nyp.st/2jTvqYQ\xc2\xa0 via @nypost'
p121
S'3:30 PM - 6 Dec 2017'
p122
tp123
a(S'I just know it\xe2\x80\x99s coming.  They tried Russia, collusion, obstruction, and that\xe2\x80\x99s not working for them.   Then they dusted off Access Hollywood again...nothing.  More MSM depravity on the way.'
p124
S'3:27 PM - 6 Dec 2017'
p125
tp126
a(S'DNC party of Corruption Greed Degenerates pedophiles KKK hypocrites RUSSIA collusion ISIS'
p127
S'3:26 PM - 6 Dec 2017'
p128
tp129
a(S'Michael Flynn\xe2\x80\x99s Indictment Exposes Trump Team\xe2\x80\x99s Collusion With Israel, Not Russia \nBut you wouldn\xe2\x80\x99t know it from reading most mainstream coverage of the revealing affair. https://www.alternet.org/grayzone-project/flynn-indictment-exposes-collusion-israel#.Wih8gxGOw5E.twitter\xc2\xa0\xe2\x80\xa6'
p130
S'3:26 PM - 6 Dec 2017'
p131
tp132
a(S'End the fake Russia collusion investigation, end waste of tax payer dollars and abuse of Special Counsel power. https://petitions.whitehouse.gov/petition/end-fake-russia-collusion-investigation-end-waste-tax-payer-dollars-and-abuse-special-counsel-power\xc2\xa0\xe2\x80\xa6\nWake up America....'
p133
S'3:25 PM - 6 Dec 2017'
p134
tp135
a(S"Doesn't matter. As long as the right people (Mueller) sees his money laundering it will all turn out just fine. Trump/Treason trump/Russia collusion corruption connection"
p136
S'3:23 PM - 6 Dec 2017'
p137
tp138
a(S'Right? They keep saying there is no evidence of collusion, but what about the bending over backward at every opportunity to give Russia what it wanted? It begs the question: what did they want in return?'
p139
S'3:23 PM - 6 Dec 2017'
p140
tp141
a(S'Problem is that when looking for information One who is friend rather than foe can simply choose to not look into certain situations or choose to dig deeper...This was a Trump Russia collusion story now it\xe2\x80\x99s anything Trump investigation.  Mueller needs to give up'
p142
S'3:21 PM - 6 Dec 2017'
p143
tp144
a(S'What will @CNN do besides fire Zucker when the Mueller-Russia-Collusion scenario collapses? First, dump that asshole Gloria Borger, the most arrogant offensive woman on the dumbest network in news.A good start.'
p145
S'3:21 PM - 6 Dec 2017'
p146
tp147
a(S'He\xe2\x80\x99s wagging the dog, pure and simple. \nSetting us up for major terrorist attacks on our soil, which will rally people around him while Mueller investigations are pushed aside.\nIf investigations confirm collusion with Russia, then treason is not too strong a word.'
p148
S'3:19 PM - 6 Dec 2017'
p149
tp150
a(S"Candace, Its a trick question, as the DNC's CrowdStrike worked with the FBI and FusionGPS to create the 'Russia hacked DNC & DCCC & the Trump Russia collusion narratives. In turn, they worked with CNN & WaPo to promote the Psyop All 4. 1, 1 4. all = 0 trust for all. pic.twitter.com/wR7JcaMWiZ"
p151
S'3:19 PM - 6 Dec 2017'
p152
tp153
a(S"Bum rap? This special council is a Bum rap for Taxpayers Mueller's Russia Collusion investigation has been is politically  compromised AG Sessions needs to end this he either has no Balls or is in on this Witch Hunt President Trump should replace Sessions"
p154
S'3:17 PM - 6 Dec 2017'
p155
tp156
a(S"4. Mueller is NOT stupid. He would know full well that the Trump-Russia collusion smear is 100% BS. He would also know ALL about the Clintons & Obama. And he would know stuff we don't know, as well."
p157
S'3:17 PM - 6 Dec 2017'
p158
tp159
a(S'@seanhannity Russia: Juvenile Killer Whale cozies up to researchers in tiny inflatable boat. CNN reports confrontation as: Russian Collusion!'
p160
S'3:15 PM - 6 Dec 2017'
p161
tp162
a(S'by getting rid of YOU!!!! #STAYWOKE, Russia, Accused rapist #COLLUSION #OBSTRUCTIONOFJUSTICE'
p163
S'3:15 PM - 6 Dec 2017'
p164
tp165
a(S'Really? Any of them tied to the Trump-Russia collusion? No. Two for money fraud (tax evasion, or laundering, or some such). Two for lying to the FBI. Flynn has also been charged for ties to a foreign entity and not reporting it'
p166
S'3:13 PM - 6 Dec 2017'
p167
tp168
a(S'@AdamSchiffCA  Why did you just like on TV.\nThere is no Russia Collusion except by you and your fellow Liberals.\n\nSMDH'
p169
S'3:11 PM - 6 Dec 2017'
p170
tp171
a(S'These narratives have backfired!\n#Racist\n#Zenophobic\n#Fascist\n#Rapist\n#Russian Spy\n#Bankrupt\n#Hated by Women\n#Hated by Latinos \n#Hated by Blacks\n#Russia Collusion\n#Pedophile\nThe more opposition and, the more endearing he becomes \nWeak men despise Trump\nStick with #Fish'
p172
S'3:11 PM - 6 Dec 2017'
p173
tp174
a(S'\xe2\x80\x98Donald Trump Is Guilty,\xe2\x80\x99 Says Top Foreign Policy Expert Who Charges \xe2\x80\x98Quid Pro Quo\xe2\x80\x99 In Russia Collusion. http://google.com/newsstand/s/CBIwvrXRijc\xc2\xa0\xe2\x80\xa6'
p175
S'3:11 PM - 6 Dec 2017'
p176
tp177
a(S"Latest revelations make the entire Russia 'collusion' probe look like a partisan hit http://nyp.st/2jTvqYQ\xc2\xa0 via @nypost"
p178
S'3:09 PM - 6 Dec 2017'
p179
tp180
a(S'You mean king of Russia. Trump/Russia collusion'
p181
S'3:08 PM - 6 Dec 2017'
p182
tp183
a(S'Devin Nunes, leading the investigation of Trump/Russia collusion, disappears to the White House to brief Trump administration on his investigation\nHe is found to have significant financial involvement with Russian winery and distributors\n\nhttps://www.wired.com/2017/04/devin-nunes-white-house-trump-surveillance/\xc2\xa0\xe2\x80\xa6'
p184
S'3:08 PM - 6 Dec 2017'
p185
tp186
a(S'While the Fascists in MSM speak of some lunatic Russia collusion conspiracy POTUS is moving forward brilliantly! https://twitter.com/WolfensPride/status/938472841598652416\xc2\xa0\xe2\x80\xa6'
p187
S'3:07 PM - 6 Dec 2017'
p188
tp189
a(S'Hahahahaha! I guess when you ain\xe2\x80\x99t got nothing else it\xe2\x80\x99s \xe2\x80\x9chuge\xe2\x80\x9d for you! Still no Trump/Russia collusion! None!'
p190
S'3:07 PM - 6 Dec 2017'
p191
tp192
a(S"That's completely inaccurate. His approval is still hovering at 37.8%. This will drop even more dramatically when evidence that DJT himself orchestrated the collusion with Russia by his campaign. Treason! https://projects.fivethirtyeight.com/trump-approval-ratings/?ex_cid=rrpromo\xc2\xa0\xe2\x80\xa6"
p193
S'3:07 PM - 6 Dec 2017'
p194
tp195
a(S'Democrats are calling all Democratic Sexual Assaulting Politicians to step down from their jobs...\nRepublicans are calling Republican Sexual Assaulters to become Senator of Alabama and to lie about his Collusion with Russia to become President...'
p196
S'3:05 PM - 6 Dec 2017'
p197
tp198
a(S'I thought this is the point where we spend $67 million and a year looking for any "crime" by anyone Strzok very knew to create the impression of collusion\nOh and say "Russia" alot https://twitter.com/brithume/status/938543248267673600\xc2\xa0\xe2\x80\xa6'
p199
S'3:05 PM - 6 Dec 2017'
p200
tp201
a(S'Yes, because it IS a partisan hit. Bob Mueller hired no less than 5 Clinton connected lawyers for this partisan witch hunt on make believe collusion with Russia. ABC News reporter tried to do his part for DNC when he intentionally lied on Friday and has since been suspended. SAD. https://twitter.com/nypost/status/938393113420357632\xc2\xa0\xe2\x80\xa6'
p202
S'3:04 PM - 6 Dec 2017'
p203
tp204
a(S'Do you think he just accidentally gave up everything? \n\n"First off I just want to thank everyone for their questions and I hope that this goes as smoothly as the collusion between my father\'s campaign and Russia...FUCK. Um...can I start over?"'
p205
S'3:04 PM - 6 Dec 2017'
p206
tp207
a(S'So the Democratic Party is consuming itself, while GOP Senate and Congress loot the country, and the Pres. starts WWIII so that we won\xe2\x80\x99t pay attention to his collusion with Russia. \nAre we winning yet?'
p208
S'3:03 PM - 6 Dec 2017'
p209
tp210
a(S'@realDonaldTrump @POTUS throwing gas in the fire in the Middle East, continuously taunting North Korea, collusion with Russia. Please 45, tell the American people how you\xe2\x80\x99re making us great and safe again? #Jerusalem #RussiaGate #ImpeachTrumpNow #WeAreNotSafe'
p211
S'3:02 PM - 6 Dec 2017'
p212
tp213
a(S'These indictments do not prove there was any collusion with Russian officials by the Trump campaign! Flynn just plead guilty only for lying to this corrupt FBI agent. The real collusion with Russia was with Billary & the DNC for the phony Trump dossier thru Fusion GPS!'
p214
S'3:02 PM - 6 Dec 2017'
p215
tp216
a(S'Kudos to Wiki Leaks and Julian Assange! So, here we have proof positive now that @HillaryClinton sold classified government secrets to the highest bidder. I bet Russia was among the buyers, too. Talk about collusion! She sold us all out. Rem U1 https://twitter.com/Tusker13/status/938543333261168642\xc2\xa0\xe2\x80\xa6'
p217
S'3:01 PM - 6 Dec 2017'
p218
tp219
a(S'Day 2 of NRA panic tweeting in light of NRA Russia collusion revelation!'
p220
S'3:01 PM - 6 Dec 2017'
p221
tp222
a(S'jake you breathlessly pushed this story hours ago.........Obama imposed sanctions in December 2016, when was the election? November 2016, correct?  So what does this have to do with Trump Russia collusion DURING the election?'
p223
S'3:00 PM - 6 Dec 2017'
p224
tp225
a(S"The lies will lead to something.  I believe that Russia helped Trump get elected.  I believe that collusion will be exposed.  I may be wrong, but I don't think so & time will tell."
p226
S'2:59 PM - 6 Dec 2017'
p227
tp228
a(S'Three pressing questions about Trump-Russia collusion that Donald Trump Jr. can answer http://j.mp/2BNrwc2\xc2\xa0pic.twitter.com/d0IiIFlv9H'
p229
S'2:58 PM - 6 Dec 2017'
p230
tp231
a(S'Oh my...#FlynnishHim #nuclear #collusion #Russia #whistleblower\nvia @WIRED CLICKY: https://assets.documentcloud.org/documents/4322794/Gowdy-Flynn-Letter.pdf\xc2\xa0\xe2\x80\xa6pic.twitter.com/8mv2j8zoYF'
p232
S'2:57 PM - 6 Dec 2017'
p233
tp234
a(S'Mike Flynn has the goods on Trump and probably Pence re: Russia collusion. How are you going to spin this? :( Will be watching.'
p235
S'2:57 PM - 6 Dec 2017'
p236
tp237
a(S'Dan, the entire Trump/Russia collusion charade was concocted by Libs & ruling elites seeking to conceal their own malfeasance & who refuse to accept/honor @POTUS as the duly/Constitutionally elected POTUS. Their silent coup overthrow efforts are disgusting,illegal,immoral.'
p238
S'2:56 PM - 6 Dec 2017'
p239
tp240
a(S'Robert Mueller & Special Counsel team are loaded with Deep State conspirators that could care less about Trump/Russia election collusion. Their goal is to find dirt to discredit or impeach Trump. https://tinyurl.com/ybd4gt7n\xc2\xa0pic.twitter.com/x9APLJKCqs'
p241
S'2:56 PM - 6 Dec 2017'
p242
tp243
a(S'Are there more Trump staffers involved in the Russia Collusion Scandal? Did more lie to the FBI & for their clearances? :0'
p244
S'2:55 PM - 6 Dec 2017'
p245
tp246
a(S'Soooo a " Russia Russia Russia Collusion Train" is full speed towards you family & administration but you throw a trash truck of DNC truth scraps which a member on his own chose to protect USA  sacrificing self @GenFlynn  and now DNC screams obstruction    Good LORD GOD help USA'
p247
S'2:55 PM - 6 Dec 2017'
p248
tp249
a(S'Nepotism  \nInvolved with Russian Mafia\nCollusion w/Russia to sabotage US election\nExtreme narcissism\nSociopath\nDisplays signs he\xe2\x80\x99s resistant to abiding laws of the Constitution \nCares about himself, not the Country \nLack of respect for predecessors'
p250
S'2:54 PM - 6 Dec 2017'
p251
tp252
a(S'They been saying that for 50 yrs. move on  like Russia collusion'
p253
S'2:54 PM - 6 Dec 2017'
p254
tp255
a(S"The lies and omissions regarding Russia are seemingly inexplicable, but they have nothing to do with collusion to help Trump win the election. That claim just doesn't make any sense at all. The lies regarding Russia were about other matters."
p256
S'2:54 PM - 6 Dec 2017'
p257
tp258
a(S'I have. And it is astonishing that absolutely nothing even related to collusion with Russia to rig an American election has even been alleged\n\nWhich is why I specifically asked you for demonstrable proof that Russia rigged the election for President Trump.\n\nStill waiting on that. pic.twitter.com/vMICfNQiNj'
p259
S'2:52 PM - 6 Dec 2017'
p260
tp261
a(S'Any news on Russia collusion ? Asking for a friend...'
p262
S'2:52 PM - 6 Dec 2017'
p263
tp264
a(S'#NEWSFLASH Russian radio station broadcasting a whistle-blower from Moscow who says he has information on the US Russia collusion, my friend is translating it now for me should have brief outline soon SAD DAY!'
p265
S'2:52 PM - 6 Dec 2017'
p266
tp267
a(S"I think Seth's contributions to parsing the publicly-available info on the Russia-collusion story have been very useful.  As for the Dem primary, it was pretty rotten, right?"
p268
S'2:51 PM - 6 Dec 2017'
p269
tp270
a(S"Exactly. Russia didn't need Trump. There was no point in colluding. There was no collusion to help Trump win. If Russia wanted Trump to win, they did it alone, not colluding with the inept Trump campaign. They also knew that if they had colluded w/ Trump, it could bring him down."
p271
S'2:51 PM - 6 Dec 2017'
p272
tp273
a(S'\xe2\x80\x98Donald Trump Is Guilty,\xe2\x80\x99 Says Top Foreign Policy Expert Who Charges \xe2\x80\x98Quid Pro Quo\xe2\x80\x99 In Russia Collusion https://www.inquisitr.com/4668612/donald-trump-guilty-russia-collusion/\xc2\xa0\xe2\x80\xa6'
p274
S'2:51 PM - 6 Dec 2017'
p275
tp276
a(S"So answer the question, Asswipe.\n\nTell me what crime Trump has committed.\n\nOh! Also, source and citd the evidence you're relying on!\n\nObama illegally surveiled Trump for a YEAR and got NOTHING!\n\nALL evidence of Collusion with Russia is on Hillary's side! pic.twitter.com/2G79CKKTO0"
p277
S'2:49 PM - 6 Dec 2017'
p278
tp279
a(S"Basically the Russia collusion fell over so it's 'Just try anything and everything' now.  \nStop wasting time and $$$ and get on with life."
p280
S'2:49 PM - 6 Dec 2017'
p281
tp282
a(S'Headlines!! Mueller Must Resign & Sp Counsel on Russia Collusion Ended!! Why?\nMueller filled Sp Counsel w Pro-HRC & Anti-Trump Members\n@GenFlynn Charges have ZERO to do w Russia Collusion\n@PaulManafort Charges have ZERO to do w Russia Collusion pic.twitter.com/Zlv5dhqYJy'
p283
S'2:48 PM - 6 Dec 2017'
p284
tp285
a(S'COLLUSION PROVED Whistleblower: Flynn told ex-partner Russia sanctions would be dumped https://www.nbcnews.com/news/us-news/whistleblower-flynn-told-ex-partner-russia-sanctions-would-be-ripped-n827031\xc2\xa0\xe2\x80\xa6 via @nbcnews'
p286
S'2:47 PM - 6 Dec 2017'
p287
tp288
a(S'And distraction from Russia collusion'
p289
S'2:46 PM - 6 Dec 2017'
p290
tp291
a(S'\xe2\x80\x9cZero Evidence\xe2\x80\x9d: Former Prosecutor Confirms Mueller Investigation Is A Witch Hunt With No Actual Evidence Of Trump-Russia Collusion - http://www.truepatriot.net/zero-evidence-former-prosecutor-confirms-mueller-investigation-is-a-witch-hunt-with-no-actual-evidence-of-trump-russia-collusion/\xc2\xa0\xe2\x80\xa6'
p292
S'2:46 PM - 6 Dec 2017'
p293
tp294
a(S'@realDonaldTrump #Russia #Russia #Flynn #FBI #Collusion #ImpeachTrump #Russia #Russia'
p295
S'2:42 PM - 6 Dec 2017'
p296
tp297
a(S'Wait a second. What do any of those things that you just mentioned (which have NOTHING to do with Russia collusion) have to do with the Russia investigation?'
p298
S'2:41 PM - 6 Dec 2017'
p299
tp300
a(S'"Quid pro quo" for the Trump Cartel Family acting in collusion and conspiring w/Putin & Russian Oligarchs to clear his debt @Deutsch Bank in exchange for covering his debt and conspiring w/ Russia for Nuclear Power Plants in the Middle East. http://www.cnn.com/2017/12/06/politics/whistleblower-flynn-told-colleague-removing-russia-sanctions-priority/index.html\xc2\xa0\xe2\x80\xa6'
p301
S'2:40 PM - 6 Dec 2017'
p302
tp303
a(S'#Trump #Russia #Mueller #Assange #Farage #Legatum #collusion https://twitter.com/alfonslopeztena/status/938538004360171520\xc2\xa0\xe2\x80\xa6'
p304
S'2:40 PM - 6 Dec 2017'
p305
tp306
a(S'Trouble w/Russia collusion, #Hillary, allegations re: POTUS& Moore is the last 18 mos. MSM/Libs have proven they\'ll do whatever it takes. Lie, steal, cheat, payoff informants, release classified info. No boundaries. What did Harry Reid say when he lied?  "It worked, didn\'t it?"https://twitter.com/cnnbrk/status/938501501349253122\xc2\xa0\xe2\x80\xa6'
p307
S'2:40 PM - 6 Dec 2017'
p308
tp309
a(S'NO!  Let the ethics investigation run its course. There is something fishy about allegations.  Franken is targeted because he has been a leader in the Senate against Russia collusion.  #supportalfranken'
p310
S'2:40 PM - 6 Dec 2017'
p311
tp312
a(S'We are finding out far more about the collusion with the Clinton/Comey/Obama clan, breaking the law & covering it, spying & lying to Americans, than Mueller & his 17 Trump-hating ppl have found out about Russia over the past 7 months!'
p313
S'2:39 PM - 6 Dec 2017'
p314
tp315
a(S"We'll wait.  Just like we're waiting for the Russia collusion charges and for Hillary to win by 12."
p316
S'2:39 PM - 6 Dec 2017'
p317
tp318
a(S"@SenatorBurr I am a constituent of NC. You sir are an embarrassment. You have ZERO proof of collusion between Russia and President Trump. However you keep playing games. We do not trust you. Don't run again for office. #MAGA"
p319
S'2:39 PM - 6 Dec 2017'
p320
tp321
a(S'Trump-Russia collusion does not exist, I was there: Corey Lewandowski - Fox Business https://apple.news/Afw4wcBIJRvWovCwrQOJ-xA\xc2\xa0\xe2\x80\xa6'
p322
S'2:39 PM - 6 Dec 2017'
p323
tp324
a(S"I've always found Greg to be the one with most intelligence between you two. You will be getting a Russia collusion soon, but it won't be a connection with Trump. It lies with the loser"
p325
S'2:38 PM - 6 Dec 2017'
p326
tp327
a(S"LindaSuhler: RT ChuckGrassley: Reporters say FBI official who watered down Comey stmt on Clinton emails AND started Russia 'collusion' probe on Trump Campaign was fired frm Mueller team after DOJ watchdog found evidence of political bias. THIS IS WHY DOJ/FBI NEEDS OVERSIGHT \xe2\x80\xa6"
p328
S'2:38 PM - 6 Dec 2017'
p329
tp330
a(S"Hey @TheJuanWilliams the Russia investigation has been ongoing for 11 months. Mueller has unlimited funds and a bunch of left leaning investigators and despite this can't even invent a collusion case. Hillary has done much worse than Flynn and has skated. #TheFive"
p331
S'2:37 PM - 6 Dec 2017'
p332
tp333
a(S'#Flynn #Russia  So, the Russia connection had nothing to do with election collusion.  It\xe2\x80\x99s all about Flynn\xe2\x80\x99s crooked business deal with Russian nuclear power firm.'
p334
S'2:37 PM - 6 Dec 2017'
p335
tp336
a(S'@TheJuanWilliams what news in the Russia investigation? that they still have not found one piece of collusion yet?'
p337
S'2:36 PM - 6 Dec 2017'
p338
tp339
a(S'@TheFive juan is doing the oldest magician trick; look over here while I do something over there. His over there is Russia to misdirect everyone away from the over here clinton collusion with the fbi.'
p340
S'2:36 PM - 6 Dec 2017'
p341
tp342
a(S'This needs to be talked about as much as Trump Russia collusion...if not more.'
p343
S'2:36 PM - 6 Dec 2017'
p344
tp345
a(S"RT ChuckGrassley: Reporters say FBI official who watered down Comey stmt on Clinton emails AND started Russia 'collusion' probe on Trump Campaign was fired frm Mueller team after DOJ watchdog found evidence of political bias. THIS IS WHY DOJ/FBI NEEDS OVERSIGHT Why don't dem\xe2\x80\xa6"
p346
S'2:35 PM - 6 Dec 2017'
p347
tp348
a(S'Puppet Masters: #FBI is denying #Congress access to data exposing the big lie of #Trump-#Russia collusion https://www.sott.net/article/370430-FBI-is-denying-Congress-access-to-data-exposing-the-big-lie-of-Trump-Russia-collusion\xc2\xa0\xe2\x80\xa6'
p349
S'2:35 PM - 6 Dec 2017'
p350
tp351
a(S"You ARE totally disconnected!!! Must get your news from Liberal sources. Trump not being in collusion with Putin/Russia, doesn't mean any other countries help.\nBTW, a Higher percentage of military Pro President Trump"
p352
S'2:35 PM - 6 Dec 2017'
p353
tp354
a(S"Puppet Masters: #Flynn indictment exposes Team #Trump's collusion with #Israel, not #Russia https://www.sott.net/article/370429-Flynn-indictment-exposes-Team-Trumps-collusion-with-Israel-not-Russia\xc2\xa0\xe2\x80\xa6"
p355
S'2:34 PM - 6 Dec 2017'
p356
tp357
a(S"Israel is home to Russia....and there's y'all's collusion"
p358
S'2:34 PM - 6 Dec 2017'
p359
tp360
a(S'Hey remember when the left was screaming Russia Russia Russia and collusion then they had their "big break" with the "confession" ??? And then remember when the only thing that came out was the corruption of the Clinton campaign and the left??? '
p361
S'2:29 PM - 6 Dec 2017'
p362
tp363
a(S'What\xe2\x80\x99s with these people...impeach collusion Russia Special Investigations.. OBAMA and Hillary ignored every rule and law in our lifetime and It\xe2\x80\x99s the president that\xe2\x80\x99s working his ass off for nothing that they go after This is Bullshit '
p364
S'2:28 PM - 6 Dec 2017'
p365
tp366
a(S'All the Dirt coming out with #RobertMueller and his #SpecialCounsel and other various high level #FBI personnel, is all because Hillary Clinton lost the Election. Russia/Trump collusion is just a smoke screen to cover for the real collusion #UraniumOneDeal #TheMoney #FakeDossier'
p367
S'2:27 PM - 6 Dec 2017'
p368
tp369
a(S"you know why Dimm' s are concerned by these allegations? they have bigger agenda. They are setting the ground to go after @POTUS . Russia collusion did not work well for them. https://twitter.com/LouDobbs/status/938533328512221184\xc2\xa0\xe2\x80\xa6"
p370
S'2:27 PM - 6 Dec 2017'
p371
tp372
a(S'Wow - A congressman just said there are more investigators on this Trump-Russia-collusion bullcrap than were on the Oklahoma City bombing.'
p373
S'2:25 PM - 6 Dec 2017'
p374
tp375
a(S"LeeCamp: RT GrayzoneProject: Michael Flynn's indictment exposes collusion with Israel, not Russia. But you wouldn't know it from mainstream press coverage. https://www.alternet.org/grayzone-project/flynn-indictment-exposes-collusion-israel\xc2\xa0\xe2\x80\xa6 #IsraelGate via MaxBlumenthal"
p376
S'2:25 PM - 6 Dec 2017'
p377
tp378
a(S"God bless you and yours but I can't resist, is she the connection with trump and Russia collusion"
p379
S'2:25 PM - 6 Dec 2017'
p380
tp381
a(S'\xe2\x80\x9cZero Evidence\xe2\x80\x9d: Former Prosecutor Confirms Mueller Investigation Is A Witch Hunt With No Actual Evidence Of Trump-Russia Collusion\n\nThere is no discernible evidence of any conspiracy between Russia and Donald Trump so Robert Mueller is conducting a \xe2\x80\x9cfis\xe2\x80\xa6 http://www.thedailysheeple.com/zero-evidence-former-prosecutor-confirms-mueller-investigation-is-a-witch-hunt-with-no-actual-evidence-of-trump-russia-collusion_122017\xc2\xa0\xe2\x80\xa6'
p382
S'2:24 PM - 6 Dec 2017'
p383
tp384
a(S'@POTUS @FoxNews  I misspelled  comey below. Sessions and DOJ need to take over the new info on Flynn it\xe2\x80\x99s outside the scope of Fake Russia Collusion investigation get rid of Mueller. #witchhunthttps://twitter.com/carmengweaver/status/938533594384994310\xc2\xa0\xe2\x80\xa6'
p385
S'2:23 PM - 6 Dec 2017'
p386
tp387
a(S'How have you been proven right? #trump #politics #republicans #democrats #usa #fbi #mueller #comey #bias #hypocrisy #collusion #russia #campaign #clinton'
p388
S'2:23 PM - 6 Dec 2017'
p389
tp390
a(S'Hey shithead I bet you will cause a terrorist attack w/in the next two weeks b/c of your stupid attempt at deflecting the news away from your collusion with Russia to throw the 2016 election to you to calling Jerusalem the capital of Israel. Fuck you war monger traitor!'
p391
S'2:20 PM - 6 Dec 2017'
p392
tp393
a(S'To date nobody has been able to demonstrate any collusion between Russia and Trump. Keep on dreaming amigo.'
p394
S'2:18 PM - 6 Dec 2017'
p395
tp396
a(S"@realDonaldTrump \nhasn't distracted me from your Russia collusion/conspiracy on little bit https://twitter.com/atDavidHoffman/status/938522808539336705\xc2\xa0\xe2\x80\xa6"
p397
S'2:18 PM - 6 Dec 2017'
p398
tp399
a(S'Deflection of Mueller\xe2\x80\x99s Russia collusion case crashing and burning award goes to this Vodka soaked piece of garbage https://twitter.com/chelseahandler/status/938220080407523328\xc2\xa0\xe2\x80\xa6'
p400
S'2:16 PM - 6 Dec 2017'
p401
tp402
a(S'Mueller investigation is corrupt he needs to be investigated and shut this stupid collusion with Russia investigation'
p403
S'2:14 PM - 6 Dec 2017'
p404
tp405
a(S'There r two different issues. The phoney Russian collusion n Trump to rig election n Russia attempt to plant false narratives to effect our election which they have done for years. U r all about hoping election overturned. Sad'
p406
S'2:13 PM - 6 Dec 2017'
p407
tp408
a(S'Its a total Scam - nothing to do with Russia Collusion - SHUT IT  DOWN !! https://twitter.com/RealMAGASteve/status/938383130574061569\xc2\xa0\xe2\x80\xa6'
p409
S'2:12 PM - 6 Dec 2017'
p410
tp411
a(S'The Russia-collusion inquiry should be looking not at Trump but at the Clintons (Hillary-brokered uranium deal, Russian payments to Bill for Moscow speeches) and the FBI, whose credibility as a law-enforcement agency is now shot to pieces.  http://www.melaniephillips.com/real-collusion-investigate-swamp-right-now/\xc2\xa0\xe2\x80\xa6 #MAGA @POTUS'
p412
S'2:12 PM - 6 Dec 2017'
p413
tp414
a(S'If you believe Trump engaged in #collusion with Russia (and I do) #TrumpRussiapic.twitter.com/lwELNcPnlS'
p415
S'2:12 PM - 6 Dec 2017'
p416
tp417
a(S"Given the GOP's open support (or members' silence) on Roy Moore, unless Dems win back both House & Senate (snowball in hell), there is no chance Trump will be impeached & convicted for collusion with Russia."
p418
S'2:12 PM - 6 Dec 2017'
p419
tp420
a(S"I can't help it that you Libs are so gullible and fall for everything but I should have known. You all fell for Hillary being our President and the fake Trump/Russia collusion story. How did that work out?  Haha"
p421
S'2:08 PM - 6 Dec 2017'
p422
tp423
a(S'Trump-Russia collusion does not exist, I was there: Corey Lewandowski - Fox News https://apple.news/AbtRbfRYIREWlLqpjB_f_Hg\xc2\xa0\xe2\x80\xa6'
p424
S'2:06 PM - 6 Dec 2017'
p425
tp426
a(S'@msnbc - @jimmy_dore "MSNBC\xe2\x80\x99s Rachel Maddow, who has devoted more content this year to Russia than to any other topic, appeared to entirely avoid the issue of Kushner\xe2\x80\x99s collusion with Israel" https://www.alternet.org/grayzone-project/flynn-indictment-exposes-collusion-israel\xc2\xa0\xe2\x80\xa6'
p427
S'2:05 PM - 6 Dec 2017'
p428
tp429
a(S"Rachel Marsden: Flynn's plea deal reveals collusion, but not with Russia http://www.chicagotribune.com/news/columnists/sns-201712051333--tms--amvoicesctnav-a20171205-20171205-column.html\xc2\xa0\xe2\x80\xa6"
p430
S'2:03 PM - 6 Dec 2017'
p431
tp432
a(S'Binney says NO Russia hacks of DNC and NO Russia crimes. So that means NO possible way for Trump to "collude" to do something that never happened. ELI5 "Russia Collusion" - http://investmentwatchblog.com/binney-says-no-russia-hacks-of-dnc-and-no-russia-crimes-so-that-means-no-possible-way-for-trump-to-collude-to-do-something-that-never-happened-eli5-russia-collusion/\xc2\xa0\xe2\x80\xa6'
p433
S'2:03 PM - 6 Dec 2017'
p434
tp435
a(S'@jimmy_dore - Here it is: Michael Flynn\xe2\x80\x99s Indictment Exposes Trump Team\xe2\x80\x99s Collusion With Israel, Not Russia @alternet https://www.alternet.org/grayzone-project/flynn-indictment-exposes-collusion-israel#.Wiho7fFXekM.twitter\xc2\xa0\xe2\x80\xa6'
p436
S'2:02 PM - 6 Dec 2017'
p437
tp438
a(S'Yup, locking you and your ilk up behind bars will make America great again!  @realDonaldTrump is an asset of @Russia and a #traitor to the United States.  #Fake @POTUS in the @WhiteHouse.\n#TrumpRussiaInvestigation #Collusion #Corruption #Obstruction #Treasonpic.twitter.com/5b3shGsHpC'
p439
S'2:02 PM - 6 Dec 2017'
p440
tp441
a(S'\xe2\x80\x98Russia collusion allegations unproven; what we are looking at is Israel-gate\xe2\x80\x99 \xe2\x80\x93 Max Blumenthal https://buff.ly/2AfbAm5\xc2\xa0'
p442
S'2:00 PM - 6 Dec 2017'
p443
tp444
a(S'And where\xe2\x80\x99s is the list of Democrats for the Trump impeachment. =for lying corruption and being a traitor 2 our country and collusion with Russia https://twitter.com/msnbc/status/938509611480514562\xc2\xa0\xe2\x80\xa6'
p445
S'1:58 PM - 6 Dec 2017'
p446
tp447
a(S'Whistleblower Comes Forward With Highly Illegal Details Of Flynn\xe2\x80\x99s Russia Collusion\nhttp://bipartisanreport.com/2017/12/06/whistleblower-comes-forward-with-highly-illegal-details-of-flynns-russia-collusion/\xc2\xa0\xe2\x80\xa6'
p448
S'1:58 PM - 6 Dec 2017'
p449
tp450
a(S'So you have to prove Trump knew Russia hacked the DNC. Which there is no proof of and Wikileaks denies. So ... where\xe2\x80\x99s the collusion?'
p451
S'1:58 PM - 6 Dec 2017'
p452
tp453
a(S'Russia Russia Russia - still no proof. Get over it. They wouldn\xe2\x80\x99t charge Flynn with lying to the FBI - Mickey Mouse crime - if there was anything to the Russia/collusion story. They dig and dig with nothing. As much as they leak, it would\xe2\x80\x99ve been leaked if there was collusion.'
p454
S'1:57 PM - 6 Dec 2017'
p455
tp456
a(S'@seanhannity rom my perspective it appears Mueller was 2 determine whether there was collusion between the Trump campaign and aid from Russia and nothing was found.  Thus the investigation should be over. It is suggested Nunse needs 2 ask Muller if this true.'
p457
S'1:56 PM - 6 Dec 2017'
p458
tp459
a(S'Wow the TRUMP Russia collusion is as concrete as soft serve ice cream on a 130 global warming day #UsefulIdiotpic.twitter.com/2hVWG5udx6'
p460
S'1:56 PM - 6 Dec 2017'
p461
tp462
a(S'Russia helped get him elected and Team Trump promised to lift sanctions in return. That is collusion. That alone will take down Trump, not to mention Obstruction.'
p463
S'1:55 PM - 6 Dec 2017'
p464
tp465
a(S'tRump is a clear and present danger! Let\xe2\x80\x99s pray Mueller or someone can put a stop to his madness! How can you have a mentally deranged man, currently being investigated for collusion with Russia still running the country? Everyday, tRump demonstrates crazy!'
p466
S'1:54 PM - 6 Dec 2017'
p467
tp468
a(S'This entire Russia collusion nonsense has been a ruse to mask its true intent which is to impeach Trump  https://www.westernjournal.com/mueller-zeroes-in-directly-on-trump-with-new-subpoena/\xc2\xa0\xe2\x80\xa6'
p469
S'1:53 PM - 6 Dec 2017'
p470
tp471
a(S'Rick is more on the money, though I don\'t think Hillary "No Fly Zone" Clinton has much love for Putin. Still, this Jimmy Dore piece is brilliant on Clinton/Russia "collusion"- I want my fellow left-leaning people to watch and learn how you get manipulated\nhttps://youtu.be/waGnHlRIsWM\xc2\xa0'
p472
S'1:53 PM - 6 Dec 2017'
p473
tp474
a(S'So tired of Dems doing the "right" thing while the Republicans destroy our country, our social safety net, & accepting the coordination/collusion with Russia.  When are Dems going to start winning?'
p475
S'1:51 PM - 6 Dec 2017'
p476
tp477
a(S'Limbaugh gets it. It\xe2\x80\x99s not a Russia collusion investigation but an impeachment investigation.  http://www.dailywire.com/news/24395/rush-limbaugh-heres-how-we-can-really-thwart-james-barrett\xc2\xa0\xe2\x80\xa6'
p478
S'1:51 PM - 6 Dec 2017'
p479
tp480
a(S"President 'ShitForBrains' slurs his  speech on Jerusalem announcement.. \n\n#trump #stress #dying #Delusion #Collusion #Corruption #incompetence #nepotism #Lies #Racism #TaxReturn #Oligarchs #moneylaundering #Russia #USA\nhttp://flip.it/XygAO_\xc2\xa0"
p481
S'1:51 PM - 6 Dec 2017'
p482
tp483
a(S'What can you possibly impeach him for being the best president we\xe2\x80\x99ve had since Reagan, calling out the Democrats for their lives their collusion with Russia they are the evil doers, don\xe2\x80\x99t mess with president Donald Trump let\xe2\x80\x99s start special Committee & lock Hillary up & groupies'
p484
S'1:50 PM - 6 Dec 2017'
p485
tp486
a(S"Trump's transition team colluded with #Israel. Why don't we hear more about it? https://interc.pt/2AwKnYG\xc2\xa0 by @mehdirhasan\n#Trump #Jerusalem #Russia #collusion #colonisation #IllegalSettlements #Netanyahu"
p487
S'1:48 PM - 6 Dec 2017'
p488
tp489
a(S'Stop spending tax payers dollars on a corrupt DOJ investigation on Russia Collusion. This corrupt Special Counsel needs to be SHUT-DOWN.'
p490
S'1:48 PM - 6 Dec 2017'
p491
tp492
a(S'Whistleblower Comes Forward With Highly Illegal Details Of Flynn\xe2\x80\x99s Russia Collusion http://bipartisan.report/2017/12/06/whistleblower-comes-forward-with-highly-illegal-details-of-flynns-russia-collusion/\xc2\xa0\xe2\x80\xa6'
p493
S'1:48 PM - 6 Dec 2017'
p494
tp495
a(S"It's way, way easier to take all these guys down with proof of lying than proof of collusion with Russia."
p496
S'1:47 PM - 6 Dec 2017'
p497
tp498
a(S"'Russia collusion allegations unproven; what we are looking at is Israel-gate' - Max Blumenthal https://news360.com/article/432137598\xc2\xa0\xe2\x80\xa6"
p499
S'1:46 PM - 6 Dec 2017'
p500
tp501
a(S'FBI is denying Congress access to data exposing the big lie of Trump-Russia collusion https://goo.gl/fb/Pv8JqT\xc2\xa0'
p502
S'1:46 PM - 6 Dec 2017'
p503
tp504
a(S'On 4/6/17, Russia announced it was moving their embassy from Tel Aviv to Jerusalem. 8 months later to the day, Trump makes the same announcement. Collusion?'
p505
S'1:45 PM - 6 Dec 2017'
p506
tp507
a(S'Collusion, not of the "Russia, Russia, Russia" kind but of the "Sexual Predatory" kind.  More reason to fire Mueller.'
p508
S'1:45 PM - 6 Dec 2017'
p509
tp510
a(S'might be preparing to call on him to resign after all of the russia collusion info is on the table. \n\nfollows the pattern with nixon when dems called for his impeachment well before the watergate break in.'
p511
S'1:45 PM - 6 Dec 2017'
p512
tp513
a(S'#distract from #Russia #collusion #Mueller'
p514
S'1:43 PM - 6 Dec 2017'
p515
tp516
a(S'Really?  Then why did three people get indicted - for matters unrelated to collusion with Russia - already?  Shouldn\'t he have waited "probably 2 yrs" - to see what his report is before he proceeds with anything.  Just thought I\'d ask based on your assumption.'
p517
S'1:42 PM - 6 Dec 2017'
p518
tp519
a(S'The only thing more FAKE than the Russia collusion story is the climate change narrative!'
p520
S'1:41 PM - 6 Dec 2017'
p521
tp522
a(S'@senjudiciary @ChuckGrassley \n\nDon\xe2\x80\x99t make @realDonaldTrump do your job! \nClose up the \xe2\x80\x9cMueller 2016 Campaign Investigation regardingCollusion with Russia \n\nAll evidence@TheDemocrats\nNewt is right! now, time to close down Mueller!https://twitter.com/stockmonstervip/status/938215144730984449\xc2\xa0\xe2\x80\xa6'
p523
S'1:41 PM - 6 Dec 2017'
p524
tp525
a(S'Would that be James Comey and his organization announcing just days before the election he was re-opening the investigation of Clinton\xe2\x80\x99s emails but not announcing he had been investigating Trump/Russia collusion since July of 2016 ?'
p526
S'1:40 PM - 6 Dec 2017'
p527
tp528
a(S'I believe he lied because in his mind he was doing the right thing by not furthering the Russia collusion story.'
p529
S'1:39 PM - 6 Dec 2017'
p530
tp531
a(S'on the one hand we\xe2\x80\x99re all gonna die bc of this tax bill but on the other hand mueller\xe2\x80\x99s investigation into trump\xe2\x80\x99s collusion with russia is the most fun i\xe2\x80\x99ve had in years so at least i\xe2\x80\x99ll go out laughing'
p532
S'1:39 PM - 6 Dec 2017'
p533
tp534
a(S'Stop trying to stir up drama to hide the #GOPTaxScam and the #Collusion with Russia'
p535
S'1:39 PM - 6 Dec 2017'
p536
tp537
a(S'Mueller and his s ponies came there to conceal and cover up Clintons collusion with Russia'
p538
S'1:39 PM - 6 Dec 2017'
p539
tp540
a(S'Hillary will be President = Nope\nRussia Collusion = Nope\nTrump Obstructing Justice = Nope\nAL Green Impeachment vote = Fail 364-58\nLiberals are  Crazy = Yuup'
p541
S'1:38 PM - 6 Dec 2017'
p542
tp543
a(S'Taking your eye off the ball Dems(Russia/Trump/Finances/Obstruction/Collusion/Russia intervenes)? If you do, Trump and Bannon win. Want it? https://twitter.com/cnn/status/938519309357236224\xc2\xa0\xe2\x80\xa6'
p544
S'1:37 PM - 6 Dec 2017'
p545
tp546
a(S'RT PoliticalShort "RT nedryun: It\'s desperately hard to turn fairytales into facts. It\'s actually impossible. So as the Trump Russia collusion fairytale goes up in flames, you sense a rising panic in the Opposition Party and the Left as they spit out false stories & try to p\xe2\x80\xa6'
p547
S'1:36 PM - 6 Dec 2017'
p548
tp549
a(S'DONNA  At this point almost a year. .there should be no further Special Council RE: Russia Collusion.( TRUMP )A special Council to look into HRC and DNC would be much more conducive to all the Real Russia Collusion and the 2016 Election Obstruction by RNC/DNC/Clinton/Lynch #MAGAhttps://twitter.com/DonnaWR8/status/938497106574225409\xc2\xa0\xe2\x80\xa6'
p550
S'1:35 PM - 6 Dec 2017'
p551
tp552
a(S'Really was referring to info coming out about how key members of his team are so anti Trump raising (I think) serious bias issues and also going after decades old Trump biz  records seems pretty far from Russia collusion purpose of SC.'
p553
S'1:34 PM - 6 Dec 2017'
p554
tp555
a(S'I think the only ones NOT in collusion with Russia is Liverpool! #LFC #LIVSPA'
p556
S'1:33 PM - 6 Dec 2017'
p557
tp558
a(S"Well, if the war with North Korea doesn't work out for you, then ramping up the hatred between Jews in Israel and Palestinians can be you next 'go to' plan. FYI #OrangeAnus - war will not distract from the Mueller investigation and your collusion/obstruction re: Russia. Nice try"
p559
S'1:32 PM - 6 Dec 2017'
p560
tp561
a(S'@gov/USHouse Impeach Trump NOW. He\'s for himself, not the U.S. He\'s recognizing Jerusalem as Israel\xe2\x80\x99s capital & move embassy regardless of regions likely war, Why? To feed his "base" as collusion charges w/Russia close-in. He\'ll do & say anything to save himself. Do him a favor'
p562
S'1:31 PM - 6 Dec 2017'
p563
tp564
a(S'Reporter Explodes On Sarah Sanders Over CNN Fake News Story About Trump Collusion With Russia \xe2\x80\x93 todays world news \xe2\x80\x93 http://worldnewsweekly.ca/reporter-explodes-on-sarah-sanders-over-cnn-fake-news-story-about-trump-collusion-with-russia-todays-world-news/\xc2\xa0\xe2\x80\xa6'
p565
S'1:31 PM - 6 Dec 2017'
p566
tp567
a(S'"Joy Behar Takes the Bait on Trump-Russia Collusion Story, But also for the interests of others" (Philippians 2:4).'
p568
S'1:30 PM - 6 Dec 2017'
p569
tp570
a(S'@USMC\n@UN\n\nThis is NOT normal.\n@realDonaldTrump is NOT normal.\n\nCan I plz call in the #Marines to save democracy from being erased from America by an ill man in collusion with #GOP and #Russia to make $$$?\n\n#SemperFi\n#resistpersistpeacefullyhttps://twitter.com/LaurenWern/status/938506335834005505\xc2\xa0\xe2\x80\xa6'
p571
S'1:30 PM - 6 Dec 2017'
p572
tp573
a(S'Scandals? Like collusion with Russia  #GroupThinkSheep'
p574
S'1:29 PM - 6 Dec 2017'
p575
tp576
a(S'Collusion still seems highly unlikely, but was there an exchange of body fluids? Look, someone has to ask. http://washingtonbabylon.com/trump-russia-there-was-massive-collusion/\xc2\xa0\xe2\x80\xa6 \xe2\x80\xa6 #Russia #BeautyQueen #Trump @seth_hettenapic.twitter.com/FWNRUsVfoL'
p577
S'1:28 PM - 6 Dec 2017'
p578
tp579
a(S'Mueller was appointed by the corrupt Establishment Republicans (Rinos). There is no collusion, Russia already owns every politician in DC, Google photos of Sergey Lavrov and you will see him with every major politician. Luckily Trump doesnt need their dirty money.'
p580
S'1:27 PM - 6 Dec 2017'
p581
tp582
a(S'The very fact that the entire #Trump administration initially lied about meetings & business ventures w/ #Russian officials IS the evidence of #collusion w/ #Russia. #TrumpRussiaCoverup #Motive #NoEvidenceOfCollusion #ThePowerOfSuggestion'
p583
S'1:24 PM - 6 Dec 2017'
p584
tp585
a(S"Are you aware that the concern is that the party and politician that is currently in office (you) has collaborated with #Russia to skew the election? We're focused on you because you're in power. #Clinton is not. #trump #maga #fakenews #politics #news #mueller #fbi #collusion"
p586
S'1:24 PM - 6 Dec 2017'
p587
tp588
a(S'If you care about facts, why are you trying to tarnish the reputation of the very person you put in charge of the #Russia investigation by calling the FBI "in tatters"? #trump #maga #fakenews #hypocrisy #politics #news #narcissist #nationalism #mueller #fbi #collusion'
p589
S'1:22 PM - 6 Dec 2017'
p590
tp591
a(S'Lewandowski, Bossie say they saw no Trump-Russia collusion - Fox News https://apple.news/A0NegRhjqQ1CYXUfa9M2rmQ\xc2\xa0\xe2\x80\xa6'
p592
S'1:21 PM - 6 Dec 2017'
p593
tp594
a(S"Is there good that comes from simplistic and sweeping declarations of evil (that you're applying to about half of America's population? #trump #usa #maga #fakenews #hypocrisy #politics #news #narcissist #selfish #jingoism #patriotic #nationalism #mueller #fbi #collusion #russia"
p595
S'1:21 PM - 6 Dec 2017'
p596
tp597
a(S'yeah we should be going after Hillary and real russia Collusion   Uranium One  Fake Trump Dossier paid by HRC'
p598
S'1:19 PM - 6 Dec 2017'
p599
tp600
a(S'Your core premise that Barack Obama had so much evidence on Donald Trump\xe2\x80\x99s collusion and treason with Russia that he elected to allow him to become president of the United States while annihilating the political Left in the process just to punk us is laughable.\n\n#MAGA https://twitter.com/whinedetector/status/938517160938430465\xc2\xa0\xe2\x80\xa6'
p601
S'1:18 PM - 6 Dec 2017'
p602
tp603
a(S'do we have enough votes.   so many republicans are in on the collusion. and money from russia'
p604
S'1:17 PM - 6 Dec 2017'
p605
tp606
a(S'Do you know who you\xe2\x80\x99re associating yourself with? Seriously, @realDonaldTrump is pretty bad person. He\xe2\x80\x99s sexually abused women and bragged about. Maybe you missed the tape. Also, he\xe2\x80\x99s only doing this to distract from collusion with Russia. Might want to rethink this\xe2\x80\xa6'
p607
S'1:17 PM - 6 Dec 2017'
p608
tp609
a(S"If I was @realDonaldTrump and I wanted to #DrainTheSwamp; I wouldn't be too unhappy with a guy like Mueller. I know he would find no collusion between Russia and me, and I also know if he kept digging, he would find a ton of collusion between Democrats and Russia. Checkmate?"
p610
S'1:15 PM - 6 Dec 2017'
p611
tp612
a(S'Analysis | Three pressing questions about Trump-Russia collusion that Donald Trump Jr. can answer http://wapo.st/2k1BTkn?tid=ss_tw-bottom&utm_term=.8cd7f7b2577c\xc2\xa0\xe2\x80\xa6'
p613
S'1:14 PM - 6 Dec 2017'
p614
tp615
a(S'Just her ploy to keep the Russia Tale alive until the Mid-Term elections. She knows very well, better than anyone in Congress, there is no "Collusion" because she started it the hoax with Hillary Obama and the DNC.'
p616
S'1:14 PM - 6 Dec 2017'
p617
tp618
a(S"Let's b clear. All this mess was intentionally started by a FAKE dossier. Without it no Russia collusion no Mueller no excuses no nothing."
p619
S'1:13 PM - 6 Dec 2017'
p620
tp621
a(S'With all the crooks and leaks in the IC, if there was any Trump Russia collusion we would have seen it by now.  Only criminals are Obama, Hillary, Lynch and Holder and other crooked people in the IC and they will go down for their crimes, just watch. https://twitter.com/mariaha70800060/status/938461405824593921\xc2\xa0\xe2\x80\xa6'
p622
S'1:10 PM - 6 Dec 2017'
p623
tp624
a(S'Now that impeachment was a huge failure, maybe they can investigate Trump Russia collusion. LMAO'
p625
S'1:10 PM - 6 Dec 2017'
p626
tp627
a(S'Syrian/Russian collusion in violating sanctions #putin #olgino #trolls #fsb #putin #oligarchs #russia #syria #assad #cyberspetsnashttp://ow.ly/gmIF30gYEwm\xc2\xa0'
p628
S'1:10 PM - 6 Dec 2017'
p629
tp630
a(S'You do realize that the word collusion is not specific to elections. I would add that colluding with Russia to render the US less capable of defend g themselves is actually far worse. It\xe2\x80\x99s called TREASON'
p631
S'1:09 PM - 6 Dec 2017'
p632
tp633
a(S'"#Russia" -- #ObamaGate | #Flynn | #Mueller #AndrewWeissmann #SallyYates\nConrad Black: Retreat of the Democrats Grows Hard To Disguise After Indictment of Flynn (scattershot movement away from "collusion")\nhttp://www.nysun.com/national/the-retreat-of-the-democrats-grows-hard/90141/\xc2\xa0\xe2\x80\xa6\n| #tcot #PJNET'
p634
S'1:08 PM - 6 Dec 2017'
p635
tp636
a(S'@realDonaldTrump When Trump-deranged folks cry "Obstruction of Justice" they mean obstructing Comey on Flynn crimes. Scott Adams mistakenly thinks the obstruction refers to original Russia collusion non-crime. No, Scott, not at all. But I know why Scott makes this dumb mistake'
p637
S'1:06 PM - 6 Dec 2017'
p638
tp639
a(S'Aannnddd another ignorant liberal! Trump campaigned on this long before Hillary lost and Democrats came up with the whole Trump/Russia collusion fairytales! Also do you not remember Obamas also saying he recognized Jerusalem as the capital?? Lol'
p640
S'1:05 PM - 6 Dec 2017'
p641
tp642
a(S'And since you\xe2\x80\x99re Mr. technicality, here\xe2\x80\x99s one for you:\n\nYou don\xe2\x80\x99t get to accuse Donald Trump of collusion and treason with Russia without a single shred of evidence and then spend the next year conducting fruitless investigation ploys hoping to find some.\n\n#MAGA https://twitter.com/whinedetector/status/938452714710855680\xc2\xa0\xe2\x80\xa6'
p643
S'1:04 PM - 6 Dec 2017'
p644
tp645
a(S'Of course @GOP killed the resolution. Had they agreed then they would have to agree that they have been complicit in @realDonaldTrump working with Russia to help him get elected. I bet @SpeakerRyan and @SenateMajLdr were in on the collusion too...'
p646
S'1:03 PM - 6 Dec 2017'
p647
tp648
a(S'Hey, equine face Mueller: We the taxpayers of this free and armed Republic demand our $7 million\xe2\x80\x94the $ u have spent on ur kangaroo counsel to find NOTHING related to the Trump-Russia collusion. \nSpecial Counsel Investigation Has Cost at Least $6.7 million https://nyti.ms/2nrZ9Nq\xc2\xa0'
p649
S'1:01 PM - 6 Dec 2017'
p650
tp651
a(S'FBI is denying Congress access to data exposing the big lie of Trump-Russia collusion: http://ift.tt/2jkvql1\xc2\xa0'
p652
S'1:01 PM - 6 Dec 2017'
p653
tp654
a(S'Investigation on \xe2\x80\x9cRussian collusion\xe2\x80\x9d and the indictments are Manafort for financial crimes 15 years ago and General Flynn for lying to FBI about talking to Russia(along with many other countries) about fighting ISIS during the transition. Great job'
p655
S'1:01 PM - 6 Dec 2017'
p656
tp657
a(S'Ironic that a progressive liberal states this as Democrats conduct their witch hunt while ignoring all the ACTUAL collusion with Russia & Communist nations by Obama, the Clintons & their associates. https://twitter.com/_WVU_BigXII_/status/938258861760352256\xc2\xa0\xe2\x80\xa6'
p658
S'1:00 PM - 6 Dec 2017'
p659
tp660
a(S'#FlynnFlipped #RussianSanctions #Collusion #traitor #lockTrumpup #NoPleaDealForTrump \nWhistleblower: Flynn told ex-partner Russia sanctions would be dumped http://nbcnews.to/2zVlKUE\xc2\xa0'
p661
S'1:00 PM - 6 Dec 2017'
p662
tp663
a(S'#Collusion @realdonaldtrump #russia #Impeachhttps://twitter.com/funder/status/937323817717960709\xc2\xa0\xe2\x80\xa6'
p664
S'12:59 PM - 6 Dec 2017'
p665
tp666
a(S'Why would Russia work to get Trump elected?  Putin already knew he could control Hillary and get whatever he wanted from her. The Clinton/Podesta collusion with Russia is the real deal.'
p667
S'12:59 PM - 6 Dec 2017'
p668
tp669
a(S'A helpful guide to what we need to know from Donald #Trump Jr. Not about whether there was collusion with Russia but about "how serious the misconduct really was."\n@ThePlumLineGS.https://www.washingtonpost.com/blogs/plum-line/wp/2017/12/06/donald-trump-jr-faces-a-grilling-today-here-are-some-big-questions/\xc2\xa0\xe2\x80\xa6'
p670
S'12:58 PM - 6 Dec 2017'
p671
tp672
a(S'Muellar is doing his job and 45&GOP are trying to degrade him and make him look like he has no Russia Collusion solid charges=but he does evidently does or there would be no Flynn flipping on 45. https://twitter.com/PuestoLoco/status/938490090715795456\xc2\xa0\xe2\x80\xa6'
p673
S'12:58 PM - 6 Dec 2017'
p674
tp675
a(S'Michael Flynn\xe2\x80\x99s Indictment Exposes Trump Team\xe2\x80\x99s Collusion With Israel, Not Russia\nBut you wouldn\xe2\x80\x99t know it from reading most mainstream coverage of the revealing affair.\nhttps://www.alternet.org/grayzone-project/flynn-indictment-exposes-collusion-israel#.WihZhFd5wpU.twitter\xc2\xa0\xe2\x80\xa6'
p676
S'12:56 PM - 6 Dec 2017'
p677
tp678
a(S'Seems like that Trump Russia collusion story is all BS. However #ClintonRussiaCollusion is all true and incredibly scary. It\xe2\x80\x99s depressing you voted for her and Putin.'
p679
S'12:55 PM - 6 Dec 2017'
p680
tp681
a(S"Then, they tried to influence global decisions to take the pressure off of Russia as a thank you. You realize collusion isn't a chargeable crime right?"
p682
S'12:53 PM - 6 Dec 2017'
p683
tp684
a(S'We can probably agree that Manafort (probably Podesta too) are dirtbags.  But what they did (or will) get busted for has Zero to do w/ Russia.  Flynn acted accordingly AFTER the election, but trapped himself in a lie.  Still didn\xe2\x80\x99t mean there was collusion.  Yet to see evidence.'
p685
S'12:53 PM - 6 Dec 2017'
p686
tp687
a(S"Latest revelations make the entire Russia 'collusion' probe look like a partisan hit http://nyp.st/2jTvqYQ\xc2\xa0 via @nypost"
p688
S'12:53 PM - 6 Dec 2017'
p689
tp690
a(S'Donald J. Trump is moving the U.S. embassy to Jerusalem solely b/c (1) he wants to look "presidential" & (2) as a distraction from the FBI investigation into his obstruction, cover-up, & collusion with regard to Russia\'s involvement in the 2016 election that\'s closing in on him.'
p691
S'12:52 PM - 6 Dec 2017'
p692
tp693
a(S'Still chasing that discredited Trump Russia collusion conspiracy fantasy. After 10 months and $7,000,000, even with all of the anti Trump "investigators" there is still not one single shred of evidence that they colluded to change the election outcome. @HillaryClinton LOST.'
p694
S'12:52 PM - 6 Dec 2017'
p695
tp696
a(S'Blowing up the Middle East to distract from his treasonous collusion with Russia: Protests erupt as Trump recognizes Jerusalem as Israeli capital https://www.huffingtonpost.com/entry/trump-jerusalem-israel-capital-protests_us_5a278118e4b0c2117626b72d?ncid=engmodushpmg00000004\xc2\xa0\xe2\x80\xa6 via @HuffPost'
p697
S'12:52 PM - 6 Dec 2017'
p698
tp699
a(S'Burr: Russia probe report will examine collusion, offer election security fixes. The story from @martinmatishak: http://politico.pro/2B7rNd0\xc2\xa0 | Photo: Gettypic.twitter.com/TW9YHmdb39'
p700
S'12:50 PM - 6 Dec 2017'
p701
tp702
a(S'What\xe2\x80\x99s your point fake news? Obama was trying to start a war with Russia over the fake Wikileaks collusion story.  Instead of you reporting on all the corruption found within those emails you Helped create the fake narrative'
p703
S'12:49 PM - 6 Dec 2017'
p704
tp705
a(S'Are you really going with that statement? Investigation into trump Russia collusion (created by illegal leaking you admitted to) has come up with a big goose egg. No Russia collusion. Huge waste of tax $$ (over $7 million).'
p706
S'12:48 PM - 6 Dec 2017'
p707
tp708
a(S'Great. Still nothing even close to proving collusion with Russia to influence the election. Nothing.'
p709
S'12:47 PM - 6 Dec 2017'
p710
tp711
a(S'I was gonna keep googling all this Trump Russia FBI Mueller high treason collusion stuff but I just put my hand in a live waffle iron and closed it and got the same effect.'
p712
S'12:46 PM - 6 Dec 2017'
p713
tp714
a(S"Flynn indictment exposes Team Trump's collusion with Israel, not Russia: http://ift.tt/2jkfeAo\xc2\xa0"
p715
S'12:45 PM - 6 Dec 2017'
p716
tp717
a(S"US vice-president Mike Pence next on Mueller's list #Trump #Russia #Collusion #Muellerhttps://twitter.com/funder/status/938462367125524480\xc2\xa0\xe2\x80\xa6"
p718
S'12:45 PM - 6 Dec 2017'
p719
tp720
a(S'I rather watch Mueller investigation close in on Trump for Collusion with Russia, or obstruction of justice or maybe by the states for sexual assault. Merry Xmas Kellyanne.'
p721
S'12:45 PM - 6 Dec 2017'
p722
tp723
a(S"And to divert the real story of his collusion with Russia. He thinks he's god"
p724
S'12:43 PM - 6 Dec 2017'
p725
tp726
a(S'@FoxNews regarding Gen. Flynn, what the hell does Nuclear Plants in Middle the East have to do with Russian collusion? Or Flynn discussions about eliminating sanctions on Russia on Inauguration \nDay.'
p727
S'12:42 PM - 6 Dec 2017'
p728
tp729
a(S'RT PoliticalShort "RT ChuckGrassley: Reporters say FBI official who watered down Comey stmt on Clinton emails AND started Russia \'collusion\' probe on Trump Campaign was fired frm Mueller team after DOJ watchdog found evidence of political bias. THIS IS WHY DOJ/FBI NEEDS OVER\xe2\x80\xa6'
p730
S'12:41 PM - 6 Dec 2017'
p731
tp732
a(S'BREAKING: Deputy Attorney General Rod Rosenstein will testify next week before the @HouseJudiciary Committee about special counsel Robert Mueller\xe2\x80\x99s investigation into possible collusion between the Trump campaign and Russia.\nhttps://judiciary.house.gov/press-release/goodlatte-announces-oversight-hearing-deputy-attorney-general-rosenstein/\xc2\xa0\xe2\x80\xa6 via @RepGoodlatte'
p733
S'12:41 PM - 6 Dec 2017'
p734
tp735
a(S'Really? 5 investigations going about the non-existant Trump /Russia collusion for over a year now!! Where have you been?'
p736
S'12:40 PM - 6 Dec 2017'
p737
tp738
a(S'Apart the Russia collusion, ask Mr Flynn if he ever colluded with any body else overseas. #seeWhatHappensNext'
p739
S'12:39 PM - 6 Dec 2017'
p740
tp741
a(S"And if Trump wasn't helped by Russia (that means he was inept in his hiring but that's another story), then we still have a lot of work to do to prevent Russia from impacting another election. Besides, obstruction of justice can bring down Trump with no ties to Russia collusion."
p742
S'12:39 PM - 6 Dec 2017'
p743
tp744
a(S"Shouldn't your kids be spending time with #Kushner? He's going to be in prison for a very long time. @realDonaldTrump will throw him under the bus and leave his grandkids without a father before he admits RUSSIAN COLLUSION #Complicit #Russia #Collusion "
p745
S'12:38 PM - 6 Dec 2017'
p746
tp747
a(S"The Senior Citizens of this country could use a COLA raise which we haven't gotten for years & yet the Govt can waste money on a fake investigation. @POTUS needs to tell Mueller he has 2 months to find Russia collusion or he will be SHUT DOWN."
p748
S'12:38 PM - 6 Dec 2017'
p749
tp750
a(S'The Trumpistas keep claiming intermittently that the president either never colluded w/Russia or that \xe2\x80\x9cCollusion\xe2\x80\x9d isn\xe2\x80\x99t illegal. The former hasn\xe2\x80\x99t been proven or disproven but the latter is technically correct. Potential \xe2\x80\x98Criminal Conspiracy\xe2\x80\x99 is the term to call it now. https://twitter.com/tedlieu/status/938192909244956672\xc2\xa0\xe2\x80\xa6'
p751
S'12:37 PM - 6 Dec 2017'
p752
tp753
a(S'#Collusion #Russia #trump #ResistanceUnited #GOPhttps://twitter.com/mkraju/status/938494736691814401\xc2\xa0\xe2\x80\xa6'
p754
S'12:37 PM - 6 Dec 2017'
p755
tp756
a(S'And, I guess you believe all that Flynn is going to reveal about Trumps collusion with Russia will be fake news? I feel sorry for you deluded Trumpees.'
p757
S'12:37 PM - 6 Dec 2017'
p758
tp759
a(S'The new revelations in FBI bias against Trump are earth shattering. It proves the whole Russia collusion probe was a partisan hit Job.  At the very least General Flynn\xe2\x80\x99s conviction should be overturned. #freeflynn'
p760
S'12:36 PM - 6 Dec 2017'
p761
tp762
a(S"Whistleblower: Flynn told colleague Russia sanctions would be 'ripped up'\n\nhttp://www.cnn.com/2017/12/06/politics/whistleblower-flynn-told-colleague-removing-russia-sanctions-priority/index.html\xc2\xa0\xe2\x80\xa6\nCollusion by any other name is...Collusion. No wonder trump has yet to impliment those sanctions. Hold out for this to fly over perhaps..."
p763
S'12:34 PM - 6 Dec 2017'
p764
tp765
a(S'Analysis | Three pressing questions about Trump-Russia collusion that Donald Trump Jr. can answer http://wapo.st/2k1BTkn?tid=ss_tw&utm_term=.8cd7f7b2577c\xc2\xa0\xe2\x80\xa6'
p766
S'12:34 PM - 6 Dec 2017'
p767
tp768
a(S'...Trump has just proved how much Israel controls US policies...if there any collusion it was not with Russia but with Israel...'
p769
S'12:33 PM - 6 Dec 2017'
p770
tp771
a(S'Wow Yet another Trump-Russia Collusion conspiracy: #Flynn was so eager about a biz deal w/ Russia to build nuclear reactors in Middle East (!)\xe2\x80\x93from which he\xe2\x80\x99d profit\xe2\x80\x93that he texted a friend\xe2\x80\x93during the Inauguration\xe2\x80\x93saying, it\xe2\x80\x99s \xe2\x80\x9cgood to go\xe2\x80\x9d AND #sanctions would be \xe2\x80\x9cripped up\xe2\x80\x9dpic.twitter.com/8W9ahsorDQ'
p772
S'12:33 PM - 6 Dec 2017'
p773
tp774
a(S'Michael Flynn\xe2\x80\x99s Indictment Exposes Trump Team\xe2\x80\x99s Collusion With Israel, Not Russia @alternethttps://www.alternet.org/grayzone-project/flynn-indictment-exposes-collusion-israel#.WihUCsnpTC8.twitter\xc2\xa0\xe2\x80\xa6'
p775
S'12:33 PM - 6 Dec 2017'
p776
tp777
a(S'Just proves this whole Russia thing was a set up by Obama Administration who was never tuff on Russia! Only collusion is the Dems & liberal media with this BS fake Russia story on our President! Their actions are destructive to our constitution! #enough'
p778
S'12:31 PM - 6 Dec 2017'
p779
tp780
a(S'CNN amazingly continues with their false narratives day in and day out, even though the public fortunately saw the nonsense that they push when they were exposed ,the boss lying about Russia collusion for ratings.'
p781
S'12:29 PM - 6 Dec 2017'
p782
tp783
a(S'About as realistic as Trump-Russia Collusion conspiracy theory.'
p784
S'12:29 PM - 6 Dec 2017'
p785
tp786
a(S'If provable to be true and factual, it would pop a hole in the \xe2\x80\x9cno collusion/conspiracy with Russia\xe2\x80\x9d denials ... If Flynn IS \xe2\x80\x9cfully flipped\xe2\x80\x9d and cooperating with Mueller, and corroborates this information, Team Trump will have to hit the Re-Set Button ... again ... pic.twitter.com/L7WtNWL0ni'
p787
S'12:29 PM - 6 Dec 2017'
p788
tp789
a(S'He must really SUCK if he needs 16 others to help him. Why wasn\xe2\x80\x99t he given a time limit ? If Mueller doesn\xe2\x80\x99t find anything before the end of the year that Our President was involved in any collusion with Russia, he needs to pay back the 7Million he\xe2\x80\x99s wasted on this Bullshit !'
p790
S'12:26 PM - 6 Dec 2017'
p791
tp792
a(S"They're going to turn up financial crimes and corruption but they will never prove there was collusion (a conspiracy between Trump & Russia).  If there was evidence, they would have presented it.  Our system is corrupt; let's stop blaming Russia for own sickness!"
p793
S'12:25 PM - 6 Dec 2017'
p794
tp795
a(S'That\xe2\x80\x99s cuz it a weak tree. It\xe2\x80\x99s Big but the shape is ass so they tryna cover it up... like his Russia collusion...'
p796
S'12:24 PM - 6 Dec 2017'
p797
tp798
a(S'.@SenatorBurr : #russia probe report will examine collusion, offer election security fixes\nhttps://www.politicopro.com/cybersecurity/article/2017/12/burr-russia-probe-report-will-examine-collusion-offer-election-security-fixes-210446\xc2\xa0\xe2\x80\xa6 on @POLITICOPro'
p799
S'12:24 PM - 6 Dec 2017'
p800
tp801
a(S'Just look at how stupid the left sounds as they desperately continue to defend their indefensible belief in the Demwitted story of President Trump and Russia collusion.'
p802
S'12:24 PM - 6 Dec 2017'
p803
tp804
a(S'Since they have no evidence of the assignment which is Trump-Russia collusion after a year, I think we investigate the investigators for their known breaking or skirting the law, or change the flag from stars and stripes to a banana.'
p805
S'12:22 PM - 6 Dec 2017'
p806
tp807
a(S'Critics? Be honest, Mitchell, call them what they used to be called. Journalists. Now called pundits, critics, fake news. You guys are hysterical every day! Tax reform...Armageddon! Legal talks with Russia...Collusion! Repeal&Replace...genocide! Relevance keeps missing you!'
p808
S'12:21 PM - 6 Dec 2017'
p809
tp810
a(S"Why don't you take serious the Trump/Russia collusion"
p811
S'12:21 PM - 6 Dec 2017'
p812
tp813
a(S'Also, increasingly there\'s more evidence of actual "collusion" with, and results for, Israel than Russia, despite all the hysteria. Riyadh probably ahead of Moscow too\nhttps://www.thenation.com/article/the-trump-team-definitely-colluded-with-a-foreign-power-just-not-the-one-you-think/\xc2\xa0\xe2\x80\xa6'
p814
S'12:19 PM - 6 Dec 2017'
p815
tp816
a(S'I truly believe that exposing Trumps collusion with Russia wont make a damn difference. This is a man who is openly supporting a pedophile, a man who ran a campaign of intolerance. who bragged about assaulting women. This is what his voters want.'
p817
S'12:18 PM - 6 Dec 2017'
p818
tp819
a(S'#russiaolympics Team Barred From 2018 Winter #Games For #doping https://goo.gl/9EqbrK\xc2\xa0 #teamdev #sports #Olympic #OlympicGames #Russia #TOKYOSKYTREE #Solamachi #NoRussiaNoGames #Putin #Finland100 #Collusion @FIFAWorldCup #TimelapseADay #VITAmission #RussiaGate #TrumpRussiapic.twitter.com/Sc7D6aecCm'
p820
S'12:18 PM - 6 Dec 2017'
p821
tp822
a(S"Collusion?  Trump+Russia?  NOT-it's Clinton Obama+FBI STILL colluding to impeach our duly elected President.  It's time to STAND UP America -- save our country!"
p823
S'12:17 PM - 6 Dec 2017'
p824
tp825
a(S"Slowly but surely the pieces come together, here's a potentially strong indicator as to why trump and his team might have colluded with Russia. You're going to be shocked, but it involves money! https://www.theguardian.com/us-news/2017/dec/06/michael-flynn-russia-sanctions-trump-inauguration\xc2\xa0\xe2\x80\xa6 #collusion #ImpeachTrump #Flynn #FlynnFlipped"
p826
S'12:16 PM - 6 Dec 2017'
p827
tp828
a(S'Grassley\n"Reporters say FBI official who watered down Comey stmt on Clinton emails AND started Russia \'collusion\' probe on Trump Campaign was fired frm Mueller team after DOJ watchdog found evidence of political bias. THIS IS WHY DOJ/FBI NEEDS OVERSIGHT Why don\'t dems agree?" 1/2 https://twitter.com/ChuckGrassley/status/938474128146927616\xc2\xa0\xe2\x80\xa6'
p829
S'12:15 PM - 6 Dec 2017'
p830
tp831
a(S'...but there was no "collusion" by anyone in the campaign with #Russia. #GreedyTurd #DonTheCon #ImpeachTrump'
p832
S'12:15 PM - 6 Dec 2017'
p833
tp834
a(S"He's making a lot of news in light of the FLYNN NEWS OF COLLUSION WITH RUSSIA that  will not go away anytime soon! https://twitter.com/AP/status/938497686927495168\xc2\xa0\xe2\x80\xa6"
p835
S'12:15 PM - 6 Dec 2017'
p836
tp837
a(S'@cbsnews @nbc @abc @cnn Jay Sekulow in another non-denial  denial, talks collusion between Trump/Russia. @kylegriffin1  you are on a ROLL. #altgov #theresistance #resisthttps://twitter.com/kylegriffin1/status/938079345909948418\xc2\xa0\xe2\x80\xa6'
p838
S'12:12 PM - 6 Dec 2017'
p839
tp840
a(S'Al Green is such a time waster! Why isn\xe2\x80\x99t he doing the job he was sent to Washington to do?? All he\xe2\x80\x99s doing is causing disunity & hatred. The President won fair & square, there\xe2\x80\x99s no collusion with Russia or any obstruction of justice. Get over it!!  TRUMP IS OUR PRESIDENT!!  '
p841
S'12:11 PM - 6 Dec 2017'
p842
tp843
a(S'This is the entirety of Russian collusion, Trumps admin was going to stop the sanctions that Obama imposed on Russia and for that Trump got the presidency and a cut to pay off his debts. So many \xe2\x80\x9ccoincidences\xe2\x80\x9d that the far right ignores on Trump/Russia https://twitter.com/abc/status/938494785521930241\xc2\xa0\xe2\x80\xa6'
p844
S'12:11 PM - 6 Dec 2017'
p845
tp846
a(S'OOJ- obstruction of justice. Flynn\xe2\x80\x99s confession on top of the piles of evidence that point to collusion in the election, lying to the government, and everything else it\xe2\x80\x99s a smoking gun. Trump literally said on national tv, I didn\xe2\x80\x99t tell Flynn to talk to Russia,'
p847
S'12:08 PM - 6 Dec 2017'
p848
tp849
a(S"It was pretty much obvious this would be his next move in the effort to deflect from the Russia collusion scandal. He's master of deflection. He's thirsty for a war."
p850
S'12:08 PM - 6 Dec 2017'
p851
tp852
a(S'Fire Mueller. No Russian collusion by Trump, but TONS of collusion between Russia and Obama, State Department pay for play, Clinton Foundation, UraniumONE,'
p853
S'12:07 PM - 6 Dec 2017'
p854
tp855
a(S"Essentially, Islam & Russia. But wait, that Russian collusion thing? Make up your mind, they're cozy or they're enemies, u can't decide."
p856
S'12:07 PM - 6 Dec 2017'
p857
tp858
a(S'Three pressing questions about Trump-Russia collusion that Donald Trump Jr. can answer\nhttp://wapo.st/2k1BTkn\xc2\xa0'
p859
S'12:05 PM - 6 Dec 2017'
p860
tp861
a(S'I agree. \n\nI\xe2\x80\x99d be in favor of moving the embassy if we had a legitimate president with a strong diplomatic team. \n\nBut we don\xe2\x80\x99t. \n\nWe have a compromised president who is stirring up irresponsible ideologues in order to distract everyone from his collusion with Russia. https://twitter.com/BettyMcCollum04/status/938471323801669632\xc2\xa0\xe2\x80\xa6'
p862
S'12:05 PM - 6 Dec 2017'
p863
tp864
a(S'@CNN Whistleblower on Flynn, any communications Flynn had with foreign nations after elections is a non-starter on Russia collusion with Trump campaign'
p865
S'12:04 PM - 6 Dec 2017'
p866
tp867
a(S"Congressman: Whistleblower alleges Flynn texted about Russia nuclear deal  - ABC News http://abcnews.go.com/Politics/whistleblower-alleges-flynn-texted-russia-nuclear-deal-inauguration/story?id=51621499\xc2\xa0\xe2\x80\xa6 (via @ABC)  Obviously there was collusion between Trump's team and Russia. That's why Trump's attorneys are trying to push the idea that the president is above the law."
p868
S'12:04 PM - 6 Dec 2017'
p869
tp870
a(S'Maybe this Russia-Republican-Trump-Pence-Putin collusion, espionage and treason will awaken the American Citizen in them and they will PROTECT & DEFEND THE CONSTITUTION.\n#GOP is an organized criminal racket.'
p871
S'12:04 PM - 6 Dec 2017'
p872
tp873
a(S"Asked @seanhannity to explain on TV how Flynn's secret plan to get rid of sanctions and work with Russia to build nuclear reactors in the Middle East wasn't collusion with Russia but a Deep State conspiracy to undermine the Trump presidency. Ordered by Obama. Paid by Soros."
p874
S'12:03 PM - 6 Dec 2017'
p875
tp876
a(S'It blows my mind to see so much corruption come to light and nothing happening except a Trump investigation on Russia collusion. WTF?'
p877
S'12:02 PM - 6 Dec 2017'
p878
tp879
a(S'Merry Christmas, Moron!\n\nStill No Crime!\nStill No Collusion!\n\nOpps! Yes, there is!\n\nALL the evidence shows\xe2\x80\xa6\n\nHillary Colluded With Russia! pic.twitter.com/gQB4VnQ6hB'
p880
S'12:01 PM - 6 Dec 2017'
p881
tp882
a(S'Feminists: "Porn is evil patriarchy created by Nazis and Russia collusion"\n\nManosphere: "Porn is evil, makes you go blind, and live in mom\'s basement"\n\nSilent majority:  responsible, moderate use of dangerous things is completely fucking normal...'
p883
S'12:00 PM - 6 Dec 2017'
p884
tp885
a(S"@realDonaldTrump \nRobert Mueller - Hypocrite of The Year! \nHe's Covering up Treason by smearing our President with Lies.\nThe Uranium they sold to Russia belonged to America, not the greedy, corrupt SOB's involved. The 33k emails were evidence exposing the Uranium Collusion,etc. pic.twitter.com/OdmDapGnvj"
p886
S'12:00 PM - 6 Dec 2017'
p887
tp888
a(S"Only a true #sociopath @realDonaldTrump would disrupt the peace process, as feeble as it is, in order to deflect from the tightening noose that is his admin's Russia Collusion all done because he's a #moneylaundererhttps://twitter.com/Lawrence/status/938470451088625664\xc2\xa0\xe2\x80\xa6"
p889
S'12:00 PM - 6 Dec 2017'
p890
tp891
a(S'Judicial Watch Sues for Records sent to Obama White House Official Susan Rice about Russia Collusion, Surveillance, Hacking Investigation, Unmasking of Trump Associates  https://www.judicialwatch.org/press-room/press-releases/judicial-watch-sues-records-obama-white-house-unmasking-trump-associates/\xc2\xa0\xe2\x80\xa6'
p892
S'12:00 PM - 6 Dec 2017'
p893
tp894
a(S'Whatever Flynn did it was after Trump was elected. Why he lied to the FBI is a mystery though...And still zero proof of any collusion by Trump with Russia , the original mandate of the investigation. Mueller severely compromised , should resign.'
p895
S'12:00 PM - 6 Dec 2017'
p896
tp897
a(S'Do you believe tweeting opinion pieces is worth more than the ongoing FBI investigation?#trump #usa #maga #fakenews #hypocrisy #politics #news #narcissist #selfish #jingoism #patriotic #nationalism #mueller #fbi #collusion #russia'
p898
S'11:58 AM - 6 Dec 2017'
p899
tp900
a(S'Does your retweet of this imply that you do value and follow evidence, where it may lead? #trump #usa #maga #fakenews #hypocrisy #politics #news #narcissist #selfish #jingoism #patriotic #nationalism #mueller #fbi #collusion #russia'
p901
S'11:57 AM - 6 Dec 2017'
p902
tp903
a(S'Bless It \nDid someone hurt your feelings with their "words"?\nHillaryPutin\nHillary/DNC = Russia Collusion \nCongratulations, YOU are a Russian Troll Bot '
p904
S'11:56 AM - 6 Dec 2017'
p905
tp906
a(S'Did we miss the Mueller investigation coming to an end? Are you in a position to declare the results of it? #trump #usa #maga #fakenews #hypocrisy #politics #news #narcissist #selfish #jingoism #patriotic #nationalism #mueller #fbi #collusion #russia'
p907
S'11:56 AM - 6 Dec 2017'
p908
tp909
a(S'Jfc, trump literally has so many ties to obstruction of justice, collusion with Russia etc. his tax cut bill helps nobody but the rich, literally everyone around him is falling aparT Tell me again why he should be president?  The list goes on bruh, u oblivious if you don\xe2\x80\x99t see it'
p910
S'11:56 AM - 6 Dec 2017'
p911
tp912
a(S'@USAGSessions lacks the level of leadership skills needed to restore the DOJ. Leaders that are too afraid to make a decision for fear of being wrong have no place in @realDonaldTrump #MAGA agenda. Get off your ass and go after the real Russia collusion! @USAGSessions ...NOW'
p913
S'11:56 AM - 6 Dec 2017'
p914
tp915
a(S"Hey I'm open to the possibility, but again until they have literally 1 piece of actual evidence to support collusion i.e. cheating the election with the help of Russia, you literally have nothing."
p916
S'11:54 AM - 6 Dec 2017'
p917
tp918
a(S"It probably won't continue much longer considering they have ZERO evidence of Russia collusion in election and they are being exposed for containing partisan hacks! Watch out for the Inspector General!"
p919
S'11:54 AM - 6 Dec 2017'
p920
tp921
a(S'Democrats PUSHING @DonaldJTrumpJr to testify on his fifteen minute meeting re ADOPTION with a #RUSSIA lawyer. Lol and HOPING to find #collusion\nDems DESPERATE\nNo Substance\nRed Herring pic.twitter.com/H1KDJVmpfh'
p922
S'11:52 AM - 6 Dec 2017'
p923
tp924
a(S'Does your reaction to this mean you believe anyone proved to be involved with collusion should be subject to consequences? #trump #usa #maga #fakenews #hypocrisy #politics #news #russia #collusion #ticktock'
p925
S'11:51 AM - 6 Dec 2017'
p926
tp927
a(S'When the Russia investigation reaches its conclusion that the only Russian collusion was between the Democrats and Russia, It is only right that Hillary and the DNC reimburse the government for the costs of a bogus witch hunt. Speaking of witches, how is Hillary lately? https://twitter.com/thebradfordfile/status/938263342317260800\xc2\xa0\xe2\x80\xa6'
p928
S'11:49 AM - 6 Dec 2017'
p929
tp930
a(S'I can honestly say @FoxNews @ShepNewsTeam from a former democratic supporter I ashamed and have lost all respect for our FBI ! The corruption within the Trump Russia collusion allegations is in complete disarray! The overwhelming evidence of bias should make all Americans worry'
p931
S'11:49 AM - 6 Dec 2017'
p932
tp933
a(S'Strzok signed off on the Trump Russia Collusion investigation...based off the phony Steele Dossier...paid for Clinton Campaign & DNC'
p934
S'11:49 AM - 6 Dec 2017'
p935
tp936
a(S'He\xe2\x80\x99ll do anything to distract from his corruption & collusion with Russia.'
p937
S'11:48 AM - 6 Dec 2017'
p938
tp939
a(S"I have seen & read so much about Hillary's & others' dealings with Russia that I do not feel any alarm over any so-called contacts with Russia involving Trump. So when did you start believing the Russian collusion theory, may I ask?"
p940
S'11:47 AM - 6 Dec 2017'
p941
tp942
a(S'Illegal occupation is a joke and a progressive lie that needs to finally be defeated.. just like all the other progressive lies out there ... Trump Russia Collusion bull shit ...'
p943
S'11:45 AM - 6 Dec 2017'
p944
tp945
a(S'Whistleblower alleges Flynn texted about Russia nuclear deal during inauguration, congressman says http://abcn.ws/2jlTDHY\xc2\xa0 \xe2\x99\xabIts beginning to look a lot like #Treason \xe2\x99\xab #PartyOverCountry Right @senrobportman ?  #Collusion #TrumpRussia'
p946
S'11:44 AM - 6 Dec 2017'
p947
tp948
a(S"I've had a feeling from the beginning that Obama imposed the sanctions partly as a way of flushing out Trump to effectively own up to collusion with Russia which he did by praising Putin for not retaliating in kind."
p949
S'11:44 AM - 6 Dec 2017'
p950
tp951
a(S'Nancy, Mr Rosenstein is the acting AG as Mr Sessions recused himself from all related investigations on Russia collusion. Director Mueller was appointed by and responds directly to the acting-AG Rosenstein!'
p952
S'11:43 AM - 6 Dec 2017'
p953
tp954
a(S'Wednesday-\n-The #MiddleEast is about to convulse\n-#Flynn wanted to rip up #Russia sanctions for greed\n-#Trump remains unfit, incompetent, and dangerous\n-#TrumpJr testifies and likely lies abt collusion \n-#GOP endorses a child molester \n-#California is \n-#Franken to resign'
p955
S'11:42 AM - 6 Dec 2017'
p956
tp957
a(S'If provable to be true and factual, it would pop a hole in the \xe2\x80\x9cno collusion/conspiracy with Russia\xe2\x80\x9d denials ... If Flynn IS \xe2\x80\x9cfully flipped\xe2\x80\x9d and cooperating with Mueller, and corroborates this information, Team Trump will have to hit the Re-Set Button ... again ... pic.twitter.com/rKJrWeliqu'
p958
S'11:42 AM - 6 Dec 2017'
p959
tp960
a(S'Shut this pointless Russia Collusion investigation down right now!!\nThe inmates are running the prison! #MAGA'
p961
S'11:41 AM - 6 Dec 2017'
p962
tp963
a(S"Just keep on believing everything you see on msm it's ok I don't blame you. Btw Flynn wasn't arrested for collusion he was arrested for lying. Him speaking to Russia while trump was pres elect was legal. Every president elect does it especially talking to other nuclear powers pic.twitter.com/Ri8TJp9vBw"
p964
S'11:41 AM - 6 Dec 2017'
p965
tp966
a(S'@FBI @TheJusticeDept DO YOUR JOB special prosecutor for corrupt Clinton, Comey, Lynch, Uranium One, Rice and Strzork. Stop the witch hunt in collusion with Russia you frickin idiots. https://twitter.com/dbongino/status/938485045949542400\xc2\xa0\xe2\x80\xa6'
p967
S'11:40 AM - 6 Dec 2017'
p968
tp969
a(S'More diversion from his collusion, money laundering, and Russia problems. The perv prez and his sleazy family are going to jail.'
p970
S'11:40 AM - 6 Dec 2017'
p971
tp972
a(S'Youre in for a huge disappointment. Impeachment will never come and there is no Russia collusion. Brace yourself.'
p973
S'11:40 AM - 6 Dec 2017'
p974
tp975
a(S"RUSSIA COLLUSION MORPHS INTO TRUMP DEUTSCHE BANK PROBE...\n\nMUELLER TEAM OUT OF CONTROL!!!\n\nNot 'Over by Thanksgiving': Robert Mueller Subpoenas Trump Family Records from Deutsche Bank - Breitbart http://bit.ly/2ASlF7Q\xc2\xa0 via @BreitbartNews #FireMueller #MeullerTeamOutOfControl"
p976
S'11:40 AM - 6 Dec 2017'
p977
tp978
a(S'D, you have nothing for russia. No proof. No collusion. Yet we have mountains of proof the @DNC is corrupt as scoliosis is crooked. Why don\xe2\x80\x99t you talk about that? If you hate corruption so much? Because your not fair. You don\xe2\x80\x99t call out everyone. Wrong is wrong'
p979
S'11:39 AM - 6 Dec 2017'
p980
tp981
a(S'#Jerusalem is not the story, #Kennedy #assassination not the story. The story remains #Russia #Russia #TrumpRussia #Collusion  Nothing will happen in #Jerusalem. Nice try traitor in chief of #Democracy\n#Russia #trumprussiacollusion #Jerusalem #israel #muellertime #Palestiniapic.twitter.com/q1bLLgPGu6'
p982
S'11:38 AM - 6 Dec 2017'
p983
tp984
a(S'RT thebradfordfile: The greatest witch hunt in human history--what happened to collusion with Russia? In America, a crime usually comes before an investigation. https://twitter.com/dcexaminer/status/938405440160980993\xc2\xa0\xe2\x80\xa6'
p985
S'11:37 AM - 6 Dec 2017'
p986
tp987
a(S". Why don't you really do your job and investigate Russia collusion and stop dragging your feet!"
p988
S'11:37 AM - 6 Dec 2017'
p989
tp990
a(S"Trump doesn't want peace... nothing will provide the distraction from the #Russia collusion like a conflict/war... It's happened before in other nations, we look as if we are on our way... For the good of our Nation and the world, #ImpeachTrumpNow before it's too late.https://twitter.com/AP/status/938488834798620672\xc2\xa0\xe2\x80\xa6"
p991
S'11:36 AM - 6 Dec 2017'
p992
tp993
a(S'two movies playing on the same screen. You had to use the Russia excuse to justify why in the world Trump beat your shitty candidate. There is nothing there, no obstruction for firing Comey, no collusion. And there will be a day when you realize it and move on, perhaps.'
p994
S'11:36 AM - 6 Dec 2017'
p995
tp996
a(S'As much as I agree with #RepAlGreen being a race-baiting, Nazi sympathizing, misogynist ignorant asshole is not a good enough reason to #ImpeachTrump. Working in collusion with #Russia and obstructing an ongoing investigation would remove #POTUSTrump.https://twitter.com/cspan/status/938464128582258690\xc2\xa0\xe2\x80\xa6'
p997
S'11:35 AM - 6 Dec 2017'
p998
tp999
a(S"I don't need you to lecture me.  I choose to believe that the Democrats and Left Wing Media are committing a smear job.  Want an example???  Look at the Russia collusion story.  Biggest smear job in history.  Going on for last 12+months"
p1000
S'11:35 AM - 6 Dec 2017'
p1001
tp1002
a(S"THE REAL COLLUSION: A former head of Poland\xe2\x80\x99s Military Counterintelligence Service was detained and being charged in connection with illegal cooperation with the RUSSIA's FSB, (Russia\xe2\x80\x99s Federal Security Service) http://thenews.pl/1/9/Artykul/338425,Former-Polish-intelligence-chief-detained\xc2\xa0\xe2\x80\xa6"
p1003
S'11:34 AM - 6 Dec 2017'
p1004
tp1005
a(S'Good on you Mr. Dumb.. Apparently you made this decision under the condition of pulling you out of the presidential collusion case with russia.'
p1006
S'11:34 AM - 6 Dec 2017'
p1007
tp1008
a(S"Socialist-Dems are clearing the moral- authority table so they can switch from Russia collusion to Sexual harassment.  Grasping Straw's..."
p1009
S'11:34 AM - 6 Dec 2017'
p1010
tp1011
a(S"Steny, sounds like you support #collusion between the Netanyahu Gov't & the Trump Campaign to engage Russia & undercut Obama Foreign Policy."
p1012
S'11:33 AM - 6 Dec 2017'
p1013
tp1014
a(S'The collusion with Israel is what you wish you had with Russia. But you just toss it aside because it goes against your agenda. Youre one sided. And the world is multi faceted in reality.'
p1015
S'11:33 AM - 6 Dec 2017'
p1016
tp1017
a(S'Absolutely agree! He wants a war to distract from his Russia collusion - disgusting man pic.twitter.com/7HH5yr90oG'
p1018
S'11:33 AM - 6 Dec 2017'
p1019
tp1020
a(S'Michael Flynn\xe2\x80\x99s Indictment Exposes Trump Team\xe2\x80\x99s Collusion With Israel, Not Russia http://www.alternet.org/grayzone-project/flynn-indictment-exposes-collusion-israel\xc2\xa0\xe2\x80\xa6'
p1021
S'11:32 AM - 6 Dec 2017'
p1022
tp1023
a(S"Exactly. He hasn't found any ounce of collusion so he is indicting people on crap that has nothing to do with Russia. #BusyGuy"
p1024
S'11:32 AM - 6 Dec 2017'
p1025
tp1026
a(S'American Patriot Daily \xe2\x80\x93 The FBI Was Caught Hiding One Secret About The Trump-Russia Collusion Dossier http://www.americanpatriotdaily.com/featured/fbi-caught-hiding-secret-about-trump-russia-collusion-dossier/\xc2\xa0\xe2\x80\xa6'
p1027
S'11:32 AM - 6 Dec 2017'
p1028
tp1029
a(S'.@RepAlGreen, be serious.  This is *completely* about the Democratic Party still upset that Clinton lost the election. There was no collusion with Russia.  President Trump constitutionality won, fair and square. Get over it! https://twitter.com/BlueSea1964/status/938392960995151872\xc2\xa0\xe2\x80\xa6'
p1030
S'11:32 AM - 6 Dec 2017'
p1031
tp1032
a(S"Much of the collusion between @realDonaldTrump and Russians was happening in plain sight, from trump's pleading with Russia to hack Clinton's emails to trying to end Russia sanctions."
p1033
S'11:32 AM - 6 Dec 2017'
p1034
tp1035
a(S"It also seems like tacit approval of Trump's #collusion with Russia for Israeli benefit. One senses that the ADL may have unfulfilled FARA obligations......"
p1036
S'11:31 AM - 6 Dec 2017'
p1037
tp1038
a(S"Cause if Trump and his following ARE mixed in collusion with Russia you wouldn't think it important to make it a priority and stop him?"
p1039
S'11:29 AM - 6 Dec 2017'
p1040
tp1041
a(S"There is a mix of all political parties in the FBI; they put country before party every damn day, defending us against forces that want to bring down democracy. It's a known fact that we were attacked by Russia and the Trump admin. has already admitted there was collusion."
p1042
S'11:29 AM - 6 Dec 2017'
p1043
tp1044
a(S'BABY   GROW UP ! NO RUSSIA  COLLUSION ....NO RUSSIA COLLUSION WITH THE PRESIDENT. Now look at FUSION GPS , FBI, CIA AND HILARY AND YOU LL FIND ALL THE COLLUSION WITH RUSSIANS IF YOU CAN HANDLE TRUTH!!!'
p1045
S'11:29 AM - 6 Dec 2017'
p1046
tp1047
a(S"You may want to read ALL of this Mate's articles; he seems an apologist. There was collusion with Russia AND others (Saudis, Israel, etc) but we shall see to what extent."
p1048
S'11:28 AM - 6 Dec 2017'
p1049
tp1050
a(S'The only question that remains is....why do liberals keep trying to obstruct looking for Russia collusion after all these months of finding nothing?'
p1051
S'11:27 AM - 6 Dec 2017'
p1052
tp1053
a(S"I'm very concerned that trump is only doing this because he still thinks he can work with Russia to install nuclear power plants across the MIddle East and make a big profit.  #collusion\nhttps://www.nytimes.com/2017/12/06/us/politics/michael-flynn-russia-sanctions-ripped-up-whistleblower.html\xc2\xa0\xe2\x80\xa6"
p1054
S'11:27 AM - 6 Dec 2017'
p1055
tp1056
a(S'Putting the pieces of this puzzle together, I speculate that the ATF and FBI are exercising search warrants on the FBI in Quantico (PrWmCty) and this info will bring Mueller and Comey down without Trump having to fire him from the Russia Collusion investigation. What say you?'
p1057
S'11:27 AM - 6 Dec 2017'
p1058
tp1059
a(S'Exactly he wants a distraction from his Russia collusion!'
p1060
S'11:27 AM - 6 Dec 2017'
p1061
tp1062
a(S"He's worried that if the lid blows off this Russia thing, his emails showing he's complicit in collusion might see the light of day, being that Russia also hacked the RNC but did not release anything."
p1063
S'11:25 AM - 6 Dec 2017'
p1064
tp1065
a(S'American Patriot Daily \xe2\x80\x93 The FBI Was Caught Hiding One Secret About The Trump-Russia Collusion Dossier http://www.americanpatriotdaily.com/featured/fbi-caught-hiding-secret-about-trump-russia-collusion-dossier/\xc2\xa0\xe2\x80\xa6'
p1066
S'11:24 AM - 6 Dec 2017'
p1067
tp1068
a(S'Anything to distract from the Russia connections. And I do mean ANYTHING. Oh and past Presidents didn\xe2\x80\x99t have the courage? What you mean is, they were infinitely smarter than you and didn\xe2\x80\x99t have hostile govt (read: Russian) collusion hanging over their heads.'
p1069
S'11:22 AM - 6 Dec 2017'
p1070
tp1071
a(S'#TrumpRussia the #coverup is falling apart #collusion #ObstructionOfJustice #MuellerTime Flynn told former business associate that Russia sanctions would be \xe2\x80\x98ripped up,\xe2\x80\x99 according to congressional witness http://wapo.st/2jmc6nv?tid=ss_tw&utm_term=.2ef7d685abb7\xc2\xa0\xe2\x80\xa6'
p1072
S'11:21 AM - 6 Dec 2017'
p1073
tp1074
a(S'Breaking: FBI Wrong About Trump Collusion with Russia https://www.veteranstoday.com/2017/12/06/fbi-wrong-about-trump-collusion-with-russia/\xc2\xa0\xe2\x80\xa6'
p1075
S'11:21 AM - 6 Dec 2017'
p1076
tp1077
a(S"@TimesofIsrael Trumps dramatic announcement re Jerusalem is  phony. Another  crude distractions attempt, albeit a desperate one.  He hopes uproar will  distract from Donald Jr's questioning today by the senate intelligence committee looking into election collusion with Russia."
p1078
S'11:20 AM - 6 Dec 2017'
p1079
tp1080
a(S'Joy Behar Takes the Bait on Trump-Russia Collusion Story, But What Followed Next is Amazing [VIDEO] http://theconservativeteam.com/joy-behar-takes-the-bait-on-trump-russia-collusion-story-but-what-followed-next-is-amazing-video/\xc2\xa0\xe2\x80\xa6  This view from the lying view of pigs.'
p1081
S'11:19 AM - 6 Dec 2017'
p1082
tp1083
a(S"Michael Flynn's Indictment Exposes Trump Team's Collusion With Israel, Not Russia | Via Alternet https://www.alternet.org/grayzone-project/flynn-indictment-exposes-collusion-israel#.Wig-_9kHsXQ.twitter\xc2\xa0\xe2\x80\xa6"
p1084
S'11:18 AM - 6 Dec 2017'
p1085
tp1086
a(S'I agree with him too.\nBut the real question is why do we need to be outraged about a possible collusion with Russia and is this relationship and the one with SA just regular practice?'
p1087
S'11:18 AM - 6 Dec 2017'
p1088
tp1089
a(S'@WilkowMajority if Ben Rhodes had a hand in the Benghazi it was a video narrative, can it be proven that he is behind the Russia Russia collusion narrative? Are Democrats taking a page out of the Council on Foreign Relations who determine what history will be for the next year?'
p1090
S'11:17 AM - 6 Dec 2017'
p1091
tp1092
a(S'Analysis | Three pressing questions about Trump-Russia collusion that Donald Trump Jr. can answer http://wapo.st/2k1BTkn?tid=ss_tw&utm_term=.d18fa131664d\xc2\xa0\xe2\x80\xa6'
p1093
S'11:17 AM - 6 Dec 2017'
p1094
tp1095
a(S'Still waiting on Russia/Trump collusion. pic.twitter.com/jJ1zhyL83S'
p1096
S'11:15 AM - 6 Dec 2017'
p1097
tp1098
a(S'Mueller & his slack ass self wasting OUR damn tax money right now on IDIOT Russia COLLUSION. I thought after it was proven to be a fake made Trump dossier, the probe would be forced closed BUT bc SO MANY AGAINST POTUS it was not dropped!!! This is who is against POTUS pic.twitter.com/L3SdWaycuk'
p1099
S'11:14 AM - 6 Dec 2017'
p1100
tp1101
a(S"Trump supporters r right. Collusion isn't a legal term BUT Manafort was colluding w/Russia possibly up till last Thurs. Indictment included tax fraud, money laundering, failure to register as a foreign agent etc. Do you supporters NOW get how collusion leads to criminal charges?"
p1102
S'11:13 AM - 6 Dec 2017'
p1103
tp1104
a(S'"Flynn\'s mistake [...] was to lie to the FBI time and time again, just being a serial liar. [...][F]rom the standpoint of someone trying to prove #Trump #Russia collusion or the overall narrative of #RussiaGate, this one is another dud" @MaxBlumenthal http://therealnews.com/t2/index.php?option=com_content&task=view&id=767&Itemid=74&jumival=20622\xc2\xa0\xe2\x80\xa6pic.twitter.com/m0Ba7BHiTi'
p1105
S'11:11 AM - 6 Dec 2017'
p1106
tp1107
a(S'DIVERT, DISTRACT, DEFLECT, 6 month DELAY laughable!\nANOTHER ANEMIC ATTEMPT FROM 45 to DIVERT ATTENTION FROM the Flynn NEWS of a secret understanding between Russia & 45 Admin. \nCOLLUSION: a secret agreement, especially for fraudulent or treacherous purposes; conspiracy https://twitter.com/nytimes/status/938478640349745155\xc2\xa0\xe2\x80\xa6'
p1108
S'11:11 AM - 6 Dec 2017'
p1109
tp1110
a(S'Plus, collusion with Russia was actually good for America, plus Hillary did worse, etc. Treason: trading US interests for personal favors'
p1111
S'11:11 AM - 6 Dec 2017'
p1112
tp1113
a(S'Better than hacking Hillary and her phelgm ball of rotten bile and snot. IIlegitimate how?By the pikachu spell that mesmerized millions to go to the voting booths and vote for Trump? \nKeep waiting for that Russia collusion delusion to materialize..lol https://twitter.com/NakedHorse123/status/938484857314746368\xc2\xa0\xe2\x80\xa6'
p1114
S'11:10 AM - 6 Dec 2017'
p1115
tp1116
a(S'More #fakenews from comrade #Jackass!!\nObama enacted ridiculous sanctions on Russia just before leaving office (unprecedented interference) in a lame attempt to set up General Flynn with the appearance of "collusion"..\n#PatheticObama !!https://twitter.com/funder/status/938481326147194882\xc2\xa0\xe2\x80\xa6'
p1117
S'11:10 AM - 6 Dec 2017'
p1118
tp1119
a(S'Second: If you insist meeting a Russian citizen with nebulous \xe2\x80\x9dlinks\xe2\x80\x9d to Kremlin is contact with Russia, then yes, but no collusion.\n\nThird: If you insist that a willingness to accept info from Kremlin linked Russians is \xe2\x80\x9ccollusion\xe2\x80\x9d, then yes, but no quid pro quo, so no crime.'
p1120
S'11:08 AM - 6 Dec 2017'
p1121
tp1122
a(S'After Flynn\xe2\x80\x99s comments today, @realDonaldTrump\xe2\x80\x99s refusal to implement Russia Sanctions is proof of collusion. #MuellerTime #FlynnFlipped #TrumpRussiaCollusion #trumprussia'
p1123
S'11:07 AM - 6 Dec 2017'
p1124
tp1125
a(S'Michael Flynn told former business associate that Russia sanctions would be \xe2\x80\x98ripped up,\xe2\x80\x99 congressional witness said\nhttp://wapo.st/2jnU2tx\xc2\xa0\nBut, but, but....No Collusion!'
p1126
S'11:06 AM - 6 Dec 2017'
p1127
tp1128
a(S"time to pay Trump back by attacking the fake Trump Russia collusion story and the witch hunt against Trump.. otherwise he won't be able to implement this move."
p1129
S'11:06 AM - 6 Dec 2017'
p1130
tp1131
a(S'Collusion: Secret Meetings, Dirty Money, and How Russia Helped Donald Trump W... https://www.amazon.com/dp/0525562516/ref=cm_sw_r_tw_dp_U_x_99dkAbT84V7AC\xc2\xa0\xe2\x80\xa6 via @amazon'
p1132
S'11:06 AM - 6 Dec 2017'
p1133
tp1134
a(S'@DonaldJTrumpJr are you having fun in Washington D.C. today? #Russia #liar #collusion #emails #encryption #dummy'
p1135
S'11:05 AM - 6 Dec 2017'
p1136
tp1137
a(S'Do you mean the Obama-Russia "collusion"?'
p1138
S'11:04 AM - 6 Dec 2017'
p1139
tp1140
a(S"Rachel Marsden: Flynn's plea deal reveals collusion, but not with Russia http://www.chicagotribune.com/news/columnists/sns-201712051333--tms--amvoicesctnav-a20171205-20171205-column.html\xc2\xa0\xe2\x80\xa6"
p1141
S'11:03 AM - 6 Dec 2017'
p1142
tp1143
a(S'No collusion between Trump campaign and #Russia  The real collusion is between those covering up #Clinton crimes and those attacking #Trump'
p1144
S'11:02 AM - 6 Dec 2017'
p1145
tp1146
a(S"Using the word collusion is confusing people. \n\nLet's keep it simple:Was the ripping up of sanctions the reward for Russia's help in the election?"
p1147
S'11:02 AM - 6 Dec 2017'
p1148
tp1149
a(S'I was promised treasonous collusion with Russia to steal an election, not treasonous collusion with Russia to steal an election.'
p1150
S'11:02 AM - 6 Dec 2017'
p1151
tp1152
a(S"Trump, along with his son in law, continues his 'collusion' with Israel, but lets concentrate on Russia everyone... "
p1153
S'11:01 AM - 6 Dec 2017'
p1154
tp1155
a(S'"After a massive public backlash, news stories about his collusion with Russia, and new laws introduced by Congress, Mr. Trump decided - on his own - not to withdraw Russia sanctions." https://twitter.com/NatashaBertrand/status/938477069712969729\xc2\xa0\xe2\x80\xa6'
p1156
S'11:01 AM - 6 Dec 2017'
p1157
tp1158
a(S'All this does is confirm that contact between Trump and Russia didn\xe2\x80\x99t come until after the election. There is still no evidence of collusion.'
p1159
S'11:00 AM - 6 Dec 2017'
p1160
tp1161
a.