(lp0
(S'Did Lindsey Graham lie too?\n\nAnd WHOSE military are you referring to, exactly, because you\xe2\x80\x99ve repeatedly dissed ours. Then there\xe2\x80\x99s the whole collusion with Russia. That\xe2\x80\x99s not very pro- US military either. https://twitter.com/realDonaldTrump/status/953000902331453442\xc2\xa0\xe2\x80\xa6'
p1
S'3:16 PM - 15 Jan 2018'
p2
tp3
a(S"The Russia investigation may not reveal anything about collusion until they find the first person playing hide the salami with someone's else's husband or wife. Then the house of cards will come tumbling down and everything will be in the open to incl cosplay in the admin"
p4
S'3:59 PM - 15 Jan 2018'
p5
tp6
a(S'Dems want to shut down gov. Anything to distract from Russia Collusion, Hillary indictment, classified emails. Did they arrange the Hawaiian \'Wrong Button\' incident as a distraction?? Alinsky,  \'Rules for Rebels\' no 1, "Never let a good crisis go to waste."'
p7
S'3:54 PM - 15 Jan 2018'
p8
tp9
a(S'More racism, religious bigotry, class warfare and collusion with Russia from you traitors?'
p10
S'3:49 PM - 15 Jan 2018'
p11
tp12
a(S'What happened to CNN 24hrs Trump Russia collusion? pic.twitter.com/Y4IeBHPnJV'
p13
S'3:47 PM - 15 Jan 2018'
p14
tp15
a(S"Trump's Real Crime is Collusion with Israel, NOT Russia, and Covering It Up http://russia-insider.com:80/en/trumps-real-crime-collusion-israel-not-russia-and-covering-it/ri22166russia-insider.com/en/trumps-real\xc2\xa0\xe2\x80\xa6"
p16
S'3:47 PM - 15 Jan 2018'
p17
tp18
a(S'This is your daily reminder that our RACIST president of the United States is under FBI investigation for COLLUSION WITH RUSSIA IN OUR ELECTION'
p19
S'3:45 PM - 15 Jan 2018'
p20
tp21
a(S'CIA FINALLY OPENS UP ON RUSSIA - COLLUSION, OBAMA AND HILLARY ROUGHLY EX... https://youtu.be/ay78goSPQ54\xc2\xa0 via @YouTube subscribe and share'
p22
S'3:44 PM - 15 Jan 2018'
p23
tp24
a(S'What? We\xe2\x80\x99re NOT talking about Trump\xe2\x80\x99s collusion with Russia? His mental unfitness? His racism? I don\xe2\x80\x99t understand!'
p25
S'3:42 PM - 15 Jan 2018'
p26
tp27
a(S'Poor #MuellerInvestigation  - it has to be incredibly difficult to connect all of the dots these incredible Russia/China/Trump/Collusion/Theft/Conspiracy.'
p28
S'3:41 PM - 15 Jan 2018'
p29
tp30
a(S'CNN (Collusion Not-News) Tabloid was paid by Fusion GPS to spread the fake Christopher Steele dossier. This reprehensible spread of lies must be stopped for our democracy to be successful! Russia is still at it colluding with the DNC in the spreading of lies! https://twitter.com/mAtticusFinch82/status/953023890174947333\xc2\xa0\xe2\x80\xa6'
p31
S'3:40 PM - 15 Jan 2018'
p32
tp33
a(S'@Russia  & @wikileaks #Hack @DNC Calling The US Kettle Black  No Position To Criticize Anyone #Crimea #Syria   And @POTUS #RobertMuller #HouseSenateInvestigation #RussiaGate @VladimirPutin #Collusion #Conspiracy #Treason #RussiaMoneyLaundering #Sedition #FederalPrison #Hypocrite'
p34
S'3:38 PM - 15 Jan 2018'
p35
tp36
a(S'You only wish the Russia collusion thing was a hoax. I guess all the people that got arrested so far that were connected to you was fake too.'
p37
S'3:36 PM - 15 Jan 2018'
p38
tp39
a(S'Real #news not the #fakenews on @CNN @MSNBC @CBSNews @NBCNews @ABC It seems the truth is the real collusion is between Democrats Crooks & Russia not Trump & Russia https://twitter.com/FoxNews/status/952561010442940416\xc2\xa0\xe2\x80\xa6'
p40
S'3:31 PM - 15 Jan 2018'
p41
tp42
a(S'Check this thread. The Trump Russia collusion case grows thick. #ImpeachTrump and take back our country for the good of the people, not just the rich.https://twitter.com/teapainusa/status/952026925479989250\xc2\xa0\xe2\x80\xa6'
p43
S'3:31 PM - 15 Jan 2018'
p44
tp45
a(S'I\'ve said since the first "Russia Collusion!" apoplexy of the Democrat media complex gushed forth that it makes no sense that Russia & OPEC would prefer the US to be run by a pro-drilling, pro-fracking President NOT hobbled by climate change guilt. \n\nhttp://www.tabletmag.com/jewish-news-and-politics/253004/fusion-gps-donald-trump\xc2\xa0\xe2\x80\xa6'
p46
S'3:27 PM - 15 Jan 2018'
p47
tp48
a(S'Noise?  So Extreme Racism, Sexual Misconduct, Severe (&obvious) Mental Illness, Provoking Nuclear War, (Treasonous) Collusion w Russia, Sheer Stupidity - this all "Noise"?  BE BETTER'
p49
S'3:27 PM - 15 Jan 2018'
p50
tp51
a(S'IMAGINE THE PUBLIC HEARING ONCE AGAIN A ONE SIDED LIBERAL SLANTED STORY AFTER NO PROOF OF THE FABRICATED RUSSIA COLLUSION STORY.  WHILE THE MEDIA ENJOYS THESE, THE PUBLIC IS TIRED OF THE BS. https://twitter.com/EHolmes/status/953022236008398848\xc2\xa0\xe2\x80\xa6'
p52
S'3:26 PM - 15 Jan 2018'
p53
tp54
a(S'Hey y\xe2\x80\x99all what happened to Russia collusion? pic.twitter.com/Zz4qsZryKH'
p55
S'3:24 PM - 15 Jan 2018'
p56
tp57
a(S"The collusion was clearly, blatantly, criminally between Obama's top intel chiefs, their lackeys, Hillary & her campaign, FusionGPS...and.... RUSSIA.  This is a scandal-plex dwarfing Watergate and Iran Contra into particle sized kerfuffles.\nhttp://www.tabletmag.com/jewish-news-and-politics/253004/fusion-gps-donald-trump\xc2\xa0\xe2\x80\xa6"
p58
S'3:23 PM - 15 Jan 2018'
p59
tp60
a(S"Trump's Real Crime is Collusion with Israel, NOT Russia, and Covering It Up http://russia-insider.com/en/node/22166#.Wl1AMygt8q8.twitter\xc2\xa0\xe2\x80\xa6"
p61
S'3:58 PM - 15 Jan 2018'
p62
tp63
a(S'Trey Gowdy tears into leaker Adam Schiff over Trump-Russia collusion claims http://po.st/oTVr79\xc2\xa0 via @worldnetdaily'
p64
S'3:23 PM - 15 Jan 2018'
p65
tp66
a(S'There is no collusion! Russia did this on their own, they want a puppet in office. Trump is not that smart. However, there was/is money laundering...he\xe2\x80\x99s been getting money from Russia since 2004...He is involved /part of the Russia Mafia.'
p67
S'3:23 PM - 15 Jan 2018'
p68
tp69
a(S'This is why the \xe2\x80\x9cRussia collusion\xe2\x80\x9d narrative is so dangerous.  It\xe2\x80\x99s bogus but the deterioration in U.S.-Russia relations is real.'
p70
S'3:22 PM - 15 Jan 2018'
p71
tp72
a(S"Nunez just stated, after being cleared, that there was NO COLLUSION on Trump's part. He may be taking over the Russia investigation, completely."
p73
S'3:22 PM - 15 Jan 2018'
p74
tp75
a(S'No doubt that Russia wanted to sow the seeds of confusion, but the Russian collusion story came from Fusion. https://theconservativetreehouse.com/\xc2\xa0'
p76
S'3:21 PM - 15 Jan 2018'
p77
tp78
a(S'This will not fare well with them during the midterms. Americans are sick of this. Everyone has grown weary with the resistance, Russia Russia Russia, collusion collusion collusion. Enough!!! https://twitter.com/geraldorivera/status/952980748914610177\xc2\xa0\xe2\x80\xa6'
p79
S'3:18 PM - 15 Jan 2018'
p80
tp81
a(S"Hard to get attention of the media. In June before election I tried in vain to get media to cover Russia collusion but it they didn't until it served them. Hard for some individual to get attention but keep trying. Call your Reps in House & Senate too. Very important & VOTE!"
p82
S'3:18 PM - 15 Jan 2018'
p83
tp84
a(S'It will increase in the Search and you for the Military are NO collusion between Trump/Russia has\xe2\x80\xa6'
p85
S'3:17 PM - 15 Jan 2018'
p86
tp87
a(S'What the hell does the military have todo with anything? You will do anything to signal to your bottom feeding followers AND distract from the Russia investigation! Yeah, we know , \xe2\x80\x9cNo Collusion,\xe2\x80\x9d blah, blah blah!'
p88
S'3:13 PM - 15 Jan 2018'
p89
tp90
a(S"That is a narrative that was created to work off the propagated cold war thought processes. No different then the trump collusion bullshit. She in no way is associated to the country of russia and she's never met or spoke to the kremlin. She's has no Russian ties at all, none."
p91
S'3:13 PM - 15 Jan 2018'
p92
tp93
a(S"Russia collusion delusion: not going anywhere.\nObstruction of justice: forget it!\n25th amendment: it's a joke!\nImpeachment: not going to happen.\nWolff's book: already forgotten!\nLet's try racism now! haha \nPathetic liberals!"
p94
S'3:08 PM - 15 Jan 2018'
p95
tp96
a(S'THE PLAN: 3rd World Gov\xe2\x80\x99t Corruption Americans would never discover OR STOP when Hillary got elected. Whoops! 1)Associate in Hillary Clinton Uranium One Russian Bribery Case INDICTED 2)Fusion-Clinton-RUSSIA-Obama & HIS FBI/DOJ(leadership)-collusion! Jail! http://bit.ly/2EDzViW\xc2\xa0pic.twitter.com/ibccsgTLuV'
p97
S'3:08 PM - 15 Jan 2018'
p98
tp99
a(S"You have a long way to go for redemption. Throwing the election - even unwittingly - while knowing of @realDonaldTrump's likely #collusion with #Russia was the ultimate act of hubris. Until he's out of office without nuclear calamity, it's on you. https://twitter.com/Comey/status/952935580400222216\xc2\xa0\xe2\x80\xa6"
p100
S'3:07 PM - 15 Jan 2018'
p101
tp102
a(S'\xe2\x80\x9cThere is evidence of Hillary and the Democrat Party collusion with Russia, but no evidence of any kind with Trump and Russia.\xe2\x80\x9d - Rush Limbaugh'
p103
S'3:05 PM - 15 Jan 2018'
p104
tp105
a(S'AND STILL NO EVIDENCE OF COLLUSION WITH RUSSIA.  LET ME KNOW WHEN GET SOMETHING.  SINCE THAT FABRICATED STORY DOESNT HAVE LEGS, GUESS WE ARE ON TO SOME SILLY STORY ABOUT A CHINESE BUSINESS WOMAN.  KEEP TRYING.  SOMETHING MIGHT STICK ONE DAY.  DOUBT IT. https://twitter.com/mlcalderone/status/953038390856966144\xc2\xa0\xe2\x80\xa6'
p106
S'3:04 PM - 15 Jan 2018'
p107
tp108
a(S"Very strange thread. Anti-Trump McLaughlin takes selective points from Feinstein's opinionated document. Spends the entire tweet trying to give Fusion GPS, Steele, Simpson credibility while maintaining zero proof Russia Trump collusion. No wonder Liberals are so lost"
p109
S'3:01 PM - 15 Jan 2018'
p110
tp111
a(S'Obama\xe2\x80\x99s CIA Targeted Trump Through Social Media, \xe2\x80\x98Friends\xe2\x80\x99 Required Russia Collusion Lie Spread http://russia.trendolizer.com/2018/01/obamas-cia-targeted-trump-through-social-media-friends-required-russia-collusion-lie-spread.html\xc2\xa0\xe2\x80\xa6pic.twitter.com/xQJkv4W7BF'
p112
S'3:01 PM - 15 Jan 2018'
p113
tp114
a(S'Quick, tell CNN that Putin likes strawberry yogurt so they can look into Trump/Russia strawberry collusion pic.twitter.com/nL2VVbp72N'
p115
S'3:01 PM - 15 Jan 2018'
p116
tp117
a(S"Trump uses 'no collusion' 7 times in a single Russia answer. \nThe dotard doth protest too much, methinks. \nhttp://www.cnn.com/2018/01/10/politics/trump-no-collusion/index.html\xc2\xa0\xe2\x80\xa6"
p118
S'2:59 PM - 15 Jan 2018'
p119
tp120
a(S'NOPE The Trump Russia collusion narrative has been debunked, madam Never-President started it. She actually colluded with Russians. She\xe2\x80\x99s too much of a coward to tell her truth.'
p121
S'2:58 PM - 15 Jan 2018'
p122
tp123
a(S'Please explain why the DNC would not allow justice to verify the breach in their system was done by Russia or operatives thereof?  It\xe2\x80\x99ll true we would not still be asking questions about collusion.'
p124
S'2:57 PM - 15 Jan 2018'
p125
tp126
a(S'Well let\'s see....there is no collusion, except between hillary, obama, and Russia. There is no "trump tax." And how about you all be grown ups and support trump, like you demanded we do for obama?'
p127
S'2:56 PM - 15 Jan 2018'
p128
tp129
a(S'Always more Russia collusion.  It will be an entirely different political landscape by the end of the year. Are you really not feeling it? pic.twitter.com/DUpO6jyqle'
p130
S'2:54 PM - 15 Jan 2018'
p131
tp132
a(S'And then the FBI got a fisa warrant to spy on Canada Trump with that fake dossier that Hillary Clinton paid Fusion GPS to get from the Russians. That started this investigation to begin with. That is where your real Russia collusion is in an attempt to destroy candidate Trump'
p133
S'2:52 PM - 15 Jan 2018'
p134
tp135
a(S'@realDonaldTrump If the only collusion between Trump/Russia has\xe2\x80\xa6 https://twitter.com/i/web/status/951106475254059008\xc2\xa0\xe2\x80\xa6'
p136
S'2:47 PM - 15 Jan 2018'
p137
tp138
a(S"I wonder how much russian PAC money cotton and purdue received?  We'll find out soon enough, which is why these traitors are trying to bury the trump/russia collusion as much as possible. Really nice for a US vet."
p139
S'2:44 PM - 15 Jan 2018'
p140
tp141
a(S"I'm from Massachusetts. This is the guy that the people my state elected over and over until he died. Political collusion with Russia isn't anything new. http://bit.ly/2DhDG1a\xc2\xa0"
p142
S'2:38 PM - 15 Jan 2018'
p143
tp144
a(S'Wait until @JesseBWatters hears about the 2016 Presidential election collusion with Russia!! https://twitter.com/foxnews/status/953027029972258818\xc2\xa0\xe2\x80\xa6'
p145
S'2:33 PM - 15 Jan 2018'
p146
tp147
a(S'Lol... \xe2\x80\x9cevidence.\xe2\x80\x9d\n\nYou have hopes and dreams while ignoring the reality that Hillary and Obama were/are a million times over guilty of corruption and collusion with Russia and terror sponsoring nations while you fantasize about putting them back in power to do more of the same.'
p148
S'2:32 PM - 15 Jan 2018'
p149
tp150
a(S"Yes, how cunning that $100k of Russian Facebook ads undid Hillary's $1.3 billion dollar campaign. Terrible campaigner, as I said. \n\nBut now that some serious charges have come down on Uranium One - well, I'm also interested in Hillary-Russia collusion. Life comes at you fast."
p151
S'2:32 PM - 15 Jan 2018'
p152
tp153
a(S'Since Dems love Russia conspiracies so much, think about this: Chelsea have top secret documents to foreign agents, Obama commuted his sentence, now running for Senate... You want collusion? I give you Chelsea Manning! https://twitter.com/CNNPolitics/status/952907757006610432\xc2\xa0\xe2\x80\xa6'
p154
S'2:32 PM - 15 Jan 2018'
p155
tp156
a(S'An Indictment About Collusion With Russia Was Hillary Clinton\xe2\x80\x99s Worst Nightmare http://greatamericandaily.com/indictment-collusion-russia-hillary-clintons/\xc2\xa0\xe2\x80\xa6'
p157
S'2:20 PM - 15 Jan 2018'
p158
tp159
a(S'#FBI agents spied on, hounded and lied about #Dr. #King. Those who did so were dirty cops, a label that ex-FBI Assistant Director #JamesKallstrom applied to #JamesComey. "Comey is a dirty cop," Kallstrom said of Comey\'s conduct in the #HillaryClinton and #Russia collusion probes.'
p160
S'2:14 PM - 15 Jan 2018'
p161
tp162
a(S"ICYMI: Obama's CIA Targeted Trump Through Social Media, 'Friends' Required Russia Collusion Lie Spread http://dld.bz/g6tE5\xc2\xa0"
p163
S'2:14 PM - 15 Jan 2018'
p164
tp165
a(S'The First of many indictments in the UraniumOne Investigation handed down.\n\nThere was collusion between Russia & America.'
p166
S'2:12 PM - 15 Jan 2018'
p167
tp168
a(S'Excellent thread.  Strongly recommend for better understanding of \xe2\x80\x9cfollow the \xe2\x80\x9d research into GOP collusion w/Russia & campaign donations. https://twitter.com/undercover0000/status/953014226028675072\xc2\xa0\xe2\x80\xa6'
p169
S'2:08 PM - 15 Jan 2018'
p170
tp171
a(S'Why Does CNN & Other Fake News Media Cover The Trump.Russia Collusion Nothing Burger But Ignore The Big Fat Juicy Tripple Meat Patty Clinton Burger?\n@realdonaldtrump\nhttps://i.imgur.com/CKRTe4N.jpg\xc2\xa0'
p172
S'2:08 PM - 15 Jan 2018'
p173
tp174
a(S'Political Russian Nesting Dolls @HillaryClinton @realDonaldTrump #RobGoldstone @jaredkushner @DonaldJTrumpJr #MagnitskyAct @PaulManafort #NataliaVeselnitskaya #Russia #RussiaLawyer #COLLUSION pic.twitter.com/rhscobxhyG'
p175
S'2:07 PM - 15 Jan 2018'
p176
tp177
a(S"Republicans don't seem to care that there has been a collusion w/ Russia by POTUS & family or that Russians interfered in our election process or that we have a White Racist POTUS or that Jared still can do whatever the hell he wants to. Hear no evil, speak no evil see no evil"
p178
S'1:54 PM - 15 Jan 2018'
p179
tp180
a(S'https://youtu.be/2sctSxSdhPU\xc2\xa0 Stop the madness!! Trump Russia collusion!!#stoptrumpmegladon IMPEACH'
p181
S'1:50 PM - 15 Jan 2018'
p182
tp183
a(S"You'll probably find them cross-referenced under many of the same keywords: Republican, GOP, Congress, White House, Trump, collusion, Russia, loans, campaigns, fraud, birther, denial, anti-science, pro-life, immigrants, wall, Obamacare is a disaster, deep cuts, entitlements, etc."
p184
S'1:50 PM - 15 Jan 2018'
p185
tp186
a(S"There is no sense debating with a MSM brainwashed puppet. When they start with collusion, it's mere comedy. The only collusion was MSM and dems.MSM campaigned for HC.24/7 support for her and yet they lost.Their answer Trump/Russia hacked and changed 43 mil votes. Libs=lunatics"
p187
S'1:48 PM - 15 Jan 2018'
p188
tp189
a(S'Stick to your position Mr. President!  The truth from several perspectives has been put out there.  This is because the Democrats actions associated with Russia and the FBI are bigger than Watergate.  Push for new Special Counsel for investigating election collusion by DNC & FBI'
p190
S'1:46 PM - 15 Jan 2018'
p191
tp192
a(S'Imagine, if for every minute CNN spent on the Russia Collusion dellusion with no evidence they spent 30 seconds on Clinton/Obama Uranium 1, FISA 702 FBI/DOJ Clinton/Lynch tarmac meeting etc.'
p193
S'1:45 PM - 15 Jan 2018'
p194
tp195
a(S"Is this from #RT (Russia Today)? Weird how they're so appalled by the prospect of Russian collusion, then parrot Russian style propoganda."
p196
S'1:44 PM - 15 Jan 2018'
p197
tp198
a(S'You still on that Russia thing. You do realize that the only evidence of any collusion with Russia is with the democrats. pic.twitter.com/C9noagJTuF'
p199
S'1:43 PM - 15 Jan 2018'
p200
tp201
a(S'he has been doing his own investigation on the Russia collusion has come out and said it was democrats who colluded with Russia then blames the president and his team.Obama spying and unmasking thousands is the breaking story'
p202
S'1:43 PM - 15 Jan 2018'
p203
tp204
a(S'It may clear up the Russia probe in that this "big find" is not about collusion.'
p205
S'1:43 PM - 15 Jan 2018'
p206
tp207
a(S'so your concern with Trump is not his racism, his collusion with Russia, his money laundering schemes, or his constant trampling of the Constitution, but how he fucking phrases things?'
p208
S'1:42 PM - 15 Jan 2018'
p209
tp210
a(S'You are a sorry embarrassment to this country.  Seems all you have is Impeach 45 & Russia, Russia, Russia nothing of intelligence, dignity, or respect. We remember your collusion during the housing crises, FRAUD, I believe was what was going on, you remember, One United!'
p211
S'1:39 PM - 15 Jan 2018'
p212
tp213
a(S'This entire "Russia collusion" is BECAUSE of Hillary. I know that you snowflakes WISH it was about Trump but wishing something to be true doesn\'t necessarily make it true. Remove your liberal blinders'
p214
S'1:38 PM - 15 Jan 2018'
p215
tp216
a(S"The only area the prosecution needs to focus on is money laundering. Forget Collusion. Forget Putin. Forget Russia. Forget the campaign. Just money laundering. Paying cash for homes and then taking out loans on the property to clean the dirty cash. That's treason enough. https://twitter.com/CNN/status/953015139543941122\xc2\xa0\xe2\x80\xa6"
p217
S'1:36 PM - 15 Jan 2018'
p218
tp219
a(S"@SenateGOP @HouseGOP Don't let his insane racist statements, demented tweets, childish nicknames & porn star affairs distract you from his collusion w Russia to undermine our elections. IMPEACH this traitor now! @SenateDems @HouseDemocrats We can't wait till Nov 2018! @JoyAnnReid pic.twitter.com/PODMiCIBpB"
p220
S'1:35 PM - 15 Jan 2018'
p221
tp222
a(S'Russia... Collusion...lol'
p223
S'1:34 PM - 15 Jan 2018'
p224
tp225
a(S"Whacky Donald Trump. Time is running out for you. It's only a matter of time and the truth will be out. Collusion collusion between you and Russia"
p226
S'1:34 PM - 15 Jan 2018'
p227
tp228
a(S"Trump's Real Crime is Collusion with Israel, NOT Russia, and Covering It Up http://russia-insider.com/en/node/22166#.Wl0d7CTaZo8.twitter\xc2\xa0\xe2\x80\xa6"
p229
S'1:32 PM - 15 Jan 2018'
p230
tp231
a(S"Nope. Mueller can pursue whatever crimes he uncovers, as \nthere are no legal or ethical reasons for him to turn a blind eye if he discovers indications of misconduct that are unrelated to the Russia inquiry. Collusion isn't even a legal term."
p232
S'1:30 PM - 15 Jan 2018'
p233
tp234
a(S'This trial has very little to do if anything with the Russia probe. Wrongdoing was discovered while looking into Mantafort and Gates regarding Russian collusion, but charges date back to 2013 and are related to unscrupulous business dealings unrelated to @realDonaldTrump campaign'
p235
S'1:28 PM - 15 Jan 2018'
p236
tp237
a(S'Hold each other, within your own media outlet accountable.\nRadical left wing media don\xe2\x80\x99t like to expose democrat corruption, that\xe2\x80\x99s how the whole Russia collusion started\nBTW name calling and insults  is not journalism, it\xe2\x80\x99s a gossip channel #MorningJoe\n#MLKDay #MondayMotivationpic.twitter.com/eXZ7ZS6ICi'
p238
S'1:26 PM - 15 Jan 2018'
p239
tp240
a(S'NPR: \xe2\x80\x9cBannon\xe2\x80\xa6set to testify\xe2\x80\xa6before the House Intelligence Committee about the Russia imbroglio\xe2\x80\xa6he thinks much-discussed June 2016 Trump Tower meeting may have been \xe2\x80\x98treasonous.\xe2\x80\x99\xe2\x80\x9d\n\n#conservative #stevebannon #news #donaldtrump #russia #politics #blog #collusion #usa #GOP #law'
p241
S'1:25 PM - 15 Jan 2018'
p242
tp243
a(S'Although not surprising that the CIA would push the Russia collusion theory, enlisting weirdo Moby\xe2\x80\x99s help sounds even weirder.\nWho else the spy agency enlisted? \nPudgee tha Phat Bastard or \nBlaze Ya Dead Homie! http://www.foxnews.com/entertainment/2018/01/13/moby-claims-cia-asked-him-to-post-about-trump-and-russia.html\xc2\xa0\xe2\x80\xa6'
p244
S'1:24 PM - 15 Jan 2018'
p245
tp246
a(S'Disingenuous. Enabler. You blindly support the #RacistInChief. You worship him despite serial lies, serial adultery with PORN stars, corrupted governing and appointments, and despite, or maybe because of, his collusion with Russia.  You are a sick little man.'
p247
S'1:23 PM - 15 Jan 2018'
p248
tp249
a(S"Where there's smoke..#COLLUSION @TheDemocrats @realDonaldTrump #Russia pic.twitter.com/oOdsS0iFnV"
p250
S'1:23 PM - 15 Jan 2018'
p251
tp252
a(S"Are they STILL supporters after all they've seen over the past year? Even some of my Trump supporting friends are beginning to pay attention to the news reports of Trump/Russia collusion."
p253
S'1:21 PM - 15 Jan 2018'
p254
tp255
a(S'Whenever you talk about the Democratic party or the Rhinos, refer to them now as the Russian Collusion Party or #RCP.  The RCP is all about Russia. They have Russia on the brain 24 x 7. They converted MSM into Russian Propaganda TV! https://twitter.com/hrenee80/status/952370844474408960\xc2\xa0\xe2\x80\xa6'
p256
S'1:20 PM - 15 Jan 2018'
p257
tp258
a(S'@NancyPelosi THE REAL RUSSIA COLLUSION an indictment pic.twitter.com/klYMLutsYR'
p259
S'1:18 PM - 15 Jan 2018'
p260
tp261
a(S"it only makes no sense to you.  \n\n1.) If you watch entire Mattis speech note the longer discussion on Russia's issues\n2.) Russia wants disorder in the US, fact\n3.) Get it's wish with crooked hillary win & email leaks; or\n4.) Get it's wish with made-up Trump collusion tale"
p262
S'1:17 PM - 15 Jan 2018'
p263
tp264
a(S'Collusion with Russia is the only reason these Awards exist. He is trying desperately to change the subject to protect his tiny ratings meltdown.'
p265
S'1:17 PM - 15 Jan 2018'
p266
tp267
a(S'@HillaryClinton now we are talking the real Russia collusion pic.twitter.com/h6ubHuFGun'
p268
S'1:16 PM - 15 Jan 2018'
p269
tp270
a(S'Blockbuster Musician Claims CIA Asked Him to Spread Story About Trump Collusion With Russia http://joemiller.us/?p=166529\xc2\xa0'
p271
S'1:16 PM - 15 Jan 2018'
p272
tp273
a(S'Apparently I was blocked by @LoriJSchaffer for pointing out there is no evidence for Russia/Trump collusion. She responded, but her response has nothing to do with Russia/Trump collusion. Guess that\xe2\x80\x99s why I was blocked?'
p274
S'1:16 PM - 15 Jan 2018'
p275
tp276
a(S'I reject that idea where Trump is concerned as he has in many places kept his campaign promises but is also hampered by a gotcha media and the going to get you Russia collusion campaign the last two hindering his performance plus sending up a smoke screen in-front of a mirror!'
p277
S'1:14 PM - 15 Jan 2018'
p278
tp279
a(S"as it turns out everything they have accused Trump of doing  is actually what they themselves are doing. Example is Russia collusion. Trumps EO. on Dec 21st is all you need to know to see what side he's on. why didn't Obama make this order over last 8 years?"
p280
S'1:11 PM - 15 Jan 2018'
p281
tp282
a(S'Syrian/Russian collusion in violating sanctions #putin #olgino #trolls #fsb #putin #oligarchs #russia #syria #assad #cyberspetsnas #fakenewshttp://ow.ly/OrTp30hLOxs\xc2\xa0'
p283
S'1:10 PM - 15 Jan 2018'
p284
tp285
a(S'Rock star singer Moby says CIA asked him to tweet Trump Russia collusion narrative, because of he has a large number of followers on social media. \n\nTrue or not, this whole thing is getting ridiculous! https://twitter.com/FoxNews/status/952267682178506752\xc2\xa0\xe2\x80\xa6'
p286
S'1:08 PM - 15 Jan 2018'
p287
tp288
a(S"Trump says 'no Russian collusion'. If so, why has there been NO retalliation for Russia cyberattacking us? NONE. But fire Sally Yates over Flynn collusion & gonna give Russia classified intel the day after firing the man investigating Russian collusion. Seriously?!? pic.twitter.com/Nbl875ZqUK"
p289
S'1:03 PM - 15 Jan 2018'
p290
tp291
a(S"Oh absolutely ( I don't think she will be charged). If Mueller finds collusion he's out. But will you also agree if Mueller doesn't find anything, you'll be a voice of reason against the constant Russia collusion narrative."
p292
S'1:03 PM - 15 Jan 2018'
p293
tp294
a(S'How\xe2\x80\x99s the Russia/Trump collusion working out? Been over a year of intense investigation, still haven\xe2\x80\x99t heard any proof??'
p295
S'12:52 PM - 15 Jan 2018'
p296
tp297
a(S"This is the best effort I've seen on the Russia collusion front: https://billmoyers.com/story/trump-russia-timeline/\xc2\xa0\xe2\x80\xa6"
p298
S'12:46 PM - 15 Jan 2018'
p299
tp300
a(S'LOL, I am informed enough to know there is still zero evidence to show any illegal collusion between Trump and Russia.  You will eat crow soon enough.'
p301
S'12:42 PM - 15 Jan 2018'
p302
tp303
a(S'Dems accusing Jill Stein and Chelsea Manning of collusion with Russia. Desperate much?'
p304
S'12:37 PM - 15 Jan 2018'
p305
tp306
a(S'Trump, a pathological liar, says there was no collusion with Russia.  Believe the opposite and find the truth. There was.'
p307
S'12:35 PM - 15 Jan 2018'
p308
tp309
a(S'@POTUS acceptance speech he extended an olive branch and then by Friday the #Russia collusion had started and has not ended, @JohnLewis calls him illegitimate to this day, GOP never called for impeachment for 12 months and will try if they win congress so please come clean'
p310
S'12:35 PM - 15 Jan 2018'
p311
tp312
a(S"I keep hoping indictments will snap people back to reality. Repubs actually think, and will tell you, Hillary, and all Dems will go to prison for collusion with Russia. Maybe some will, and should, I'm ok with that. The country needs desperately a reality check, and soon."
p313
S'12:35 PM - 15 Jan 2018'
p314
tp315
a(S'More proof CIA + DEMS linked up in 2016 to create "fake story" alleging Trump-Russia collusion------     ------http://www.daretoreadit.com/60301/more-proof-cia-+-dems-linked-up-in-2016-to-create-fake-story-alleging-trump-russia-collusion\xc2\xa0\xe2\x80\xa6'
p316
S'12:33 PM - 15 Jan 2018'
p317
tp318
a(S'Hey, leftists! So, do you still think President Trump is guilty of corruption and collusion with Russia, or are... https://fb.me/88YomJPor\xc2\xa0'
p319
S'12:30 PM - 15 Jan 2018'
p320
tp321
a(S'You know there is zero evidence of Russia WikiLeaks collusion? Empty assessments made by 3 intelligence agencies (NSA only moderately) based on the findings of a biased company with conflicts of interests (CrowdStrike)'
p322
S'12:30 PM - 15 Jan 2018'
p323
tp324
a(S'The real news is: Hillary & Obama\xe2\x80\x99s Uranium One & Dossier/FISA spying, treasonous Russia collusion scandals. Trump\xe2\x80\x99s snowflake-melting descriptor words are just a distraction. #CallingAShitholeAShithole'
p325
S'12:25 PM - 15 Jan 2018'
p326
tp327
a(S"Trump's Real Crime is Collusion with Israel, NOT Russia, and Covering It Up https://fb.me/5f29PbrPu\xc2\xa0"
p328
S'12:21 PM - 15 Jan 2018'
p329
tp330
a(S"Talking about Russia in terms of Trump's coziness, financial interests and possible collusion in the election is where the Russia discussion should stay. U don't extend it to everybody and everything or it becomes meaningless."
p331
S'12:21 PM - 15 Jan 2018'
p332
tp333
a(S"That's a false equivalence! Trump was lying about Obama's birth certificate, but there's loads of circumstantial evidence of collusion with Russia. How do u explain all of the secret meetings w/ Russian officials then lying about it?"
p334
S'12:19 PM - 15 Jan 2018'
p335
tp336
a(S'They have yet 2 find any direct Russian interference w/the election machines or collusion w/the Trump campaign. All they got is Russian hackers giving Podesta\xe2\x80\x99s emails 2 Wikileaks. Not even HRC\xe2\x80\x99s! & Trump telling Russia \xe2\x80\x9cgo find them\xe2\x80\x9d, so what? U think it swayed anyone? '
p337
S'12:19 PM - 15 Jan 2018'
p338
tp339
a(S'How to tamp down Trump-Russia Collusion Hysteria: \n\n1: Appoint SC and/or bring more indictments for Hillary/Dem collusion with Russia re #UraniumOne and #SteeleDossier\n\n2: Dems can\xe2\x80\x99t say \xe2\x80\x9cFBI/DOJ must be trusted/can\xe2\x80\x99t be criticized\xe2\x80\x9d\n\n3. Lack of evidence must then be acknowledged'
p340
S'12:17 PM - 15 Jan 2018'
p341
tp342
a(S'DJT is a traitor to the USA...\nTrump collusion with Russia to defeat our election system? YES! https://twitter.com/RedTRaccoon/status/952598179475853312\xc2\xa0\xe2\x80\xa6'
p343
S'12:16 PM - 15 Jan 2018'
p344
tp345
a(S'President Trump being a racist is as true as the collusion with Russia. Next.....\n#MAGA'
p346
S'12:15 PM - 15 Jan 2018'
p347
tp348
a(S'Leading Dems including Feinstein have said they see a great deal of evidence of collusion between @realDonaldTrump &Russia.This conclusion of anybody who follows Russia investigation in news.Scandal continues to widen as channels of secret cooperation between Trump &Russia emerge'
p349
S'12:15 PM - 15 Jan 2018'
p350
tp351
a(S'LOL!\n16 months of flat out lying to viewers, pushing a false Russia Collusion narrative despite ZERO evidence of it & totally ignoring all the REAL crimes uncovered in regards to Obama Admin, Clintons & certain FBI/DoJ officials is what put their "standards" into question'
p352
S'12:14 PM - 15 Jan 2018'
p353
tp354
a(S"Trump's Real Crime is Collusion with Israel, NOT Russia, and Covering It Up http://russia-insider.com/en/node/22166#.Wl0LWXHfSuc.twitter\xc2\xa0\xe2\x80\xa6"
p355
S'12:13 PM - 15 Jan 2018'
p356
tp357
a(S'Moby\'s "CIA Friends" Asked Him To Spread Word Of Trump-Russia Collusion On Facebook  https://www.zerohedge.com/news/2018-01-13/moby-cia-told-me-trump-manchurian-candidate\xc2\xa0\xe2\x80\xa6'
p358
S'12:11 PM - 15 Jan 2018'
p359
tp360
a(S'No evidence of collusion with Russia, China are allowed to build hundreds of coal plants, the US aren\xe2\x80\x99t.The US are one of the highest taxed nations in the world, more people watched my inauguration than ever before, millions involved in voter fraud,Flynn didn\xe2\x80\x99t do anything wrong'
p361
S'12:10 PM - 15 Jan 2018'
p362
tp363
a(S'Breitbart\xe2\x80\x99s SiriusXM radio hosts Andrew Wilcow, Mark Levin etc. haven\xe2\x80\x99t been wrong yet. Predicted the Trump win based on their own sources. Said from the get go that Russia Collusion probe would not effect Trump, but actually circle back to Clinton\xe2\x80\x99s Fusion GPS ties.#PatriotRadio'
p364
S'12:07 PM - 15 Jan 2018'
p365
tp366
a(S'Dumb, Racist white guy, and how did he get where he is.. collusion with Russia https://twitter.com/RealMuckmaker/status/952982527593005057\xc2\xa0\xe2\x80\xa6'
p367
S'12:06 PM - 15 Jan 2018'
p368
tp369
a(S'They will never find a Trump-Russia collusion because there never was one. All the collusion with Russia was on the democrat side with Uranium One is an example'
p370
S'12:05 PM - 15 Jan 2018'
p371
tp372
a(S'You have been obsessed with Russia, right? The DOJ unsealed the indictment of Mark Lambert, involving bribing Russians & uranium. We have real collusion with the Russians and you and the media'
p373
S'12:04 PM - 15 Jan 2018'
p374
tp375
a(S"The #GreenParty stigma isn't nearly as bad as the #Democrat stigma (murder, suicide, fake dossier, deleted emails, Russia collusion, media collusion, shaddow banning, bribes, money laundering, FBI spying, DOJ on the tarmac, goes on & on & on) https://twitter.com/VikingInFL/status/952318292789735424\xc2\xa0\xe2\x80\xa6"
p376
S'12:00 PM - 15 Jan 2018'
p377
tp378
a(S'No more Russian collusion? How about racism? #potus is no longer a puppet for Russia; he is now a racist. Supported by facts? Nope, just gossip like Russian collusion. #fakenews #RussianCollusion #TrumpIsARacist'
p379
S'11:58 AM - 15 Jan 2018'
p380
tp381
a(S"Cornyn: Any Trump-Russia COLLUSION means Trump's son-in-law,"
p382
S'11:58 AM - 15 Jan 2018'
p383
tp384
a(S'Get your head out of the sand the only debunked conspiracy theory is Trump Russia Collusion.'
p385
S'11:56 AM - 15 Jan 2018'
p386
tp387
a(S'Absent for inauguratioin\nAbsent for tax cuts\nAbsent for regulation cuts\nAbsent for calling BS on Russia collusion\nAbsent for lowering Black and Hispanic unemployment\nAbsent for eliminating Obamacare\nAbsent for Making America Great Again\n\nWhy change now?\nhttp://www.thegatewaypundit.com/2018/01/frederica-rodeo-clown-wilson-joins-black-democrat-lawmakers-boycotting-trumps-state-union-address/\xc2\xa0\xe2\x80\xa6'
p388
S'11:56 AM - 15 Jan 2018'
p389
tp390
a(S'Transparent? The same party defending collusion with Russia.'
p391
S'11:55 AM - 15 Jan 2018'
p392
tp393
a(S"Mike, Russia wanted Clinton to win because they had her controlled through U1 scandal. They didn't want Trump to win so no collusion there. Certainly with Clinton though."
p394
S'11:55 AM - 15 Jan 2018'
p395
tp396
a(S'Blockbuster Musician Claims CIA Asked Him to Spread Story About Trump Collusion With Russia http://joemiller.us/?p=166529\xc2\xa0'
p397
S'11:52 AM - 15 Jan 2018'
p398
tp399
a(S'I\xe2\x80\x99ve seen that guy! The Russia collusion is a new addition tho.'
p400
S'11:48 AM - 15 Jan 2018'
p401
tp402
a(S'Rand Paul Fox News...   When Is Someone Going To Grab Some Balls ..\nAnd Show America Where The Real Russia Collusion Is??  \nhttps://twitter.com/Nigel_Farage/status/930368687638564864\xc2\xa0\xe2\x80\xa6'
p403
S'11:47 AM - 15 Jan 2018'
p404
tp405
a(S'This story makes our country just as stupid as the Trump/Russia FALSE claim of collusion. It looks like we can\xe2\x80\x99t elect a leader without the help of a foreign entity. SAD!!'
p406
S'11:43 AM - 15 Jan 2018'
p407
tp408
a(S'If @MichelleObama , @Oprah or @SenSanders  want a candidacy for #2020 they have to start now destroying everything that tries to trump and in any way support the research on the Trump-Russia collusion in 2016.'
p409
S'11:42 AM - 15 Jan 2018'
p410
tp411
a(S'This Trump/Russia collusion conspiracy thing is going down the drain. Here comes the second act. pic.twitter.com/nCZEhg5V9u'
p412
S'11:40 AM - 15 Jan 2018'
p413
tp414
a(S'To my knowledge Blumenthal has not downplayed the danger of hacking but insisted we see some actual evidence for the theory that Russia did it, let alone that they did it in collusion with the Trump campaign.'
p415
S'11:39 AM - 15 Jan 2018'
p416
tp417
a(S'Fox may be pushing that evidence-thin conspiracy theory but most other major news orgs are pushing a similarly evidence-free conspiracy theory that Russia did it in order to help and possibly even in collusion with Trump. \n\nThe evidence for either theory is underwhelming.'
p418
S'11:38 AM - 15 Jan 2018'
p419
tp420
a(S'Yes, MSM pounded away at "HRC is an opportunist, aligned w/ Goldman Sachs & globalists" but if that\'s yr critique how do u not see Trump is robbing this country blind through violation of #EmolumentsClause & through his collusion w/ Russia. Plus 1/2 is cabinet is @GoldmanSachs!'
p421
S'11:38 AM - 15 Jan 2018'
p422
tp423
a(S'You didn\xe2\x80\x99t catch the reference. \xe2\x80\x9cMuh Russia!\xe2\x80\x9d doesn\xe2\x80\x99t refer to the real country of Russia. It is shorthand for the Russia Collusion Hoax that US media has been pushing 24/7 since Nov 2016, despite a total lack of evidence.'
p424
S'11:36 AM - 15 Jan 2018'
p425
tp426
a(S'Russia Collusion?....No one believes it anymore so give it a rest , its all played out!'
p427
S'11:33 AM - 15 Jan 2018'
p428
tp429
a(S"Trump's Real Crime is Collusion with Israel, NOT Russia, and Covering It Up http://russia-insider.com/en/node/22166#.Wl0BsqkE13I.twitter\xc2\xa0\xe2\x80\xa6"
p430
S'11:32 AM - 15 Jan 2018'
p431
tp432
a(S'1st you CRIED about\nSexual abuse 2nd you CRIED #Russia\n3rd you JUST CRIED & Scream@the Sky 4th you CRIED #Collusion 5th you CRIED #Mueller 6th you CRIED #Impeachment 7th you CRIED #Racism\n#KeepCryingSnowflakes+BELOW\nALL TRIED TO STOP  @POTUS& FAILED(Not included is FBI & Obama)pic.twitter.com/75GT9w6b5V'
p433
S'11:30 AM - 15 Jan 2018'
p434
tp435
a(S'The only reason 45 would say "I am not a racist" is because he is a RACIST. 45 days " there is no collusion" and I am guessing it\' s because he and family/associates colluded with RUSSIA &/or he will get caught with something about $$$$ funding his business. https://twitter.com/K_JeanPierre/status/952701123181383680\xc2\xa0\xe2\x80\xa6'
p436
S'11:29 AM - 15 Jan 2018'
p437
tp438
a(S'Singer Moby Says CIA Told Him to Post Russia Collusion Stories on Social Media https://pjmedia.com/trending/singer-moby-says-cia-told-post-russia-collusion-stories-social-media/\xc2\xa0\xe2\x80\xa6'
p439
S'11:28 AM - 15 Jan 2018'
p440
tp441
a(S'Moby Bizarrely Claims the CIA Asked Him to Push Trump-Russia Collusion Hysteria (AUDIO) http://www.thegatewaypundit.com/2018/01/moby-bizarrely-claims-cia-asked-push-trump-russia/\xc2\xa0\xe2\x80\xa6'
p442
S'11:27 AM - 15 Jan 2018'
p443
tp444
a(S"Senator Feinstein has released the transcript.  You should really read it.  It was a Republican who first hired Fusion GPS.  There were concerned about Trump's collusion with Russia.  Quit trying to destroy the character of a British agent for your own selfish agenda."
p445
S'11:24 AM - 15 Jan 2018'
p446
tp447
a(S"What does @RepAndyHarrisMD say about Trump's racism?\nWhat does @RepAndyHarrisMD say about Trump campaign's treasonous collusion with Russia?\nWhat does @RepAndyHarrisMD say about economic inequality in America?pic.twitter.com/7rEhyXM3to"
p448
S'11:23 AM - 15 Jan 2018'
p449
tp450
a(S'Trump CANNOT stop lying: \xe2\x80\x9cVirtually every Democrat has said there is no collusion.  Feinstein the other day on television saying there is no collusion.\xe2\x80\x9d  Feinstein has said nothing of the sort. All leading Democrats have said they have seen collusion between Trump and Russia.'
p451
S'11:23 AM - 15 Jan 2018'
p452
tp453
a(S"Chris Matthews: Trump-Russia collusion theory 'came apart' with Comey testimony http://ref.gl/2ioRLO8Y\xc2\xa0"
p454
S'11:21 AM - 15 Jan 2018'
p455
tp456
a(S"Ha! Dodging the military must run in Trump's DNA. His father was arrested at a KKK meeting in NYC. Wow! What a bloodline this guy has. Mueller will get him for collusion, obstruction, and definitely money laundering with Russia. He'll be gone one way."
p457
S'11:16 AM - 15 Jan 2018'
p458
tp459
a(S'Media outlets are falling in line to blast the Russian Dossier as adulterated BS. Diane Feinstein, NYT and others doing these best to soften the blow, trying to turn it into a noble cause gone bad. It was all a lie from beginning & they knew it. Zero collusion with Russia proven'
p460
S'11:16 AM - 15 Jan 2018'
p461
tp462
a(S"The I think is what the Mueller investigation will reveal. Campaign collusion with Russia...think that it happened but as result of ignorance on Trump's people's actions. Still illegal but ... https://twitter.com/maria0358/status/948686655661232129\xc2\xa0\xe2\x80\xa6"
p463
S'11:15 AM - 15 Jan 2018'
p464
tp465
a(S'SHE WILL GET TO THE BOTTOM OF THE SETH RICH POLITICAL ASSASINATION RIGHT AFTER SHE PROVES NO RUSSIA COLLUSION, NO PUPPET'
p466
S'11:12 AM - 15 Jan 2018'
p467
tp468
a(S'NO COLLUSION OF RUSSIA AND TRUMP IS NOTHING BUT A FARCE BECAUSE NG IMPLIMENTED BY THE SHITHOLE DEMOCRATS. SOME LIKE FEINSTEIN HAD REAPETEDLY SAID NO COLLUSION BY TRUMP. BUT SOME STILL STICKING WITH IT LIKE TICKS ON A DOG\nHILARIOUS..'
p469
S'11:11 AM - 15 Jan 2018'
p470
tp471
a(S'Over a year into the "Russia collusion" investigation, one of two things is certain. NO collusion or Mueller\'s team is incompetant. @POTUS'
p472
S'11:11 AM - 15 Jan 2018'
p473
tp474
a(S'He will probably get the Hawaii state gov  job to run the investigation into Trump Russia collusion. After all he is really good at pushing fake buttons'
p475
S'11:08 AM - 15 Jan 2018'
p476
tp477
a(S"Of course he's not but you have nothing else better to say cause the Russia collusion hasn't materialized, well it has but not to your advantage.  Put the card away it's played out."
p478
S'11:08 AM - 15 Jan 2018'
p479
tp480
a(S"Trump's Real Crime is Collusion with Israel, NOT Russia, and Covering It Up https://fb.me/8LYqSCeta\xc2\xa0"
p481
S'11:06 AM - 15 Jan 2018'
p482
tp483
a(S"Ok so never mind what the Clinton's did again. And stop with the Russia collusion stuff it just turned on the Dems. Oh no! Deflect! Deflect!"
p484
S'11:05 AM - 15 Jan 2018'
p485
tp486
a(S'@HARRISFAULKNER If the goal is to have faith in the election process &the constitution of the U.S. then why the hell isn\xe2\x80\x99t the HRC emails uranium one pay to play and dossier along with FISA warrant investigated more fully!? Why push this nauseating over beaten Russia collusion!?'
p487
S'11:04 AM - 15 Jan 2018'
p488
tp489
a(S"according to the left:\n\nAssange=Russia/Putin\nBrad worked w/ Assange\nBrad worked w/ Russia/Putin (colluded)\n\nmuh Russia... (collusion)\n\nIf that's ok w/ them, then why have we wasted the last year foaming at the mouth & screaming at the sky?"
p490
S'11:04 AM - 15 Jan 2018'
p491
tp492
a(S'Bamboozled by \xe2\x80\x9cMuh Russia!\xe2\x80\x9d 18 mos of screaming headlines, not one piece of actual evidence of actual collusion.'
p493
S'10:59 AM - 15 Jan 2018'
p494
tp495
a(S'Why do i feel like no one here even knows who Peter Strzok is,or why it\'s so important he was brought to light? HE basically ruined your entire investigation into the "trump/ Russia collusion single handedly. And showed that you investigations have been rigged.'
p496
S'10:57 AM - 15 Jan 2018'
p497
tp498
a(S'UNDOUBTEDLY! Obama & Hillary Clinton WILL BE ARRESTED for this! https://youtu.be/BgfzTWyFtWQ\xc2\xa0 via @YouTube, ALL THE DEMS GOT NOTHING. NADA WITH THIER RUSSIA COLLUSION SO GET OVER IT  HEADS WILL ROLL SOON BUT NOT SOON ENOUGH'
p499
S'10:55 AM - 15 Jan 2018'
p500
tp501
a(S'And yet given every reason to impeach from violations of emoluments, collusion with Russia, sexism, paying off hookers, sending frightening Tweets and blatant racism, the spineless GOP continue to enable him.'
p502
S'10:55 AM - 15 Jan 2018'
p503
tp504
a(S'Not that bizarre. These people are capable of anything to turn a LIE into "truth." #RussiaCollusion\n\nMoby Bizarrely Claims the CIA Asked Him to Push Trump-Russia Collusion Hysteria (AUDIO) http://thegatewaypundit.com/2018/01/moby-bizarrely-claims-cia-asked-push-trump-russia/\xc2\xa0\xe2\x80\xa6'
p505
S'10:54 AM - 15 Jan 2018'
p506
tp507
a(S"Trump's Real Crime is Collusion with Israel, NOT Russia, and Covering It Up http://russia-insider.com/en/node/22166#.Wlz4gOHyocU.twitter\xc2\xa0\xe2\x80\xa6"
p508
S'10:52 AM - 15 Jan 2018'
p509
tp510
a(S'The Russia Scandal Is Looking More Like Watergate All the Time\n(Heck Watergate was just a break in. Collusion/Collaboration with Putin is a bit worse.)\nhttp://prospect.org/article/russia-scandal-looking-more-watergate-all-time\xc2\xa0\xe2\x80\xa6'
p511
S'10:47 AM - 15 Jan 2018'
p512
tp513
a(S'First of all, there is no criminal code for \xe2\x80\x9ccollusion.\xe2\x80\x9d  Next, the whole Russia mess was a set up by HRC, Fusion GPS and the DNC...lets let them explain their rolls first, then we can come back to @POTUS to explain why the Dems set him up.'
p514
S'10:45 AM - 15 Jan 2018'
p515
tp516
a(S"It's a conservative newspaper *editorially*. The journalists on the news side, however, do tremendous work and have broken some important stories about Russia/Trump collusion. The separation of church and state in newsrooms, between editorial and the news, is not uncommon."
p517
S'10:39 AM - 15 Jan 2018'
p518
tp519
a(S"Uemployment rates-like Carrier, AT&T, Coal mining (1000), Walmart, etc.? Russia admitted to election tampering. Our intelligence agencies admitted to Russia election tampering. What don't you get? Conspiracy not collusion."
p520
S'10:38 AM - 15 Jan 2018'
p521
tp522
a(S'All the others r a result of Russia collusion so if you want me to choose only one it\xe2\x80\x99s collusion as it opened the door to the hell were in'
p523
S'10:35 AM - 15 Jan 2018'
p524
tp525
a(S'I\xe2\x80\x99m embarrassed for conservatives that this debunked story is their last best chance to distract everyone from Trump\xe2\x80\x99s collusion with Russia.'
p526
S'10:35 AM - 15 Jan 2018'
p527
tp528
a(S'I often wonder why exactly they still keep pushing their bogus russia collusion claims. What are they so afraid of? What would happen if they didn\xe2\x80\x99t constantly push this narrative? I don\xe2\x80\x99t believe they actually believe it themselves.'
p529
S'10:28 AM - 15 Jan 2018'
p530
tp531
a(S"@CNN @wolfblitzer Russia is playing us...relations have not deteriorated - collusion with Trump to throw us off the scent - don't believe the hype...."
p532
S'10:27 AM - 15 Jan 2018'
p533
tp534
a(S'@RepAdamSchiff\n\nAdam may I suggest becoming a whistleblower is the only option concerning the current leak investigations or the Russia collusion via Trump.\n\nThings R coming down the pike soon that shall run right thru u... Just advice later that u may look back on in regret...'
p535
S'10:26 AM - 15 Jan 2018'
p536
tp537
a(S'OTHER BREAKING NEWS.....No Russia collusion, except by HRC and CF. HRC uses Govt to spy on political candidate after fixing primary. HRC uses CF to funnel millions in pay for play scams across the world...ACTUAL COLLUSION by Obama, Holder, Lynch, Orrs, McCabe, Comey FBI DOJ  !!!'
p538
S'10:12 AM - 15 Jan 2018'
p539
tp540
a(S'The Real l Russia Collusion investigation is just starting, and it looks like a bunch of liberals are going to federal prison.  I hope Mueller, and his band of liberal bigots, from the FBI and DOJ,  are among the first to go to Gitmo.'
p541
S'10:12 AM - 15 Jan 2018'
p542
tp543
a(S'and whenever news breaks over the russia collusion, every news organization is talking about it EXCEPT fox news'
p544
S'10:11 AM - 15 Jan 2018'
p545
tp546
a(S'i\xe2\x80\x99m not saying Sanders can do/did no wrong, no one is capable of that. but i am saying i wish there was more of a taking responsibility attitude instead of reflecting blame. honestly, the bigger issue is Trump-Russia collusion.'
p547
S'10:09 AM - 15 Jan 2018'
p548
tp549
a(S'My 10 year old grand daughter said the same thing when she heard Trump speak those words. He is now admitted to being a racist and collusion with Russia because he is .......'
p550
S'10:06 AM - 15 Jan 2018'
p551
tp552
a(S'Watching a Documentary on Russia/Trump collusion! They keep saying that the Russia HAD help to know what states to target (Insert Trump) According to EVERY news report, they had Hillary at 98% in EVERYSTATE she lost! How was he feeding them if he had NO chance of winning?'
p553
S'10:06 AM - 15 Jan 2018'
p554
tp555
a(S"He said-HE DID NOT SAY IT. You guys are making it worse; wonder why? Could it be 'distraction' for the shithole crimes committed by the left are coming to light? Prove he said it. Prove Russia Collusion. You can't. #UraniumOne #DNCFraudLawsuit #provehesaidit #fakerussiacollusion"
p556
S'10:05 AM - 15 Jan 2018'
p557
tp558
a(S"For days everybody is talking about Trump saying shithole Countries. What we are not talking about is Trump & Russia. Was that Trump's plan ? Maybe. We need to start talking again about POTUS and possible collusion with Russia. Talk about Obstruction of Justice, Money Laundering"
p559
S'10:01 AM - 15 Jan 2018'
p560
tp561
a(S'#MotivationMonday #MLKDay Donald Trump\xe2\x80\x99s Racism\nDonald Trump\xe2\x80\x99s Nazis\nDonald Trump\xe2\x80\x99s Russia Collusion \nDonald Trump\xe2\x80\x99s mental fitness \nDonald Trump\xe2\x80\x99s eating habit\nDonald Trump\xe2\x80\x99s wife is too hot\nDonald Trump\xe2\x80\x99s white\n Donald Trump\xe2\x80\x99s Black\nDonald Trump\xe2\x80\x99s winning pic.twitter.com/KXn5K6QDAL'
p562
S'10:01 AM - 15 Jan 2018'
p563
tp564
a(S'After Russia Collusion Fails to Stick, Barbra Streisand Proposes New Reason to Impeach Trump #liberal http://cmun.it/BbDNaE\xc2\xa0 - get content from: https://commun.it/?aid=content_9&tc=n\xc2\xa0\xe2\x80\xa6'
p565
S'10:00 AM - 15 Jan 2018'
p566
tp567
a(S"He's from Illinois that all you need to know!! Party of  Corruption Greed Degenerates pedophiles KKK hypocrites RUSSIA collusion ISIS"
p568
S'9:59 AM - 15 Jan 2018'
p569
tp570
a(S'...brothers whereabouts of birth?  Huh?  Who cares?  Who cares that the guy most vociferous about Russia Collusion, is colliding/colluding w/a billionaire backing whatever about Russia?  Who cares?  Who cares if XY Manning handed over classified documents, he sure is trust...'
p571
S'9:57 AM - 15 Jan 2018'
p572
tp573
a(S'Joy Behar of \xe2\x80\x9cThe View\xe2\x80\x9d is an enabler of FAKE NEWS after defending network colleague\xe2\x80\x99s bogus \xe2\x80\x9cRussia collusion\xe2\x80\x9d hoax about Michael Flynn http://www.newsfakes.com/2017-12-04-joy-behar-of-the-view-is-an-enabler-of-fake-news-after-defending-network-colleagues-bogus-russia-collusion-hoax-about-michael-flynn.html\xc2\xa0\xe2\x80\xa6'
p574
S'9:55 AM - 15 Jan 2018'
p575
tp576
a(S"Democrats created Russia collusion Fake, racist , fake, etc all everything democRats do is to destroy @realDonaldTrump to avoid their crimes's investigations there a lot of proofshttps://youtu.be/T8a6FQw1EMw\xc2\xa0"
p577
S'9:53 AM - 15 Jan 2018'
p578
tp579
a(S"You understand that even though your blatant racism is the current topic, we haven't forgot that your a liar, a sexual predator & we and Mueller certainly haven't forgot about your collusion with Russia. Our nightmare will end soon & yours will begin. Happy MLK Day."
p580
S'9:53 AM - 15 Jan 2018'
p581
tp582
a(S'When will all of you wake up? \n\nRussian coalition is a delusion. \n\nIt\xe2\x80\x99s gonna burn when trump is not impeached. \n\nAnd it\xe2\x80\x99s gonna burn even more when @HillaryClinton goes to jail for collusion with Russia  and perjury'
p583
S'9:51 AM - 15 Jan 2018'
p584
tp585
a(S'Democrats\xe2\x80\x99 bogus \xe2\x80\x9cTrump-Russia collusion\xe2\x80\x9d now FALLING APART, so the NY Times is trying to CHANGE the narrative http://www.newsfakes.com/2018-01-02-democrats-bogus-trump-russia-collusion-now-falling-apart-so-the-ny-times-is-trying-to-change-the-narrative.html\xc2\xa0\xe2\x80\xa6'
p586
S'9:51 AM - 15 Jan 2018'
p587
tp588
a(S'What like Russia Russia Russia ... collusion collusion collusion .  Give me a break.'
p589
S'9:50 AM - 15 Jan 2018'
p590
tp591
a(S'@thelittleidiot Moby was asked by C\xc2\xa1A to claim Russia collusion was real. Did they KNOW that @Eminem dissed Moby yrs ago in a song? Was there a backup plan to have @Eminem and Moby on a stage to show "unity" while pushing Anti-Trump narrative? The deep state has no bottom #QAnon'
p592
S'9:49 AM - 15 Jan 2018'
p593
tp594
a(S'Hey Dems/Libs?  You started the \xe2\x80\x9cFake News\xe2\x80\x9d story- when started screaming Russia was online spreading Fake News about HRC and influencing the vote!  Thus, the Russian \xe2\x80\x9cCollusion\xe2\x80\x9d investigation! @realDonaldTrump & voters just started playing fair by showing media lies and bias!'
p595
S'9:49 AM - 15 Jan 2018'
p596
tp597
a(S'Nasty ! Nasty!  Enabler of husband\xe2\x80\x99s sexual harassment! Part of the Collusion train with Russia!  Suppports taking advantage of poor countries (Haiti just one example) . And now launders money! Autocrats goal- power & money at any cost!'
p598
S'9:48 AM - 15 Jan 2018'
p599
tp600
a(S'Neither have been related to the Trump/Russia collusion. Did you read rhe indictments?'
p601
S'9:48 AM - 15 Jan 2018'
p602
tp603
a(S"Besides equal under the eyes of the law does not mean equal in skills, talents or intellect now does it? Don't confuse issues. Still waiting on you to cite Russia collusion sources."
p604
S'9:44 AM - 15 Jan 2018'
p605
tp606
a(S'Check your blood pressure:  The only proven collusion with #Russia was perpetrated by the Hillary campaign.\n\nThe HRC campaign is also proven guilty for elevating Trump to ensure he was the GOP nominee.\n\nThanks for President Trump, corruption enabler.\n#ClintonCorruption'
p607
S'9:44 AM - 15 Jan 2018'
p608
tp609
a(S'Patriots see clearly the lies & traps set by the MSM, Global Elites, & Dem\xe2\x80\x99s to end the Trump Presidency! Allegations of Russia collusion, sex scandals, racism, & mental instability, have all proven to be fabricated! Wall must be built. DACA must die! '
p610
S'9:44 AM - 15 Jan 2018'
p611
tp612
a(S'Trumps LEGACY= COLLUSION WITH RUSSIA,,,RACISIST... SHIT-HOLE POTUS.... WOW WHAT A SORRY PRESIDENT...'
p613
S'9:43 AM - 15 Jan 2018'
p614
tp615
a(S'Blockbuster Musician Claims CIA Asked Him to Spread Story About Trump Collusion With Russia | Restoring Liberty http://joemiller.us/2018/01/blockbuster-musician-claims-cia-asked-spread-story-trump-collusion-russia/#.Wlzn6G_brrw.twitter\xc2\xa0\xe2\x80\xa6'
p616
S'9:42 AM - 15 Jan 2018'
p617
tp618
a(S'Very inconvenient narrative for the virtue signaling leftists. Kinda like how Che Guevara hated blacks and gays and how Venezuela can\xe2\x80\x99t feed their people and imprison political opposition. But facts schmacts. Muh Russia. Muh collusion. Muh lobotomy. https://twitter.com/idfspokesperson/status/952957645987696640\xc2\xa0\xe2\x80\xa6'
p619
S'9:41 AM - 15 Jan 2018'
p620
tp621
a(S'\xe2\x80\x98CIA Friends\xe2\x80\x99 Asked Singer Moby To Spread Word Of Trump-Russia Collusion On Social Media https://thedailyinformer.net/2018/01/15/cia-friends-asked-singer-moby-to-spread-word-of-trump-russia-collusion-on-social-media/\xc2\xa0\xe2\x80\xa6pic.twitter.com/iYdy92vt83'
p622
S'9:40 AM - 15 Jan 2018'
p623
tp624
a(S'Moby Bizarrely Claims the CIA Asked Him to Push Trump-Russia Collusion Hysteria https://novusvero.com/2018/01/13/moby-bizarrely-claims-the-cia-asked-him-to-push-trump-russia-collusion-hysteria/\xc2\xa0\xe2\x80\xa6'
p625
S'9:40 AM - 15 Jan 2018'
p626
tp627
a(S"@JudicialWatch What has the @doj done to enforce the law against ex-@FBI director @JamesComey? He #illegally remove classified records about conversations with Pres Trump, y leaked them to the press and  uses these in Trump/Russia 'collusion' probe.  https://www.youtube.com/watch?v=CZ6yf2msr8o\xc2\xa0\xe2\x80\xa6 -"
p628
S'9:40 AM - 15 Jan 2018'
p629
tp630
a(S"DOJ website is also a good resource. Lot's of happenings and this is only the beginning. Clinton Global Crime Syndicate is being dismantled. Mueller works for Trump. He is going after Russia Collusion. All roads lead to Hillary and Clinton Foundation."
p631
S'9:38 AM - 15 Jan 2018'
p632
tp633
a(S'So you Russia and NeoNazi folks need to keep the focus on Obama rather than the #shithole who is illegally occupying the #WhiteHouse.  Maybe we should talk about the record of Calvin Coolege or Millard Fillmore, too.  #distraction #delusion #collusion #PutinsPuppet'
p634
S'9:38 AM - 15 Jan 2018'
p635
tp636
a(S'More Russia collusion right?? MAGA'
p637
S'9:33 AM - 15 Jan 2018'
p638
tp639
a(S"Trump's Real Crime is Collusion with Israel, NOT Russia, and Covering It Up https://fb.me/F3CA781m\xc2\xa0"
p640
S'9:33 AM - 15 Jan 2018'
p641
tp642
a(S"And so the 'resistance' magnifies every meme against Hillary assigns it to RUSSIA...AND perpetuates the collusion delusion...\nTurning PUTINS essentially swing and a miss...into an unearned run\n*if you know baseball such an occurrence would require a corrupt umpire!"
p643
S'9:32 AM - 15 Jan 2018'
p644
tp645
a(S'Blockbuster Musician Claims CIA Asked Him to Spread Story About Trump Collusion With Russia http://joemiller.us/?p=166529\xc2\xa0'
p646
S'9:30 AM - 15 Jan 2018'
p647
tp648
a(S'The investigation will lead to the truth. You say \xe2\x80\x9cyou guys\xe2\x80\x9d like it\xe2\x80\x99s my decision. Lol.  The democrats have been beating the drum of Russia collusion for how long?   Hillary is so corrupt it\xe2\x80\x99s crazy.  She\xe2\x80\x99s hated in Haiti!  Hated'
p649
S'9:29 AM - 15 Jan 2018'
p650
tp651
a(S'So flipping electoral college, recounts, Racist, Russia collusion, obstruction of justice, emoluments clause, sexual predator...all failed to derail his huge successes so now we are back on fake racism. All this name calling ONLY HURTS DEMS and divides America!!'
p652
S'9:27 AM - 15 Jan 2018'
p653
tp654
a(S'Moby&#039;s &quot;CIA Friends&quot; Asked Him To Spread Word Of Trump-Russia Collusion On Facebook https://www.blacklistednews.com/Moby%27s_%22CIA_Friends%22_Asked_Him_To_Spread_Word_Of_Trump-Russia_Collusion_On_Facebook/62942/0/38/38/Y/M.html\xc2\xa0\xe2\x80\xa6 @Moby - nobody listens to #Techno ... or you ... #MAGA'
p655
S'9:27 AM - 15 Jan 2018'
p656
tp657
a(S"The Mueller probe is exposing the depth of collusion between the DoJ, the State Dept, and the HRC Campaign. The Dem Trump/Russia 'collusion' narrative is morphing into something far more profound: the political use of the agencies of the state."
p658
S'9:25 AM - 15 Jan 2018'
p659
tp660
a(S'Collusion by Luke Harding certainly suggested this horrifying possibility, that the former KGB/Russia began working on Trump around the time he married Ivana.  My question is why Trump was so inadequately vetted? So much public record. Plus #UnfitToBePresident #TrumpTreasonhttps://twitter.com/20committee/status/952952834592567298\xc2\xa0\xe2\x80\xa6'
p661
S'9:24 AM - 15 Jan 2018'
p662
tp663
a(S"Doesn't take a genius to figure out why the #FarLeft is providing cover for @RealDonaldTrump on his racism and Russia Collusion and money laundering."
p664
S'9:24 AM - 15 Jan 2018'
p665
tp666
a(S"BO dealt with several problems because he was a corrupt snake who was able to make it sound good so gullible people believed him. Lied his ass off every chance he had/has. Despite knowing now that the Russia/Trump collusion was fake you still sit there claiming he's corrupt."
p667
S'9:21 AM - 15 Jan 2018'
p668
tp669
a(S'3/ Those factual examples of Trump NOT winning the election "fairly and squarely" are before even getting into the issue of whether there was collusion between Russia and the Trump campaign. Trump won the election; however, Trump did NOT win the election "fairly and squarely."'
p670
S'9:18 AM - 15 Jan 2018'
p671
tp672
a(S'"I won\'t have time to golf"\n\n"I have nothing to do with Russia"\n\n"I\'m the least racist person"\n\n"There is no collusion"\n\n"Obama wiretapped me" https://twitter.com/NBCNews/status/952910279347712000\xc2\xa0\xe2\x80\xa6'
p673
S'9:09 AM - 15 Jan 2018'
p674
tp675
a(S'Really cuz there is more evidence of wrong doing concerning Uranium One then Russia Collusion'
p676
S'9:04 AM - 15 Jan 2018'
p677
tp678
a(S'@realDonaldTrump @DonaldJTrumpJr @IvankaTrump @jaredkushner @EricTrump Enjoy your last long holiday.  Russia collusion, greed, ignorance, hate& lied are your legacy. https://twitter.com/sethabramson/status/952806203599544320\xc2\xa0\xe2\x80\xa6'
p679
S'9:02 AM - 15 Jan 2018'
p680
tp681
a(S'Where is the MSM coverage of DEMOCRAT collusion with Russia?  !!!!!!!!!!!!!!!!!!!!!!!!!!!!!!!!\n\nMSM Silent on Democrat Russian Collusion http://thetwistedbulldog.com/2018/01/msm-silent-democrat-russian-collusion/\xc2\xa0\xe2\x80\xa6'
p682
S'8:59 AM - 15 Jan 2018'
p683
tp684
a(S'The only Russia Collusion is your Buddy Hillary but I\xe2\x80\x99m guessing you don\xe2\x80\x99t keep up based on the crap that just came out of your mouth'
p685
S'8:56 AM - 15 Jan 2018'
p686
tp687
a(S'You ought to be talking what about the Russia collusion and obstruction of justice LMAO'
p688
S'8:55 AM - 15 Jan 2018'
p689
tp690
a(S'Flynn...guilty of lying...no diff than both Clintons, Manafort issues revolving deals long before campaign still no convictions on either...STILL NO EVIDENCE of collusion with Russia to convince millions HC sucked & was the worst candidate.'
p691
S'8:54 AM - 15 Jan 2018'
p692
tp693
a(S'@cnn What I do not understand is why no one plays back Trump on campaign trail standing up saying he has people getting emails on Dirty Hillary and very soon he will release them, shows collusion in bargaining w Russia to get hacked data.???????'
p694
S'8:51 AM - 15 Jan 2018'
p695
tp696
a(S"BOMBSHELL: CIA 'Tasked' MOBY With Spreading 'Trump-Russia' Collusion Pro... https://youtu.be/5WN9ZYg7Gdo\xc2\xa0 via @YouTube"
p697
S'8:48 AM - 15 Jan 2018'
p698
tp699
a(S'Blockbuster Musician Claims CIA Asked Him to Spread Story About Trump Collusion With Russia | Restoring Liberty https://fb.me/88kGwbkDd\xc2\xa0'
p700
S'8:46 AM - 15 Jan 2018'
p701
tp702
a(S'If we can get through this Russia collusion thing he has a chance of actually being a good if not great president although granted flawed. What I don\xe2\x80\x99t understand is the lack of balance in concern towards the Clinton camp? There seem to be clr laws brkn there.'
p703
S'8:43 AM - 15 Jan 2018'
p704
tp705
a(S'The Collusion Scheme obviously used to sidetrack & hide trail of Dems Scandals:\nuranium 1, Russia Dossier, DOJ et al'
p706
S'8:43 AM - 15 Jan 2018'
p707
tp708
a(S"#Trump 's Real Crime is Collusion with Israel, NOT Russia, and Covering It Up http://russia-insider.com/en/node/22166#.WlzZccqixqs.twitter\xc2\xa0\xe2\x80\xa6 #MAGA"
p709
S'8:42 AM - 15 Jan 2018'
p710
tp711
a(S'\xe2\x80\x98CIA friends\xe2\x80\x99 asked Moby to spread word of Trump-Russia collusion on social media\xe3\x80\x80https://on.rt.com/8wtk\xc2\xa0'
p712
S'8:41 AM - 15 Jan 2018'
p713
tp714
a(S'Gosh where do I start, lot of things going on but first happy new year 2018\n\nAmerica has been taken over by the Russians with dictator Trump as an unwanted puppet for Putin \n\nAll think carefully, to avoid a civil war,  look at example of Syria with Russia in collusion with Asad pic.twitter.com/we9yZkfsNX'
p715
S'8:41 AM - 15 Jan 2018'
p716
tp717
a(S'My point was I highly doubt Dawkins would ever question the veracity of negative publicity surrounding Trump. He believed the pissgate memo and the Russia collusion conspiracy  (both lies)'
p718
S'8:40 AM - 15 Jan 2018'
p719
tp720
a(S'Eyewitness Risks His Life To Expose Deadly Scandal That Could Take Down The Entire Russia Collusion Investigation - https://proconservativesnews.com/eyewitness-risks-his-life-to-expose-deadly-scandal-that-could-take-down-the-entire-russia-collusion-investigation-2/\xc2\xa0\xe2\x80\xa6'
p721
S'8:38 AM - 15 Jan 2018'
p722
tp723
a(S'Chelsea is cruising for a bruising.\nShe obviously wants to go back to prison, accepting campaign propaganda from the Kremlin violates the terms of her Presidential pardon. In bed with Russian FSB & Assange is treason. \nAsk POTUS, he is in line for prison for collusion with Russia https://twitter.com/joshuamanning23/status/952605794033328128\xc2\xa0\xe2\x80\xa6'
p724
S'8:37 AM - 15 Jan 2018'
p725
tp726
a(S'The only way they "win" is by cheating. Voter ID laws meant to disenfranchise specific populations. Extreme gerrymandering. Collusion with Russia to influence elections. And outright vote machine rigging and tampering of real results. The GOP are an anti-democratic thugocracy.'
p727
S'8:36 AM - 15 Jan 2018'
p728
tp729
a(S'.@realDonaldTrump\xe2\x80\x99s official response to the missile scare in Hawaii:  It had nothing to do with me.  Also, no Russia collusion, voter fraud, immigrants are evil, Hillary\xe2\x80\x99s emails.'
p730
S'8:35 AM - 15 Jan 2018'
p731
tp732
a(S'@VanJones68 where is Edward Snowden? Russia randomly did not become so good at hacking US without a bit of help. How come that was never mentioned in the collusion with Russia?'
p733
S'8:31 AM - 15 Jan 2018'
p734
tp735
a(S'You are rediculous..NOTHING WAS FOUND AGAINST TRUMP...PLENTY WAS UNCOVERED ABOUT OBUMA AND CLINTON RUSSIA COLLUSION!'
p736
S'8:30 AM - 15 Jan 2018'
p737
tp738
a(S"BOTTOM LINE ABOUT THAT RUSSIA DOSSIER.  MUELLER IS SEEING THE REAL TRUTH AND THAT IS HILLARY & OBAMA IS THE ;;;ONLY'''' GUILTY PARTY & TRUMP HAS NOTHING TO DO WITH THAT.. NO EVIDENCE. SORRY FOR YOUR LUCK!! NO COLLUSION ON TRUMP SIDE.. https://twitter.com/FTANKK/status/952667328952586240\xc2\xa0\xe2\x80\xa6"
p739
S'8:27 AM - 15 Jan 2018'
p740
tp741
a(S'CNN the morons! First President Trump colluded with Russia. STILL no proof. Then this book by a known hack journalist becomes their bible of truth, where Trump NEVER wanted to be POTUS & didn\xe2\x80\x99t expect to win. Didnt want to win? Then why the collusion with Russia? Wake up fools!'
p742
S'8:26 AM - 15 Jan 2018'
p743
tp744
a(S'Sorry, I think we deserve the entire story regarding Trump, Russia and Collusion - thankfully we have Mueller. Make sure he stays there.'
p745
S'8:16 AM - 15 Jan 2018'
p746
tp747
a(S'More of the real Russia collusion...Obama let Russian companies act as lobbyists and activist groups in the US to protect the Russian oil industry...\n\nEnvironmental group may have to register as foreign agents http://fxn.ws/2B1sEr0\xc2\xa0'
p748
S'8:16 AM - 15 Jan 2018'
p749
tp750
a(S'You are a complete idiot with a personality disorder.  Your false flag conspiracies ACTUALLY SERVE TO DISCREDIT ACTUAL CONSPIRACIES like russia collusion and systemic racism in police departments and government.  #ShutUpIdiot'
p751
S'8:14 AM - 15 Jan 2018'
p752
tp753
a(S'If Obama\xe2\x80\x99s #OFA trolls want something to do...perhaps they should begin the discussion about how to mentally handle their mental model of Trump-Russian collusion being shattered in the coming weeks. \n\nIf it was Hillary-FBI-DOJ Collusion with Russia what will you Libs do?'
p754
S'8:11 AM - 15 Jan 2018'
p755
tp756
a(S'BREAKING: Information on Trump/Russia collusion immanent. BOOM! https://twitter.com/larryelder/status/952722179937918976\xc2\xa0\xe2\x80\xa6'
p757
S'8:10 AM - 15 Jan 2018'
p758
tp759
a(S'Calling for impeachment based on collusion with Russia but totally okay with espionage conviction.'
p760
S'8:10 AM - 15 Jan 2018'
p761
tp762
a(S'QUESTION: Why are so many Congressional Republicans doing everything they can to discredit the Mueller and FBI investigations into Trump/Russia conspiracy/collusion?\n\nANSWER:  THIS.... https://twitter.com/DavidWetherell/status/952631486636806148\xc2\xa0\xe2\x80\xa6'
p763
S'8:10 AM - 15 Jan 2018'
p764
tp765
a(S'Syrian/Russian collusion in violating sanctions #putin #olgino #FSB #russia Dostoevsky did not read better #grandinquisitor #USSR #GRUhttp://ow.ly/VPlm30hLOwg\xc2\xa0'
p766
S'8:10 AM - 15 Jan 2018'
p767
tp768
a(S'President Donald Trump Denies Russia Collusion 16x In NYT Interview | MSNBC http://ift.tt/2myfv3x\xc2\xa0'
p769
S'8:06 AM - 15 Jan 2018'
p770
tp771
a(S"Trump's Real Crime is Collusion with Israel, NOT Russia, and Covering It Up https://www.russianinsight.com/trumps-real-crime-is-collusion-with-israel-not-russia-and-covering-it-up/\xc2\xa0\xe2\x80\xa6"
p772
S'8:06 AM - 15 Jan 2018'
p773
tp774
a(S"Russian foreign minister berates US for 'destabilizing' world.  I guess all that Hillary and Obama collusion is biting Russia in the butt. The fact that Trump has Russia nervous is DA!  \n\nhttps://search.app.goo.gl/uSW6\xc2\xa0\n\nShared from my Google feed"
p775
S'8:04 AM - 15 Jan 2018'
p776
tp777
a(S"Here's your RACIST GANG.. RUSSIA COLLUSION. OBAMA SPYING on A SITTING PRESIDENT AFTER HE LEFT OFFICE. How\nFRECKIN disgusting is that CNN?? https://twitter.com/gr8tjude/status/952882845307080704\xc2\xa0\xe2\x80\xa6"
p778
S'8:04 AM - 15 Jan 2018'
p779
tp780
a(S'Or the FACT that Bill Clinton has absolutely raped women. If the FACT the Uranium one deal put millions into Killerys pocket by selling 20% of our Uranium to Russia. You wanna talk collusion? You have absolute no argument or ammo for a #real debate'
p781
S'8:02 AM - 15 Jan 2018'
p782
tp783
a(S'Michael Flynn\xe2\x80\x99s Indictment Exposes Trump Team\xe2\x80\x99s Collusion With Israel, Not Russia | Alternet https://www.alternet.org/grayzone-project/flynn-indictment-exposes-collusion-israel\xc2\xa0\xe2\x80\xa6'
p784
S'8:00 AM - 15 Jan 2018'
p785
tp786
a(S'BAHAHAHAHA Cray Cray pinned tweet! Has she heard the news? http://www.cnn.com/2017/10/24/politics/fusion-gps-clinton-campaign/index.html\xc2\xa0\xe2\x80\xa6 Looks like the only collusion w/Russia was DemNUTS, HRC & CRIMINAL CLAN! Swamp about to be DRAINED! https://twitter.com/RepMaxineWaters/status/842392085168824320\xc2\xa0\xe2\x80\xa6'
p787
S'8:00 AM - 15 Jan 2018'
p788
tp789
a(S'Just a few recent wild, loony, tin foil and oh by the way, true:nsa illegal spying on all americans, primary rigged,dnc Russia collusion,entire ruling class sex predators,trump wiretapped, big tech censoring anti communists, demd busing voters around, media colluding with hillary'
p790
S'7:52 AM - 15 Jan 2018'
p791
tp792
a(S'Trump looked in direction of a Russian = Collusion & Treason\nAn investigation into Uranium 1 starts to indict people = Its nothing to do with our puppet masters Clinton & Muslim Obama The $130m was just coincidence. We need to sell Uranium to Russia as we are poor.'
p793
S'7:51 AM - 15 Jan 2018'
p794
tp795
a(S"So the election and the Russia collusion started in 1987 in USSR \nHere's the proof! "
p796
S'7:49 AM - 15 Jan 2018'
p797
tp798
a(S"Trump's Real Crime is Collusion with Israel, NOT Russia, and Covering It Up http://russia-insider.com/en/trumps-real-crime-collusion-israel-not-russia-and-covering-it/ri22166?utm_source=dlvr.it&utm_medium=twitter\xc2\xa0\xe2\x80\xa6pic.twitter.com/cNXte28G98"
p799
S'7:48 AM - 15 Jan 2018'
p800
tp801
a(S'#Collusion\n       =\n#Russia\n        +\n#ClintonCrimeFamilyhttps://twitter.com/dbongino/status/952724227404288000\xc2\xa0\xe2\x80\xa6'
p802
S'7:47 AM - 15 Jan 2018'
p803
tp804
a(S'Like looking into Russia for collusion '
p805
S'7:43 AM - 15 Jan 2018'
p806
tp807
a(S'"Donald Trump\'s Racism" is #FakeNews.  Looks like the Russia Collusion has completely collapsed and now it is back to the race card.  Next week it will be the Gender Card and than back to Russia.  Yawn.  This as Trump cruises to a 2020 victory.  #Trump2020 #GOPKeepsHouseAndSenatepic.twitter.com/fCcoTkj6ot'
p808
S'7:43 AM - 15 Jan 2018'
p809
tp810
a(S'President Donald Trump Denies Russia Collusion http://arronsnewsfromaround.blogspot.com/2018/01/president-donald-trump-denies-russia.html\xc2\xa0\xe2\x80\xa6'
p811
S'7:41 AM - 15 Jan 2018'
p812
tp813
a(S'That would be the one just opened by the justice department regarding the Clinton Foundation. You are a little confused. The Mueller investigation is about collusion with Russia to influence the presidential election of 2016.'
p814
S'7:39 AM - 15 Jan 2018'
p815
tp816
a(S'Why did tRUmp fire Comey, lie about why, then brag to the Russians about it, then get forced to confess it was because of Russia after all? Why do the tRUmp server metadata show clear collusion (modification, concatenation & replication of voter databases)?'
p817
S'7:39 AM - 15 Jan 2018'
p818
tp819
a(S'MAGA=Make sure candidates for POTUS know the constitution, have not committed tax fraud, havenot defrauded people with fake businesses, are not serial bankruptcy filers, are not serial sexual abusers, are not willingly supported by racists, are not in collusion with Russia'
p820
S'7:38 AM - 15 Jan 2018'
p821
tp822
a(S'The perfect parody to the MUELLER investigation of Trump/RUSSIA COLLUSION. pic.twitter.com/E21ZYg45pw'
p823
S'7:38 AM - 15 Jan 2018'
p824
tp825
a(S"I'm surprised CNN is reporting this, especially the Collusion Theory being promoted by this network. Isn't  Trump  supposed to be Russia puppet?"
p826
S'7:33 AM - 15 Jan 2018'
p827
tp828
a(S'With so many things going on in the background, it really underscores what a joke the Russia/collusion investigation is.'
p829
S'7:29 AM - 15 Jan 2018'
p830
tp831
a(S"Capitalized because it refers to people. Few of them are heard any more, not since the clan's party reinvented it's actual meaning. McCarthy? the swamp rewrote the freedom demanded; collusion with Russia?\n\nA rose by another name, is hardly equal to a name impersonating the rose."
p832
S'7:27 AM - 15 Jan 2018'
p833
tp834
a(S'Moby\'s "CIA Friends" Asked Him To Spread Word Of Trump-Russia Collusion On Facebook (he also said Trump wants war with Iran & is involved with "sponsored terrorism"...) https://www.zerohedge.com/news/2018-01-13/moby-cia-told-me-trump-manchurian-candidate\xc2\xa0\xe2\x80\xa6'
p835
S'7:27 AM - 15 Jan 2018'
p836
tp837
a(S'Collusion: a secret agreement, esp. for fraudulent or treacherous purposes; conspiracy...SHOW ME COLLUSION.  Show me what directly links Donald Trump to Russia, rigging our election. I see The DNC/HRC obtaining a fake Dossier to obtain a FISA warrant that contained RUSSIAN INTEL.'
p838
S'7:27 AM - 15 Jan 2018'
p839
tp840
a(S"The only Russia collusion that has been proven thus far is the Democratic party the Obama Administration and the Clinton Foundation zero evidence on the Republican side or the Trump campaign. So I'm not sure how you think Trump won because of Russians"
p841
S'7:26 AM - 15 Jan 2018'
p842
tp843
a(S'The message of racist, Russia collusion, sex scandal etc. is getting old. Anything the Demonrats approve off is a bait to erode your base. Remember their ultimate goal is to impeach you. They need Oprah to pardon Clintons, Obama, Weinstein and their minions.'
p844
S'7:25 AM - 15 Jan 2018'
p845
tp846
a(S"Below is the left's endgame against POTUS\n\nThere is no Russia collusion, no racism, no mental illness, no obstruction ofjustice, and no reason for impeachment. Their endgame is to sour everyone's perception of Trump, and diminish his chance of reelection.\n\n#PurePropaganda"
p847
S'7:25 AM - 15 Jan 2018'
p848
tp849
a(S"Oh, the collusion with Russia (which Don Jr. already admitted to and produced documents proving) is a separate issue. \n\nI'm talking about just plain greed and theft: https://www.newyorker.com/magazine/2017/08/21/trumps-business-of-corruption\xc2\xa0\xe2\x80\xa6"
p850
S'7:24 AM - 15 Jan 2018'
p851
tp852
a(S"9.Perhaps there wasn't collusion between @realDonaldTrump & Russia but there IS collusion between #potus & corporate America. A country which condones racism, violence, debauchery, stealing from the poor to give to the rich & exploitation of the vulnerable is not a great country."
p853
S'7:24 AM - 15 Jan 2018'
p854
tp855
a(S'Russia Collusion ==>> Anatomy of a Farce http://bit.ly/2D8ECoE\xc2\xa0'
p856
S'7:22 AM - 15 Jan 2018'
p857
tp858
a(S'Donald Trump\xe2\x80\x99s Racism is just another #FakeNews and Libtard attempt to go after Trump because all their other failed conspiracy theory Russia collusion BS didn\xe2\x80\x99t work out. Watching the meltdown of  is glorious!'
p859
S'7:22 AM - 15 Jan 2018'
p860
tp861
a(S"Trump's Real Crime is Collusion with Israel, NOT Russia, and Covering It Up http://russia-insider.com/en/trumps-real-crime-collusion-israel-not-russia-and-covering-it/ri22166\xc2\xa0\xe2\x80\xa6"
p862
S'7:22 AM - 15 Jan 2018'
p863
tp864
a(S'Glenn Simpson lobbied .@nytimes to run the unverified Democrat financed Trump Dossier before the 2016 election but instead the Times ran a story stating no proof in Trump Russia collusion. Simpson worked for weeks to push reporters to publish. https://www.washingtontimes.com/news/2018/jan/14/simpson-upset-new-york-times-passed-on-trump-russi/\xc2\xa0\xe2\x80\xa6'
p865
S'7:20 AM - 15 Jan 2018'
p866
tp867
a(S"These idiots just don't get it! They can't and never will accept the election and @ChrisCuomo obviously can't see where the actual Russia collusion was! Only collusion was from Clinton! Laughable! https://www.westernjournalism.com/kellyanne-conway-tells-cnn-shell-never-mention-hillary-on-show-again-on-1-condition/?utm_source=Email&utm_medium=newsletter&utm_campaign=dailyam&utm_content=western-journal\xc2\xa0\xe2\x80\xa6"
p868
S'7:18 AM - 15 Jan 2018'
p869
tp870
a(S'What hell is he still investigating? Russia collusion has been proven a fraud! Time to quit wasting taxpayer money on this FRAUD!!\n\nhttps://twitter.com/TheLastRefuge2/status/951008318646079488\xc2\xa0\xe2\x80\xa6'
p871
S'7:16 AM - 15 Jan 2018'
p872
tp873
a(S"Apparently the Dems are in #COLLUSION with Russia already for #2018 elections. Will they ever learn this doesn't work for them?"
p874
S'7:11 AM - 15 Jan 2018'
p875
tp876
a(S'@realDonaldTrump You want to punish the Dems because D. Feinstein released the Fusion GPS transcript re: Trump/Russia collusion!'
p877
S'7:09 AM - 15 Jan 2018'
p878
tp879
a(S'Collusion With Russia Was Never The Crime https://goo.gl/hKUamr\xc2\xa0 via @BradleeDean1'
p880
S'7:07 AM - 15 Jan 2018'
p881
tp882
a(S'The only statement people want to hear from you is: \xe2\x80\x9cDue to my racism, collusion with Russia & other crimes, I will be stepping down as President.  Enjoy.\xe2\x80\x9d'
p883
S'7:06 AM - 15 Jan 2018'
p884
tp885
a(S'There is no "collusion" with Russia #MisuseOfAirQuotes'
p886
S'7:05 AM - 15 Jan 2018'
p887
tp888
a(S'Blockbuster Musician Claims CIA Asked Him to Spread Story About #POTUS Collusion With Russia\n\n"It\xe2\x80\x99s really disturbing and it\xe2\x80\x99s going to get quite a lot darker." http://joemiller.us/2018/01/blockbuster-musician-claims-cia-asked-spread-story-trump-collusion-russia/\xc2\xa0\xe2\x80\xa6'
p889
S'7:03 AM - 15 Jan 2018'
p890
tp891
a(S'Bring out the Wikileaks Podesta & Hillary campaign tweets 2 C what direction they were headed 2 demean @realDonaldTrump...Russia collusion, racism, and sexual attacks. THIS is the DNC. https://twitter.com/spectatorindex/status/952712562650394625\xc2\xa0\xe2\x80\xa6'
p892
S'7:01 AM - 15 Jan 2018'
p893
tp894
a(S'Obama administration tried to fix an election by creating a false Trump/ Russia collusion narrative based on a phony a dossier bought and paid for by Clinton and the DNC and it is the single biggest scandal in American History.'
p895
S'6:58 AM - 15 Jan 2018'
p896
tp897
a(S'Collusion w/Russia may have enabled the other travesties of humanity to follow...'
p898
S'6:58 AM - 15 Jan 2018'
p899
tp900
a(S"donnie t'rump [yes he's an ass] is trying to divert attention from his conspiracy (not collusion -- conspiracy is the crime, collusion is one way that it's done) with Russia to steal the election.  Sorry, donnie -- diversion doesn't work."
p901
S'6:57 AM - 15 Jan 2018'
p902
tp903
a(S'I know what you mean. Seems like all they have to say is racist, misogynist, biggot, homophobe, trailer, collusion, Russia, etc. I really wish the hard left would wake up.'
p904
S'6:55 AM - 15 Jan 2018'
p905
tp906
a(S"The Russia-Trump collusion story is a MOVEMENT that will be meeting at 9:00 A.M. to talk about Hillary's policies have made U.S. a mess!"
p907
S'6:54 AM - 15 Jan 2018'
p908
tp909
a(S'Remember, MLK was an ardent supporter of Net Neutrality regulations and the Mueller investigation into Russia collusion https://twitter.com/oil_guns_merica/status/952915433321107458\xc2\xa0\xe2\x80\xa6'
p910
S'6:53 AM - 15 Jan 2018'
p911
tp912
a(S'Still waiting for CNN TO COMMENT ON MARK LAMBERT! AND CLINTON AND OBAMA COLLUSION WITH RUSSIA!!!And Still waiting for Hillary to be Charged and in handcuffs!'
p913
S'6:53 AM - 15 Jan 2018'
p914
tp915
a(S'This fool knows that he said those words he is a racist man he needs to be impeached all of these things are just distractions because of this Russia investigation he did obstruct Justice collusion money laundering and all that get him out.'
p916
S'6:52 AM - 15 Jan 2018'
p917
tp918
a(S'CNN- \nRace War" "Race War" "MLK Day" "Race War" "Race War" "Trump Broke Don & Anderson" "Race War" "Race War" "Hawaii is Trumps fault""Stormy Daniels"\n\n"Real #Uraniumone\nRussia Collusion is upon us with 11 indictments implicating HRC."\n\nMSM-Not a "F"ing word\n#pizzagate\n#pedogate pic.twitter.com/h5ab4whHO6'
p919
S'6:52 AM - 15 Jan 2018'
p920
tp921
a(S"Everybody knows you did it because you're stupid free your people already admitted they lied to the FBI about Russia meeting with Russia doing the campaign collusion yes there is collusion you're guilty"
p922
S'6:51 AM - 15 Jan 2018'
p923
tp924
a(S'Since at least July 2016, the upper echelon of the FBI and the Department of Justice began a stealth operation\xe2\x80\x94with the complicity if not instigation of President Obama\xe2\x80\x94to taint and destroy Candidate Trump with a concocted \xe2\x80\x9cRussia collusion\xe2\x80\x9d narrative. By SPowell'
p925
S'6:51 AM - 15 Jan 2018'
p926
tp927
a(S'smash and grab\nmoney laundering\ngrifting\nmob family rules\ncollusion with Russia'
p928
S'6:51 AM - 15 Jan 2018'
p929
tp930
a(S'A useful guide to the Trump/Russia/Collusion scam https://goo.gl/bNxumW\xc2\xa0pic.twitter.com/oXeLsy7sqZ'
p931
S'6:49 AM - 15 Jan 2018'
p932
tp933
a(S"WE have new information on the unique methods used in the  MUELLER investigation into Trump/RUSSIA COLLUSION. \nNo wonder it's taking so long pic.twitter.com/hL8rfQsfei"
p934
S'6:49 AM - 15 Jan 2018'
p935
tp936
a(S'Not one word in this preview of the Inspector General\'s referrals for review about Trump/Russia collusion either.  Odd.  Wouldn\'t that be at the TOP OF THE LIST?  "Review", by the way, is SWAMPANESE for "INVESTIGATION"....just in case you were keeping score at home. pic.twitter.com/HPR2JKkvgF'
p937
S'6:47 AM - 15 Jan 2018'
p938
tp939
a(S'Do you want to hear more about Trump Russia collusion or how he is a racist or see how the globalists are... https://fb.me/1cdmj6a9T\xc2\xa0'
p940
S'6:43 AM - 15 Jan 2018'
p941
tp942
a(S"He determined this after the Russia collusion conspiracy theory wasn't working"
p943
S'6:41 AM - 15 Jan 2018'
p944
tp945
a(S"Trump's mental condition was started by Democrats when they realized their Russian collusion decoy failed to gain traction. Now, like RUSSIA, MSM & DEMS have latched on to mental stability. They can't talk about Trumps 1st year because that would be praise. Now, it's racism! https://twitter.com/mitchellvii/status/952891370330607616\xc2\xa0\xe2\x80\xa6"
p946
S'6:39 AM - 15 Jan 2018'
p947
tp948
a(S"It's pretty safe to know UR not exactly a fan of President Trump.\nI get that 4 a time neither was I.\n\nT/difference between a Hillary Presidency & Donald R stark beyond imagination. \n\nT/WORLDS biggest public deception Trump/Russia collusion is shared by media"
p949
S'6:39 AM - 15 Jan 2018'
p950
tp951
a(S'ANOTHER STUPID CARD THE LIBS ARE PLAYING: \xe2\x80\x9cRUSSIA COLLUSION\xe2\x80\x9d!!WAS NO COLLUSION IN TRUMP\xe2\x80\x99S CAMPAIGN,BUT IN HILLARY\xe2\x80\x99S CAMPAIGN, YOU IDIOTS!! WHEN ARE YOU GOING TO LEARN THAT\xe2\x80\x9dWE,THE PEOPLE\xe2\x80\x9dCHOSE @realDonaldTrump AS PRESIDENT!! https://www.newsmax.com/newsfront/bannon-lewandowski-russia-congress/2018/01/14/id/837118/\xc2\xa0\xe2\x80\xa6'
p952
S'6:37 AM - 15 Jan 2018'
p953
tp954
a(S'Having these scumbags answer questions to Republicans who are compromised by Russia working in collusion with tromp as it\xe2\x80\x99s pointless get his ass under oath in front of Mueller\xe2\x80\x99s team https://twitter.com/rvawonk/status/952897323901865984\xc2\xa0\xe2\x80\xa6'
p955
S'6:32 AM - 15 Jan 2018'
p956
tp957
a(S'\xc2\xbfPreparando el terreno para otra "Russia collusion Trump Style"? Yo estar\xc3\xada mas preocupado por una "Cuba collusion"...'
p958
S'6:31 AM - 15 Jan 2018'
p959
tp960
a(S'Good morning! Let\xe2\x80\x99s not forget with all the other stuff going on in DC, that the @GOP is in collusion with Russia against The United States of America. It is his party, and they are forever tied with these crimes. When you @realDonaldTrump make sure you include them too!'
p961
S'6:30 AM - 15 Jan 2018'
p962
tp963
a(S'Oh quit lying  everyone knows you put Russia  first! #Collusion'
p964
S'6:29 AM - 15 Jan 2018'
p965
tp966
a(S'Only on Fox News does the indictment of a lesser individual implicates Hillary, but 4 indictments in the Russia probe proves \xe2\x80\x9cno collusion\xe2\x80\x9d in regards to Trump. '
p967
S'6:26 AM - 15 Jan 2018'
p968
tp969
a(S'Meanwhile I bet you believe in Trump / Russia collusion that will get him impeached?  Stay tuned libby.'
p970
S'6:26 AM - 15 Jan 2018'
p971
tp972
a(S'If majority of Americans support removing trump after proof of collusion with russia, that should be enough to move forward. As a top leader please stand with Americans over blind congress #americansdeservebetter'
p973
S'6:24 AM - 15 Jan 2018'
p974
tp975
a(S'Blockbuster Musician Claims CIA Asked Him to Spread Story About Trump Collusion With Russia http://joemiller.us/?p=166529\xc2\xa0'
p976
S'6:22 AM - 15 Jan 2018'
p977
tp978
a(S'My Next Book!\nFor those who want to better understand the danger of Russia/ Putin and now TRUMP I highly recommend:\n1. COLLUSION by @lukeharding1968\n2. RED NOTICE by @Billbrowder \n3. THE PLOT TO HACK AMERICA by @MalcolmNancehttps://twitter.com/SenWhitehouse/status/952669245820850177\xc2\xa0\xe2\x80\xa6'
p979
S'6:22 AM - 15 Jan 2018'
p980
tp981
a(S"Dan Bongino has HAD IT with the \xe2\x80\x9cRussian Collusion NONSENSE\xe2\x80\x9d and Goes OFF! ( no wonder WE are Russia's biggest threat since there are so many stupid people still talking against the Russians) http://truthfeednews.com/dan-bongino-has-had-it-with-the-russian-collusion-nonsense-and-goes-off/\xc2\xa0\xe2\x80\xa6"
p982
S'6:16 AM - 15 Jan 2018'
p983
tp984
a(S'When you have complicity in lying by Cotton and Perdue knowing full well that #45 said those vile things is collusion with Russia hard to fathom?'
p985
S'6:14 AM - 15 Jan 2018'
p986
tp987
a(S'DE LORENZO: claims "she or he is a thinker" really? think about what? that Our President Trump has "his hands all over the Russia FAKE COLLUSION"? lady or man. Our President Trump has his hands all over the paper signing DOCUMENTS to MAGA. Working for the good of People. THINK!!!'
p988
S'6:11 AM - 15 Jan 2018'
p989
tp990
a(S'Stay focused America, it\xe2\x80\x99s all about the RUSSIAN collusion with the Trump campaign. Keep the eye on the ball...RUSSIA RUSSIA RUSSIA.  God bless America and keep us all safe from a country like RUSSIA that wants to destroy us with their bots and influences over Trump!'
p991
S'6:11 AM - 15 Jan 2018'
p992
tp993
a(S"BOMBSHELL: CIA 'Tasked' MOBY With Spreading 'Trump-Russia' Collusion Pro... https://www.youtube.com/watch?v=5WN9ZYg7Gdo&feature=share\xc2\xa0\xe2\x80\xa6"
p994
S'6:10 AM - 15 Jan 2018'
p995
tp996
a(S'Your opinion as a so called analysis is a joke..your analysis are your opinions which are ALWAYS against president Trump..you & CNN are pushing to divide this country & push a racist & anger agenda..Russia collusion was a lie & you knew it..'
p997
S'6:07 AM - 15 Jan 2018'
p998
tp999
a(S'Ironic how lib progs like you are so interested in supposed Trump Russian collusion (for which no evidence exists) and yet ignore collusion between your party and Russia for which extensive proof exists '
p1000
S'6:04 AM - 15 Jan 2018'
p1001
tp1002
a(S'Singer Moby Says #CIA Told Him to Post Russia Collusion Stories on Social Media https://buff.ly/2DxReTj\xc2\xa0 #Trending via @pjmedia_com'
p1003
S'6:04 AM - 15 Jan 2018'
p1004
tp1005
a(S'President Trump should never give in to questions from him he will try to trick him up on his family or close friends there was no collusion with Russia now they are trying something else.'
p1006
S'5:59 AM - 15 Jan 2018'
p1007
tp1008
a(S'@KellyannePolls Sidney Powell, Attorney & Author of LICENSED TO LIE: Exposing Corruption. the DOJ began a stealth operation to destroy Trump with a concocted \xe2\x80\x9cRussia collusion\xe2\x80\x9d narrative.'
p1009
S'5:56 AM - 15 Jan 2018'
p1010
tp1011
a(S'From November 12, 2017 8:00 pm\xe2\x95\x91Adam Schiff continues with Russia dossier/collusion investigation \xe2\x95\x91 https://hedgeaccordingly.com/2017/11/adam-schiff-continues-with-russia-dossiercollusion-investigation.html\xc2\xa0\xe2\x80\xa6 \xe2\x95\x91 #2016 elections |https://hedgeaccordingly.com/2017/11/adam-schiff-continues-with-russia-dossiercollusion-investigation.html\xc2\xa0\xe2\x80\xa6'
p1012
S'5:53 AM - 15 Jan 2018'
p1013
tp1014
a(S'Is Media Misreporting Trump Jr  Russia Collusion Story? https://youtu.be/2yPtUzzYpDk\xc2\xa0 via @YouTube'
p1015
S'5:53 AM - 15 Jan 2018'
p1016
tp1017
a(S'The Media are like monkeys on a stick! Intelligent ppl can see right through it!  First, it was the Russia collusion, then it was the mental issue, now they are playing the \xe2\x80\x98race\xe2\x80\x99 card!! They are scumbags! '
p1018
S'5:51 AM - 15 Jan 2018'
p1019
tp1020
a(S'Just remember that if those of us on the left are right about Trump and his collusion with Russia, you will be the one who supported a traitor.'
p1021
S'5:50 AM - 15 Jan 2018'
p1022
tp1023
a(S'You do realize it was Obama who was prez when this was going on right? Russia has always tried to influence our elections and we theirs. Obama administration was so sure Hillary would win they chose not to do anything. Over a yr of investigation no collusion.'
p1024
S'5:50 AM - 15 Jan 2018'
p1025
tp1026
a(S'Democraps party of Corruption GREED Degenerates pedophiles KKK hypocrites RUSSIA collusion ISIS'
p1027
S'5:49 AM - 15 Jan 2018'
p1028
tp1029
a(S'The "INSPECTOR GENERAL" doesn\'t seem to have any references to "TRUMP/RUSSIA" collusion in his referrals for investigation.\n\nAWAN-der why? pic.twitter.com/7yvmJ494m9'
p1030
S'5:45 AM - 15 Jan 2018'
p1031
tp1032
a(S"I recommend this thread.  The whole collusion with Russia thing may hurt Trump as much or more in his real estate dealings as much as it influenced his election as President. This talks about the dealings of the 'Trump crime family'. https://twitter.com/aliasvaughn/status/952585538875351040\xc2\xa0\xe2\x80\xa6"
p1033
S'5:43 AM - 15 Jan 2018'
p1034
tp1035
a(S'Liberals ideas dont work. They know this thats why the only thing they have is to call people racist.   What happen to Russia Collusion? Take your anti-depressant and let the adults do their  job.'
p1036
S'5:41 AM - 15 Jan 2018'
p1037
tp1038
a(S'"Blockbuster Musician Claims CIA Asked Him to Spread Story About Trump Collusion With Russia" http://eepurl.com/dhq3cX\xc2\xa0'
p1039
S'5:39 AM - 15 Jan 2018'
p1040
tp1041
a(S'Moby Bizarrely Claims the CIA Asked Him to Push Trump-Russia Collusion Hysteria (AUDIO) http://www.thegatewaypundit.com/2018/01/moby-bizarrely-claims-cia-asked-push-trump-russia/\xc2\xa0\xe2\x80\xa6'
p1042
S'5:37 AM - 15 Jan 2018'
p1043
tp1044
a(S'You better take notes because Uranium One is real and the s**t will hit the fan very soon.  Go back to looking for Trump / Russia collusion now.'
p1045
S'5:34 AM - 15 Jan 2018'
p1046
tp1047
a(S'From the Dems No more Russia, no collusion, no impeachment, now it\xe2\x80\x99s racist.'
p1048
S'5:34 AM - 15 Jan 2018'
p1049
tp1050
a(S'After a year of investigations there still is no "proof" of Trump campaign collusion with Russia yet I bet you still have no problem keeping that search going right?'
p1051
S'5:30 AM - 15 Jan 2018'
p1052
tp1053
a(S'WoW what a rebuttal! Your hypocrisy is amazing I am sure you believe with all your hart that the russia/trump collusion is bullshit in spite of the evidence yet you believe in the childish Soros lie with zero evidence to back it up.'
p1054
S'5:27 AM - 15 Jan 2018'
p1055
tp1056
a(S"Here's your Russia collusion, it's from the Uranium One deal, not Trump. https://www.justice.gov/opa/pr/former-president-maryland-based-transportation-company-indicted-11-counts-related-foreign\xc2\xa0\xe2\x80\xa6"
p1057
S'5:27 AM - 15 Jan 2018'
p1058
tp1059
a(S'What an idiot you are.\n\nYoure only remaining degree of relevance, is your pending indictment for your treasonous abuse of power.\n\nYou Sir, are going down.\n\n#FBI\n#Treason\n#DeepState\n#Russia\n#COLLUSION\n#FISA\n#TrumpDossier\n#HillaryClinton\n#DNC\n#Obama\n#FusionGPS'
p1060
S'5:26 AM - 15 Jan 2018'
p1061
tp1062
a(S"As the 'R'ussia #Russia collusion lie has produced nothing on @realDonaldTrump the corrupt Democrats and MSM media liars @msnbc @cnn etc etc have cooked up another hoax that Trump is a 'R'acist. People are not stupid. Trump is clearly NOT a racist......"
p1063
S'5:25 AM - 15 Jan 2018'
p1064
tp1065
a(S'The Democrats and Left leaning MSM seem to evolve in their negative attacks on @realDonaldTrump when each one fails to work.\n\nRussia Collusion - fail\nJustice obstruction - fail\nWhite supremist - fail\nMentally unfit - fail\nRacist - will fail\n\nCan\xe2\x80\x99t tell me they aren\xe2\x80\x99t biased.'
p1066
S'5:24 AM - 15 Jan 2018'
p1067
tp1068
a(S"Well, they couldn't prove Russia collusion and all the other things they made up so now he's a racist! Go figure, get over it and let the man run the country! @realDonaldTrump #MakeAmericaGreatAgain"
p1069
S'5:23 AM - 15 Jan 2018'
p1070
tp1071
a(S'Of course it\'s true. It\'s LAW, you cited it. Trump has given the nation to Russia with his collusion, his acceptance of Russian assistance to disrupt our electoral process and steal an election. His "astonishment" was he didn\'t think Putin could do it. He belongs in jail, not WH. https://twitter.com/JoyceSawyer18/status/952700456106475521\xc2\xa0\xe2\x80\xa6'
p1072
S'5:21 AM - 15 Jan 2018'
p1073
tp1074
a(S'.@TheDemocrats couldn\'t destroy @realDonaldTrump with the Russia collusion narrative, so they tried the mental incapacity ploy. That didn\'t work, so now he\'s a racist. What\'s next?  "I saw Donald Trump spit on the sidewalk"?'
p1075
S'5:21 AM - 15 Jan 2018'
p1076
tp1077
a(S"BOMBSHELL: CIA 'Tasked' MOBY With Spreading 'Trump-Russia' Collusion Propaganda: http://youtu.be/5WN9ZYg7Gdo?a\xc2\xa0 via @YouTube"
p1078
S'5:20 AM - 15 Jan 2018'
p1079
tp1080
a(S'FACT CHECK There is no Trump Collusion with Russia. Trump is NOT A RACIST. Trump is mentally fit and smart. Trump won the election and is the PRESIDENT. #MAGA'
p1081
S'5:20 AM - 15 Jan 2018'
p1082
tp1083
a(S'Russia collusion has failed so rather than celebrating Martin Luther King today, the Shithole NYT bases "Donald Trump\'s Racism" on allegations from one Democrat.  https://twitter.com/CollinRugg/status/952718265876324352\xc2\xa0\xe2\x80\xa6'
p1084
S'5:19 AM - 15 Jan 2018'
p1085
tp1086
a(S'If you have to keep telling every one Trump is involved with Russia and collusion, chances are he he isn\xe2\x80\x99t.'
p1087
S'5:19 AM - 15 Jan 2018'
p1088
tp1089
a(S'Tim, Mueller can get as close as he wants to Trump. As far as any evidence of a Trump/Russia collusion, he\xe2\x80\x99s as far away as the moon . Nice try but he\xe2\x80\x99s got SQUAT! '
p1090
S'5:17 AM - 15 Jan 2018'
p1091
tp1092
a(S'Over time, Trump has telegraphed his criminal defenses of quid-pro-quo electioneering collusion with Russia. His gambit on the FISA recordings is to have it thrown out as evidence by saying it is illegal to "unmask" his voice on the recordings.\nhttp://www.palmerreport.com/analysis/fisa-trump-manafort/7397/\xc2\xa0\xe2\x80\xa6'
p1093
S'5:15 AM - 15 Jan 2018'
p1094
tp1095
a(S'Many believe Russia hacked voting machines or changed votes and Clinton really won. Thats a misinterpretation of the Russian collusion farce. There is no evidence Russia or any outside party changed one single vote in the election.'
p1096
S'5:14 AM - 15 Jan 2018'
p1097
tp1098
a(S'There\'s no "Trump Russia".... however there is a \nHillary Obama FBI CIA .. etc \nRussia Collusion that ACTUALLY happened. You should step away from your reg news givers & go to the truth seekers.'
p1099
S'5:14 AM - 15 Jan 2018'
p1100
tp1101
a(S'Lmao Flynn was charged with lying and manafort was indicted from an 8 year old case. Non of Which have to.do with Russia lmfaoooooo. Only evidence of collusion is Clinton paying them for phoney Intel'
p1102
S'5:14 AM - 15 Jan 2018'
p1103
tp1104
a(S"@SRuhle Is dereliction of duty an impeachable offense?\nUS security is the POTUS's primary job. Our election & country continues to be under cyber/media/disinformation attack by putin/russia\nAfter discussing it with putin, djt has taken NO action - collusion?/dereliction?"
p1105
S'5:11 AM - 15 Jan 2018'
p1106
tp1107
a(S'Cover up? Oh please. Just because u don\xe2\x80\x99t report on the real cover up, Hillary Russia collusion, FISA, Haiti, Uranium 1, doesn\xe2\x80\x99t mean it\xe2\x80\x99s going to disappear. There will come a time when u & @CNN will have to face it. Have you become so corrupt to come back, lost in hypocrisy.'
p1108
S'5:09 AM - 15 Jan 2018'
p1109
tp1110
a(S'Singer Moby Says CIA Told Him to Post Russia Collusion Stories on Social Media https://pjmedia.com/trending/singer-moby-says-cia-told-post-russia-collusion-stories-social-media/\xc2\xa0\xe2\x80\xa6'
p1111
S'5:08 AM - 15 Jan 2018'
p1112
tp1113
a(S'\xe2\x80\x9cIn the Trump-Russia collusion story, you don\xe2\x80\x99t find any Russians.  Where you find the Russians is with the Clintons.  Where you find the Russians is with the Democrats.\xe2\x80\x9d - Rush Limbaugh'
p1114
S'5:06 AM - 15 Jan 2018'
p1115
tp1116
a(S'can\'t wait for Tulsi Gabbard\'s very basic and correct foreign policy analysis to be called some "Russia collusion" bullshit'
p1117
S'5:00 AM - 15 Jan 2018'
p1118
tp1119
a(S'@JoeNBC is now saying his "friends" want Mike Pence to be president.  The chief sycophant, the man who has lied repeatedly to the American People, who LIED about Flynn, Russia, Collusion, Voted the worst governor, a right wing homophoboic Nut job.  This is who "the base wants"?OK'
p1120
S'4:59 AM - 15 Jan 2018'
p1121
tp1122
a.