(lp0
(S"He's got nothing w/ respect to the original intent of the investigation, collusion between Russia and the Trump campaign... Obvious that he's trying to construct an obstruction of justice case."
p1
S'3:58 PM - 26 Dec 2017'
p2
tp3
a(S"At this stage there is far more evidence of Israeli collusion than Russia. Besides which if we're broadening the claims to business interests than good lord do the Dems have much to answer for. The US government has long been open for business."
p4
S'3:58 PM - 26 Dec 2017'
p5
tp6
a(S'And yet even the FBI has already alluded to the fact that none of this proves collusion, let alone the legitimate barge of conspiracy with Russia.'
p7
S'3:57 PM - 26 Dec 2017'
p8
tp9
a(S'There is no Russia-Trump collusion, never was.  I believe that came to light for the public just today. https://twitter.com/SharylAttkisson/status/945654505319878657\xc2\xa0\xe2\x80\xa6'
p10
S'3:57 PM - 26 Dec 2017'
p11
tp12
a(S'Folks! Saul Alinsky 101: "Rules for Radicals!" Accuse your opposition of what you are guilty of. If the  "Uranium One" deal isn\'t "Collusion" between Russia and DOJ/FBI/STATE DEPARTMENT/DEMOCRAT PARTY then nothing is! Donations to Clinton Foundation Criminal!'
p13
S'3:56 PM - 26 Dec 2017'
p14
tp15
a(S'Just like how immigration shouldn\xe2\x80\x99t even be a debate when ILLEGAL immigration is a part of the conversation, Trump/Russia collusion shouldn\xe2\x80\x99t even be a debate when the fake, @HillaryClinton funded, Fusion GPS dossier is a part of the conversation. #MAGA'
p16
S'3:55 PM - 26 Dec 2017'
p17
tp18
a(S'Authoritarianism expert: Russia hacked Lindsey Graham\xe2\x80\x99s personal emails so Trump may be blackmailing him https://www.rawstory.com/2017/12/authoritarianism-expert-russia-hacked-lindsey-grahams-personal-emails-so-trump-may-be-blackmailing-him/#.WkLgzr7smfk.twitter\xc2\xa0\xe2\x80\xa6 Another big time connection of evidence to Trump-Russia clear "Collusion"'
p19
S'3:54 PM - 26 Dec 2017'
p20
tp21
a(S'Also the Podesta emails had many worrying things in them. But nothing on Russia collusion.'
p22
S'3:53 PM - 26 Dec 2017'
p23
tp24
a(S'DT Jr runs Trump Co. has nothing to do with politics. Talking and going to Russia has nothing to do with collusion in the first place, and especially since he is not involved in the Trump Administration you can\xe2\x80\x99t say anything about him. Like arresting me for texting a Russian..'
p25
S'3:52 PM - 26 Dec 2017'
p26
tp27
a(S'@realDonaldTrump administration ends 2017 confronting #Russia after year of #Collusion accusations http://www.foxnews.com/politics/2017/12/26/trump-administration-ends-2017-confronting-russia-after-year-collusion-accusations.html\xc2\xa0\xe2\x80\xa6'
p28
S'3:52 PM - 26 Dec 2017'
p29
tp30
a(S"Is it yr personal decision or smb made u think so? I've got plenty of friends in the USA. They were clever enough not to believe in the election-meddling -boolshit.\nThis is solely yr internal elite affairs,\nBesides it's now confirmed there was NO collusion with Russia."
p31
S'3:52 PM - 26 Dec 2017'
p32
tp33
a(S'FBI says Russia dossier\xe2\x80\x99s collusion charges unsubstantiated - http://go.shr.lc/2pwpiMi\xc2\xa0 - @washtimes'
p34
S'3:52 PM - 26 Dec 2017'
p35
tp36
a(S"First off collusion isn't illegal\nSecond, its been a year, and the only thing they would was the biggest evidence they had against trump and russia was made and paid for by hillary"
p37
S'3:51 PM - 26 Dec 2017'
p38
tp39
a(S"If course it wouldn't. But it had not been corroborated. There is no Russia collusion. That's why they are indicting guys on lying. Hoping they will tell them something. If they really had something, they would be indicting guys on this charges."
p40
S'3:50 PM - 26 Dec 2017'
p41
tp42
a(S'#JonesDay represents\n\nRussia since 2003 TNK-BP oil deal; Putin @ deal signing;\n\nTrump campaign since 2015 including collusion w/Russia;\n\n#MAGA @uspto since 9/20/17, same day Cancellation proceeding dismissed, which prove Trump guilty under 18 USC 1001 & @GOP knowingly signed JFAspic.twitter.com/Rq33tMYC1p'
p43
S'3:50 PM - 26 Dec 2017'
p44
tp45
a(S'What about the collusion with North Korea and Russia'
p46
S'3:49 PM - 26 Dec 2017'
p47
tp48
a(S'It is in times like these when the American people need to re-watch Rocky IV to remember how much we hate the Russians #Russia #Collusion #Trump #ROCKY'
p49
S'3:49 PM - 26 Dec 2017'
p50
tp51
a(S'While there\xe2\x80\x99s no smoking gun Trump personally colluded w/ Russia. We know he has business ties (which he denied & hasn\xe2\x80\x99t / can\xe2\x80\x99t divest from), evidence of collusion amongst senior members of his campaign staff, family & cabinet, & we know Russia engaged in pro-Trump propaganda.'
p52
S'3:48 PM - 26 Dec 2017'
p53
tp54
a(S'Wait 8 high ranking DOJ & FBI officials have been removed, reassigned or are rumored to be leaving. They include the top FBI agents who worked on the probe into Hillary Clinton\xe2\x80\x99s mishandling of classified info & the Trump-Russia collusion investigation. http://sharylattkisson.com/2017/12/25/inv\xc2\xa0\xe2\x80\xa6'
p55
S'3:47 PM - 26 Dec 2017'
p56
tp57
a(S'Steve Bannon Publicly Admits Trump/Russia Campaign Collusion https://www.dailykos.com/story/2017/12/24/1727394/-Steve-Bannon-Publicly-Admits-Trump-Campaign-Collusion-With-Russia\xc2\xa0\xe2\x80\xa6'
p58
S'3:46 PM - 26 Dec 2017'
p59
tp60
a(S'@realDonaldTrump, I feel like you are still fogeting about your sons meetings with russia and conversations with Wiki Leaks. Oh, may I add the peopel close to you who have been proven of collusion. #trumpspirational, #notmypresident, #Ignoranthttps://twitter.com/realdonaldtrump/status/945646491955290113\xc2\xa0\xe2\x80\xa6'
p61
S'3:46 PM - 26 Dec 2017'
p62
tp63
a(S"@co_rapunzel4 @cherokeesher2 @MtnMD #PuertoRico #IRS #FBI #Veterans #TuesdayThoughts#NetNeutrality #Irony\nIt's Hillary's Fault\nNo, Obama's\nKushner's REALLY Obama's Nephew\nNorth Korea\nThere's NO Russia Collusion\nFBI is Fake News!\nWomen Are Fake News\nLook Over There!\nNo There! pic.twitter.com/Qln0fJT8Mf"
p64
S'3:46 PM - 26 Dec 2017'
p65
tp66
a(S'Fact 8 high ranking DOJ & FBI officials have been removed, reassigned or are rumored to be leaving. They include the top FBI agents who worked on the probe into Hillary Clinton\xe2\x80\x99s mishandling of classified info & the Trump-Russia collusion investigation. http://sharylattkisson.com/2017/12/25/inv\xc2\xa0\xe2\x80\xa6'
p67
S'3:46 PM - 26 Dec 2017'
p68
tp69
a(S'Not one indictment has come with anything having to do with trump and Russia collusion!!  You\xe2\x80\x99ve been duped and brainwashed on a hoax by an extremely corrupt party who are the real criminals and where the real indictments will be issued!  Wake up!!'
p70
S'3:44 PM - 26 Dec 2017'
p71
tp72
a(S'Weres the collusion?12months millions spent!were is the RUSSIA RUSSIA??THERE IS NONE'
p73
S'3:44 PM - 26 Dec 2017'
p74
tp75
a(S"Thought it was about Russia and collusion,emoluments,hatch act, dossier,access Hollywood video. Damn all that crap  you've been peddling failed. #fakeJake"
p76
S'3:42 PM - 26 Dec 2017'
p77
tp78
a(S"For an entire year, Media was foaming at the mouth over Russia/Trump collusion. Now Trump mentioned it & it's taboo? #CmonMan #TrumpTrain"
p79
S'3:38 PM - 26 Dec 2017'
p80
tp81
a(S'If you were so innocent you would be cheering the Mueller team on.   You are far more guilty of collusion with Russia than anyone.  Keep it up.   Makes you look even guiltier.  You need to be gone.'
p82
S'3:38 PM - 26 Dec 2017'
p83
tp84
a(S'FBI agent Peter Strzok \xe2\x80\x93 who was a key counterintelligence official and who signed off on the Russia collusion probe \xe2\x80\x93 sent text messages to an FBI agent he was having an affair with expressing his hatred for Trump. pic.twitter.com/gRDKWXBrCF'
p85
S'3:38 PM - 26 Dec 2017'
p86
tp87
a(S'Clinton funded that dossier that used foreign spies including Russia.  That is collusion with Russia there is no way around that.  Collusion with Clinton and Russia.'
p88
S'3:37 PM - 26 Dec 2017'
p89
tp90
a(S"What gets me is how can they say Trump and Russia collusion when it was Hillary using Russia's dossier against Trump. That's Hillary and Russia collusion"
p91
S'3:36 PM - 26 Dec 2017'
p92
tp93
a(S'GOP Rep Peter King: If There\xe2\x80\x99s Any Collusion, It\xe2\x80\x99s the FBI, Clinton Campaign, Russia (VIDEO) https://truepundit.com/gop-rep-peter-king-theres-collusion-fbi-clinton-campaign-russia-video/\xc2\xa0\xe2\x80\xa6'
p94
S'3:34 PM - 26 Dec 2017'
p95
tp96
a(S'During one week in early December, roughly 20 percent of the activity from accounts tied to Russian intelligence for propaganda was focused on undermining faith in Mueller\xe2\x80\x99s investigation into potential collusion between Russia and the successful campaign of Donald Trump.'
p97
S'3:34 PM - 26 Dec 2017'
p98
tp99
a(S"Everything is evil under the Sun is Hillary's fault, evil incarnated pretentious saint Trump and his cronies' collusion with Russia to meddle in American election also Hillary's fault"
p100
S'3:33 PM - 26 Dec 2017'
p101
tp102
a(S'Embattled FBI admits it can\xe2\x80\x99t verify dossier claims of Russia, Trump campaign collusion http://www.washingtontimes.com/news/2017/dec/25/fbi-says-russia-dossiers-collusion-charges-unsubst/\xc2\xa0\xe2\x80\xa6'
p103
S'3:32 PM - 26 Dec 2017'
p104
tp105
a(S"Trump slams Russia dossier as 'bogus' https://youtu.be/nMNlgfhq-Kg\xc2\xa0 via @YouTube Mr Mueller was appointed to find out about obstruction of justice and the links of collusion with Russia now if trump and those in congress continue on these rant which are clear acts to obstruct justice"
p106
S'3:30 PM - 26 Dec 2017'
p107
tp108
a(S'FBI says Russia dossier\xe2\x80\x99s collusion charges unsubstantiated - http://go.shr.lc/2pwpiMi\xc2\xa0 - @washtimes'
p109
S'3:30 PM - 26 Dec 2017'
p110
tp111
a(S'on the left say 45 does not respect the law~hello~the left has broken the laws~hav spied on 45\xe2\x80\x99s team~has covered up collusion with russia/uranium one~the dossier~clinton emails~ 44 Hezbollah~Mccabe~many mor\nu r stupid stupid pass the buck fools\ndelusional psychotic lunatic\xe2\x80\x99s'
p112
S'3:29 PM - 26 Dec 2017'
p113
tp114
a(S'Rahm Emanuel Donald Trump he  not innocent we know he did collusion with Russia  high with Innocent  people break with that lie'
p115
S'3:29 PM - 26 Dec 2017'
p116
tp117
a(S'Embattled FBI admits it can\xe2\x80\x99t verify dossier claims of Russia, Trump campaign collusion https://www.washingtontimes.com/news/2017/dec/25/fbi-says-russia-dossiers-collusion-charges-unsubst/\xc2\xa0\xe2\x80\xa6 via @washtimes'
p118
S'3:28 PM - 26 Dec 2017'
p119
tp120
a(S'This year has been year of whiny little bitchy snowflakes holding on to a fake news stories about Russia collusion and liberal Hollywood pedophiles and stolen elections.'
p121
S'3:27 PM - 26 Dec 2017'
p122
tp123
a(S"#FireMueller is supposed to investigate collusion between candidate Trump, or his campaign team, with Russia.  Collusion is NOT A CRIME. Firing him can't obstruct justice since investigation for something NOT ILLEGAL isn't justice in the first place. @realDonaldTrump"
p124
S'3:27 PM - 26 Dec 2017'
p125
tp126
a(S"Because it's all BS. The real Russia collusion is dems with Russia."
p127
S'3:26 PM - 26 Dec 2017'
p128
tp129
a(S"@POTUS needs to get some advice from the Dems on how to collude with the Russians, he doesn't seem to be doing so well\n#WitchHunt\nTrump administration ends 2017 confronting Russia after year of collusion accusations http://fxn.ws/2zz1JSR\xc2\xa0 #FoxNews"
p130
S'3:25 PM - 26 Dec 2017'
p131
tp132
a(S'When will the investigation into the Trump/Russia collusion be wrapped up. Where does it stand at this point??'
p133
S'3:25 PM - 26 Dec 2017'
p134
tp135
a(S'Trump administration ends 2017 confronting Russia after year of collusion accusations, even Trump\xe2\x80\x99s biggest critics are on board.  http://www.foxnews.com/politics/2017/12/26/trump-administration-ends-2017-confronting-russia-after-year-collusion-accusations.html\xc2\xa0\xe2\x80\xa6'
p136
S'3:24 PM - 26 Dec 2017'
p137
tp138
a(S'GOP Rep Peter King: If There\xe2\x80\x99s Any Collusion, It\xe2\x80\x99s the FBI, Clinton Campaign, Russia (VIDEO) https://truepundit.com/gop-rep-peter-king-theres-collusion-fbi-clinton-campaign-russia-video/\xc2\xa0\xe2\x80\xa6'
p139
S'3:24 PM - 26 Dec 2017'
p140
tp141
a(S'Could make a case for collusion with Russia on this alone.'
p142
S'3:21 PM - 26 Dec 2017'
p143
tp144
a(S"Chris Matthews: Trump-Russia collusion theory 'came apart' with Comey testimony http://ref.gl/2ioRLO8Y\xc2\xa0"
p145
S'3:18 PM - 26 Dec 2017'
p146
tp147
a(S'Seams to be more collusion between the FBI and the 2016 election than with Russia and the election .'
p148
S'3:17 PM - 26 Dec 2017'
p149
tp150
a(S'If tomorrow, Trump was called before a grand jury 2 testify on his own behalf about his collusion w/ Russia, money laundering & obstruction of justice, how many of you believe that he\'d TELL THE TRUTH.  "Like" if you think he\'d tell the truth.  I\'m expecting no "Likes" on this 1'
p151
S'3:16 PM - 26 Dec 2017'
p152
tp153
a(S"FBI says Russia dossier's collusion charges unsubstantiated - Washington Times https://www.washingtontimes.com/news/2017/dec/25/fbi-says-russia-dossiers-collusion-charges-unsubst/\xc2\xa0\xe2\x80\xa6"
p154
S'3:16 PM - 26 Dec 2017'
p155
tp156
a(S'So I switched it to CNN they were speaking about Russia collusion. I switched it to MSNBC and they were speaking about Russia Collusion. Fox is reporting news! I love Fox!'
p157
S'3:12 PM - 26 Dec 2017'
p158
tp159
a(S'Where the hell do u get your information? Stone and Page have not been indicted and Manafort was charged with old offences that have nothing to do with Russia collusion.'
p160
S'3:11 PM - 26 Dec 2017'
p161
tp162
a(S'Every Republican attacking Mueller and the FBI should be put behind bars. We want everybody guilty of collusion with Russia and treason investigated indicted and prosecuted'
p163
S'3:10 PM - 26 Dec 2017'
p164
tp165
a(S'There goes the Russia collusion.'
p166
S'3:08 PM - 26 Dec 2017'
p167
tp168
a(S'The examples speak to the bias of top FBI officials and their willingness to act on those biases. The entire "Russia collusion" investigation is based on false information produced and released by Hillary and Obama operatives within the FBI and State Dept.'
p169
S'3:07 PM - 26 Dec 2017'
p170
tp171
a(S"You would have to have your head in the sand not to realize there are conflicts of interest in this investigation.  You have people in charge who have a vested interest and still can't find Russia/Trump collusion.\nTake the politics out of all investigations. https://twitter.com/RealMAGASteve/status/945730411921137664\xc2\xa0\xe2\x80\xa6"
p172
S'3:06 PM - 26 Dec 2017'
p173
tp174
a(S"FBI says Russia dossier's collusion charges unsubstantiated (Rowan Scarborough / Washington Times)\n\nhttp://www.washingtontimes.com/news/2017/dec/25/fbi-says-russia-dossiers-collusion-charges-unsubst/\xc2\xa0\xe2\x80\xa6http://www.memeorandum.com/171226/p54#a171226p54\xc2\xa0\xe2\x80\xa6"
p175
S'3:05 PM - 26 Dec 2017'
p176
tp177
a(S'$$ Why is there STILL an investigation on Dossier & Russia against \nPresident Trump Close the case because:\nAccording to evidence & @USAGSessions & Mueller there is NONE \nagainst Pres Trump, BUT COLLUSION against President by \nHRC, DNC , Comey Strzok , McCabe Baker Rosenstein'
p178
S'3:05 PM - 26 Dec 2017'
p179
tp180
a(S'The biggest plot twist of 2017 by far is the @TheDemocrats trying to push a fake \xe2\x80\x9cTrump/Russia collusion\xe2\x80\x9d narrative as an excuse for their election loss but instead helped reveal that they were the ones colluding with Russia... Lol. #MAGA'
p181
S'3:05 PM - 26 Dec 2017'
p182
tp183
a(S'GOP Rep Peter King: If There\xe2\x80\x99s Any Collusion, It\xe2\x80\x99s the FBI, Clinton Campaign, Russia (VIDEO) https://truepundit.com/gop-rep-peter-king-theres-collusion-fbi-clinton-campaign-russia-video/\xc2\xa0\xe2\x80\xa6'
p184
S'3:04 PM - 26 Dec 2017'
p185
tp186
a(S'GOP Congressman says FBI & DOJ are infested with Deep State agents, calls for purge\nhttps://truepundit.com/people-deep-state-gop-congressman-calls-purge-fbi/\xc2\xa0\xe2\x80\xa6\nNo evidence of Trump-Russia collusion #FireMueller'
p187
S'3:03 PM - 26 Dec 2017'
p188
tp189
a(S'what is going to be ironic is when Hillary is indicted for collusion with Russia b/c the only evidence found is Podesta and Hillary. Zero against Trump.'
p190
S'3:03 PM - 26 Dec 2017'
p191
tp192
a(S'I smell Russian collusion... You can\xe2\x80\x99t even look at Russia on a map these days without someone on the Left screaming #Collusion. #DayAfterChristmashttps://twitter.com/buzzfeednews/status/945702762439938048\xc2\xa0\xe2\x80\xa6'
p193
S'3:02 PM - 26 Dec 2017'
p194
tp195
a(S"It sure will be a great year, you'll be found guilty for collusion with Russia, handcuffed and taken away! And in November 208 The GOP and all those pedophiles will be without a job! BLUE IS THE COLOR FOR 2018 pic.twitter.com/mZGArbQ8fk"
p196
S'3:02 PM - 26 Dec 2017'
p197
tp198
a(S'Communications of intelligence agencies from Russia and America to thwart terrorist activities misconstrued as collusion.'
p199
S'3:02 PM - 26 Dec 2017'
p200
tp201
a(S"Trump done more to challenge Russia than even Obama. There was never any collusion. Democrats have become obstructionists. That isn't progressive. It's 'regressive'. They want Trump to fail, even if it means failing the American people. #MAGA #AmericaFirsthttp://fxn.ws/2zz1JSR\xc2\xa0"
p202
S'2:56 PM - 26 Dec 2017'
p203
tp204
a(S'Wow.. do you live in a delusional world or do you just drink all that mainstream media Kool-Aid all day long? There is no Russia collusion. Zero proof to day.. #JulianAssange got the emails from #SethRichpic.twitter.com/GRtlJtLnL7'
p205
S'2:55 PM - 26 Dec 2017'
p206
tp207
a(S"Trump\nI'll be a President for all the people = I'm only President for my base\nBelieve me = I'm lying\nNo Russia collusion = I committed treason to become President \nFake news = I'm an idiot\nI'll be so presidental = I'm a clown"
p208
S'2:54 PM - 26 Dec 2017'
p209
tp210
a(S'You say much of the reporting about allegations of Trump/Russia collusion is "apparently accurate". Name one allegation of collusion that has prove to be anything close to accurate, please. Because every allegation I\'ve heard so far has proven to be inaccurate or out right lie.'
p211
S'2:54 PM - 26 Dec 2017'
p212
tp213
a(S'Russia has long attempted to interfer in US and other countries\xe2\x80\x99 elections.\nBut...no evidence of Trump campaign\xe2\x80\x99s attempt to join Russia in rigging the election (collusion) https://twitter.com/panicfan2017/status/945775350042300417\xc2\xa0\xe2\x80\xa6'
p214
S'2:54 PM - 26 Dec 2017'
p215
tp216
a(S"This goes out to all the haters of Truth.. it's called Wikileaks not WikiHACKs.. there is no Russia collusion only mainstream media Kool-Aid.. pic.twitter.com/pMygxNbVkT"
p217
S'2:51 PM - 26 Dec 2017'
p218
tp219
a(S"What a bunch of traitors rats. They must all be guilty of collusion with Russia or other crimes. Why else turn on our nation's Security forces? Makes you wonder what they are hiding or who is paying them off to commit such a heinous act. And they call themselves patriots?"
p220
S'2:49 PM - 26 Dec 2017'
p221
tp222
a(S'There is no Russia collusion there is only the mainstream media Kool-Aid that pushes this narrative'
p223
S'2:49 PM - 26 Dec 2017'
p224
tp225
a(S'Exactly what did Russia DO to affect the election? Exactly what proof do you have of collusion beteeen Trump and Russia? There\xe2\x80\x99s more proof of collusion with Obama/HRC/Russia.'
p226
S'2:49 PM - 26 Dec 2017'
p227
tp228
a(S"FBI says Russia dossier's collusion charges unsubstantiated.  #Duh #liberalagenda #InsurancePolicyhttps://www.washingtontimes.com/news/2017/dec/25/fbi-says-russia-dossiers-collusion-charges-unsubst/\xc2\xa0\xe2\x80\xa6"
p229
S'2:48 PM - 26 Dec 2017'
p230
tp231
a(S'Collusion is staring us in the face. KT McFarland admitted on email to colleagues Russia threw the election for Trump. Read it.'
p232
S'2:47 PM - 26 Dec 2017'
p233
tp234
a(S'The only thing tainted is your paranoid narcissistic view that people believe these lies and deflections goven here of by your shills in the House of Representatives.  Yes!  There is collusion!   TRUMP crooked and a known local agent of Putin due to money owed Russia from trump.'
p235
S'2:46 PM - 26 Dec 2017'
p236
tp237
a(S'GOP Rep Peter King: If There\xe2\x80\x99s Any Collusion, It\xe2\x80\x99s the FBI, Clinton Campaign, Russia (VIDEO) \xe2\x80\x93 True PunditTrue Pundit #QAnonhttps://truepundit.com/gop-rep-peter-king-theres-collusion-fbi-clinton-campaign-russia-video/\xc2\xa0\xe2\x80\xa6'
p238
S'2:46 PM - 26 Dec 2017'
p239
tp240
a(S'Unlike the White House with most of its undertakings, the FBI is doing a thorough job. Mueller already has two convictions of Trump people lying to the FBI about their contact with Russia. Where there is smoke there is fire. #obstuction #collusion https://twitter.com/realDonaldTrump/status/945646491955290113\xc2\xa0\xe2\x80\xa6'
p241
S'2:45 PM - 26 Dec 2017'
p242
tp243
a(S'During 1 week in early December, roughly 20 % of the activity from Russian intelligence accounts used for propaganda was focused on undermining faith in Mueller\xe2\x80\x99s investigation into potential collusion between Russia & the Trump campaign. http://www.newsweek.com/russia-wants-americans-doubt-mueller-experts-warn-759195\xc2\xa0\xe2\x80\xa6'
p244
S'2:45 PM - 26 Dec 2017'
p245
tp246
a(S'FOXNEWS reports .POTUS administration ends 2017 confronting Russia after year of collusion accusations http://fxn.ws/2BXePPF\xc2\xa0'
p247
S'2:45 PM - 26 Dec 2017'
p248
tp249
a(S'As a U S Citizen, I am requesting you step down as Special Council on the Russia Collusion Investigation.POTUS  did not collude w Russia.'
p250
S'2:44 PM - 26 Dec 2017'
p251
tp252
a(S'If anyone is #Tainted - It is @realDonaldTrump #Impeach A want to be #VladimirPutin Dictator - Protecting #Russia #Rigged2016Election #Collusion with #RussiaGate #ConspiracyAgainstAmerica #RussianSpy #Traitor #RobertMueller will send @POTUS To FederalPrison To #Die Behind Bars'
p253
S'2:44 PM - 26 Dec 2017'
p254
tp255
a(S'GOP Rep Peter King: If There\xe2\x80\x99s Any Collusion, It\xe2\x80\x99s the FBI, Clinton Campaign, Russia (VIDEO) https://truepundit.com/gop-rep-peter-king-theres-collusion-fbi-clinton-campaign-russia-video/\xc2\xa0\xe2\x80\xa6'
p256
S'2:43 PM - 26 Dec 2017'
p257
tp258
a(S'The only Russia collusion was Obama & Hillary.  They are criminals.  Make my new year by sending back the criminals/illegals aka Daca.  We middle class thank you for the Tax break that not even 1 Democrat voted for.  #NODACA'
p259
S'2:42 PM - 26 Dec 2017'
p260
tp261
a(S'Collusion Narrative Network right? The CF took in $140M for 20% of the US uranium sold to Russia. The country the left has been slobbering over for a year. Which charity did that one help?'
p262
S'2:42 PM - 26 Dec 2017'
p263
tp264
a(S'.@POTUS administration ends 2017 confronting Russia after year of collusion accusations http://fxn.ws/2BXePPF\xc2\xa0'
p265
S'2:41 PM - 26 Dec 2017'
p266
tp267
a(S"That's why they reported Hillary was leading and gonna win, why Russia collusion is real, why the dossier is legit, lied about benghazi, gun running in Canada, Harper backing Al Qaeda, NATO backing ISIS, white ppl are bad, islamaphobia is a thing, climate change.....so much info!"
p268
S'2:41 PM - 26 Dec 2017'
p269
tp270
a(S'So you wouldn\xe2\x80\x99t care if Trump waits until after his presidency to admit collusion with Russia?? Okay.'
p271
S'2:41 PM - 26 Dec 2017'
p272
tp273
a(S'Nov, 2017: "FBI and DOJ officials have told congressional investigators in recent days that they have not been able to verify or corroborate the substantive allegations of collusion between Russia and the Trump campaign outlined in the Trump dossier."\nhttp://www.washingtonexaminer.com/fbi-has-not-verified-trump-dossier/article/2641207\xc2\xa0\xe2\x80\xa6'
p274
S'2:40 PM - 26 Dec 2017'
p275
tp276
a(S'@realDonaldTrump STOP attacking Hillary and FBI !!!\nHillary is not guilty of your incompetence and YOUR collusion with Russia besides YOU have launder money for putin and friends'
p277
S'2:40 PM - 26 Dec 2017'
p278
tp279
a(S'Tip of nothing! They got Flynn on a process crime! That will probably be thrown out due to Strozc being a complete partisan on a witch hunt! They have nothing, because there is NO Trump/Russia collusion!!'
p280
S'2:40 PM - 26 Dec 2017'
p281
tp282
a(S"OK.\nI'll give it to you.\nYou proved Jared has a bad memory.\nThen we all just assume this means collusion with Russia?\nGot it."
p283
S'2:39 PM - 26 Dec 2017'
p284
tp285
a(S'Embattled FBI admits it can\xe2\x80\x99t verify dossier claims of Russia, Trump campaign collusion https://www.washingtontimes.com/news/2017/dec/25/fbi-says-russia-dossiers-collusion-charges-unsubst/\xc2\xa0\xe2\x80\xa6 via @washtimes'
p286
S'2:39 PM - 26 Dec 2017'
p287
tp288
a(S"Dotard. Dude. You aren't being investigated by Mueller for Russia collusion, you're being investigated for obstruction of justice.\n\nDon't. Tell. Lies. And. Your. Problems. Disappear.\n\nPoof."
p289
S'2:39 PM - 26 Dec 2017'
p290
tp291
a(S'I read this one. Collusion: Secret Meetings, Dirty Money, and How Russia Helped Donald Trump Win https://www.amazon.com/dp/0525562516/ref=cm_sw_r_cp_api_19SqAbZQMP1C9\xc2\xa0\xe2\x80\xa6'
p292
S'2:39 PM - 26 Dec 2017'
p293
tp294
a(S"Interview with Luke Harding (author of 'Collusion' - which details Trump's longstanding connections with Russia). Really worth watching. 7 minutes in (and after) he details why someone with Trump's personality would have been pursued by Moscow.\nhttps://youtu.be/xeaEwTHpcu8\xc2\xa0"
p295
S'2:39 PM - 26 Dec 2017'
p296
tp297
a(S'But muh Russia collusion. '
p298
S'2:38 PM - 26 Dec 2017'
p299
tp300
a(S'GOP Rep Peter King: If There\xe2\x80\x99s Any Collusion, It\xe2\x80\x99s the FBI, Clinton Campaign, Russia (VIDEO) https://truepundit.com/gop-rep-peter-king-theres-collusion-fbi-clinton-campaign-russia-video/\xc2\xa0\xe2\x80\xa6  The CLINTON facade is cracking 2018 WILL BE A YEAR OF CRIMINAL RECKONING for DEMOCRATS - starting w CLINTONS & OBAMA'
p301
S'2:37 PM - 26 Dec 2017'
p302
tp303
a(S"You're Way wrong. What happened to Central shreeking claim you and yours pushed: COLLUSION??\n\nThere isn't any you Liars...quit trying to shift the narrative. Obama attended same conference in RUSSIA as Carter Page, just different dates.\n#RussiaHoax #FireMueller #FireRosensteinhttps://twitter.com/jimsciutto/status/945748211611906049\xc2\xa0\xe2\x80\xa6"
p304
S'2:36 PM - 26 Dec 2017'
p305
tp306
a(S'TRUMP slams \'bogus\' Russian dossier and says the FBI is \'tainted ...\nhttp://abcnews.go.com/Politics/trump-slams-bogus-russian-dossier-fbi-tainted/story?id\xc2\xa0\xe2\x80\xa6...\nWOW, @foxandfriends "Dossier is bogus. Clinton Campaign, DNC funded Dossier. FBI CANNOT (after all of this time) VERIFY CLAIMS IN DOSSIER OF RUSSIA/TRUMP COLLUSION. FBI TAINTED.\xe2\x80\x9d pic.twitter.com/ioClC6C4A1'
p307
S'2:35 PM - 26 Dec 2017'
p308
tp309
a(S'ICYMI: Embattled FBI admits it can\xe2\x80\x99t verify dossier claims of Russia, Trump campaign collusion https://www.blazingcatfur.ca/?p=286611\xc2\xa0pic.twitter.com/gs0n8JCQzi'
p310
S'2:34 PM - 26 Dec 2017'
p311
tp312
a(S'Boy, you sure seem to be worried about this real Dossier and your collusion with Russia...A LOT! Any reason?'
p313
S'2:33 PM - 26 Dec 2017'
p314
tp315
a(S'Trumps puppets ONLY support him because of his oppressive ways, slandering minorities and women, ending DACA, getting rid of Muslims, and building a wall to stop Mexicans.\n \nThey\xe2\x80\x99re all okay with Trump and Putin being good pals though because theres no collusion with Russia here.'
p316
S'2:33 PM - 26 Dec 2017'
p317
tp318
a(S'Funny how liberals call facts delusional. All that hate and still chugging along making America great. What will happen when there is no Russia collusion...liberals will never accept that fact either.'
p319
S'2:32 PM - 26 Dec 2017'
p320
tp321
a(S'Trump could not define collusion so his denials mean nothing. His campaign met with Russia to get dirt on H. Was the plan to get the dirt and hide it to protect her?'
p322
S'2:32 PM - 26 Dec 2017'
p323
tp324
a(S'Trump administration ends 2017 confronting Russia after year of collusion accusations http://fxn.ws/2zz1JSR\xc2\xa0 #FoxNews'
p325
S'2:30 PM - 26 Dec 2017'
p326
tp327
a(S"Now we know #PutinsPuppet stole the election we should #ImpeachTrumpNow @realDonaldTrump #BenedictDonald stole the election with Russia's help and collusion"
p328
S'2:30 PM - 26 Dec 2017'
p329
tp330
a(S'Probably better to clear the FBI + Fusion + unmasking + leak to press collusion before the DOJ draws any conclusions about Russia and Trump.  Cleaner that way.'
p331
S'2:29 PM - 26 Dec 2017'
p332
tp333
a(S"The definition of insanity is doing the same thing over & over and expecting different results. Dems: Russia collusion, racism, impeach, tax scam.Seems to me the dumb ass Dems need a new script already lol. Until they do we'll continue to reap the benefits of a Trump Presidency pic.twitter.com/Sac91QPuhH"
p334
S'2:28 PM - 26 Dec 2017'
p335
tp336
a(S'Sadly, an article like this is proof that the Deep State has infiltrated the administration of @realDonaldTrump.\n\n@FoxNews @seanhannity @IngrahamAngle @ASavageNation \n\nTrump administration ends 2017 confronting Russia after year of collusion accusations \n\nhttp://fxn.ws/2zz1JSR\xc2\xa0'
p337
S'2:28 PM - 26 Dec 2017'
p338
tp339
a(S'Just googled Trump, Russia, News and got back 30 hits from right wing news sites parroting how the Russian collusion investigation is "a stinking Hillary pile of Garbage" and how Mueller is a Dem stooge.  The war on truth is being lost'
p340
S'2:28 PM - 26 Dec 2017'
p341
tp342
a(S'Words matter. Can we stop saying Russia "meddled"? In-laws meddle. Russia attacked us. And we should be saying "conspiracy" not "collusion".'
p343
S'2:27 PM - 26 Dec 2017'
p344
tp345
a(S'Still going with the Russia adoption defense, then? Because I believe your son met with Russian actors. And you had him lie about it. If it sounds like collusion, looks like collusion, and smells like collusion, is it fake news?'
p346
S'2:27 PM - 26 Dec 2017'
p347
tp348
a(S'Firing the director of the @FBI  is not abuse of power.   Completely within the constitutional power of the president.  And collusion is not a crime.  And besides all that absolutely no evidence trump colluded wuth russia. Howeves tons of evidence democrats did'
p349
S'2:25 PM - 26 Dec 2017'
p350
tp351
a(S"Frankly, I don't care what Russia wants.  I just want the TRUTH to come out, regardless of who it helps or hurts.  I personally doubt any Trump-Russia collusion claims because Trump's ego would not let him be beholden to anyone."
p352
S'2:25 PM - 26 Dec 2017'
p353
tp354
a(S'BILLIONS OF US WANT TO WITNESS THE FATAL HEART ATTACK OF DICTATOR TRUMP. DICTATOR TRUMPS COLLUSION & TREASON WITH RUSSIA, HIS LIES ,IS SEXUAL CRIMES,RACISM, ALL ARE  VERY QUICKLY CATCHING UP TO HIM.'
p355
S'2:24 PM - 26 Dec 2017'
p356
tp357
a(S'Russia is going to attack our next election. Traitor Trump may not even try to stop it. #Traitor #PutinsPuppet #RussiaGate #Collusion @realDonaldTrump https://www.washingtonpost.com/blogs/plum-line/wp/2017/12/26/russia-is-going-to-attack-our-next-election-the-trump-administration-may-not-even-try-to-stop-it/\xc2\xa0\xe2\x80\xa6pic.twitter.com/OqXFzKpekg'
p358
S'2:24 PM - 26 Dec 2017'
p359
tp360
a(S'GOP Rep Peter King: If There\xe2\x80\x99s Any Collusion, It\xe2\x80\x99s the FBI, Clinton Campaign, Russia (VIDEO) https://truepundit.com/gop-rep-peter-king-theres-collusion-fbi-clinton-campaign-russia-video/\xc2\xa0\xe2\x80\xa6'
p361
S'2:23 PM - 26 Dec 2017'
p362
tp363
a(S'For starters, how about you guys start broadcasting real news worthy material across the board, covering stories nation wide and across party lines.Stop with the bias, illegal \n phony, Russia, Russia, Russia collusion hoax propaganda, all day and night.'
p364
S'2:23 PM - 26 Dec 2017'
p365
tp366
a(S'You are the policy expert, huh ..cite your evidence of collusion between Russia and our POTUS...'
p367
S'2:22 PM - 26 Dec 2017'
p368
tp369
a(S"Actually, what we know Mueller has that isn't classified already shows collusion between Russia and Trump's people, if not a smoking gun going straight back to Trump. Reason enough to continue."
p370
S'2:21 PM - 26 Dec 2017'
p371
tp372
a(S"#IsraelGate Essay: Flynn's Collusion with Russia was for the Benefit of Israel https://ahtribune.com/us/israelgate/2042-real-scandal-flynn.html\xc2\xa0\xe2\x80\xa6"
p373
S'2:21 PM - 26 Dec 2017'
p374
tp375
a(S'The #Gop are bought & paid for courtesy of Russia. They are in collusion with an enemy state. https://twitter.com/Resistance_Feed/status/945687194483773440\xc2\xa0\xe2\x80\xa6'
p376
S'2:19 PM - 26 Dec 2017'
p377
tp378
a(S"1. At least 2 pages of the dossier has been verified. \n\n2. Republicans funded the dossier first.\n\n3. If the dossier is bogus, and Russia collusion is a hoax, why the hell do you keep talking about it?\n\n4. 2 indictments and 2 plea deals doesn't sound like a hoax to me."
p379
S'2:19 PM - 26 Dec 2017'
p380
tp381
a(S"Neo nazi enablers, 1.7 trillion to the deficit, 30 million off of health care, collusion with Russia, sexual predator, child molester, 1/3 spent at vacationing.\nI'd say he's not getting enough credit either.\n#ImpeachTrump #LiarInChief #LockThemUp\nSigned..#resistance"
p382
S'2:18 PM - 26 Dec 2017'
p383
tp384
a(S'Yes it\xe2\x80\x99s a conspiracy theory, but on balance less implausible than the whole Russia collusion nonsense pushed unanimously by WaPo, NYT, CNN or even the Financial Times. https://twitter.com/elizabethleavos/status/910955065338400773\xc2\xa0\xe2\x80\xa6'
p385
S'2:18 PM - 26 Dec 2017'
p386
tp387
a(S'Trump administration ends 2017 confronting Russia after year of collusion accusations - Fox News https://apple.news/AmWeVWMysR2ewoBaTk83oVQ\xc2\xa0\xe2\x80\xa6'
p388
S'2:18 PM - 26 Dec 2017'
p389
tp390
a(S'Hahahahaha.......So now the Russia collusion/attack/invasion/ is coming up goose eggs.....BLAME RUSSIA!!!  Boy our @CIA /@FBI must be nothing but a bunch of fools to be played over and over by the SAME PEOPLE!'
p391
S'2:17 PM - 26 Dec 2017'
p392
tp393
a(S'Hey Russia  How about a Russia-American election starting March 18. Putin/Trump vs Clinton/Navalny? Chicago rules: Everyone votes, meddling and collusion are legal, and paper ballots.'
p394
S'2:17 PM - 26 Dec 2017'
p395
tp396
a(S'\xe2\x80\x9cInstead they look at phony Trump/Russia \xe2\x80\x98collusion,\xe2\x80\x99 which doesn\xe2\x80\x99t  exist. The Dems are using this terrible (and bad for our country) Witch Hunt for evil politics but the R\xe2\x80\x99s are now fighting back like never before.'
p397
S'2:16 PM - 26 Dec 2017'
p398
tp399
a(S'1st paragraph states allegations of collusion between Trump/Russia apparently correct?  Did I miss something?'
p400
S'2:14 PM - 26 Dec 2017'
p401
tp402
a(S"Ever wonder? Why this IDIOTS trying to discredit FBI? They don't want to see their HERO #TRUMP collusion proved by FBI? Russia investigation is matter of NAT SEC. but the deep PARTISANSHIP prevent this TRAITORS to see the reality. https://twitter.com/MSNBC/status/945679188849188864\xc2\xa0\xe2\x80\xa6"
p403
S'2:11 PM - 26 Dec 2017'
p404
tp405
a(S'As for why: Sexual predation, gross misogyny, collusion with Russia, nepotism, undermining the FBI & own intelligence agencies, Puerto Rico'
p406
S'2:09 PM - 26 Dec 2017'
p407
tp408
a(S'Hannity is a tool and his own worst enemy. I have little doubt he isnt involved with Russia collusion somehow.'
p409
S'2:06 PM - 26 Dec 2017'
p410
tp411
a(S'So is it collusion when Clinton actually paid RUSSIA for the dossier?'
p412
S'2:05 PM - 26 Dec 2017'
p413
tp414
a(S"No one has ever explained what would make any Trump 'collusion' with Russia illegal...let alone presented any evidence that it happened."
p415
S'2:05 PM - 26 Dec 2017'
p416
tp417
a(S'Sorry haters and losers but there is still no proof of Trump/Russia collusion and there will never be any proof.\n\nSo go whine about something else like transgender bathrooms.'
p418
S'2:05 PM - 26 Dec 2017'
p419
tp420
a(S'Luke Harding (investigative Guardian journalist and former Russia correspondent) in his book Collusion, also with interviews with Steele and reactions from the British IC on it'
p421
S'2:03 PM - 26 Dec 2017'
p422
tp423
a(S'Hah! Putin? You people with this whole RUSSIA NARRATIVE  this is a direct result of drinking the mainstream media Kool-Aid. The United States actually influences other countries elections that is a fact. There is zero proof of collusion. Zero.. to this day'
p424
S'2:03 PM - 26 Dec 2017'
p425
tp426
a(S'HA HA HA \nTrump-Russia collusion is now Obama\xe2\x80\x99s fault. And Trump is innocent. Can\xe2\x80\x99t wait to get this joker out of the Senate. And make no mistake:  this man would be *dangerous* as the head of the CIA. He is Fox News made flesh. https://twitter.com/tomcottonar/status/945776572296032256\xc2\xa0\xe2\x80\xa6'
p427
S'2:03 PM - 26 Dec 2017'
p428
tp429
a(S'This should be enough to end that Witch Hunt of Russia Collusion/ Dossier investigation.'
p430
S'1:58 PM - 26 Dec 2017'
p431
tp432
a(S'What CNN is distracting us from-FBI Director admits there is no evidence of Collusion. Obama allowed Hezbollah to operate freely to seal Iran Deal. Uranium one investigation opened, Hillary Email investigation opened, McCabe set to retire due to Russia Investigaton pressure.'
p433
S'1:57 PM - 26 Dec 2017'
p434
tp435
a(S'GOP Rep Peter King: If There\xe2\x80\x99s Any Collusion, It\xe2\x80\x99s the FBI, Clinton Campaign, Russia (VIDEO) https://truepundit.com/gop-rep-peter-king-theres-collusion-fbi-clinton-campaign-russia-video/\xc2\xa0\xe2\x80\xa6'
p436
S'1:56 PM - 26 Dec 2017'
p437
tp438
a(S'Has anyone else noticed how all those clever "Tick, Tick, Tick" tweets of @benjaminwittes have disappeared now that the Trump-Russia Collusion script was flipped to Obama-Hillary-FBI-Russia-Collusion? Is Ben\'s stopwatch broken?\nhttp://www.nationalreview.com/article/454909/trump-russia-collusion-fbi-investigation-steele-dossier-hillary-clinton-campaign\xc2\xa0\xe2\x80\xa6pic.twitter.com/So5rySbYGB'
p439
S'1:56 PM - 26 Dec 2017'
p440
tp441
a(S'.@realDonaldTrump\'s "Fox & FrLends" (sic) tweet:\n\nPIRO: There\'s a new report out that says @FBI admits it CANNOT VERIFY the DOSSIER CLAIMS of RUSSIA/TRUMP COLLUSION\xe2\x80\xa6why would you brief FBI\xe2\x80\xa6and really TAINT them in the process?\n\nCHAFFETZ: The Dossier we have long known is BOGUS pic.twitter.com/b9XrxYiw6V'
p442
S'1:56 PM - 26 Dec 2017'
p443
tp444
a(S"Attention All Libtards it's been over 13 months  since Trump kicked your lying cheating asses if there was any wrong doing we would have had proof by now ! Find a new collusion angle Russia is boring me."
p445
S'1:56 PM - 26 Dec 2017'
p446
tp447
a(S'Embattled FBI admits it can\xe2\x80\x99t verify dossier claims of Russia, Trump campaign collusion http://www.washingtontimes.com/news/2017/dec/25/fbi-says-russia-dossiers-collusion-charges-unsubst/\xc2\xa0\xe2\x80\xa6 via @washtimes'
p448
S'1:56 PM - 26 Dec 2017'
p449
tp450
a(S'FBI agent Peter Strzok \xe2\x80\x93 who was a key counterintelligence official and who signed off on the Russia collusion... https://fb.me/KecydRHo\xc2\xa0'
p451
S'1:56 PM - 26 Dec 2017'
p452
tp453
a(S'Wrong. They despise Hillary & Obama for their collusion with Russia on the Uranium 1 deal.'
p454
S'1:55 PM - 26 Dec 2017'
p455
tp456
a(S"DOSSIER OF RUSSIA/TRUMP COLLUSION BECAUSE IT'S IMPOSSIBLE FOR FBI TO VERIFY ANYTHING THAT HAPPENED BEFORE 2017. FBI TAINTED BECAUSE THEY STILL HIRE EMPLOYEES WHO ARE NOT REPUBLICAN.\xe2\x80\x9d And they used this Crooked Hillary pile of facts as the basis for going after the Trump Campaign!"
p457
S'1:55 PM - 26 Dec 2017'
p458
tp459
a(S'Wake up don\xe2\x80\x99t forget your medication who sold Russia 20% USA Uranium HRC who paid the Fake Dossier HRC who deleted 30k emails HRC collusion?'
p460
S'1:53 PM - 26 Dec 2017'
p461
tp462
a(S'The "blizzard" that is upon us is the unsealed indictments and the collusion involving DNC and Russia...Uranium 1 will be back in the news.Hillary will look good in orange, McCain will die of "natural causes: just like GHWB..rather than face trial.the gasped heard round the world'
p463
S'1:53 PM - 26 Dec 2017'
p464
tp465
a(S'Watching local news on CBS station in Cincinnati, Ohio. They had a report by something called Polifacts. They said Trump lied about Russia interfering in the 2016 election. What said was there was no collusion between his campaign & Russia. The left`s lies never stop. FAKE NEWS pic.twitter.com/jyspQxRZ4f'
p466
S'1:53 PM - 26 Dec 2017'
p467
tp468
a(S'GOP Rep Peter King: If There\xe2\x80\x99s Any Collusion, It\xe2\x80\x99s the FBI, Clinton Campaign, Russia (VIDEO) https://truepundit.com/gop-rep-peter-king-theres-collusion-fbi-clinton-campaign-russia-video/\xc2\xa0\xe2\x80\xa6'
p469
S'1:51 PM - 26 Dec 2017'
p470
tp471
a(S'Meuller\xe2\x80\x99s investigation is digging up more on collusion between Obama and Russia/Iran than on Trump. I say, keep him on the job!!'
p472
S'1:51 PM - 26 Dec 2017'
p473
tp474
a(S'RT: 8 high ranking @TheJusticeDept & @FBI officials have been removed, reassigned or are rumored to be leaving incl. top FBI agents who worked on 2 of the most high-profile investigations in past 2 years: the probe into Clinton & Trump-Russia collusion. https://sharylattkisson.com/2017/12/25/investigating-the-investigators-at-doj-and-fbi/\xc2\xa0\xe2\x80\xa6'
p475
S'1:50 PM - 26 Dec 2017'
p476
tp477
a(S'If there\'s not "someone high up actually explicitly nixing something because of the Iran Deal," then the article is suspect? Wow, if only we treated Trump Russia collusion stories with 1/100th the skepticism...'
p478
S'1:49 PM - 26 Dec 2017'
p479
tp480
a(S"Lol!! For lying! None related to Russia collusion or the Trump campaign. Did you read the indictments? Guessing not or you would know that Podesta Group was talked about in them. Tony & John Podesta's Group that dissolved. Wonder Why? Manafort worked with them!! Coincidence?"
p481
S'1:49 PM - 26 Dec 2017'
p482
tp483
a(S'How do you know the size of his private parts? Former lover? And the small hands myth! Pathetic! Small brain? How do you think he managed to beat Hillary, Obama, Hollywood,FBI,Soros and the Bushes? He won and he is POTUS45 and still no sign of collusion with Russia'
p484
S'1:49 PM - 26 Dec 2017'
p485
tp486
a(S'Every time Donald Trump opens his mouth and says:\nNo Russian collusion\nVladimir Putin is a good guy\nWe need to become allies with Russia\nRobert Mueller is on a Witch Hunt\nDemocrats are wasting my Millions on an investigation \nFake news\nIt is a Form of Brainwashing.'
p487
S'1:47 PM - 26 Dec 2017'
p488
tp489
a(S'Trump administration ends 2017 confronting Russia after year of collusion accusations http://www.foxnews.com/politics/2017/12/26/trump-administration-ends-2017-confronting-russia-after-year-collusion-accusations.html\xc2\xa0\xe2\x80\xa6 via the @FoxNews Android app'
p490
S'1:46 PM - 26 Dec 2017'
p491
tp492
a(S'@BobSMueller needs to get to the bottom of the Russia Collusion. He will find Hillary McCabe Strzok Ohr and others financed the Fake Dossier to influence the elections. @BillHemmer @jeffsessions @Rod_Rosenstein @realDonaldTrump @DonaldJTrumpJr @FoxNews @seanhannity @IngrahamAngle'
p493
S'1:45 PM - 26 Dec 2017'
p494
tp495
a(S'So...\n\nTrump Russia collusion stories only need thin sourcing and off-record quotes but Obama administration deep-sixing Hezbollah must have highest-level sourcing with ON-record quotes?'
p496
S'1:45 PM - 26 Dec 2017'
p497
tp498
a(S"@ChuckTodd Will you\xe2\x80\x99ll ever discuss this with viewers, or spike it? FBI says Russia dossier's collusion charges unsubstantiated - Washington Times #MTPDaily #tcot #maga #thefivehttps://www.washingtontimes.com/news/2017/dec/25/fbi-says-russia-dossiers-collusion-charges-unsubst/\xc2\xa0\xe2\x80\xa6"
p499
S'1:43 PM - 26 Dec 2017'
p500
tp501
a(S'Embattled FBI admits it can\xe2\x80\x99t verify dossier claims of Russia, Trump campaign collusion\nhttps://www.washingtontimes.com/news/2017/dec/25/fbi-says-russia-dossiers-collusion-charges-unsubst/\xc2\xa0\xe2\x80\xa6'
p502
S'1:43 PM - 26 Dec 2017'
p503
tp504
a(S'RT @realDonaldTrump "@FBI tainted. Dossier is bogus. Clinton Campaign, DNC funded Dossier. FBI cannot verify claims in dossier of Russia/Trump collusion\'... http://www.foxnews.com/politics/2017/12/26/trump-accuses-fbi-using-pile-garbage-dossier-to-go-after-campaign.html\xc2\xa0\xe2\x80\xa6 -'
p505
S'1:42 PM - 26 Dec 2017'
p506
tp507
a(S'so, if the fbi were more effective and less tainted, they would have proven the trump/ russia collusion a long time ago... the lack of logic is just astounding. https://twitter.com/TeaPainUSA/status/945673301342466049\xc2\xa0\xe2\x80\xa6'
p508
S'1:42 PM - 26 Dec 2017'
p509
tp510
a(S'Trump administration ends 2017 confronting Russia after year of collusion accusations\n\nvia @FoxNewshttp://www.foxnews.com/politics/2017/12/26/trump-administration-ends-2017-confronting-russia-after-year-collusion-accusations.html\xc2\xa0\xe2\x80\xa6'
p511
S'1:41 PM - 26 Dec 2017'
p512
tp513
a(S'\xe2\x80\x9c\xe2\x80\x98Collusion\xe2\x80\x99 has been debased.\xe2\x80\x9d \nThe most Russia-skeptic line of 2017. \nI certainly say the second half a lot. :D'
p514
S'1:40 PM - 26 Dec 2017'
p515
tp516
a(S"The admitted collusion with Russia is the basis of going after the traitors involved with your campaign.  Quoting party propaganda to undermine law-enforcement tells us you're intentionally crooked, a senile Fox addict, or both."
p517
S'1:40 PM - 26 Dec 2017'
p518
tp519
a(S"Pipe down? Trump obstructed justice when he ask Comey for his loyalty and then fired him when he couldn't get it. Trump shielded himself in the collusion and corruption with Russia. He even used his own kids, Kushner, Flynn etc. We got him & your sh*t won't save him. Keep trying. https://twitter.com/seanmdav/status/944672486515445760\xc2\xa0\xe2\x80\xa6"
p520
S'1:39 PM - 26 Dec 2017'
p521
tp522
a(S'The GOP is guilty of collusion with Donnie and are afraid of being found out. But the truth will prevail. Trump/Russia conspiracy Treason/GOP/impeach/Prison'
p523
S'1:37 PM - 26 Dec 2017'
p524
tp525
a(S'So CrowdStrike installs a Russian looking virus onto the DNC Server AFTER they discover that they were stolen internally (Seth Rich?). Then, they get Fusion GPS to concoct a Trump Russia dossier to nail him for collusion. How long do they plan to keep this sham going?'
p526
S'1:34 PM - 26 Dec 2017'
p527
tp528
a(S'Read @lukeharding1968 Collusion. Meticulously pieces together Trump/Russia, including the Steele dossier. No doubts after reading it what\xe2\x80\x99s transpired.'
p529
S'1:34 PM - 26 Dec 2017'
p530
tp531
a(S"If you haven't already seen it, watch this interview with Aaron Mate and Luke Harding. This is how you interview someone claiming to have evidence of Trump / Russia collusion.  http://therealnews.com/t2/story:20761:Debate:-Where's-the-'Collusion\xc2\xa0\xe2\x80\xa6"
p532
S'1:34 PM - 26 Dec 2017'
p533
tp534
a(S'The Trump-Russia "collusion" scam gets more preposterous by the day.\xc2\xa0 Trump is arming Ukraine in ways Obama refused.\xc2\xa0 The fact is Obama appeased Russia and both tolerated\xc2\xa0 and concealed its attempts to interfere in our\xe2\x80\xa6 http://www.americanthinker.com.convey.pro/l/jVMPZr1\xc2\xa0 by #newsbusters via @c0nvey'
p535
S'1:34 PM - 26 Dec 2017'
p536
tp537
a(S'NOV 19, 2017: "FBI and DOJ officials have told congressional investigators in recent days that they have not been able to verify or corroborate the substantive allegations of collusion between Russia and the Trump campaign outlined in the Trump dossier."\nhttp://www.washingtonexaminer.com/fbi-has-not-verified-trump-dossier/article/2641207\xc2\xa0\xe2\x80\xa6'
p538
S'1:31 PM - 26 Dec 2017'
p539
tp540
a(S'Lol @CNN I thought @POTUS was colluding with Russia but now you\xe2\x80\x99re discussing him slapping new sanctions? So no more Russian collusion narrative? '
p541
S'1:31 PM - 26 Dec 2017'
p542
tp543
a(S'"FBI CANNOT (after all of this time) VERIFY CLAIMS IN DOSSIER OF RUSSIA/TRUMP COLLUSION. FBI TAINTED."\n\nI believe Trump on this one. But personally I would be more worried about the Trump/Russia connections the FBI is pursuing apart from the dossier.'
p544
S'1:30 PM - 26 Dec 2017'
p545
tp546
a(S'I supposed you are buying into the Russia collusion story as well?   Ukraine should be a NATO member as far as I am concerned and hopefully will become one soon.  Turkey not so much anymore.'
p547
S'1:27 PM - 26 Dec 2017'
p548
tp549
a(S'This is interesting and worrisome, but mostly worrisome. \nhttps://vimeo.com/248055930\xc2\xa0\n#RussiaGate #RussiaHack #Russia #Collusion #RussiaCollusion #MuellerTime #MuellerIsComing #DonaldTrump'
p550
S'1:26 PM - 26 Dec 2017'
p551
tp552
a(S"#ClintonCampaign & @DNC\npaid\nfor\nthe Trump #BogusDossier\n@FBI CAN'T VERIFY RUSSIA-TRUMP COLLUSION\n&\nused #CrookedHillary dossier 2 go after #TrumpCampaign\n#CORRUPT = FBI Mueller McCabe Rosenstein\n\n#Mueller flew #Uranium to #Moscow\n&\n#CoveredUp #UraniumOneTREASON\n#ArrestMuellerpic.twitter.com/2HHR439TZh"
p553
S'1:25 PM - 26 Dec 2017'
p554
tp555
a(S"That's nice, how about we charge @HillaryClinton for hatching a fake Russia collusion delusion to cover her REAL COLLUSION WITH RUSSIA?"
p556
S'1:24 PM - 26 Dec 2017'
p557
tp558
a(S'Trump administration ends 2017 confronting Russia after year of collusion accusations via the @FoxNews Apphttp://www.foxnews.com/politics/2017/12/26/trump-administration-ends-2017-confronting-russia-after-year-collusion-accusations.html\xc2\xa0\xe2\x80\xa6'
p559
S'1:23 PM - 26 Dec 2017'
p560
tp561
a(S'This Russia collusion is a complete dud. A made up hoax by the mostly the democrats to find an excuse as to why Hillary lost to a moron.'
p562
S'1:22 PM - 26 Dec 2017'
p563
tp564
a(S"There was Russian Collusion...Russia/Hillary/Comey/McCabe/Soros and the other American Hating Liberal Demonrats and Rhino's! #MAGAhttps://twitter.com/PoliticalShort/status/945762291324141568\xc2\xa0\xe2\x80\xa6"
p565
S'1:21 PM - 26 Dec 2017'
p566
tp567
a(S'"There\xe2\x80\x99s been a great deal of news coverage about allegations of collusion between President Trump and Russia; much of it apparently correct and some of it not." Really? Which parts are "correct"?'
p568
S'1:21 PM - 26 Dec 2017'
p569
tp570
a(S'FBI says Russia dossier\xe2\x80\x99s collusion charges unsubstantiated - http://go.shr.lc/2pwpiMi\xc2\xa0 - @washtimes'
p571
S'1:21 PM - 26 Dec 2017'
p572
tp573
a(S'I think that corruption in government exist on all sides! criminals seem to be in both political parties. Even Jill Stine is in the crosshairs of Russia collusion. There is Bias at work here in your post. If a crime has been committed I want answers and convictions #SeekingTruth'
p574
S'1:20 PM - 26 Dec 2017'
p575
tp576
a(S'@NancyPelosi @SenSchumer it\xe2\x80\x99s time to call for an investigation of the #RNC and Republicans in Congress for collusion with Russia. If they were innocent, they wouldn\xe2\x80\x99t be trying so hard to end the investigation.'
p577
S'1:18 PM - 26 Dec 2017'
p578
tp579
a(S"https://www.washingtontimes.com/news/2017/dec/25/fbi-says-russia-dossiers-collusion-charges-unsubst/\xc2\xa0\xe2\x80\xa6\n\nThe Boomerang is coming back on the Russia Collusion Dossiers; can't wait to see more Globalists operatives fall- in time for the 2018 Elections."
p580
S'1:17 PM - 26 Dec 2017'
p581
tp582
a(S"Then you are talking about Obama admin. That's the only collusion with Russia there is proof of. Tick tock"
p583
S'1:16 PM - 26 Dec 2017'
p584
tp585
a(S'Wow, still bashing America\xe2\x80\x99s FBI, intelligence service! That is what happens when you are in collusion with Russia! # lockhimup'
p586
S'1:12 PM - 26 Dec 2017'
p587
tp588
a(S'the dossier has been found to be a lie.Hillary hired fusion gps to do the dossier.Fbi hired Steel for info on the dossier.Later he admitted to lying about Russia.They did this to stop Trump from running.Then they come up with Russian collusion started by Glenn Miller'
p589
S'1:11 PM - 26 Dec 2017'
p590
tp591
a(S"Well, let's put it this way, THERE'S NO EVIDENCE OF TRUMP COLLUSION WITH RUSSIA BUT YOU STILL INSIST ON THAT SHIT! What's the difference then?"
p592
S'1:10 PM - 26 Dec 2017'
p593
tp594
a(S'See you scream collusion yet no collusion has been found. Yes there have been connections and men have lied about having no connections but no evidence has showed actual collusion with the russia and election.'
p595
S'1:10 PM - 26 Dec 2017'
p596
tp597
a(S'the DANGEROUS jewish collusion of Donald Trump Barack Obama destabilized the US Pentagon CIA FBI\n\nMike Bloomberg will let USA all done in a terrible situation that Russia and China can enjoy to take real advantage\n\n@CIA #Trump #CNN #FoxNews'
p598
S'1:10 PM - 26 Dec 2017'
p599
tp600
a(S'Syrian/Russian collusion in violating sanctions #putin #olgino #trolls #fsb #putin #oligarchs #russia #syria #assad #cyberspetsnas #fakenewshttp://ow.ly/108t30hqzVe\xc2\xa0'
p601
S'1:10 PM - 26 Dec 2017'
p602
tp603
a(S'There is no truth to Trump or Republicans colluded with Russia. There is much proof of collusion between dems and Russia and now with Iran.'
p604
S'1:08 PM - 26 Dec 2017'
p605
tp606
a(S"Hey @realDonaldTrump  You're right, there wasn't collusion. You conspired with Russia to win the election. Jail time imminent.  Happy New Year."
p607
S'1:07 PM - 26 Dec 2017'
p608
tp609
a(S'This was one of the real goals of the collusion scam-to prevent @realDonaldTrump from working diplomatically with Russia through corrupt social pressure. It could have helped save lives in the conflict against ISIS.'
p610
S'1:07 PM - 26 Dec 2017'
p611
tp612
a(S"Dude, keep believing you don't hate. The facts prove otherwise. Russia collusion was by Hillary and the DNC. Where the hell do you get your lies from? Oh I know CNN. Know what the hell your talking about. pic.twitter.com/TegXT5Q27g"
p613
S'1:06 PM - 26 Dec 2017'
p614
tp615
a(S'Pay close attention to the #Russia investigation. R\xe2\x80\x99s on the hill are doing everything in their power to discredit the @FBI and distract us from what really happened: potential direct collusion by @realDonaldTrump, @mike_pence, the @GOP & co. We can\xe2\x80\x99t let them do this.'
p616
S'1:06 PM - 26 Dec 2017'
p617
tp618
a(S"@Dylan1Y \n1. At least 2 pages of the dossier has been verified. \n\n2. Republicans funded the dossier first.\n\n3. If the dossier is bogus, and Russia collusion is a hoax, why the hell do you keep talking about it?\n\n4. 2 indictments and 2 plea deals doesn't sound like a hoax to me. https://twitter.com/realDonaldTrump/status/945646491955290113\xc2\xa0\xe2\x80\xa6"
p619
S'1:06 PM - 26 Dec 2017'
p620
tp621
a(S'Schiff: New evidence shows possible Trump-Russia collusion http://crwd.fr/2mxQ2Kd\xc2\xa0pic.twitter.com/4CAOUYDFMh'
p622
S'1:06 PM - 26 Dec 2017'
p623
tp624
a(S'The main Russia collusion I have seen runs from HRC/DNC through Mark E. Elias, a DC atty, to Glenn Simpson/Fusion GPS to C. Steele to the Russian government. Millions were spent to work with the Russian government to implicate DJT on anything.'
p625
S'1:05 PM - 26 Dec 2017'
p626
tp627
a(S'Beleaguered FBI admits it can\xe2\x80\x99t verify dossier claims of Russia, Trump collusion http://russia.trendolizer.com/2017/12/beleaguered-fbi-admits-it-cant-verify-dossier-claims-of-russia-trump-collusion.html\xc2\xa0\xe2\x80\xa6pic.twitter.com/mL64BlA7Ac'
p628
S'1:02 PM - 26 Dec 2017'
p629
tp630
a(S'The gig is up people!  Shut up about Trump Russia collusion! https://twitter.com/riddick_ac/status/945758522108649472\xc2\xa0\xe2\x80\xa6'
p631
S'1:02 PM - 26 Dec 2017'
p632
tp633
a(S'Did Churchill win the election because of collusion with Russia?'
p634
S'1:02 PM - 26 Dec 2017'
p635
tp636
a(S'FBI says Russia Dossier\xe2\x80\x99s Collusion Charges Are Unsubstantiated - https://buff.ly/2lcMtWt\xc2\xa0 - @washtimespic.twitter.com/cYq5BY52Uj'
p637
S'1:00 PM - 26 Dec 2017'
p638
tp639
a(S"Very true. We need to find out how deep the collusion between Russia and the DNC goes. There's no proof of collusion on the Trump side. We already know Russian Intel was bought and used by DNC and Hillary campaign. Now to find out if Obama admin used Dossier for surveillance."
p640
S'1:00 PM - 26 Dec 2017'
p641
tp642
a(S'ofccadjust RT unseen1_unseen: SUCK IT LEFTISTS. The RUSSIAN HOAX IS ON LIFE SUPPORT. You all have been lied too by ObamaClinton stooges. \n\nFBI says Russia dossier\xe2\x80\x99s collusion charges unsubstantiated - http://go.shr.lc/2pwpiMi\xc2\xa0  - washtimeshttps://twitter.com/GoldStarMomTX55/status/945761000602652672\xc2\xa0\xe2\x80\xa6'
p643
S'12:59 PM - 26 Dec 2017'
p644
tp645
a(S'Exactly. I am one of your constituents and I strongly disagree with you. This attempt to stop this investigation into possible collusion with Russia is simply wrong.'
p646
S'12:59 PM - 26 Dec 2017'
p647
tp648
a(S'this is a person that is part of the corruption in DC.FBI is guilty and they have the evidence needed to fire McCabe.He is guilty during the campaign going against Trump.Came up with the fake dossier.Russia collusion started by the founder of fusion gps.Glenn Miller'
p649
S'12:59 PM - 26 Dec 2017'
p650
tp651
a(S'ofccadjust RT unseen1_unseen: SUCK IT LEFTISTS. The RUSSIAN HOAX IS ON LIFE SUPPORT. You all have been lied too by ObamaClinton stooges. \n\nFBI says Russia dossier\xe2\x80\x99s collusion charges unsubstantiated - http://go.shr.lc/2pwpiMi\xc2\xa0 - washtimes'
p652
S'12:59 PM - 26 Dec 2017'
p653
tp654
a(S"I heard Donald Trump had lots of emails on a private server that probably proved Russia collusion. He deleted tens of thousands of emails and bleach-bit and smashed his team's mobile phones and computers. Would this be OK? It was for HRC."
p655
S'12:59 PM - 26 Dec 2017'
p656
tp657
a(S'8 high ranking DOJ & FBI officials have been removed, reassigned or are rumored to be leaving incl  top FBI agents who helped whitewash  Clinton\xe2\x80\x99s mishandling of classified info as Sec State, & the still bogus "Trump-Russia collusion" allegations  https://sharylattkisson.com/2017/12/25/investigating-the-investigators-at-doj-and-fbi/\xc2\xa0\xe2\x80\xa6pic.twitter.com/NhBzLlp4k7'
p658
S'12:58 PM - 26 Dec 2017'
p659
tp660
a(S'If Trump offers an olive leaf to Russia these idiots jump all over him with collusion crap. The smart thing is foster good relations with nuclear power and that was thrown in his face. This does not mean be naive about Russia, but why be rude??'
p661
S'12:58 PM - 26 Dec 2017'
p662
tp663
a(S'Author @lukeharding1968 of book "Collusion" can\'t produce one shred of  evidence of collusion between Trump and Russia in 1/2 hour interview. Because there is no actual evidence, just a lot of innuendo that Putin is a bad guy, so he must have done it. http://therealnews.com/t2/story:20761:Where%27s-the-%27Collusion%27%3F\xc2\xa0\xe2\x80\xa6pic.twitter.com/rBNX22XVXA'
p664
S'12:57 PM - 26 Dec 2017'
p665
tp666
a(S"I have no doubt that the Trumps have shady ties to Russia. Everyone with a 401k has shady ties to Russia. But that's not the same as collusion. If you're going to accuse a sitting President of treason I need to see proof. I don't care what form it takes, but let's see your PROOF."
p667
S'12:55 PM - 26 Dec 2017'
p668
tp669
a(S'Left wing legislators and MSM commentators continue to insist Russia helped Trump in the election. What I saw was Wiki exposing emails that showed Dem back-biting, collusion, lying and cheating. See how quickly they swept Donna B. under the rug?'
p670
S'12:55 PM - 26 Dec 2017'
p671
tp672
a(S"But ==the collusion with Russia isn't the only reason they can impeach Trump, obstruction of justice, laundering money and a lot of other things it is hinted that Mueller already has verified."
p673
S'12:54 PM - 26 Dec 2017'
p674
tp675
a(S'Beleaguered FBI admits it can\xe2\x80\x99t verify dossier claims of Russia, Trump collusion http://www.projectrepublictoday.com/2017/12/26/beleaguered-fbi-admits-cant-verify-dossier-claims-russia-trump-collusion/\xc2\xa0\xe2\x80\xa6 via @ProjectRepToday'
p676
S'12:54 PM - 26 Dec 2017'
p677
tp678
a(S'FBI: Stop spending taxpayers money on  phony TRUMP-RUSSIA collusion, No evidence, STOP IT!'
p679
S'12:54 PM - 26 Dec 2017'
p680
tp681
a(S"Not very inclined to believe US intel agancies, but how can you not think Trump is a Russian stooge? \n\n'Putin\xe2\x80\x99s Man in the White House? Real Trump Russia Scandal is Not Mere Collusion, U.S. Counterspies Say' http://www.newsweek.com/trump-putin-man-white-house-russia-investigation-scandal-moscow-kremlin-755321\xc2\xa0\xe2\x80\xa6"
p682
S'12:53 PM - 26 Dec 2017'
p683
tp684
a(S'Trump administration ends 2017 confronting Russia after year of collusion accusations via the @FoxNews Apphttp://www.foxnews.com/politics/2017/12/26/trump-administration-ends-2017-confronting-russia-after-year-collusion-accusations.html\xc2\xa0\xe2\x80\xa6'
p685
S'12:52 PM - 26 Dec 2017'
p686
tp687
a(S'WOW, @foxandfrlends  \xe2\x80\x9cDossier is bogus. Clinton Campaign, @DNC funded Dossier. FBI CANNOT (after all of this time) VERIFY CLAIMS IN DOSSIER OF RUSSIA/TRUMP COLLUSION. FBI TAINTED.\xe2\x80\x9d And they used this #CrookedHillary pile of garbage as the basis for going after the Trump Campaign!pic.twitter.com/naGZLGh9Or'
p688
S'12:52 PM - 26 Dec 2017'
p689
tp690
a(S'FBI says Russia dossier\xe2\x80\x99s collusion charges unsubstantiated - http://go.shr.lc/2pwpiMi\xc2\xa0 - @washtimes'
p691
S'12:52 PM - 26 Dec 2017'
p692
tp693
a(S"There is the FBI's Russia collusion. Closer to home than they thought. https://twitter.com/AmichaiStein1/status/945755126140162050\xc2\xa0\xe2\x80\xa6"
p694
S'12:52 PM - 26 Dec 2017'
p695
tp696
a(S'RT MalcolmNance RT cbouzy: 1. At least 2 pages of the dossier has been verified. \n\n2. Republicans funded the dossier first.\n\n3. If the dossier is bogus, and Russia collusion is a hoax, why the hell do you keep talking about it?\n\n4. 2 indictments and 2 pl\xe2\x80\xa6 https://twitter.com/MalcolmNance/status/945756582578663424malcolmnance\xc2\xa0\xe2\x80\xa6'
p697
S'12:51 PM - 26 Dec 2017'
p698
tp699
a(S"Just a reminder, that the only reason we know about the cover-up of your collusion with Russia & Putin is because of America's Free Press that exposed the many #TrumpRussia meetings, calls and other communications that you said did not happen. \n\n#TrumpRussiaConspiracy\n#TrumpLies"
p700
S'12:48 PM - 26 Dec 2017'
p701
tp702
a(S'I think a lot of them knew about collusion with Russia long before the election and either assisted or turned a blind eye.  Now they are scared.'
p703
S'12:44 PM - 26 Dec 2017'
p704
tp705
a(S'Trump administration ends 2017 confronting Russia after year of collusion accusations http://www.foxnews.com/politics/2017/12/26/trump-administration-ends-2017-confronting-russia-after-year-collusion-accusations.html\xc2\xa0\xe2\x80\xa6 via the @FoxNews Android app'
p706
S'12:43 PM - 26 Dec 2017'
p707
tp708
a(S'Beleaguered FBI admits it can\xe2\x80\x99t verify dossier claims of Russia, Trump collusion http://www.projectrepublictoday.com/2017/12/26/beleaguered-fbi-admits-cant-verify-dossier-claims-russia-trump-collusion/\xc2\xa0\xe2\x80\xa6'
p709
S'12:42 PM - 26 Dec 2017'
p710
tp711
a(S'Coming from the guy who said several times they\xe2\x80\x99re leaving?\n\nOk, this will be simple to prove you\xe2\x80\x99re lying \xe2\x80\x94 show me proof that Mueller doesn\xe2\x80\x99t have evidence of Trump/Russia collusion.\n\nIf you have none, you\xe2\x80\x99re lying.'
p712
S'12:42 PM - 26 Dec 2017'
p713
tp714
a(S'Collusion or not, is it your belief that Russia did not attempt to interfere in the election?'
p715
S'12:42 PM - 26 Dec 2017'
p716
tp717
a(S"Every single thing that @realDonaldTrump has done internationally, as undermined US' foreign and international power, While strengthening Russia's.  Collusion w/ Putin or not.  This is the result."
p718
S'12:38 PM - 26 Dec 2017'
p719
tp720
a(S"That really don't make any sense; especially since even though collusion is not proven, enough of 45's team have been involved with Russia that surely an American investigation is warranted..\n\nIt's crazy to think that Americans can't see that Russia has infiltrated our government"
p721
S'12:38 PM - 26 Dec 2017'
p722
tp723
a(S"FBI says Russia dossier's collusion charges unsubstantiated - Washington Times http://amp.washingtontimes.com/news/2017/dec/25/fbi-says-russia-dossiers-collusion-charges-unsubst/?__twitter_impression=true\xc2\xa0\xe2\x80\xa6"
p724
S'12:37 PM - 26 Dec 2017'
p725
tp726
a(S"If collusion with Russia is eventually proven that is one thing, but the destruction of our democracy within is far more disgraceful. I know the left doesn't see it this way...but that is what we are talking about."
p727
S'12:36 PM - 26 Dec 2017'
p728
tp729
a(S'Slight of hand, see, we have no DJT collusion w Russia. Oh yeah & nothing on HRC either.'
p730
S'12:36 PM - 26 Dec 2017'
p731
tp732
a(S'Oh yeah,you heard it on CNN eh just like the Russia collusion bullshit lol'
p733
S'12:36 PM - 26 Dec 2017'
p734
tp735
a(S'So the FBI Dossier Russian Collusion charges are unsubstantiated. Really yet still no proof of #TrumpRussia and there is more FBI,Russia,Hillary, proof. #TuesdayThoughts'
p736
S'12:34 PM - 26 Dec 2017'
p737
tp738
a(S"Whoa! What he's pushing is totally un-American. Is this the USA or Russia? Oh, right...\n#RussiaRussiaRussia\n#Collusion\n#MuellerTime\n#Resist"
p739
S'12:34 PM - 26 Dec 2017'
p740
tp741
a(S"When people try to say the Clinton email scandal is the same, or worse than Trump's Russia collusion.\n\nhttps://www.youtube.com/watch?v=6b0ftfKFEJg\xc2\xa0\xe2\x80\xa6"
p742
S'12:33 PM - 26 Dec 2017'
p743
tp744
a(S'None of that has anything to do with Trump or collusion. The only people colluding with Russia was Obama administration and Hillary campaign to smear Trump, steal the election, and remove the duly elected president from office. Those are the facts being revealed.'
p745
S'12:33 PM - 26 Dec 2017'
p746
tp747
a(S'#News "Trump administration ends 2017 confronting Russia after year of collusion accusations" via #FOXNEWS | http://ift.tt/2DgyTbW\xc2\xa0pic.twitter.com/QTaeG9eszt'
p748
S'12:32 PM - 26 Dec 2017'
p749
tp750
a(S'FBI says Russia dossier\xe2\x80\x99s collusion charges unsubstantiated https://www.reddit.com/r/The_Donald/comments/7m7pxu/fbi_says_russia_dossiers_collusion_charges/\xc2\xa0\xe2\x80\xa6'
p751
S'12:31 PM - 26 Dec 2017'
p752
tp753
a(S'Collusion is and never was dip shit but, dems elected officials have spent millions of millions dollars investigating nothing that\xe2\x80\x99s important. Russia , Russia.They have done el zippo for an entire year except waste taxpayers money.Your morning net and my money.\nGo to work,'
p754
S'12:29 PM - 26 Dec 2017'
p755
tp756
a(S'What do you mean the only reason the Clinton campaign says anything about Russia collusion with Donald Trump is to display at from her blatant tampering of evidence and colluding with the FBI against against Trump the pot calling the kettle black'
p757
S'12:29 PM - 26 Dec 2017'
p758
tp759
a(S'{Does a bear shit in the woods?"}\n"Is Trump Putin\xe2\x80\x99s Asset in the White House?"\n- Real Trump Russia Scandal is Not Mere Collusion, U.S. Counterspies Say http://www.newsweek.com/trump-putin-man-white-house-russia-investigation-scandal-moscow-kremlin-755321?amp=1&__twitter_impression=true\xc2\xa0\xe2\x80\xa6'
p760
S'12:29 PM - 26 Dec 2017'
p761
tp762
a(S'SUCK IT LEFTISTS. The RUSSIAN HOAX IS ON LIFE SUPPORT. You all have been lied too by ObamaClinton stooges. \n\nFBI says Russia dossier\xe2\x80\x99s collusion charges unsubstantiated - http://go.shr.lc/2pwpiMi\xc2\xa0 - @washtimes'
p763
S'12:28 PM - 26 Dec 2017'
p764
tp765
a(S'The Trump-Russia "collusion" scam gets more preposterous by the day.\xc2\xa0... http://ridder.co/v3PYNr\xc2\xa0 by #qwreggelsworth via @ridder_co'
p766
S'12:28 PM - 26 Dec 2017'
p767
tp768
a(S"Not merely confronting #Russia, but confronting Russia where it really matters. No *friend* of Russia would confront Russia in #Ukraine. This should normally negate #collusion, it won't. #Democrats aren't interested in the truth about Trump but in bringing down Trump"
p769
S'12:27 PM - 26 Dec 2017'
p770
tp771
a(S'Lengthy...but provides a lot of relevant data on creation of fantasy smear dossier at center of #RussiaCollusion lie, w/funding tied to #HRC,#DNC, #FBI, and possibly #OFA. #Truth is that ALL collusion w/Russia involved these parties, who charged Trump for crimes they committed. https://twitter.com/PoliticalShort/status/945732934132101121\xc2\xa0\xe2\x80\xa6'
p772
S'12:26 PM - 26 Dec 2017'
p773
tp774
a(S"@lukeharding1968, you want to do a real Russian Collusion story that is based on fact with empirical evidence up the kazoo? Do a piece on the Clinton's collusion with Russia. \n#UraniumOne #Clinton"
p775
S'12:26 PM - 26 Dec 2017'
p776
tp777
a(S"#TuesdayThoughts\nStill waiting for 1 Politician to Defend The President & Attack the Media for attacking our #POTUS 24 hours a day. They Cover Up Real Russian Collusion-Uranium Sale to Russia+Launch Fake Investigations on our POTUS without any evidence. Grab'em! #Americanspic.twitter.com/KGdmvciNAI"
p778
S'12:25 PM - 26 Dec 2017'
p779
tp780
a(S'Hi Donald, @realDonaldTrump, Here is some excellent advice to move the Russia Collusion Investigations along to an orderly and expeditious conclusion. https://twitter.com/davidhowardojai/status/945738447787978753\xc2\xa0\xe2\x80\xa6'
p781
S'12:24 PM - 26 Dec 2017'
p782
tp783
a(S'Russia Russia Russia.. Geeeezus get over it, the only collusion was w filthy hiLIARy & Hussein, the most corrupt duo of ALL time. By the way Rosie hasn\xe2\x80\x99t been a \xe2\x80\x9creal\xe2\x80\x9d celebrity in AGES & you tweeting this is the \xe2\x80\x9cembarrassment to the US\xe2\x80\x9d.'
p784
S'12:24 PM - 26 Dec 2017'
p785
tp786
a(S'What law did he break and as for the The Steele dossier the FBI says it cannot be verified and the clintons have taken money from Russia was it to let them influence this election by planting the the dossier and collusion story starting to look the dems are working with russia.'
p787
S'12:22 PM - 26 Dec 2017'
p788
tp789
a(S'"I know someone Trump knows whom went to Russia, so collusion possible..."'
p790
S'12:22 PM - 26 Dec 2017'
p791
tp792
a(S'The year that began with the narrative of Trump-Russia collusion is ending with an unexpected plot twist \xe2\x80\x93 the Trump administration is confronting and cracking down on Russia on several fronts, a development drawing praise from some of the president\xe2\x80\x99s bi\xe2\x80\xa6 http://ift.tt/2DgyTbW\xc2\xa0'
p793
S'12:21 PM - 26 Dec 2017'
p794
tp795
a(S"We love your honesty @POTUS \nHillary/ DNC paid a British spy to buy baloney from Russia \nThat's Russian Collusion to the tune of $12 million dollars\n#FusionGPS"
p796
S'12:20 PM - 26 Dec 2017'
p797
tp798
a(S'Trump administration ends 2017 confronting Russia after year of collusion accusations @FoxNews\nhttp://feeds.foxnews.com/~r/foxnews/politics/~3/_IY4Kj6WBK8/trump-administration-ends-2017-confronting-russia-after-year-collusion-accusations.html\xc2\xa0\xe2\x80\xa6'
p799
S'12:20 PM - 26 Dec 2017'
p800
tp801
a(S'Hmm..Steele initiated dossier on his own re: Russia hacks to manipulate election,Trump/Campaign collusion, Manafort/Flynn, etc. Repubs 1st to buy dossier. FBI is NOT tainted. You are a pathological liar, con-man, tax evader, propagandist & most despised president in history.'
p802
S'12:20 PM - 26 Dec 2017'
p803
tp804
a(S'I have to agree with Trump. Russia collusion is an invention of the FBI. Sad but true.'
p805
S'12:20 PM - 26 Dec 2017'
p806
tp807
a(S'Russia collusion confirmed'
p808
S'12:19 PM - 26 Dec 2017'
p809
tp810
a(S'It doesn\xe2\x80\x99t count as #Russia collusion if it was done in service of #IranDealhttps://twitter.com/Doranimated/status/945750602365263878\xc2\xa0\xe2\x80\xa6'
p811
S'12:19 PM - 26 Dec 2017'
p812
tp813
a(S'FBI Admits Truth About Trump And Russia. No evidence of collusion.  https://www.westernjournalism.com/report-fbi-admits-cant-find-evidence-trump-campaign-colluded-russia/?utm_source=Twitter&utm_medium=PostBottomSharingButtons&utm_content=2017-12-26&utm_campaign=websitesharingbuttons\xc2\xa0\xe2\x80\xa6'
p814
S'12:17 PM - 26 Dec 2017'
p815
tp816
a(S"1 it's a shame Fox news can't keep up. The veracity has been in question for a while. 2. Your own spawn have said you had dealings with Russia multiple time, then you denied it every other day. And 3. If there was no collusion, why did you have to prompt Jr with talking points?"
p817
S'12:17 PM - 26 Dec 2017'
p818
tp819
a(S"The one comment on the link says exactly what I was thinking and perhaps refers to what @Goad4Truth was saying.  First paragraph of story, much of what was apparently correct?  News coverage or Trump/Russia collusion?  I didn't think much of either was correct."
p820
S'12:16 PM - 26 Dec 2017'
p821
tp822
a(S'Trump administration ends 2017 confronting Russia after year of collusion accusations http://fxn.ws/2Dh2fqC\xc2\xa0 @JuddBerger'
p823
S'12:16 PM - 26 Dec 2017'
p824
tp825
a(S'Personally, I do not assign any nefarious or political agenda to the Russia probe of Trump collusion. I believe that the FBI may have panicked a little bit thinking that there was not enough time to do the necessary investigation to see if what they were seeing was legitimate.'
p826
S'12:15 PM - 26 Dec 2017'
p827
tp828
a(S'They have been attempting it since day 1.  Recounts, Russia collusion, sex scandal, everything in their playbook, except two fact: He won more states and the power elites who selected Hillary, turned on her in the end because they realized she is crazy and rogue'
p829
S'12:13 PM - 26 Dec 2017'
p830
tp831
a(S"I always said since before Trump was elected: Democrats, you better be careful what you wish for when keep on pushing for the Russia-Trump collusion conspiracy. Because sooner or later the lie it's going to come around and bite you all in the ass http://nyp.st/2kYO8zK\xc2\xa0"
p832
S'12:13 PM - 26 Dec 2017'
p833
tp834
a(S"Collusion with Trump's team?-No evidence provided.\nWhat else is there to investigate? I'm not of Trump fan. But I wanna relations between the USA & Russia be at least normal. Very toxic atmosphere now. No good 4 both countries."
p835
S'12:12 PM - 26 Dec 2017'
p836
tp837
a(S'8 high ranking DOJ & FBI officials have been removed, reassigned or are rumored to be leaving. They include the top FBI agents who worked on the probe into Hillary Clinton\xe2\x80\x99s mishandling of classified info and the Trump-Russia collusion investigation. https://sharylattkisson.com/2017/12/25/investigating-the-investigators-at-doj-and-fbi/\xc2\xa0\xe2\x80\xa6'
p838
S'12:11 PM - 26 Dec 2017'
p839
tp840
a(S"I'm sorry, but where are you getting your information that the Trump\\Russia collusion was true? I have seen nothing anywhere that corroborates that theory."
p841
S'12:11 PM - 26 Dec 2017'
p842
tp843
a(S'Trump is attacking McCabe and the FBI because McCabe is a material witness in the Russia Probe. Comey confided in McCabe in Trumps attempt to get Comey to stop investigating Flynn. The FBI has Russian Collusion & Obstruction information that wil be used to impeach Trump.'
p844
S'12:10 PM - 26 Dec 2017'
p845
tp846
a(S"Dear #MSM, Please stop reporting @POTUS Trump won't accept that Russia interfered in the election. He knows they did. Also, stop saying collusion and call it what it is, conspiracy. Thanks, S Dub #ImpeachTrump #Resist"
p847
S'12:10 PM - 26 Dec 2017'
p848
tp849
a(S'Steve Bannon confesses that Donald Trump campaign conspired with Russia http://www.palmerreport.com/politics/bannon-confesses-steve-trump-russia/6927/\xc2\xa0\xe2\x80\xa6 via @PalmerReport\n#TrumpRussia #Bannon #Confesses #MAGA #Collusion w/#Russia & #Kushner #oops #LOL'
p850
S'12:08 PM - 26 Dec 2017'
p851
tp852
a(S'Embattled @FBI admits it can\xe2\x80\x99t verify #FakeDossier claims of Russia, Trump campaign collusion #tcot #TrumpTrain @GOP https://www.washingtontimes.com/news/2017/dec/25/fbi-says-russia-dossiers-collusion-charges-unsubst/\xc2\xa0\xe2\x80\xa6'
p853
S'12:08 PM - 26 Dec 2017'
p854
tp855
a(S'I am guessing Democrats will demand Mueller be investigated for Collusion with Trump & Russia\n\n\xc2\xaf\\_(\xe3\x83\x84)_/\xc2\xaf\n\n#MAGA  #Trump #tcot #nra #DeepState = #DOJ #FBIhttps://twitter.com/JacobAWohl/status/945729818703708160\xc2\xa0\xe2\x80\xa6'
p856
S'12:08 PM - 26 Dec 2017'
p857
tp858
a(S"Show me in the Flynn, Manafort, Gates & Papadopoulos indictments where 2016 TRUMP-RUSSIA ELECTION COLLUSION is and I'll show you a blank photograph. It doesn't exist."
p859
S'12:07 PM - 26 Dec 2017'
p860
tp861
a(S"@NicoleDWallace @MSNBC is a brainwashed moron who doesn't have the facts-only collusion was #Hillary/#Russia-what an idiot puppet!-Get up 2 speed!\n\xe2\x80\x98Do You Work For Mueller Now?\xe2\x80\x99: Chris Christie Eats Nicolle Wallace\xe2\x80\x99s Lunch [VIDEO] http://dailycaller.com/2017/12/19/do-you-work-for-mueller-now-chris-christie-eats-nicolle-wallaces-lunch-video/?utm_source=site-share\xc2\xa0\xe2\x80\xa6 via @dailycaller"
p862
S'12:07 PM - 26 Dec 2017'
p863
tp864
a(S'Congressman Rooney called for a purge of the FBI and the DOJ (from traitors). He talks about Muller and Co. Muller covered up the sale of  20% of US uranium to a Russian comopany (Uranium One) and now he is "investigating" Trump for "collusion with Russia"\nhttp://youtu.be/X2EK05jUZpY\xc2\xa0pic.twitter.com/XFFYyUKAH3'
p865
S'12:05 PM - 26 Dec 2017'
p866
tp867
a(S'PM dealt with Russia Long before DJT, and then worked in the campaign.  He wasn\xe2\x80\x99t indicted for collusion.  Flynn was allowed to talk to the Russians but lied to the FBI, which is a fed offense.  I don\xe2\x80\x99t think Mueller has proof, if he did, it would be out by now'
p868
S'12:04 PM - 26 Dec 2017'
p869
tp870
a(S'Rooney needs a head check ASAP like a bunch of his GOP colleagues who are trying very hard to subvert the Russia Trump campaign collusion investigation'
p871
S'12:03 PM - 26 Dec 2017'
p872
tp873
a(S'And we all think somethings got your brain.  You are easily manipulated if you still think Russia and Trump collusion happened. Same with Dossier.'
p874
S'12:02 PM - 26 Dec 2017'
p875
tp876
a(S"Trump Dossier\nis\nBOGUS\n#ClintonCampaign & @DNC\nfunded\nit\n\n@FBI CAN'T VERIFY RUSSIA-TRUMP COLLUSION\n&\nused #CrookedHillary dossier 2 go after #TrumpCampaign\n#CORRUPT = FBI Mueller McCabe Rosenstein\n\n#Mueller flew #Uranium 2 #Moscow\n&\n#CoveredUp #UraniumOne #TREASON\n#ArrestMuellerpic.twitter.com/NpUhQsugoi"
p877
S'12:02 PM - 26 Dec 2017'
p878
tp879
a(S'@realDonaldTrump @POTUS You seem more upset your busted getting pissed on rather than collusion with Russia convictions coming soon https://twitter.com/owillis/status/945737990457917440\xc2\xa0\xe2\x80\xa6'
p880
S'12:01 PM - 26 Dec 2017'
p881
tp882
a(S'Sharyl, I read the entire article and I agree with your assessment re: the behavior of the people from the FBI & DOJ, but I don\'t see any proof of "collusion" between @POTUS and Russia prior to or after the election.'
p883
S'12:01 PM - 26 Dec 2017'
p884
tp885
a(S'#FakeNews @CNN is changing their tone about the collusion delusion \n\nThey went from Trump colluded with Russia to Russia interfered with election.\n\nSomething big is coming next weeks \n\nWhen you see the #FakeNews @CNN pull back from their absurd news and BS.\n\n@PressSecpic.twitter.com/lNB92c1OOB'
p886
S'12:00 PM - 26 Dec 2017'
p887
tp888
a(S'Conspiracies ,What do you think Russia Trump collusion story is . CNN and democrats have been pushing that conspiracy from the start.'
p889
S'11:59 AM - 26 Dec 2017'
p890
tp891
a(S"It's absolutely valid. Are you saying Manafort isn't connected to both Putin and DJT? I can show photos of Flynn with both Putin and DJT.\n\nWell you made the claim that there's Mueller has no evidence of Trump/Russia collusion, so do you have it or not? Simple as that."
p892
S'11:59 AM - 26 Dec 2017'
p893
tp894
a(S'Their argument is any collusion is irrelevant because it didn\xe2\x80\x99t change the outcome.  This is their attempt to distract from the collusion itself.  Now, it seems possible the Russia-Trump relationship has an illicit financial component that will overshadow everything else.'
p895
S'11:55 AM - 26 Dec 2017'
p896
tp897
a(S"FBI says Russia dossier's collusion charges unsubstantiated - Washington Times https://www.washingtontimes.com/news/2017/dec/25/fbi-says-russia-dossiers-collusion-charges-unsubst/\xc2\xa0\xe2\x80\xa6"
p898
S'11:52 AM - 26 Dec 2017'
p899
tp900
a(S'History will show that the only collusion in the 2016 election was when Podesta gave Russia his password'
p901
S'11:51 AM - 26 Dec 2017'
p902
tp903
a(S"FBI says Russia dossier\xe2\x80\x99s collusion charges unsubstantiated: 'Concedes the document\xe2\x80\x99s major core charges of election collusion remain unsubstantiated' http://ift.tt/2BVb5OP\xc2\xa0"
p904
S'11:51 AM - 26 Dec 2017'
p905
tp906
a(S'BREAKING -> FBI admits it can\xe2\x80\x99t verify dossier claims of Russia, Trump campaign collusion https://www.washingtontimes.com/news/2017/dec/25/fbi-says-russia-dossiers-collusion-charges-unsubst/\xc2\xa0\xe2\x80\xa6'
p907
S'11:49 AM - 26 Dec 2017'
p908
tp909
a(S'#RussiaGate RT @realDonaldTrump WOW @foxandfrlends "Dossier bogus. Clinton Campaign DNC funded Dossier. FBI CANNOT (after all this time) VERIFY CLAIMS OF RUSSIA/TRUMP COLLUSION. FBI TAINTED." They used this Crooked Hillary pile of garbage as basis for going after Trump Campaign!'
p910
S'11:49 AM - 26 Dec 2017'
p911
tp912
a(S'The Bogus one is You Donny Boy! Man up and confess your collusion with Russia and the Nation might spare you jail time provided you resign and go away!!!'
p913
S'11:49 AM - 26 Dec 2017'
p914
tp915
a.