(lp0
(S'Leaked Descriptions Of Infamous "Russia Ads" Derail Collusion Narrative "They Show Support For Clinton" | Zero Hedge http://www.zerohedge.com/news/2017-09-25/leaked-descriptions-infamous-russia-ads-derail-collusion-narrative-they-showed-suppo\xc2\xa0\xe2\x80\xa6'
p1
S'4:05 PM - 27 Sep 2017'
p2
tp3
a(S"Trump Facts\n1- Brags About Grouping Women\n2 - Wants Nuclear War with NK\n3 - Lying about Russia collusion\n4 - Won't show his taxes\n5 - Crazy pic.twitter.com/D5Rp7hlUTx"
p4
S'4:57 PM - 27 Sep 2017'
p5
tp6
a(S"Explains why @facebook fought hard to keep all this out of investigators hands. It destroys the Left's Russia collusion narrative even more."
p7
S'4:57 PM - 27 Sep 2017'
p8
tp9
a(S"Treason doesn't get an impeachment pass. For collusion w/Russia to hack US elections, Trump will go to prison. http://www.independent.co.uk/news/world/americas/us-politics/trump-russia-investigation-dossier-christopher-steele-us-robert-mueller-us-election-senate-a7970821.html?amp\xc2\xa0\xe2\x80\xa6"
p10
S'4:56 PM - 27 Sep 2017'
p11
tp12
a(S'everything to do with Russia, you side with them. you running interference for them is not in your favor relative to collusion.'
p13
S'4:55 PM - 27 Sep 2017'
p14
tp15
a(S'Destruction....everything he touches. trump/Russia collusion impeach trump\nHe makes me sick. He is a piece of turd. He will get whats due... https://twitter.com/AJ/status/913179938517286912\xc2\xa0\xe2\x80\xa6'
p16
S'4:54 PM - 27 Sep 2017'
p17
tp18
a(S'WAHHHHHHHHHHHH. You poor, oppressed billionaire. Facebook let Russia run pro-Trump ads during the election. Collusion? #IdiotInChief'
p19
S'4:54 PM - 27 Sep 2017'
p20
tp21
a(S'Zuckerberg/Russia collusion.Not surprised! Does MSM know about this?! Just kidding. https://twitter.com/ap_patriot/status/913189040547082240\xc2\xa0\xe2\x80\xa6'
p22
S'4:53 PM - 27 Sep 2017'
p23
tp24
a(S'This is why he ignored PR. He totally messed up their economic system. @realDonaldTrump . Con man Scammer. Trump/Russia collusion. Impeach'
p25
S'4:52 PM - 27 Sep 2017'
p26
tp27
a(S'trump campaign was indeed working with russia on where to target the social media campaigns\ntons of collusion, wait for bob muellers report'
p28
S'4:52 PM - 27 Sep 2017'
p29
tp30
a(S"@AlanDersh says collusion is not a crime and even if Trump did collude with Russia, it's not illegal.  I suppose u know more than him huh "
p31
S'4:51 PM - 27 Sep 2017'
p32
tp33
a(S"Mueller is gonna be paying a visit to NASA soon!!! How deep does collusion go between Putin and dotard donnie???? now they're building a MOON BASE?? ARE YOU F-ing KIDDINGF ME? didn't they get the memo from Morgan Freeman?? We are at WAR with Russia! I mean....HELLLLOO! pic.twitter.com/Wxag5KnZQm"
p34
S'4:51 PM - 27 Sep 2017'
p35
tp36
a(S'This is what collusion looks like. This is what treason looks like. Trump is defending Russia against allegations they used Facebook. https://twitter.com/realDonaldTrump/status/913034591879024640\xc2\xa0\xe2\x80\xa6'
p37
S'4:50 PM - 27 Sep 2017'
p38
tp39
a(S'Question over possible collusion is becoming a distraction to the greater geopolitical issue: Russia tried to influence our election.'
p40
S'4:49 PM - 27 Sep 2017'
p41
tp42
a(S'Stein, Voter Suppression, Email Stories, Russia ads, Sanders primary, Russian collusion with Trump campaign. It took all that to beat her.'
p43
S'4:48 PM - 27 Sep 2017'
p44
tp45
a(S"i dnt think ppl believe there was active collusion.  \nEither way the division isn't good for the US.  We should all be concerned abt russia."
p46
S'4:47 PM - 27 Sep 2017'
p47
tp48
a(S'You guessed it! Collusion! The reason is your COLLUSION with Russia.'
p49
S'4:46 PM - 27 Sep 2017'
p50
tp51
a(S'Reports are now coming out that Ukraine warned Facebook about Russia & Facebook ignored warnings. Collusion?'
p52
S'4:46 PM - 27 Sep 2017'
p53
tp54
a(S'#Hardball Attacking Hillary by the Republican Party & Jill Stein in the same manner does have connections to Collusion w/Russia'
p55
S'4:44 PM - 27 Sep 2017'
p56
tp57
a(S'Leaked Descriptions Of Infamous "Russia Ads" Derail Collusion Narrative "They Showed Support For Clinton" http://www.zerohedge.com/news/2017-09-25/leaked-descriptions-infamous-russia-ads-derail-collusion-narrative-they-showed-suppo\xc2\xa0\xe2\x80\xa6'
p58
S'4:44 PM - 27 Sep 2017'
p59
tp60
a(S'When will you testify about your part of collusion with Russia and Putin?'
p61
S'4:43 PM - 27 Sep 2017'
p62
tp63
a(S'Racist little elf trying to save his job. How DARE he attack media for revealing Trump Team collusion with Russia. Enjoy federal prison'
p64
S'4:42 PM - 27 Sep 2017'
p65
tp66
a(S'ARTICLE SOURCE\n\nLeaked Descriptions Of Infamous "Russia Ads" Derail Collusion Narrative \n\nhttp://www.zerohedge.com/news/2017-09-25/leaked-descriptions-infamous-russia-ads-derail-collusion-narrative-they-showed-suppo\xc2\xa0\xe2\x80\xa6\n#Trump #Tucker #Hannity'
p67
S'4:42 PM - 27 Sep 2017'
p68
tp69
a(S'You forgot to list treason and collusion with Russia.'
p70
S'4:42 PM - 27 Sep 2017'
p71
tp72
a(S"Almost seems Left's rabid push of false Russia allegations was preemptive cover for DEM collusion/treason w Russia and islamists, doesn't it https://twitter.com/JacobAWohl/status/912719611728093184\xc2\xa0\xe2\x80\xa6"
p73
S'4:41 PM - 27 Sep 2017'
p74
tp75
a(S'I personally am calling for @realDonaldTrump to be locked up for collusion with Russia'
p76
S'4:41 PM - 27 Sep 2017'
p77
tp78
a(S'Waiting for Mueller to investigate BLM for collusion with Russia, which bought BLM ads in Baltimore and Ferguson to alter the vote\n\n#Tucker'
p79
S'4:40 PM - 27 Sep 2017'
p80
tp81
a(S'The Coney scandals continue to mount but Mueller is still on Russia. Collusion corruption contempt how much more before this stops'
p82
S'4:40 PM - 27 Sep 2017'
p83
tp84
a(S"Collusion? Collusion. Collusion. Big investigation on Trump Russia Collusion. It won't be long now. In the meantime save Puerto Rico!"
p85
S'4:37 PM - 27 Sep 2017'
p86
tp87
a(S'What?! This is unacceptable collusion! :D\n\n  \xe2\x80\x9cNASA and Russia are teaming up to build a lunar station \xe2\x80\x9d\n\nhttps://twitter.com/i/moments/913082115171979264\xc2\xa0\xe2\x80\xa6'
p88
S'4:37 PM - 27 Sep 2017'
p89
tp90
a(S'@HardballChris glad you are reporting on @DrJillStein collusion with Russia along with Trump.  #Election2016 #MuellerInvestigation'
p91
S'4:37 PM - 27 Sep 2017'
p92
tp93
a(S'Roger Stone\xe2\x80\x99s Trump Defense Backfires As He Carefully Avoids Russia Collusion Question - http://eepurl.com/c426hj\xc2\xa0'
p94
S'4:36 PM - 27 Sep 2017'
p95
tp96
a(S'You stole "fake news" (from Breitbart), the @nytimes "apology" (never happened) & now "collusion" (from Russia investigation against you)'
p97
S'4:34 PM - 27 Sep 2017'
p98
tp99
a(S'WTF ? Russia collusion ?!? Umm......you realize we are talking Steelers and meanness.'
p100
S'4:34 PM - 27 Sep 2017'
p101
tp102
a(S'the ONLY collusion with Russia which is a FACT is #democrat #Facebook selling ads to #Russia - https://twitter.com/DonaldJTrumpJr/status/913177795311865857\xc2\xa0\xe2\x80\xa6'
p103
S'4:33 PM - 27 Sep 2017'
p104
tp105
a(S"@GeoffRickly here's another.... so tell you and your lib buddies to stop with the russia collusion... there is collusion only with dems https://twitter.com/DonaldJTrumpJr/status/913177795311865857\xc2\xa0\xe2\x80\xa6"
p106
S'4:32 PM - 27 Sep 2017'
p107
tp108
a(S'Leaked Descriptions Of Facebook "Russia Ads" Derail Collusion Narrative "They Showed Support For Clinton" http://www.zerohedge.com/news/2017-09-25/leaked-descriptions-infamous-russia-ads-derail-collusion-narrative-they-showed-suppo\xc2\xa0\xe2\x80\xa6'
p109
S'4:29 PM - 27 Sep 2017'
p110
tp111
a(S"I want an investigation into Russia-Clinton collusion!  If it wasn't for them, Trump would have won the popular vote! LOL!"
p112
S'4:28 PM - 27 Sep 2017'
p113
tp114
a(S'Retweeted Donald Trump Jr. (@DonaldJTrumpJr):\n\nLeaked Descriptions Of Infamous "Russia Ads" Derail Collusion... http://fb.me/3hs7ijxtg\xc2\xa0'
p115
S'4:22 PM - 27 Sep 2017'
p116
tp117
a(S'collusion argument DEMS push is exactly what Rus wants as is what NFL players did. Lets stop Russia fing w/us & prevent from happening again'
p118
S'4:20 PM - 27 Sep 2017'
p119
tp120
a(S"Mueller couldn't find any Russia Collusion, trying to Say that somehow Russia influenced ppl 2 vote 4 Trump, therefore election not valid?"
p121
S'4:20 PM - 27 Sep 2017'
p122
tp123
a(S'Blah blah blah RUSSIAN PUPPET blah blah blah RUSSIA COLLUSION blah blah blah Russian pee tapes blah blah blah RUSSIAN PUPPET blah blah blah'
p124
S'4:20 PM - 27 Sep 2017'
p125
tp126
a(S'Trump will paint this "fake news" but the past proves his motives are obvious i.e. he gives Putin/Russia a pass & what-do-ya-know #collusion https://twitter.com/Evan_McMullin/status/912824183456923648\xc2\xa0\xe2\x80\xa6'
p127
S'4:15 PM - 27 Sep 2017'
p128
tp129
a(S'Trump supporters:Black lives Matter/Russia collusion https://twitter.com/cnn/status/913167762759012352\xc2\xa0\xe2\x80\xa6'
p130
S'4:14 PM - 27 Sep 2017'
p131
tp132
a(S"President Fox, everything you've mentioned plus collusion with Russia plus robbing the taxpayers  plus attempting to be an emperor."
p133
S'4:13 PM - 27 Sep 2017'
p134
tp135
a(S'Members of the USA Congress and all elected officials in the USA should be investigated to see if the are guilty of collusion with Russia!'
p136
S'4:13 PM - 27 Sep 2017'
p137
tp138
a(S'Was FDR guilty of collusion with Russia? - Theodore Alexander Vegh'
p139
S'4:12 PM - 27 Sep 2017'
p140
tp141
a(S'WTF ? Russia collusion ?!? Umm......you realize we are talking Steelers and child. #WTF'
p142
S'4:12 PM - 27 Sep 2017'
p143
tp144
a(S'#MAGA #BetsyRiot #MourinhoOut #WengerOut Leaked Descriptions Of Infamous "Russia Ads" Derail Collusion Narrative "\xe2\x80\xa6 http://www.zerohedge.com/news/2017-09-25/leaked-descriptions-infamous-russia-ads-derail-collusion-narrative-they-showed-suppo\xc2\xa0\xe2\x80\xa6'
p145
S'4:09 PM - 27 Sep 2017'
p146
tp147
a(S'The anti-fracking ads were certainly anti-Trump, pro Hillary.  Another blow to the idiotic Russia/Trump/collusion idea.'
p148
S'4:09 PM - 27 Sep 2017'
p149
tp150
a(S'@HillaryClinton the election is over. pls get over it. americans elected trump because hillary like obama was inept and weak, no message, just identity branding; n not because of russia collusion (not even a crime) or fb ads.'
p151
S'4:09 PM - 27 Sep 2017'
p152
tp153
a(S'DonaldJTrumpJr says Leaked Descriptions Of Infamous "Russia Ads" Derail Collusion Narrative "They Show Support For\xe2\x80\xa6 http://www.zerohedge.com/news/2017-09-25/leaked-descriptions-infamous-russia-ads-derail-collusion-narrative-they-showed-suppo\xc2\xa0\xe2\x80\xa6'
p154
S'4:08 PM - 27 Sep 2017'
p155
tp156
a(S'Wonder if the Russians are behind Antifa &the rest of these uprisings?.Massive coverup?.Trump/Russia collusion is a smoke screen/ straw man?'
p157
S'4:07 PM - 27 Sep 2017'
p158
tp159
a(S'Description Leaks Of Infamous "Russia Ads" Derail Collusion Narrative "They Showed Support For Clinton" | Zero Hedge http://www.zerohedge.com/news/2017-09-25/leaked-descriptions-infamous-russia-ads-derail-collusion-narrative-they-showed-suppo\xc2\xa0\xe2\x80\xa6'
p160
S'4:01 PM - 27 Sep 2017'
p161
tp162
a(S'The Obama Admin. got caught w/ their hand in the cookie jar. They illegally spied on Trump and had to blame Russia collusion as the reason.'
p163
S'4:00 PM - 27 Sep 2017'
p164
tp165
a(S'Yet these same ppl are up in arms about supposed collusion between Facebook, Russia, and Trump.\nIts ridiculous'
p166
S'4:00 PM - 27 Sep 2017'
p167
tp168
a(S'Bombshell report may FINALLY put Russia collusion theory to bed https://www.allenbwest.com/2017/09/27/bombshell-report-finally-put-russia-conspiracy-theory-bed/\xc2\xa0\xe2\x80\xa6 via @AllenWest'
p169
S'3:59 PM - 27 Sep 2017'
p170
tp171
a(S'The collusion was between trump supporters and Russia. Backed by actual evidence.'
p172
S'3:58 PM - 27 Sep 2017'
p173
tp174
a(S'Who\xe2\x80\x99s in collusion with Russia. They want to divide our country. So does mainstream media & liberals. Something to think about.'
p175
S'3:57 PM - 27 Sep 2017'
p176
tp177
a(S'Yeah collusion with you and Russia'
p178
S'3:52 PM - 27 Sep 2017'
p179
tp180
a(S'WHEN NO TRUMP/RUSSIA COLLUSION FOUNDWHAT ACTIONS SHOULD BE TAKEN AGAINST LYING MEDIA ON FAKE STORIES?SHOULD HAVE 2 NAME SOURCESBOTH FINED'
p181
S'3:51 PM - 27 Sep 2017'
p182
tp183
a(S'Russia bought a pro BLM ad & targeted > Baltimore and Ferguson <Hillary  supported BLM at her convention,Hillary won Balt & ferg >COLLUSION'
p184
S'3:50 PM - 27 Sep 2017'
p185
tp186
a(S'Seems like Facebook was in collusion w Russia to sway election'
p187
S'3:48 PM - 27 Sep 2017'
p188
tp189
a(S"You are deflecting, trying to steer the discussion away from your collusion with Russia. It's Not Working!"
p190
S'3:45 PM - 27 Sep 2017'
p191
tp192
a(S"Brink of war w/NK, multiple healthcare fail, praised Nazis, pardoned racist, ignored PR for NFL, Russia collusion, etc. Yeah, you're unique. https://twitter.com/realDonaldTrump/status/913035855509491712\xc2\xa0\xe2\x80\xa6"
p193
S'3:45 PM - 27 Sep 2017'
p194
tp195
a(S'Roger Stone: No Trump collusion with Russia https://goo.gl/V2Vn6j\xc2\xa0'
p196
S'3:43 PM - 27 Sep 2017'
p197
tp198
a(S'The great Russia Collusion scandal is now reduced to hashtag hackery and MF memes....November is a year folks....we been on this for 1 year.'
p199
S'3:42 PM - 27 Sep 2017'
p200
tp201
a(S'Finally evidence of collusion between Russia and USA https://www.google.com/amp/s/phys.org/news/2017-09-russia-moon-joint-lunar-station.amp\xc2\xa0\xe2\x80\xa6 @POTUS'
p202
S'3:42 PM - 27 Sep 2017'
p203
tp204
a(S'Dam all i get on Facebook os candy crush invites is that russia collusion to piss me off'
p205
S'3:40 PM - 27 Sep 2017'
p206
tp207
a(S'It was for the good not like Russia who fixed a Clown with Severe mental issues and his Traitorism and Crimes, Collusion to win!'
p208
S'3:40 PM - 27 Sep 2017'
p209
tp210
a(S"Why in the hell aren't we demanding opening hearings on #russia #putinspuppet #collusion And why aren't we protecting our monthly elections! https://twitter.com/thehill/status/913167850612908032\xc2\xa0\xe2\x80\xa6"
p211
S'3:40 PM - 27 Sep 2017'
p212
tp213
a(S'patience, this collusion with Russia is gonna hit so hard, these morons will scurry back under the rocks they crawled from and deny all.'
p214
S'3:37 PM - 27 Sep 2017'
p215
tp216
a(S'@wolfblitzer u r continuing the russia collusion (not even a crime) fake news narrative. americans are smart. they dont vote or make decisions based on fb ads. no more fake news pls'
p217
S'3:37 PM - 27 Sep 2017'
p218
tp219
a(S' odinsblog: Mannn I cannot wait for Trump to be found guilty of treason and collusion with Russia.... https://tmblr.co/ZZx_Zd2QR2DBZ\xc2\xa0'
p220
S'3:36 PM - 27 Sep 2017'
p221
tp222
a(S"And it can't happen fast enough. This investigation isn't about Russia Trump collusion. There is none! It's a Witch Hunt to smear Trump."
p223
S'3:34 PM - 27 Sep 2017'
p224
tp225
a(S'Facebook DID help Trump. Zuckerberg pleads ignorance in his involvement in Russia collusion.'
p226
S'3:34 PM - 27 Sep 2017'
p227
tp228
a(S'Hmmm maybe FAKEBOOK- Russia Collusion?!!'
p229
S'3:31 PM - 27 Sep 2017'
p230
tp231
a(S"Black lives matter working with the Russians... you mean there wasn't any Trump/Russia collusion.... Black lives matter traitors"
p232
S'3:27 PM - 27 Sep 2017'
p233
tp234
a(S'EXCLUSIVE:Podesta Was Board Member Of Firms Linked To Russian Investors http://dailycaller.com/2017/03/21/exclusive-podesta-was-board-member-of-firm-linked-to-russian-investors/?utm_source=site-share\xc2\xa0\xe2\x80\xa6 Flash Back Russia Collusion @realdonaldtrump'
p235
S'3:25 PM - 27 Sep 2017'
p236
tp237
a(S'Who does Wolf have back up sources? Vietnam Valor thief @SenBlumenthal pushing RUSSIA ads enabled by Trump/Kouchner collusion = NO FACTS\nBS https://twitter.com/serafinos/status/913165925528014848\xc2\xa0\xe2\x80\xa6'
p238
S'3:21 PM - 27 Sep 2017'
p239
tp240
a(S'I wish I knew...seems Russia Trump collusion story spiraled into oogle/fb democrats selling ads to targeted voters.  NOTHING to do w Trump.'
p241
S'3:19 PM - 27 Sep 2017'
p242
tp243
a(S'Jeff Sessions is one tangled in the Russia Collusion any way!  I really think he should bow out before he gets his tongue stuck in freezer!'
p244
S'3:19 PM - 27 Sep 2017'
p245
tp246
a(S'Roger Stone: Trump adviser denies Russia collusion during 2016 election | US news | The Guardian https://www.theguardian.com/us-news/2017/sep/26/roger-stone-donald-trump-russia-investigation-house-committee\xc2\xa0\xe2\x80\xa6'
p247
S'3:12 PM - 27 Sep 2017'
p248
tp249
a(S"#Russia #Gazprom overtakes #USA #ExxonMobil as world's largest #Energy company b/c of #Trump collusion : https://www.rt.com/business/404500-gazprom-largest-energy-company/\xc2\xa0\xe2\x80\xa6"
p250
S'3:09 PM - 27 Sep 2017'
p251
tp252
a(S'Shocker!! Did they link it to the Russia collusion also?'
p253
S'3:09 PM - 27 Sep 2017'
p254
tp255
a(S'The @realDonaldTrump  Rep. Party is so guilty when it comes to Collusion with Russia they are building sound proof rooms to talk on phone pic.twitter.com/iGt5aJVbiA'
p256
S'3:08 PM - 27 Sep 2017'
p257
tp258
a(S"Personal style is not what matters here. It's trump/GOP's corruption,  collusion & conspiracy w Russia (agst America's interests) that does."
p259
S'3:06 PM - 27 Sep 2017'
p260
tp261
a(S'Nope. The only real collusion has always been between you and Russia. You and your son have bragged about it for years. You are a HUGE '
p262
S'3:03 PM - 27 Sep 2017'
p263
tp264
a(S'No Russia. No collusion. No treason. Watch all the tape of DT over the last 30 yrs. He was fated to become POTUS.'
p265
S'3:03 PM - 27 Sep 2017'
p266
tp267
a(S'Breaking:\n\nUnited States and Russia in collusion to build top-secret Moon Base! https://twitter.com/engadget/status/913150320980647936\xc2\xa0\xe2\x80\xa6'
p268
S'3:01 PM - 27 Sep 2017'
p269
tp270
a(S'Kind of like CNN pushing Trump/Russia collusion, when THEY colluded with Donna Brazile and Clinton campaign....'
p271
S'2:58 PM - 27 Sep 2017'
p272
tp273
a(S'Another Russia collusion story backtracked.  Shall we keep score now? http://fb.me/278piqpbf\xc2\xa0'
p274
S'2:56 PM - 27 Sep 2017'
p275
tp276
a(S'"Russians" created Muslim FB page that backed Hillary and made Anti-Islamaphobia memes after Orlando shooting.\nSo Clinton / Russia collusion https://twitter.com/RVAwonk/status/913157409660706816\xc2\xa0\xe2\x80\xa6'
p277
S'2:55 PM - 27 Sep 2017'
p278
tp279
a(S'who cares abt manafort? russia collusion (not even a crime) is fake news obsession by cnn. pathetic. if there is something there, it would have been leaked by now.'
p280
S'2:53 PM - 27 Sep 2017'
p281
tp282
a(S'Leaked Descriptions Of Infamous "Russia Ads" Derail Collusion Narrative "They Showed Support For Clinton" |  http://www.zerohedge.com/news/2017-09-25/leaked-descriptions-infamous-russia-ads-derail-collusion-narrative-they-showed-suppo\xc2\xa0\xe2\x80\xa6'
p283
S'2:52 PM - 27 Sep 2017'
p284
tp285
a(S'Oh lookie here: \n\nLeaked descriptions of Facebook "Russia Ads" derail the entire Trump collusion narrative. The ads actually showed support for Hillary Clinton.\n\nNow will Mueller and his merry men admit this find? http://www.zerohedge.com/news/2017-09-25/leaked-descriptions-infamous-russia-ads-derail-collusion-narrative-they-showed-suppo\xc2\xa0\xe2\x80\xa6'
p286
S'2:50 PM - 27 Sep 2017'
p287
tp288
a(S'#Russia#collusion #Obstruction #TreasonousTraitor #LiarInChief #FakePresident #rascist #fascist #ImpeachTrump #YOURFIRED !@realDonaldTrump'
p289
S'2:46 PM - 27 Sep 2017'
p290
tp291
a(S'We want to know about\nRUSSIA COLLUSION \nTAX RETURNS BIGGEST CROWDS LIE\n3 MILLION ILLEGAL VOTERS LIE\nRUSSIA COLLUSION pic.twitter.com/bfAs7eVTKC'
p292
S'2:46 PM - 27 Sep 2017'
p293
tp294
a(S"Manafort didn't need a salary from DT because he was getting paid by Russia & had his debts forgiven by Ukraine. Then the collusion began."
p295
S'2:46 PM - 27 Sep 2017'
p296
tp297
a(S"US finally targets tech titans on their role in misinformation and collusion with Russia. Except it's on the premises of anti-fracking... https://twitter.com/businessinsider/status/913133273349595136\xc2\xa0\xe2\x80\xa6"
p298
S'2:46 PM - 27 Sep 2017'
p299
tp300
a(S'No surprise liberal Google has execs in Russia helping Russia hack our election and pushing the trump collusion hoax'
p301
S'2:44 PM - 27 Sep 2017'
p302
tp303
a(S"Roger Stone will have no access to the findings of congress, let's ask him if there's evidence in Trumps Russia collusion - conservatives"
p304
S'2:43 PM - 27 Sep 2017'
p305
tp306
a(S'Roger Stone plans to deny collusion, evidence of Russia hacking to Congress http://dlvr.it/Pqv1gP\xc2\xa0pic.twitter.com/dnSfmiJSZA'
p307
S'2:41 PM - 27 Sep 2017'
p308
tp309
a(S'#BREAKING #NEWS #OBAMAFORPRISON #TREASON #Wiretapping #DNCCORRUPTION #COLLUSION #Russia #URANIUM #HILLARYCLINTONFORPRISON #COLLUSION https://twitter.com/Cory_1077/status/913081212838699008\xc2\xa0\xe2\x80\xa6'
p310
S'2:39 PM - 27 Sep 2017'
p311
tp312
a(S'Collusion?? Oh you mean like you & Russia? '
p313
S'2:38 PM - 27 Sep 2017'
p314
tp315
a(S'collusion can easily be shown with Russia- and the democrat party, going back over 50 yrs.'
p316
S'2:38 PM - 27 Sep 2017'
p317
tp318
a(S"@FoxNews @seanhannity @TuckerCarlson until there is Rock Solid evidence which will never happen please don't mention Trump Russia collusion,"
p319
S'2:37 PM - 27 Sep 2017'
p320
tp321
a(S"And I don't think Russia gave a damn what any of those people stood for; Putin despises Hilary.  Proving Collusion is much more difficult"
p322
S'2:36 PM - 27 Sep 2017'
p323
tp324
a(S'Bull. Bull. Bull. Bull. Trump/Russia collusion? Frelling right. Your own kid admitted it. And now FB, etc againt you & turning YOU in. Loser'
p325
S'2:35 PM - 27 Sep 2017'
p326
tp327
a(S"@CNNSitRoom It's amazing how you & other networks can conclude Kim Jong-un personally killed someone but not Trump's collusion with Russia!"
p328
S'2:35 PM - 27 Sep 2017'
p329
tp330
a(S'BREAKING: "Senate Intel Committee" To Have Mark Zuckerberg Testify About Facebook Selling Ads To Russia.\nThe Real Collusion\n#JailZuckerbergpic.twitter.com/i7BsqOpDM9'
p331
S'2:34 PM - 27 Sep 2017'
p332
tp333
a(S'...like marching with torches,waving Swastika-Flags,paid private flights,or collusion with Russia - all perfectly normal'
p334
S'2:31 PM - 27 Sep 2017'
p335
tp336
a(S"I wrote Junior's note to deny Russia, but we all know we did collusion. We made it great again! @DonaldJTrumpJr #ConfessToSomethingStupid"
p337
S'2:27 PM - 27 Sep 2017'
p338
tp339
a(S'@DonaldJTrumpJr LIED about who was at Russia COLLUSION meeting. @realDonaldTrump lies about "not good for me." RELEASE tax returns to prove.'
p340
S'2:26 PM - 27 Sep 2017'
p341
tp342
a(S'The only collusion is between you and Russia.'
p343
S'2:23 PM - 27 Sep 2017'
p344
tp345
a(S'Yep, collusion, you + Russia = @POTUS. The biggest bloodless coup ever in the United States. #traitor'
p346
S'2:23 PM - 27 Sep 2017'
p347
tp348
a(S'Showing his taxes and being cleared of collusion with Russia.'
p349
S'2:22 PM - 27 Sep 2017'
p350
tp351
a(S'Scary.  Special Prosecutor appointed based upon bogus Russia Collusion. Raided while asleep & frisked wife for weapons just out of bed.'
p352
S'2:16 PM - 27 Sep 2017'
p353
tp354
a(S'@gehrig38 While investigating Trump & Russia collusion, the findings are pointing to Trump instead. Illegal leaking,passing Top Secret info https://twitter.com/kredo0/status/913049878422487040\xc2\xa0\xe2\x80\xa6'
p355
S'2:14 PM - 27 Sep 2017'
p356
tp357
a(S'Money laundering, now collusion w Russia, classified info R right in Oval Office, crooks like Trump stealing from working USA! T best crime!'
p358
S'2:12 PM - 27 Sep 2017'
p359
tp360
a(S'Roger Stone: Trump adviser denies Russia collusion during 2016 election https://www.theguardian.com/us-news/2017/sep/26/roger-stone-donald-trump-russia-investigation-house-committee?CMP=share_btn_tw\xc2\xa0\xe2\x80\xa6'
p361
S'2:12 PM - 27 Sep 2017'
p362
tp363
a(S"IRS starts handing tax and financial files to Mueller's investigators as Russia collusion probe heats up http://dailym.ai/2fyUTZG\xc2\xa0"
p364
S'2:06 PM - 27 Sep 2017'
p365
tp366
a(S"Oh brother....another distraction. Russia, collusion, racism, misogyny, and BLM aren't working so now the Dems want to expose emails. Lame!"
p367
S'2:02 PM - 27 Sep 2017'
p368
tp369
a(S'Trump has destroyed himself with his Russia Collusion know as CONSPIRACY No one toBlame but himself you are blind not to see writing on wall'
p370
S'1:59 PM - 27 Sep 2017'
p371
tp372
a(S'Well I researched: 3rd failure to repeal Obammacare 2 Ignoring Puerto Rico 3. Mueller investigating for collusion with collusion with Russia'
p373
S'1:57 PM - 27 Sep 2017'
p374
tp375
a(S'He must have known about Trumps collusion with Russia.But I still have empathy for his family-very sorry for your loss.'
p376
S'1:56 PM - 27 Sep 2017'
p377
tp378
a(S'Trump would know a lot about collusion. He is in bed with Putin, has been colluding with Russia for a while. https://twitter.com/realDonaldTrump/status/913034591879024640\xc2\xa0\xe2\x80\xa6'
p379
S'1:54 PM - 27 Sep 2017'
p380
tp381
a(S'Rigging an election with a foreign power, Interfering with investigations, Diverting the obvious not to include you collusion with Russia[2]'
p382
S'1:53 PM - 27 Sep 2017'
p383
tp384
a(S"Don't forget, shit head Trump is still under investigation for collusion with Russia."
p385
S'1:52 PM - 27 Sep 2017'
p386
tp387
a(S'Bombshell report may FINALLY put Russia collusion theory to bed https://www.allenbwest.com/2017/09/27/bombshell-report-finally-put-russia-conspiracy-theory-bed/\xc2\xa0\xe2\x80\xa6 via @AllenWest'
p388
S'1:49 PM - 27 Sep 2017'
p389
tp390
a(S'Funny how CNN now talks about Russia trolls influencing voting in us but nothing on collusion and trump funny how the narrative changed'
p391
S'1:49 PM - 27 Sep 2017'
p392
tp393
a(S'Trump demands loyalty over ethics. Manafort sold Trump camp info to Russia = betrayed Trump. Trump hasn\xe2\x80\x99t denounced him. Suggests collusion'
p394
S'1:47 PM - 27 Sep 2017'
p395
tp396
a(S'Has the NSC advised you about your collusion with Russia to steal the election in your "Art of the Steal"?\nDo tell. https://twitter.com/realDonaldTrump/status/912836917296877569\xc2\xa0\xe2\x80\xa6'
p397
S'1:43 PM - 27 Sep 2017'
p398
tp399
a(S'Right now, @facebook is facing some tough questions about its collusion with Russia for Trump. #Karma, baby!'
p400
S'1:38 PM - 27 Sep 2017'
p401
tp402
a(S"THey are? I don't see a special counsel investigating anyone from previous administration...yet 6 months in to Trumpsville Russia collusion?"
p403
S'1:37 PM - 27 Sep 2017'
p404
tp405
a(S'The Russia thing, in summary. By one of my favorite educators, @johngreen. https://youtu.be/ZYSjPZUqLdk\xc2\xa0 #russia #trump #collusion'
p406
S'1:34 PM - 27 Sep 2017'
p407
tp408
a(S'More evidence of collusion with Russia: #ImpeachTrump !http://www.telegraph.co.uk/news/2017/09/27/russia-us-agree-cooperate-building-first-lunar-station/\xc2\xa0\xe2\x80\xa6'
p409
S'1:33 PM - 27 Sep 2017'
p410
tp411
a(S'The WHOLE COUNTRY is anti Trump, stupid. The only collusion going on is you with Russia, which will be revealed soon!'
p412
S'1:31 PM - 27 Sep 2017'
p413
tp414
a(S"BTW, a guy who was innocent of collusion with Russia wouldn't be so paranoid about being investigated. It wouldn't bother an innocent person"
p415
S'1:29 PM - 27 Sep 2017'
p416
tp417
a(S"Maxine Waters and Dianne Feinstein said there's no evidence of collusion between the Trump campaign and Russia. Finally the truth out of 'em"
p418
S'1:29 PM - 27 Sep 2017'
p419
tp420
a(S'No. Collusion is what you did with Russia'
p421
S'1:29 PM - 27 Sep 2017'
p422
tp423
a(S'@HighSierraMan Not sure about Russia/Trump Admin collusion, however I AM sure Russians are buying tickets to Kid Rock shows. Who else would?'
p424
S'1:26 PM - 27 Sep 2017'
p425
tp426
a(S"@perfectshere21 seems like they just may have, at least this go around. @DoubleA0317 Don't forget, Russia: collusion, hacking, & lies"
p427
S'1:26 PM - 27 Sep 2017'
p428
tp429
a(S"I say the same thing when you people say they're wasn't collusion between Russia and the CEO.  you fell into my trap like I knew you would. pic.twitter.com/ZlTBN7hV99"
p430
S'1:25 PM - 27 Sep 2017'
p431
tp432
a(S'Just wondering...\nHave they tried Googling "Trump campaign collusion with Russia to win 2016 election"?\nI mean, 2,480,000 results. Right? https://twitter.com/politico/status/913129593355325441\xc2\xa0\xe2\x80\xa6'
p433
S'1:25 PM - 27 Sep 2017'
p434
tp435
a(S"Then tell that to all the people attempting to claim Trump's collusion, ya know.. since Russia moved on (your words not mine)"
p436
S'1:22 PM - 27 Sep 2017'
p437
tp438
a(S'#you #are #an #idiot #if #you #cant #see #trump #Collusion #with #russia #DONTBESTUPIDSTUPID'
p439
S'1:21 PM - 27 Sep 2017'
p440
tp441
a(S"You're mixing that up with your collusion with Russia. And your campaign's. And Dotard Jr's."
p442
S'1:18 PM - 27 Sep 2017'
p443
tp444
a(S'What are you talking about? Any collusion was @HillaryClinton selling OUR uranium to Russia which went to Iran. Shut your piehole https://twitter.com/kmgantz/status/913056973456887808\xc2\xa0\xe2\x80\xa6'
p445
S'1:18 PM - 27 Sep 2017'
p446
tp447
a(S'Leaked Descriptions Of Infamous "Russia Ads" Derail Collusion Narrative "They Showed Support For Clinton" | Zero Hed http://www.zerohedge.com/news/2017-09-25/leaked-descriptions-infamous-russia-ads-derail-collusion-narrative-they-showed-suppo\xc2\xa0\xe2\x80\xa6'
p448
S'1:17 PM - 27 Sep 2017'
p449
tp450
a(S'You had ties to Russia during campaign and continue to have them now in your presidency. Collusion?'
p451
S'1:16 PM - 27 Sep 2017'
p452
tp453
a(S'Trump/Russia collusion has just been a distraction from Democrat/MSM collusion.'
p454
S'1:12 PM - 27 Sep 2017'
p455
tp456
a(S'#RobertMueller to interview #WhiteHouse officials in coming days in probe into potential #Trump-#Russia collusion http://abcn.ws/2fyIBjW\xc2\xa0'
p457
S'1:07 PM - 27 Sep 2017'
p458
tp459
a(S'FBI Chief Says He Has Not Seen White House Interference In Russia Collusion Probe http://crwd.fr/2wfRmBD\xc2\xa0pic.twitter.com/CwbwuOx9ZA'
p460
S'1:02 PM - 27 Sep 2017'
p461
tp462
a(S'He is guilty of collusion, Comey, Obama, Clinton and cronies.hell he was in Russia for uranium deal'
p463
S'12:57 PM - 27 Sep 2017'
p464
tp465
a(S"You're the king of collusion. Collusion with Russia to steal the election. https://twitter.com/realDonaldTrump/status/913034591879024640\xc2\xa0\xe2\x80\xa6"
p466
S'12:57 PM - 27 Sep 2017'
p467
tp468
a(S"And Russia isn't the only one. At some point someone will need to investigate Israeli collusion as well, to see whether @realDonaldTrump's stance on the Iran deal is actually just the Mossad's stance.http://thehill.com/policy/international/310948-mossad-chief-met-with-trump-team\xc2\xa0\xe2\x80\xa6"
p469
S'12:56 PM - 27 Sep 2017'
p470
tp471
a(S"Roger Stone's Trump Defense Backfires As He Carefully Avoids Russia Collusion Question via@politicususa http://www.politicususa.com/2017/09/26/roger-stone-refuses-collusion-aware-evidence.html\xc2\xa0\xe2\x80\xa6 #TrumpRussia"
p472
S'12:55 PM - 27 Sep 2017'
p473
tp474
a(S'Who is going to interview mueller on collusion with Clinton,Coney,Obama, Russia'
p475
S'12:54 PM - 27 Sep 2017'
p476
tp477
a(S'The baseless accusations of collusion resulting in childish resistance from certain public figures stresses our relationship with Russia.'
p478
S'12:53 PM - 27 Sep 2017'
p479
tp480
a(S'Grab them by the pussy - fact. Don jr colliding with Russia -fact. What fake news? The only collusion is you and Russia! #loserpresident'
p481
S'12:51 PM - 27 Sep 2017'
p482
tp483
a(S'BREAKING NEWS \xe2\x96\xba ROGER STONE - STATEMENT TO CONGRESS - RUSSIA COLLUSION https://youtu.be/QoJYGI7QTus\xc2\xa0 via @YouTube'
p484
S'12:48 PM - 27 Sep 2017'
p485
tp486
a(S'Russia Collusion, money laundering, Obstruction of Justice - we will not let you deflect.'
p487
S'12:47 PM - 27 Sep 2017'
p488
tp489
a(S'Donors with Russia ties might have contributed to GOP http://inside.com/campaigns/inside-daily-brief-2017-09-27-3433/sections/donors-with-russia-ties-might-have-contributed-to-gop-19490\xc2\xa0\xe2\x80\xa6\nMore evidence of collusion!'
p490
S'12:45 PM - 27 Sep 2017'
p491
tp492
a(S'@GOP @CNN What bloody alternate universe r u in Dotard. ALL former presidents r greater than u will ever be #MajorFailure #Russia #Collusion'
p493
S'12:43 PM - 27 Sep 2017'
p494
tp495
a(S"In collusion with Russia. Regarding Puerto Rico he's using a similar tactic, in my opinion. Some think his remarks regarding .."
p496
S'12:43 PM - 27 Sep 2017'
p497
tp498
a(S'Leaked Descriptions Of Infamous  "Russia Ads" Derail Collusion Narrative \nhttp://www.zerohedge.com/news/2017-09-25/leaked-descriptions-infamous-russia-ads-derail-collusion-narrative-they-showed-suppo\xc2\xa0\xe2\x80\xa6'
p499
S'12:42 PM - 27 Sep 2017'
p500
tp501
a(S'Robert Mueller to interview White House officials in coming days in probe into potential Trump-Russia collusion http://abcn.ws/2fyIBjW\xc2\xa0pic.twitter.com/haVTdBhNYt'
p502
S'12:41 PM - 27 Sep 2017'
p503
tp504
a(S'Only collusion is between you and Russia and it is about to be proven. Only fake thing is your presidency and it is about to end!'
p505
S'12:38 PM - 27 Sep 2017'
p506
tp507
a(S'In fact #Mueller should include her in the @FBI investigation. @DrJillStein played her part in collusion w/Russia. #WhatDidSheGetForHerPart'
p508
S'12:35 PM - 27 Sep 2017'
p509
tp510
a(S'And for being greedy..and for having no empathy..and for being racist..and for being a liar..and for collusion with Russia..too many!'
p511
S'12:35 PM - 27 Sep 2017'
p512
tp513
a(S'Trump adviser Roger Stone denies collusion with Russia - ABC News - http://abcn.ws/2xCMBpG\xc2\xa0 via @ABC\nExamine what Stone actually said'
p514
S'12:35 PM - 27 Sep 2017'
p515
tp516
a(S'Why are they going back 11years when I thought they were investigating "Russia Collusion" Bcuz it\'s Fake about Russia. Dems pushing story'
p517
S'12:31 PM - 27 Sep 2017'
p518
tp519
a(S'Tell us about THE TRUMP/RUSSIA COLLUSION pic.twitter.com/nbP4et0EfN'
p520
S'12:31 PM - 27 Sep 2017'
p521
tp522
a(S'The same people who think kneeling is unpatriotic probably to have zero issues with POTUS collusion/ treason with Russia '
p523
S'12:30 PM - 27 Sep 2017'
p524
tp525
a(S'Trump/Russia Collusion:\nClapper-"no evidence"\nBrennan-"no evidence"\nPelosi-"no evidence"\nSchiff-"no evidence"\nComey-"no evidence"'
p526
S'12:27 PM - 27 Sep 2017'
p527
tp528
a(S'Aha! Russia and Facebook collusion!!! Wonder when Zuckerberg and FB will start smashing hard drives!  https://twitter.com/Thomas1774Paine/status/913095640552542209\xc2\xa0\xe2\x80\xa6'
p529
S'12:27 PM - 27 Sep 2017'
p530
tp531
a(S'#trumplethinskin @realDonaldTrump is still under investigation for collusion with Russia to overthrow the US Elections. #WednesdayWisdom'
p532
S'12:26 PM - 27 Sep 2017'
p533
tp534
a(S"It's not about trump Russia collusion. Mueller is doing opposition research on tax payer dime."
p535
S'12:25 PM - 27 Sep 2017'
p536
tp537
a(S"Let's suppose he does and it shows he lied about collusion with Russia. What then?"
p538
S'12:24 PM - 27 Sep 2017'
p539
tp540
a(S'Roger Stone: No Trump collusion with\xc2\xa0Russia http://chicago.dailydigest.us/2017/09/27/roger-stone-no-trump-collusion-with-russia/\xc2\xa0\xe2\x80\xa6pic.twitter.com/iLfGt7drf5'
p541
S'12:22 PM - 27 Sep 2017'
p542
tp543
a(S'As I thought: Zuckerberg made himself ridiculous; Descriptions of Infamous "Russia Ads" Derail Collusion Narrative https://youtu.be/TQTdiqz6i88\xc2\xa0'
p544
S'12:22 PM - 27 Sep 2017'
p545
tp546
a(S'@RogerJStoneJr #NWO #Gangsters #Podesta & #Comey Created RUSSIA/TRUMP Election Collusion fake story. Podesta,HRC,Mueller,Comey& Etc=CYA mode https://twitter.com/jerome_corsi/status/913002386439987201\xc2\xa0\xe2\x80\xa6'
p547
S'12:22 PM - 27 Sep 2017'
p548
tp549
a(S'Yes, CrowdStrike is THE key. To Primary fraud, Seth Rich murder, Obama collusion, Clinton orchestration, Russia phony hack, everything. pic.twitter.com/FpTiBIX09e'
p550
S'12:18 PM - 27 Sep 2017'
p551
tp552
a(S'I literally snort-laughed at that. Russians paying legal bills accrued defending against alleged collusion with Russia, what could go wrong?'
p553
S'12:13 PM - 27 Sep 2017'
p554
tp555
a(S'Roger Stone: No Trump collusion with\xc2\xa0Russia http://nashville.dailydigest.us/2017/09/27/roger-stone-no-trump-collusion-with-russia/\xc2\xa0\xe2\x80\xa6pic.twitter.com/XgaF5sMtUt'
p556
S'12:09 PM - 27 Sep 2017'
p557
tp558
a(S'So.let me get this straight! Anytime your collusion with Russia is brought up Mr. Trump(not my president)u deflect to nonsense!! #justresign'
p559
S'12:07 PM - 27 Sep 2017'
p560
tp561
a(S'The Russia probe noose is tightening around the Trump family. http://www.newsweek.com/trump-russia-investigation-noose-tightening-democrat-warns-672221#mueller\xc2\xa0\xe2\x80\xa6 #trumprussia #resisttrump #collusion #resistance'
p562
S'12:06 PM - 27 Sep 2017'
p563
tp564
a(S"On Russia, Assange, tampering, disinformation, collusion: Why aren't we calling this Cyber-warfare attack on U.S.? Let's reframe ASAP"
p565
S'12:04 PM - 27 Sep 2017'
p566
tp567
a(S'Russia-Collusion investors should consider possibility of \xe2\x80\x98tampering/influencing\xe2\x80\x99 electoral college voters. #FollowTheVoteshttps://twitter.com/rayn3ll/status/913067342397165570\xc2\xa0\xe2\x80\xa6'
p568
S'12:02 PM - 27 Sep 2017'
p569
tp570
a(S'"The Swamp" Roger Stone Denies Collusion With Russia" https://youtu.be/Hx_kqC-Mg2M\xc2\xa0 via @YouTube'
p571
S'12:02 PM - 27 Sep 2017'
p572
tp573
a(S'Well damn this is a damn good scandal in itself. Push all russia collusion crap off the table. Jared do tell! Hahaha'
p574
S'12:01 PM - 27 Sep 2017'
p575
tp576
a(S'We are still investigating the trump Russia collusion'
p577
S'12:00 PM - 27 Sep 2017'
p578
tp579
a(S'Oh wait! Collusion reminds me of Russia! \n#TrumpRussia #ImpeachTrumphttps://twitter.com/realDonaldTrump/status/913034591879024640\xc2\xa0\xe2\x80\xa6'
p580
S'11:58 AM - 27 Sep 2017'
p581
tp582
a(S'And oh by the way...Facebook fake news = Russia buying ads to influence our society.   Maybe collusion is there...on your side.'
p583
S'11:52 AM - 27 Sep 2017'
p584
tp585
a(S'Speaking of collusion, how are things with Russia? #ImpeachTrumphttps://twitter.com/realDonaldTrump/status/913034591879024640\xc2\xa0\xe2\x80\xa6'
p586
S'11:52 AM - 27 Sep 2017'
p587
tp588
a(S'Roger Stone: No Trump collusion with\xc2\xa0Russia http://sf.dailydigest.us/2017/09/27/roger-stone-no-trump-collusion-with-russia/\xc2\xa0\xe2\x80\xa6pic.twitter.com/ehJ2RuGMFr'
p589
S'11:51 AM - 27 Sep 2017'
p590
tp591
a(S"the point is that the whole Russia collusion plot is cooked up, im the divisive one? It's all good"
p592
S'11:50 AM - 27 Sep 2017'
p593
tp594
a(S'@realDonaldTrump LIAR HILLARY NEEDS TO BE LOCKED UP FOR HER EMAIL SERVER & PAY4PLAY & RUSSIA COLLUSION & UKRAINE DOSSIER'
p595
S'11:50 AM - 27 Sep 2017'
p596
tp597
a(S"You'll do anything to divert attention away from what is really going on with you and Russia. #Collusion"
p598
S'11:48 AM - 27 Sep 2017'
p599
tp600
a(S'Anyone with an IQ higher than their shoe size is anti-Trump. And if the collusion you speak of refers to you and Russia, then yes.'
p601
S'11:47 AM - 27 Sep 2017'
p602
tp603
a(S'Bombshell report may FINALLY put Russia collusion theory to\xc2\xa0bed https://politicallyofftarget.com/bombshell-report-may-finally-put-russia-collusion-theory-to-bed/\xc2\xa0\xe2\x80\xa6'
p604
S'11:47 AM - 27 Sep 2017'
p605
tp606
a(S"Oh Donny, Donny. This rattles your cage, we know. But stomping your feet doesn't alter reality. Russia used Facebook FOR you. Collusion?"
p607
S'11:43 AM - 27 Sep 2017'
p608
tp609
a(S'hahaha I\'ve seen where ppl think that everyone involved in the Russia collusion election are being "killed off" by our government. LMAO .'
p610
S'11:42 AM - 27 Sep 2017'
p611
tp612
a(S"Coup occurred 11/8/16! GOP's Crosscheck, voter supp, gerrymandering & collusion with Russia."
p613
S'11:41 AM - 27 Sep 2017'
p614
tp615
a(S'Russia collusion'
p616
S'11:41 AM - 27 Sep 2017'
p617
tp618
a(S'What about your collusion with Russia? https://twitter.com/realdonaldtrump/status/913034591879024640\xc2\xa0\xe2\x80\xa6'
p619
S'11:41 AM - 27 Sep 2017'
p620
tp621
a(S'"collusion" is something "illegal". nothing illegal bout hating you dumb fuck. most of us do. collusion is wat u did w/ russia to win POTUS. https://twitter.com/realdonaldtrump/status/913034591879024640\xc2\xa0\xe2\x80\xa6'
p622
S'11:41 AM - 27 Sep 2017'
p623
tp624
a(S"Collusion - between you and Russia - highly likely. That's why you're calling them anti-Trump, right?"
p625
S'11:39 AM - 27 Sep 2017'
p626
tp627
a(S"Collusion? No, they just reported the facts. Trump team and Russia, now that's collusion."
p628
S'11:38 AM - 27 Sep 2017'
p629
tp630
a(S'Time for Conflict of Interest Bob M to #takeaknee\n@POTUS / Russia\n324 days\n27,993,600 sec\n466,560 min\n7776 hrs\n& STILL ZERO COLLUSION\n#MAGA'
p631
S'11:37 AM - 27 Sep 2017'
p632
tp633
a(S'Hmmm..... selling advertisments 2 Russia during elections is collusion. #icymihttps://twitter.com/sdmattpotter/status/913109245478019075\xc2\xa0\xe2\x80\xa6'
p634
S'11:34 AM - 27 Sep 2017'
p635
tp636
a(S'Russia. Bots. Collusion. Obstruction. Impeachment. Jail!  Indiana hates @realDonaldTrump  as much as we hate @VP.  Carrier promise was joke'
p637
S'11:33 AM - 27 Sep 2017'
p638
tp639
a(S'Unless you were in Collusion with Russia - why would you consider them anti-Trump. Sounds like an admission of guilt.'
p640
S'11:33 AM - 27 Sep 2017'
p641
tp642
a(S'No collusion.  Facts. Just like your collusion with Russia is fact. We can see the fear in your eyes. At least you look good in orange.'
p643
S'11:32 AM - 27 Sep 2017'
p644
tp645
a(S'This pathetic "Impeach Trump" twitter acct. just regurgitates Dumbocrat propaganda all day.. Hillary.. that you behind the mask?! \nRussia collusion is a hoax..White supremacy myth is a lie.. ya\'ll got nothign left except OMG TRUMP DELETED A TWEET. \n#Trump2020 gonna be fun'
p646
S'11:32 AM - 27 Sep 2017'
p647
tp648
a(S"If you hadn't blocked so many people you would see that Twitter is anti-trump too. And the only collusion was between you and Russia."
p649
S'11:30 AM - 27 Sep 2017'
p650
tp651
a(S'Collusion? No. Its called reporting. Its not their fault you have lived ur life as a scumbag, then betrayed the USA by working with Russia https://twitter.com/realDonaldTrump/status/913034591879024640\xc2\xa0\xe2\x80\xa6'
p652
S'11:29 AM - 27 Sep 2017'
p653
tp654
a(S"What world are you living in? WallTrumpcareTax Reform? Disaster ReliefInciting war w/NK - and then there's collusion with Russia!"
p655
S'11:28 AM - 27 Sep 2017'
p656
tp657
a(S'What a coward. And corrupt. And did collusion with Russia along with his corrupt family. A bully. Mentally ill narcissist. Small-handed. https://twitter.com/funder/status/913104964171522048\xc2\xa0\xe2\x80\xa6'
p658
S'11:26 AM - 27 Sep 2017'
p659
tp660
a(S'Sick of confederate stuff being removed, BLM, Russia collusion, and now NFL. When will it end. Social media & news are hugely to blame.'
p661
S'11:26 AM - 27 Sep 2017'
p662
tp663
a(S"Is He male? CNN maybe it's Russia collusion that caused him to be registered as female what do you think? Bring a panel of experts to debate"
p664
S'11:25 AM - 27 Sep 2017'
p665
tp666
a(S"Collusion between Russia and you. That's the only collusion. Do your job and quit whining, don't you have some golf to play. Leave us alone."
p667
S'11:21 AM - 27 Sep 2017'
p668
tp669
a(S'Race only comes out of her mouth! Minorities know she "used" them just like Democrates! Again just like Russia collusion! Dems deflection!'
p670
S'11:20 AM - 27 Sep 2017'
p671
tp672
a(S'Utter crap. A year & illegal leak after illegal leak. No evidence of collusion.  Russia Collusion a total fraud? Obama did illegally spy!'
p673
S'11:19 AM - 27 Sep 2017'
p674
tp675
a(S'You know what else is anti-Trump? The truth. Every single word out of your mouth is a lie along with your traitors collusion with Russia'
p676
S'11:19 AM - 27 Sep 2017'
p677
tp678
a(S'Bombshell report may FINALLY put Russia collusion theory to bed http://ift.tt/2xFRNcg\xc2\xa0'
p679
S'11:17 AM - 27 Sep 2017'
p680
tp681
a(S"With all the problems the USA has, 45 keep talking about the NFL? Let's talk about 45 & his Russia collusion, obstruction, cheating, lying.."
p682
S'11:16 AM - 27 Sep 2017'
p683
tp684
a(S'Collusion between you and Russia?'
p685
S'11:13 AM - 27 Sep 2017'
p686
tp687
a(S'Your entire staff, yourself and Russia... collusion?'
p688
S'11:12 AM - 27 Sep 2017'
p689
tp690
a(S"but but but muh Russia collusion!?!? Facebook 'was always anti-Trump' says the president http://dailym.ai/2wVDLVt\xc2\xa0 #MAHA @joenbc"
p691
S'11:12 AM - 27 Sep 2017'
p692
tp693
a(S'.@realDonaldTrump Yes, your campaign definitely operated in collusion with Russia. https://twitter.com/realDonaldTrump/status/913034591879024640\xc2\xa0\xe2\x80\xa6'
p694
S'11:10 AM - 27 Sep 2017'
p695
tp696
a(S'I never believed in the Russia thing . I believe the Republican party was in collusion to elect Trump . Yes our election was FAKE but'
p697
S'11:10 AM - 27 Sep 2017'
p698
tp699
a(S'Robert Mueller to interview White House officials in coming days in probe into potential Trump-Russia collusion http://abcn.ws/2fyICo0\xc2\xa0pic.twitter.com/3PyLgc69nP'
p700
S'11:08 AM - 27 Sep 2017'
p701
tp702
a(S'Roger Stone: No Trump collusion with\xc2\xa0Russia http://houston.dailydigest.us/2017/09/27/roger-stone-no-trump-collusion-with-russia/\xc2\xa0\xe2\x80\xa6pic.twitter.com/PsxZL5yGR7'
p703
S'11:08 AM - 27 Sep 2017'
p704
tp705
a(S'The @GOP is against any Questions on Trump/Russian Collusion but all for blaming Environmentalists with colluding with Russia. Hypocrites! pic.twitter.com/JMGKiiwl2e'
p706
S'11:07 AM - 27 Sep 2017'
p707
tp708
a(S'Russia collusion ending badly for Dems & their lies. pic.twitter.com/8zwTJva7Sv'
p709
S'11:06 AM - 27 Sep 2017'
p710
tp711
a(S'Bombshell report may FINALLY put Russia collusion theory to bed https://www.allenbwest.com/2017/09/27/bombshell-report-finally-put-russia-conspiracy-theory-bed/\xc2\xa0\xe2\x80\xa6 via @AllenWest'
p712
S'11:04 AM - 27 Sep 2017'
p713
tp714
a(S'Except for all that alienating every ally, spouting xenophobic and racist rhetoric, collusion with Russia....'
p715
S'11:03 AM - 27 Sep 2017'
p716
tp717
a(S'Donald Trump ally Roger Stone denies collusion with Russia #OfCourseHeDoes #WhatRussiahttp://www.reuters.com/article/us-usa-trump-russia-stone/trump-ally-stone-denies-collusion-with-russia-idUSKCN1C103S\xc2\xa0\xe2\x80\xa6'
p718
S'11:02 AM - 27 Sep 2017'
p719
tp720
a(S'Facebook was helping Hillary. Russia ads were pro Hillary.\nSounds like collusion. Mark Zuckerberg @zuckhttps://twitter.com/Thomas1774Paine/status/913095640552542209\xc2\xa0\xe2\x80\xa6'
p721
S'10:54 AM - 27 Sep 2017'
p722
tp723
a(S'175,000 a day $1.750,000 10days $17,500,000 100days $35,000,000 200 days taxpayer $ wasted on Russia collusion! Tired of it yet? https://twitter.com/luisrpascual/status/913097561627430912\xc2\xa0\xe2\x80\xa6'
p724
S'10:53 AM - 27 Sep 2017'
p725
tp726
a(S'Donald Trump.\n\nRETWEET if not worth $2.3B\n\nIn 86% of wider Pentagon jobs when will not Russia Collusion -'
p727
S'10:52 AM - 27 Sep 2017'
p728
tp729
a(S"Systematic, deliberate deception ABOUT Russia's influence on our election is an impeachable offense on it's own, even without Collusion. 13/"
p730
S'10:52 AM - 27 Sep 2017'
p731
tp732
a(S'Collusion is what you and your family did with Russia.'
p733
S'10:52 AM - 27 Sep 2017'
p734
tp735
a(S"Bombshell report should FINALLY put Russia collusion story to bed -- but it won't, of course https://www.allenbwest.com/2017/09/27/bombshell-report-finally-put-russia-conspiracy-theory-bed/\xc2\xa0\xe2\x80\xa6pic.twitter.com/Uttus0vDT7"
p736
S'10:51 AM - 27 Sep 2017'
p737
tp738
a(S"from the fact that more evidence of his group's collusion with Russia keeps coming to light"
p739
S'10:50 AM - 27 Sep 2017'
p740
tp741
a(S'Collusion between you and Russia to secure the US Presidency?  I think yes. https://twitter.com/realdonaldtrump/status/913034591879024640\xc2\xa0\xe2\x80\xa6'
p742
S'10:50 AM - 27 Sep 2017'
p743
tp744
a(S"Listening to ESPN interviewing Sonny Vaccaro is like CNN interviewing Roger Stone about Trump collusion w/ Russia. He's guilty as hell."
p745
S'10:47 AM - 27 Sep 2017'
p746
tp747
a(S'https://subjectpolitics.com/trump-cleared-roger-stone-just-walked-russia-hearing-leaked-muellers-worst-nightmare/\xc2\xa0\xe2\x80\xa6\nno evidence of russia/Trump collusion? duh! yet meuller & his minions will stay for as long as they could to milk it'
p748
S'10:46 AM - 27 Sep 2017'
p749
tp750
a(S'...collusion with Russia, hiring inexperienced doofuses to work for you, insulting war heroes, vacationing all the time...should I continue?'
p751
S'10:46 AM - 27 Sep 2017'
p752
tp753
a(S"Let's investigate collusion between Sanders and Russia. Both admire government control of our economy"
p754
S'10:45 AM - 27 Sep 2017'
p755
tp756
a(S'All his remarks are bizarre. I am not sure he knows the meaning of collusion. He thought Russia/Putin liked him and wanted to help campaign.'
p757
S'10:45 AM - 27 Sep 2017'
p758
tp759
a(S'More evidence that Left committed seditious obstruction of President because there was NEVER any DT collusion with Russia.  Do not forget. https://twitter.com/malinka1102/status/913085964574167044\xc2\xa0\xe2\x80\xa6'
p760
S'10:43 AM - 27 Sep 2017'
p761
tp762
a(S'Leaked Descriptions Of Infamous "Russia Ads" Derail Collusion Narrative "They Showed Support For Clinton"\nhttp://www.zerohedge.com/news/2017-09-25/leaked-descriptions-infamous-russia-ads-derail-collusion-narrative-they-showed-suppo\xc2\xa0\xe2\x80\xa6'
p763
S'10:43 AM - 27 Sep 2017'
p764
tp765
a(S"Read the text. The Facebook ads were pro-BLM and Hillary! This is the 'Russia collusion' bombshell? LOL! http://wapo.st/2fM3sNh?tid=ss_tw&utm_term=.babe6f70eb4a\xc2\xa0\xe2\x80\xa6"
p766
S'10:42 AM - 27 Sep 2017'
p767
tp768
a(S'Nasa and Russia team up for MANNED lunar satellite to act as human gateway to Mars http://shr.gs/SJCKGBD\xc2\xa0 . Collusion eh ? Good for #Potus'
p769
S'10:41 AM - 27 Sep 2017'
p770
tp771
a(S'Robert Mueller to interview White House officials in coming days in probe into potential Trump-Russia collusion http://abcn.ws/2hy8jW8\xc2\xa0pic.twitter.com/6vctQPLqbF'
p772
S'10:40 AM - 27 Sep 2017'
p773
tp774
a(S"Yes there is collusion. Obama used his cyber czar to invent 'Russia Hack'. pic.twitter.com/4lmQT1D8bH"
p775
S'10:39 AM - 27 Sep 2017'
p776
tp777
a(S'Why would Russia suddenly stop buying FB ads & close their fake accts in May as soon as Mueller was appointed to investigate collusion?'
p778
S'10:39 AM - 27 Sep 2017'
p779
tp780
a(S'@TheJusticeDept @realDonaldTrump \nMore Russia collusion! Appoint another Special Prosecutor now! https://twitter.com/JackPosobiec/status/913094748545720330\xc2\xa0\xe2\x80\xa6'
p781
S'10:38 AM - 27 Sep 2017'
p782
tp783
a(S"There's also collusion w/ Russia to undermine American democracy, his treatment of American women & immigrants, war mongering, nazi support pic.twitter.com/ixa45wObzJ"
p784
S'10:37 AM - 27 Sep 2017'
p785
tp786
a(S"#NASA and #Russia team up; is this collusion? Or only counts if it's Trump? Nevermind Hillary & NASA... @CNN #MAGAhttps://twitter.com/i/moments/913082115171979264\xc2\xa0\xe2\x80\xa6"
p787
S'10:37 AM - 27 Sep 2017'
p788
tp789
a(S'Russia ran ads June 2015 - May 2017, but stopped abruptly when Robert Mueller was appointed to investigate collusion\nhttp://www.businessinsider.com/facebook-says-fake-accounts-linked-to-russia-bought-ads-during-us-election-2017-9\xc2\xa0\xe2\x80\xa6'
p790
S'10:36 AM - 27 Sep 2017'
p791
tp792
a(S'Just the other morning he called Russia / Facebook a hoax...  nothing about collusion'
p793
S'10:35 AM - 27 Sep 2017'
p794
tp795
a(S'A must read! Want the Truth? Read it here! Schiff is as phony as an honest Democrat. This committee has wasted 24.000,000$ of our HARD earned money. There is NO collusion of #Trump & Russia\xe2\x80\x93Stone, either. There is NO evidence, cos there is NO evidence. #Witchhunt-USING ThePeople https://twitter.com/RogerJStoneJr/status/913030301798031362\xc2\xa0\xe2\x80\xa6'
p796
S'10:33 AM - 27 Sep 2017'
p797
tp798
a(S"There's all kinds of collusion going on even with Russia & it's all linked to Killary & Odumbass\nMAGA TRUMP MAGA "
p799
S'10:31 AM - 27 Sep 2017'
p800
tp801
a(S'Your a fake azz Russia collusion cheating to win fake news spreading illegal occupant in the White House. Impeachment please hurry up!!!!!'
p802
S'10:30 AM - 27 Sep 2017'
p803
tp804
a(S'No. If true, just opposition. Collusion is when a campaign engages Russia to influence the election.... then lies about it'
p805
S'10:30 AM - 27 Sep 2017'
p806
tp807
a(S"You can't condemn that US intelligence confirmed that Russia meddled in election. You're also under investigation for Russian collusion."
p808
S'10:29 AM - 27 Sep 2017'
p809
tp810
a(S'DonTheCon\n\xe2\x80\xa2 Your tax returns\n\xe2\x80\xa2 Russia collusion\xe2\x80\x94IMPEACHABLE\n\xe2\x80\xa2 Emoluments\xe2\x80\x94IMPEACHABLE\n\xe2\x80\xa2 Son-in-law Kushner private email server\xe2\x80\x94"LOCK HIM UP"'
p811
S'10:28 AM - 27 Sep 2017'
p812
tp813
a(S'Collusion, with Russia, helping trump: da!'
p814
S'10:28 AM - 27 Sep 2017'
p815
tp816
a(S'Maybe he needed to be silenced before he could be subpeoned by Mueller to testify at a grand jury re. Trump-Russia collusion? https://twitter.com/RVAwonk/status/913059962766729221\xc2\xa0\xe2\x80\xa6'
p817
S'10:28 AM - 27 Sep 2017'
p818
tp819
a(S"Collusion? With Russia? Yes we are all aware you colluded with Russia. What's your point tiny hands?"
p820
S'10:26 AM - 27 Sep 2017'
p821
tp822
a(S"Trump on Patriotism 1\nHe's under sweeping investigations for collusion with Russia in an attack against America."
p823
S'10:25 AM - 27 Sep 2017'
p824
tp825
a(S"Wouldn't that be collusion, better alert #CNN  \xe2\x80\x9cNASA and Russia are teaming up to build a lunar station \xe2\x80\x9d\n\nhttps://twitter.com/i/moments/913082115171979264\xc2\xa0\xe2\x80\xa6"
p826
S'10:24 AM - 27 Sep 2017'
p827
tp828
a(S'GUESS MUELLER WILL ARREST STEVEN SEGALL NOW FOR RUSSIA COLLUSION ROFL https://twitter.com/GrantJKidney/status/913013890367262720\xc2\xa0\xe2\x80\xa6'
p829
S'10:21 AM - 27 Sep 2017'
p830
tp831
a(S'Seems that every time you cry out fake news, it ends up being VERY VERY TRUE. \n\nLIKE RUSSIA COLLUSION\n\nHow was Jrs meeting? I know you know.'
p832
S'10:21 AM - 27 Sep 2017'
p833
tp834
a(S"Finally the D's flipped a district the R's held. At last! Cant wait for your recap tonight Rachel, along with the Russia collusion!"
p835
S'10:20 AM - 27 Sep 2017'
p836
tp837
a(S'So is your collusion with Russia. ....'
p838
S'10:20 AM - 27 Sep 2017'
p839
tp840
a(S'Enough with the distractions now get back to the Russia collusion and IMPEACH!'
p841
S'10:19 AM - 27 Sep 2017'
p842
tp843
a(S'And Stein was at the same table with M Flynn and Putin. No chance she was involved in the Russia collusion, yea right! Do ya think?'
p844
S'10:18 AM - 27 Sep 2017'
p845
tp846
a(S'Just hoping this FBI investigation does not detract from or diminish their Russia collusion investigation... https://twitter.com/realjaywilliams/status/913063982973497345\xc2\xa0\xe2\x80\xa6'
p847
S'10:18 AM - 27 Sep 2017'
p848
tp849
a(S'"The Swamp" Roger Stone Denies Collusion With Russia"\n\xc2\xa0#awesometube \n\xc2\xa0https://youtu.be/Hx_kqC-Mg2M\xc2\xa0'
p850
S'10:18 AM - 27 Sep 2017'
p851
tp852
a(S"Yea... collusion much? But they investigate you for Russia. When is HRC getting indicted? That's a deep sewer in DC."
p853
S'10:17 AM - 27 Sep 2017'
p854
tp855
a(S"So you working w Russia, lying isn't collusion, but respected (something you'll never be) networks & majority telling truth IS collusion? "
p856
S'10:17 AM - 27 Sep 2017'
p857
tp858
a(S'Baltimore Jewish Life | Trump Associate Says No Evidence Of Russia Collusion http://fb.me/F7AKNwlf\xc2\xa0'
p859
S'10:17 AM - 27 Sep 2017'
p860
tp861
a(S'By that #logic - Facebook ads spent on #Trump - who held a big event in #Russia - THAT is the collusion nobody...oh, wait. Never mind!'
p862
S'10:16 AM - 27 Sep 2017'
p863
tp864
a(S'@realDonaldTrump Will Skip FBI Director Ceremony, Amid Bureau\xe2\x80\x99s Russia Investigation into his Collusion w/Russia. http://www.newsweek.com/trump-fbi-installation-ceremony-comey-mueller-mccabe-672500\xc2\xa0\xe2\x80\xa6'
p865
S'10:16 AM - 27 Sep 2017'
p866
tp867
a(S"Ummm, no. You and Russia. That's collusion."
p868
S'10:16 AM - 27 Sep 2017'
p869
tp870
a(S"You've not repealed and replaced, tax reform not done yet, you've played a lot of golf (65 days) raised a bit of money for your re-election campaign lol, money now being used for lawyers as your collusion with Russia is evident, you're a joke tick tock not long now"
p871
S'10:16 AM - 27 Sep 2017'
p872
tp873
a(S"Facebook responsible for Trump's victory? Russian ads on Facebook?  It's beginning to look a lot like collusion: Russia/Trump  https://twitter.com/dcpoll/status/905608589632577536\xc2\xa0\xe2\x80\xa6"
p874
S'10:15 AM - 27 Sep 2017'
p875
tp876
a(S'Yup. With Russia. It\xe2\x80\x99s a thing. Everyone is saying it. Bigly collusion. https://twitter.com/realdonaldtrump/status/913034591879024640\xc2\xa0\xe2\x80\xa6'
p877
S'10:13 AM - 27 Sep 2017'
p878
tp879
a(S'Collusion with Russia?'
p880
S'10:13 AM - 27 Sep 2017'
p881
tp882
a(S'So your looking to fail at tax reform too I see.  Russia collusion creeping in on Don.'
p883
S'10:12 AM - 27 Sep 2017'
p884
tp885
a(S'The only collusion was between your campaign and Russia.  You  "won" the election for fuck\'s sake, why are you still whining about it?'
p886
S'10:11 AM - 27 Sep 2017'
p887
tp888
a(S"Facebook ad money spent on Bernie Sanders!!!\nSanders went on his honeymoon in Russia.\nThat is the collusion the media isn't talking about"
p889
S'10:10 AM - 27 Sep 2017'
p890
tp891
a(S'@realDonaldTrump, the only collusion going on is between you and Russia. #TraitorTrump'
p892
S'10:09 AM - 27 Sep 2017'
p893
tp894
a(S"Too late. You can't undo this. This is like a tent you can't fit back in it's box. Russia was pro-tRump. Collusion?"
p895
S'10:08 AM - 27 Sep 2017'
p896
tp897
a(S"2017: The @POTUS can't attend ceremony for @FBI director since he is under investigation for collusion / obstruction in #Russia probe. #MAGA"
p898
S'10:05 AM - 27 Sep 2017'
p899
tp900
a(S"Ok, where is your proof of any type of collusion with Russia or covering for Jr ? Mueller can't find it, Democrats can't find it."
p901
S'10:04 AM - 27 Sep 2017'
p902
tp903
a(S'Just another Trump distraction to shore up his idiot base and take attention off his crimes, especially collusion with Russia. https://twitter.com/SafetyPinDaily/status/913085956437225472\xc2\xa0\xe2\x80\xa6'
p904
S'10:03 AM - 27 Sep 2017'
p905
tp906
a(S'So. Much. Winning. Strange, Healthcare, Wall, Muslim Ban, Russia Probe, Email Scandal, Collusion, North Korea, Emolument, Manafort, Flynn... https://twitter.com/pbump/status/912888762346102784\xc2\xa0\xe2\x80\xa6'
p907
S'10:02 AM - 27 Sep 2017'
p908
tp909
a(S'White supremacists\nSteal healthcare\nRussia collusion\nIgnores Puerto Rico\nNo divesting\nNo tax returns\nNepotism\nIgnorant crony appointees'
p910
S'10:01 AM - 27 Sep 2017'
p911
tp912
a(S'That was quick!\n\nLeaked Descriptions Of "#Russia Ads" Derail Collusion Narrative "They Showed Support For Clinton"\n\nhttp://www.zerohedge.com/news/2017-09-25/leaked-descriptions-infamous-russia-ads-derail-collusion-narrative-they-showed-suppo\xc2\xa0\xe2\x80\xa6'
p913
S'10:00 AM - 27 Sep 2017'
p914
tp915
a(S'Mueller keeps the Hillary crimes alive just below the surface.\n\nNo Trump/Russia Collusion!'
p916
S'9:58 AM - 27 Sep 2017'
p917
tp918
a(S'Remember... thats fake news and potus is currently under investigation for collusion with russia '
p919
S'9:52 AM - 27 Sep 2017'
p920
tp921
a(S'Even the liberal MSM is walking away from ths whole Russia collusion angle...might want to keep up and adjust your talking points cupcake'
p922
S'9:50 AM - 27 Sep 2017'
p923
tp924
a(S'I liked a @YouTube video http://youtu.be/TQTdiqz6i88?a\xc2\xa0 Leaked Descriptions of Infamous "Russia Ads" Derail Collusion Narrative "They'
p925
S'9:50 AM - 27 Sep 2017'
p926
tp927
a(S'Julian Assange has evidence no Trump Russia collusion, no Russia DNC hack (inside job) SPREAD THE WORD #PardonJulianhttp://dailycaller.com/2017/09/26/white-house-aides-are-stopping-deal-with-assange-congressman-says/\xc2\xa0\xe2\x80\xa6'
p928
S'9:50 AM - 27 Sep 2017'
p929
tp930
a(S"That's a bunch of hooey, T-Rump! There was collusion, but it was between YOUR campaign and RUSSIA. You're going down. Can't wait!"
p931
S'9:49 AM - 27 Sep 2017'
p932
tp933
a(S"@realDonaldTrump yeah... and you didn't know anything about the Collusion with Russia advertising. Right @HillaryClinton WON POPULAR VOTE"
p934
S'9:47 AM - 27 Sep 2017'
p935
tp936
a(S'Russia business, collusion, is a fishing trip. Terrible waste & abuse. Obama people knew Russia was messing around?'
p937
S'9:47 AM - 27 Sep 2017'
p938
tp939
a(S"You're correct. You've managed to accomplish being investigated for collusion with Russia. No other president has done that!"
p940
S'9:47 AM - 27 Sep 2017'
p941
tp942
a(S'This guy is such an intellectual buffoon....let me enlighten you....Russia collusion hysteria with absolutely no proof is a "cynical ploy"'
p943
S'9:44 AM - 27 Sep 2017'
p944
tp945
a(S'Can also ask Collusion?? between RtWing Media and Russia and Trump advocates? Right depends on short term memories of their base.'
p946
S'9:43 AM - 27 Sep 2017'
p947
tp948
a(S'You\xe2\x80\x99re only whining about the @NFL, the press, & @Facebook, because you\xe2\x80\x99re deflecting people from focusing on your #Collusion with #Russia!'
p949
S'9:41 AM - 27 Sep 2017'
p950
tp951
a(S'No just agreement. What you did with Russia that was collusion. See the difference?'
p952
S'9:41 AM - 27 Sep 2017'
p953
tp954
a(S'"The Swamp" Roger Stone Denies Collusion With Russia" http://fb.me/xYar9KVT\xc2\xa0'
p955
S'9:40 AM - 27 Sep 2017'
p956
tp957
a(S'The biggie, collusion with Russia.'
p958
S'9:40 AM - 27 Sep 2017'
p959
tp960
a(S'The only collusion going on is between your admin & Russia. Your knuckle-dragging base supporters are the ONLY ones believing your shit.'
p961
S'9:39 AM - 27 Sep 2017'
p962
tp963
a(S'Leaked Descriptions Of Infamous Russia Ads Derail Collusion Narrative "They Showed Support For Clinton" | Zero Hedge http://www.zerohedge.com/news/2017-09-25/leaked-descriptions-infamous-russia-ads-derail-collusion-narrative-they-showed-suppo\xc2\xa0\xe2\x80\xa6'
p964
S'9:39 AM - 27 Sep 2017'
p965
tp966
a(S"This 'shop is about a restaurant news item, but maybe someday it could be used for a Trump/Russia collusion story? https://www.eater.com/2017/9/27/16373352/burger-king-russia-clown-pennywise-mcdonald\xc2\xa0\xe2\x80\xa6"
p967
S'9:38 AM - 27 Sep 2017'
p968
tp969
a(S"You mean debunked brainwashed liberal anti-Trump Russia collusion propaganda? Trust me, it's a #nothingburger. #WalnutSaucepic.twitter.com/Mxdj4se2Sn"
p970
S'9:35 AM - 27 Sep 2017'
p971
tp972
a(S'Trump/Russia collusion > NO  evidence =8+mnths\n\nClinton/Ukraine collusion >actual Evidence =0days\n\nConclusion > Witch-hunt \n\n#Outnumbered'
p973
S'9:35 AM - 27 Sep 2017'
p974
tp975
a(S'Trump was anti-Clinton. Russia was anti-Clinton. Collusion? You betcha!!!'
p976
S'9:34 AM - 27 Sep 2017'
p977
tp978
a(S'enough of that. Focus on the real issue . The fake Russia / trump collusion... pic.twitter.com/anuePriF3C'
p979
S'9:34 AM - 27 Sep 2017'
p980
tp981
a(S'@realDonaldTrump Anti-Trump = Fake News? Your very, very tenuous grasp on reality is slipping. Collusion = Trumpf/Russia. Get it? https://twitter.com/realdonaldtrump/status/913034591879024640\xc2\xa0\xe2\x80\xa6'
p982
S'9:31 AM - 27 Sep 2017'
p983
tp984
a(S"Yes, collusion between you and Putin. Russia's Man"
p985
S'9:31 AM - 27 Sep 2017'
p986
tp987
a(S'Poor man baby. #growup45. Yes collusion. Yes LIES. Yes. Russia. Worst president every. Believe me.'
p988
S'9:31 AM - 27 Sep 2017'
p989
tp990
a(S'Yes, in answer to your question, there was #collusion, WITH #RUSSIA!'
p991
S'9:31 AM - 27 Sep 2017'
p992
tp993
a(S'Leaked Info On Infamous Facebook "Russia Ads" Derail Collusion Narrative, Showed Support For Clinton ! #Trump !http://www.zerohedge.com/news/2017-09-25/leaked-descriptions-infamous-russia-ads-derail-collusion-narrative-they-showed-suppo\xc2\xa0\xe2\x80\xa6'
p994
S'9:29 AM - 27 Sep 2017'
p995
tp996
a(S'Is anyone else worried that Trump will start a nuclear war with N. Korea just to have cover for his collusion with Russia? #NorthKorea'
p997
S'9:28 AM - 27 Sep 2017'
p998
tp999
a(S"World is anti-Trump. #FakePresident, am anti-Trump b/c of Russia's collusion. No ? about it. #HappyImpeachment #MuellerTime\n#ByeByeManBaby"
p1000
S'9:28 AM - 27 Sep 2017'
p1001
tp1002
a(S'Trump was always anti-America, his family were always anti-America, Fake Patriots, Putin and Russia were anti-America. Collusion?'
p1003
S'9:28 AM - 27 Sep 2017'
p1004
tp1005
a(S'Roger Stone plans to deny collusion, evidence of Russia hacking to Congress https://www.mhb.io/e/491cr/5\xc2\xa0 @thamburger reportspic.twitter.com/pgn5be7FCj'
p1006
S'9:24 AM - 27 Sep 2017'
p1007
tp1008
a(S'You bet "Anti-Trump" is collusion.  With the entire world participating.  Not just Russia.'
p1009
S'9:23 AM - 27 Sep 2017'
p1010
tp1011
a(S'Only collusion seems to be between your administration and Russia.  Can you feel Mueller hot on your trail?  Tick Tock.'
p1012
S'9:23 AM - 27 Sep 2017'
p1013
tp1014
a(S'nothing there. cnn is russia collusion (not even a crime) fake news media. if there is anything there, it would have been leaked already.'
p1015
S'9:18 AM - 27 Sep 2017'
p1016
tp1017
a(S'Roger Stone says House members spread Russia collusion lies\n #TCOT #MAGAhttp://nypost.com/2017/09/26/roger-stones-says-house-members-spread-russia-collusion-lies/\xc2\xa0\xe2\x80\xa6'
p1018
S'9:15 AM - 27 Sep 2017'
p1019
tp1020
a(S'Assange is ready 2 prove there was no collusion with #Russia\nIt was an inside job that will destroy the #DNC/#Obamahttps://youtu.be/vQf0sDuRGp8\xc2\xa0'
p1021
S'9:15 AM - 27 Sep 2017'
p1022
tp1023
a(S'Reuters: Trump ally Stone denies collusion with Russia'
p1024
S'9:14 AM - 27 Sep 2017'
p1025
tp1026
a(S'@realDonaldTrump KABOOM is Right! Trump got slammed in Alabama and in Russia collusion evidence all in one day! White House is falling! Yeah'
p1027
S'9:12 AM - 27 Sep 2017'
p1028
tp1029
a(S'Collusion, YES! 3K accounts coming from Russia, some paying in Rubles, that promoted pro-Trump and fake pro-Trump rallies. Some racist!!'
p1030
S'9:12 AM - 27 Sep 2017'
p1031
tp1032
a(S'He was probably behind the collusion w Russia idea as well.'
p1033
S'9:11 AM - 27 Sep 2017'
p1034
tp1035
a(S'TRUMP: no collusion with Russia.  EQUIVALENT: I entered a bank waving a gun and demanding money but I\xe2\x80\x99ve never robbed a bank.'
p1036
S'9:11 AM - 27 Sep 2017'
p1037
tp1038
a(S'because a campaign manager guy. What is that got to do with anything. this whole thing started with Trump/Russia collusion.'
p1039
S'9:10 AM - 27 Sep 2017'
p1040
tp1041
a(S'Exactly.  #TheTruth "The #Russians helped #Trump in exchange for the easing of #sanctions against #Russia. Complete and total #collusion." https://twitter.com/mintussc/status/912838034424569856\xc2\xa0\xe2\x80\xa6'
p1042
S'9:10 AM - 27 Sep 2017'
p1043
tp1044
a(S'Trump and Russia? Collusion?I think so'
p1045
S'9:09 AM - 27 Sep 2017'
p1046
tp1047
a(S"The FBI didn't tell us Donald Trump (Russia collusion) and Bernie Sanders (bank fraud) were/is under federal investigation. So what now? https://twitter.com/RyanLizza/status/912704787707285504\xc2\xa0\xe2\x80\xa6"
p1048
S'9:08 AM - 27 Sep 2017'
p1049
tp1050
a(S'OMG This Is Awesome  I hope the left goes crazy even more because this shows the false and laughable narrative on Trump Russia collusion'
p1051
S'9:07 AM - 27 Sep 2017'
p1052
tp1053
a(S'Collusion? No, just smart intelligent people telling the truth. Better than the #altfacts and #FakeNews that you collude with Russia.'
p1054
S'9:07 AM - 27 Sep 2017'
p1055
tp1056
a(S'Collusion: what you, your family & campaign aides did with Russia.'
p1057
S'9:07 AM - 27 Sep 2017'
p1058
tp1059
a(S'Great point.  If collusion is shown between Hillary and Russia, what do you think should be the punishment?'
p1060
S'9:06 AM - 27 Sep 2017'
p1061
tp1062
a(S'"The Swamp" Roger Stone Denies Collusion With Russia" http://tvrapture.com/the-swamp-roger-stone-denies-collusion-with-russia/\xc2\xa0\xe2\x80\xa6 ...pic.twitter.com/YZF221pIRz'
p1063
S'9:05 AM - 27 Sep 2017'
p1064
tp1065
a(S'@davidgregory TRUMP: no collusion with Russia.  EQUIVALENT: I entered a bank waving a gun and demanding money but I\xe2\x80\x99ve never robbed a bank.'
p1066
S'9:05 AM - 27 Sep 2017'
p1067
tp1068
a(S"No gripes? from FAKE NEWS pimps @nytimes @ABC @washingtonpost @CBSNews @MSNBC on Trump's NASA- Russia collusion ?\nhttp://www.washingtonexaminer.com/article/2635776\xc2\xa0"
p1069
S'9:04 AM - 27 Sep 2017'
p1070
tp1071
a(S'You would know all about Russian collusion, being a Hillary supporter and all. How is Russia these days?'
p1072
S'9:04 AM - 27 Sep 2017'
p1073
tp1074
a(S"Let's be clear. Facebook is handing over info that incriminates Russia in election meddling. And you say FB is anti you? #Collusion"
p1075
S'9:02 AM - 27 Sep 2017'
p1076
tp1077
a(S'That kind of collusion is not illegal because Russia was not involved. #LockHimUp'
p1078
S'9:02 AM - 27 Sep 2017'
p1079
tp1080
a(S"Show me evidence. There's more evidence of Democrat collusion with Russia; Zuckerberg, Hillary selling 20% Am uranium w Foundation payback"
p1081
S'9:02 AM - 27 Sep 2017'
p1082
tp1083
a(S'There was no collusion with Russia so ...'
p1084
S'9:01 AM - 27 Sep 2017'
p1085
tp1086
a(S'I added a video to a @YouTube playlist http://youtu.be/9talV0btwqU?a\xc2\xa0 WATCH The Swamp Roger Stone Denies Collusion With Russia'
p1087
S'9:00 AM - 27 Sep 2017'
p1088
tp1089
a(S"Russia wasn't anti-Trump. Yes collusion."
p1090
S'8:59 AM - 27 Sep 2017'
p1091
tp1092
a(S'Yes, but. Leaked Descriptions Of Infamous "Russia Ads" Derail Collusion Narrative "They Showed Support For Clinton" http://www.zerohedge.com/news/2017-09-25/leaked-descriptions-infamous-russia-ads-derail-collusion-narrative-they-showed-suppo\xc2\xa0\xe2\x80\xa6'
p1093
S'8:58 AM - 27 Sep 2017'
p1094
tp1095
a.