(lp0
(S'No \xe2\x80\x98Russia collusion\xe2\x80\x99 in Mueller\xe2\x80\x99s case against Flynn http://po.st/RlbzHT\xc2\xa0 via @worldnetdaily'
p1
S'3:59 PM - 1 Dec 2017'
p2
tp3
a(S"This means the PTT knew, in real time, that Russia did what they asked. We have established collusion between the transition team and Russia to undermine US foreign policy. Flynn confirmed all this to Mueller. It's in the docs.\n19/"
p4
S'3:59 PM - 1 Dec 2017'
p5
tp6
a(S'The Flynn verdict *relative to* Mueller\xe2\x80\x99s investigation makes no sense. The so-called Flynn-Russia \xe2\x80\x9ccollusion\xe2\x80\x9d occurred after the 2018 election, yet the investigation seeks prior events that may have influenced the election. Sheesh!'
p7
S'3:59 PM - 1 Dec 2017'
p8
tp9
a(S"In light of today's #Flynndictment, a hold should be placed on ALL pending legislation until we determine whether POTUS* and his Party are guilty of #treason and #collusion w/ #Russia. No other decision is ethically responsible. @TeamPelosi @SenJohnMcCain @AARPadvocates @CNN RThttps://twitter.com/thehill/status/936644514583859203\xc2\xa0\xe2\x80\xa6"
p10
S'3:59 PM - 1 Dec 2017'
p11
tp12
a(S'Collusion isn\xe2\x80\x99t a crime.  Also the contact occurred after Trump was elected, the contact with Russia isn\xe2\x80\x99t just legal, it was part of the job.  The crime here is that he lied to the FBI about it.  The larger crime is the wire tapping and how FBI knew in first place!!!'
p13
S'3:59 PM - 1 Dec 2017'
p14
tp15
a(S'Collusion. Flynn says Trump transition team directed him to contact Russia https://www.pbs.org/newshour/politics/flynn-says-trump-transition-team-directed-him\xc2\xa0\xe2\x80\xa6'
p16
S'3:58 PM - 1 Dec 2017'
p17
tp18
a(S'Amazing! The corrupt #ShadowGovernment #FBI #Comey #Muller etal traps #MichaelFlynn into a process crime & suddenly the #DemocratMedia is squalling about #Trump #Russia election collusion a totally discredited #Leftist false accusation. Babble through a news cycle &.... crickets.'
p19
S'3:58 PM - 1 Dec 2017'
p20
tp21
a(S'Ineffectual obama was so untrustworthy of Russia he put toothless sanctions on them only in December 2016, a month after the election loss of crooked Hillary. If crooked Hillary won (God forbid) would we have a Russia \xe2\x80\x98collusion\xe2\x80\x99 farce today?'
p22
S'3:58 PM - 1 Dec 2017'
p23
tp24
a(S'@LouDobbs Mueller got Flynn on false statements.  A process crime. These are the very same statements that former FBI Director Comey said were unintentional. Where is the collusion with Russia? This is a witch hunt by a corrupt prosecutor .'
p25
S'3:58 PM - 1 Dec 2017'
p26
tp27
a(S"Searching for a destiny that's mine. Russia helped me every single time. Grabbing pussies all along the way. Hoping that I'd never have to pay but Mueller's getting closer every day. \nIts all just Collusion\nC O L L U S I O N\n#TrumpRussia pic.twitter.com/NN5co6pWWV"
p28
S'3:58 PM - 1 Dec 2017'
p29
tp30
a(S'Just a hunch, but perhaps they were referring to stories that actually proved Trump collusion with Russia before the election, not a perfectly legal meeting after the election with a transition team official.'
p31
S'3:58 PM - 1 Dec 2017'
p32
tp33
a(S'8 GOP-led, taxpayer-funded investigations into Hillary = no wrongdoing. First investigation into @realDonaldTrump proving collusion with Russia, conspiracy to hide it, lying to Congress about it.'
p34
S'3:58 PM - 1 Dec 2017'
p35
tp36
a(S"Literaties, if you're not following @SethAbramson on his Russia Collusion threads, do so now. He is one of us. He teaches DFW. https://twitter.com/SethAbramson/status/936729672133562368\xc2\xa0\xe2\x80\xa6"
p37
S'3:57 PM - 1 Dec 2017'
p38
tp39
a(S'Michael Flynn pleads guilty to false-statements charge in Russia probe http://www.foxnews.com/politics/2017/12/01/michael-flynn-charged-in-russia-investigation-guilty-plea-expected.html\xc2\xa0\xe2\x80\xa6 via the @FoxNews Android app This is bs. This is not collusion. Sorry Dems u r reaching 4 straws and just twisting the story 2 fit ur agenda!'
p40
S'3:57 PM - 1 Dec 2017'
p41
tp42
a(S'We are spending $hundreds of millions$ to Mueller & his 100 attorneys for what\nHe has not shown any collusion between Russia Flynn Pres Trump\n\nMueller needs to close down his shop of horrors\n\n@DOJgov @USAGSessions @SenTedCruz @TGowdySC\n@FoxNews @TuckerCarlson @LouDobbs'
p43
S'3:57 PM - 1 Dec 2017'
p44
tp45
a(S'Robert Mueller\xe2\x80\x99s Russia Collusion Probe Heats Up With Michael Flynn Charges http://bit.ly/2i8MeKM\xc2\xa0'
p46
S'3:57 PM - 1 Dec 2017'
p47
tp48
a(S'Plea deals are common when the charge the specific act of lying to the FBI. No matter what the lie was, they carry harsh sentences.\n\nWhat was filed has nothing to do with collusion with Russia involving the election.'
p49
S'3:56 PM - 1 Dec 2017'
p50
tp51
a(S'Maybe we should shut down Congress until we get to the bottom of Trump Russia collusion. Every action taken in Congress under this corrupt adminstration should be immediately reversed & a new election held immediately #25thAmendmentNow #TheResistance'
p52
S'3:56 PM - 1 Dec 2017'
p53
tp54
a(S"I'm genuinely confused. Mueller is investigating Trump team collusion w/ Russia PRIOR to election which would be illegal. Everything being reported seems to have happened AFTER the election. Is post-election communication w/ Russia a crime as well?"
p55
S'3:56 PM - 1 Dec 2017'
p56
tp57
a(S'There Is No Evidence of \xe2\x80\x98Collusion\xe2\x80\x99 in Michael Flynn\xe2\x80\x99s Offense Statement http://bit.ly/2Br5laS\xc2\xa0 "Read the Details, Gen. Flynn helped our Nation" Obama & Hillary Funded the fake Dossier & Unjustly Tried to Provoke Russia! Gen Flynn is an American Hero! Mueller Has Nothing! ZERO!'
p58
S'3:56 PM - 1 Dec 2017'
p59
tp60
a(S'The only Russian Collusion was between Hillary, Obama, Podesta and Russia.'
p61
S'3:56 PM - 1 Dec 2017'
p62
tp63
a(S'... and there would be nothing wrong with that in a transitional period - and still where is the evidence of Trump/Russia collusion prior to the election?'
p64
S'3:56 PM - 1 Dec 2017'
p65
tp66
a(S'Let me get this straight - the Trump Russia collusion the media has been obsessing over happened after the election?'
p67
S'3:55 PM - 1 Dec 2017'
p68
tp69
a(S'Actual proven collusion but nobody wants to talk about it bc RUSSIA!!!!!!! https://twitter.com/kylekulinski/status/936740882858029058\xc2\xa0\xe2\x80\xa6'
p70
S'3:55 PM - 1 Dec 2017'
p71
tp72
a(S'Thread. \n\nCollusion is one thing, but if Flynn can testify that Trump instigated a conspiracy with Russia, that is high treason. This not only makes Nixon look tame by comparison, but even Benedict Arnold seems almost respectable. Or about Even Stephen, maybe. https://twitter.com/revmagdalen/status/936728929913724934\xc2\xa0\xe2\x80\xa6'
p73
S'3:55 PM - 1 Dec 2017'
p74
tp75
a(S'#45 is just as vile. If you haven\'t heard in the UK the "fired" Gen. Flynn has "turned on Trump" and has taken a deal by Mueller and WILL NAME NAMES & DATES on Russia Collusion.'
p76
S'3:55 PM - 1 Dec 2017'
p77
tp78
a(S"Hey @seanhannity with all of your tick tock tick tock' s what the heck...anything??? or is the clock act just a ruse to get viewers? What are you doing to propagate the whole HRC Russia collusion that the leftist media ignores?"
p79
S'3:54 PM - 1 Dec 2017'
p80
tp81
a(S'Trump\xe2\x80\x99s whole campaign and admin coulda been talking to Russia. That wouldn\xe2\x80\x99t have been illegal. Lying about it was. Reminder: no law says \xe2\x80\x9ccollusion\xe2\x80\x9d'
p82
S'3:54 PM - 1 Dec 2017'
p83
tp84
a(S"Hey Jake ..when u find collusion between Trump & Russia in Mueller's investigation farce ..I'll donate $10,000 to a charity of ur choice."
p85
S'3:53 PM - 1 Dec 2017'
p86
tp87
a(S"Russia collusion is much deeper than realize. Why was Trump so willingly to drop Russians sanctions and have Jared Kushner ask Flynn to set meetings with them? Cause Trump been Russia's bitch for years. No USA bank would give him money... Russia did. pic.twitter.com/ynxNwH0ZMy"
p88
S'3:53 PM - 1 Dec 2017'
p89
tp90
a(S'And his inability to think beyond cliches leads him to believe I think this is about collusion with Russia. Anyone with experience with organized crime investigations knows what this is about.'
p91
S'3:53 PM - 1 Dec 2017'
p92
tp93
a(S'We are begging Senators to vote NO on a Tax Bill that will kill us while our president is under investigation for collusion with Russia.'
p94
S'3:53 PM - 1 Dec 2017'
p95
tp96
a(S'@MarkWarner - and where is the justice on Hillary\xe2\x80\x99s collusion with Russia? Hip\xc3\xb3crita!!'
p97
S'3:53 PM - 1 Dec 2017'
p98
tp99
a(S'#JaredKushner #MikeFlynnFlipped #MikeFlynn #Collusion #MuellerIsComing #Russia #ImpeachTrumpNow #impeachhttps://twitter.com/lhgraham27/status/936744801722085376\xc2\xa0\xe2\x80\xa6'
p100
S'3:52 PM - 1 Dec 2017'
p101
tp102
a(S'Hey comey, why dont you wait for the justice to roll down on u, his indictment has nothing to do with Russia collusion!'
p103
S'3:52 PM - 1 Dec 2017'
p104
tp105
a(S'Treason?  What did he do that was treasonous, pray tell? And if he \xe2\x80\x9ccolluded with Russia,\xe2\x80\x9d how come Feinstein & other congressionals keep saying that they\xe2\x80\x99ve still seen no evidence of collusion?'
p106
S'3:52 PM - 1 Dec 2017'
p107
tp108
a(S'Can you @Isikoff cite what actual laws were broken as it relates to "collusion" with #Russia to affect the election? https://www.yahoo.com/news/flynn-says-cooperating-mueller-probe-215844248.html\xc2\xa0\xe2\x80\xa6'
p109
S'3:52 PM - 1 Dec 2017'
p110
tp111
a(S'@maddow @RepAdamSchiff Unholy alliances of Trump finally coming together. He may not understand Washington+Rule of Law Works but he does understand how to get what he wants+has included Congress in his Collusion+Obstruction Wanting to be part of the Russia/China/Saudi Alliances pic.twitter.com/m6IEYsXmHj'
p112
S'3:52 PM - 1 Dec 2017'
p113
tp114
a(S'More fabrications from CBS. Special Investigator is about collusion with Russia on election. Zero evidence presented after a year. Flynn was fired for lying. Freedom of the Press does not give you the right to lie.'
p115
S'3:52 PM - 1 Dec 2017'
p116
tp117
a(S'@jaredkushner what happened to all your tweets sweetheart? Maybe you can share a cell with Daddy? #buhbye #Trump #Russia #RussiaGate #Collusion #Nananananaheyheygoodbye #MuellerTime'
p118
S'3:52 PM - 1 Dec 2017'
p119
tp120
a(S'So where is the collusion with Russia even though collusion is not a crime? https://twitter.com/tgradous/status/936742103174000640\xc2\xa0\xe2\x80\xa6'
p121
S'3:51 PM - 1 Dec 2017'
p122
tp123
a(S'My source tell me that you are fake news trying to keep you fake Russia collusion witch hunt narrative alive.'
p124
S'3:51 PM - 1 Dec 2017'
p125
tp126
a(S'No..this is a thread about fake news. Pushing a narrative that somehow this will prove collusion with Russia. No, this proves Flynn lied to the FBI...which btw is extremely weak. "He couldn\'t recall a meeting." Yup..impeach Trump SMOKING GUN!! HAHAHA...This was already known!'
p127
S'3:51 PM - 1 Dec 2017'
p128
tp129
a(S"#MuellerInvestigation cost $Millions for fumbling charges of lying to the FBI. Where is the #Collusion w/ Russia evidence? Wasn't this about Collusion to win the 2016 election? Not 1 iota of evidence @POTUS colluded w/ Russia! @ABC @FoxNews @seanhannity @BillOReilly @CBSNews @CNN"
p130
S'3:51 PM - 1 Dec 2017'
p131
tp132
a(S"As a leftist who wasn't a big fan of Hillary and at first believed that the Russia story was just Dems making excuses, I can admit that I was wrong. I don't know the full impact of Russian collusion, but it likely cost us a Hillary presidency, which would be preferable to this."
p133
S'3:51 PM - 1 Dec 2017'
p134
tp135
a(S"So Jared Kushner had Flynn call Russia during the transition? That's not collusion. That's preparing. More proof there was no collusion."
p136
S'3:50 PM - 1 Dec 2017'
p137
tp138
a(S"So if Trump, Kushner, Flynn were in collusion with Russia, don't we have the right to annulment?"
p139
S'3:50 PM - 1 Dec 2017'
p140
tp141
a(S'This is good. Trump ordered Flynn to communicate with the Russians. At a minimum proves Trump clearly a liar in matters of great import and likely collusion too. Sanction bill against Russia not signed. Crimea and Ukraine and Libya. Bad dude sitting in the White House.'
p142
S'3:49 PM - 1 Dec 2017'
p143
tp144
a(S'Michael Flynn pleads guilty to false-statements charge in Russia probe http://fxn.ws/2AobmFI\xc2\xa0 #FoxNews - He lied. There is not connection to collusion!'
p145
S'3:49 PM - 1 Dec 2017'
p146
tp147
a(S'MSNBC covering Flynn plea, about UN-related convo that happened after election, as Russia collusion election story.\n\n"WHY DO PUTIN\'S BIDDING?"\n\n3rd world journalism. pic.twitter.com/GOgtyuGsAX'
p148
S'3:49 PM - 1 Dec 2017'
p149
tp150
a(S"Doesn't show any collusion with Russia does it. Out of scope arrest. Council needs to go on a witch hunt to cover it's own Clinton crimes"
p151
S'3:49 PM - 1 Dec 2017'
p152
tp153
a(S"1. This shows he admitted to violating the Logan Act in which it is illegal for unauthorized citizens to interfere in U.S. disputes with foreign governments e.g. Russia. \n2. Flynn took a plea deal because he's flipping on bigger fish regarding collusion. Stay tuned! #MuellerTime"
p154
S'3:49 PM - 1 Dec 2017'
p155
tp156
a(S'When is Hilary going to plead guilty for treason? When is the corruption and collusion with Russia of the Obama administration going to be important to you? Almost a year and mueller has nothing on Trump.'
p157
S'3:48 PM - 1 Dec 2017'
p158
tp159
a(S'So there was no collusion and nothing illegal done with Russia here? These liberals are insane. They are shouting about a lie. What a snoozer. "Jared Kushner"'
p160
S'3:48 PM - 1 Dec 2017'
p161
tp162
a(S'Bit hard to separate the Russia collusion from everything else, since it helped give us the administration that worsened so many of these problems.'
p163
S'3:48 PM - 1 Dec 2017'
p164
tp165
a(S"Let's INVESTIGATE you for sexual harassment,  sexual misconduct and last but not least for your Russia collusion.   All these are more important since they all involved just one person: you, @POTUS"
p166
S'3:48 PM - 1 Dec 2017'
p167
tp168
a(S'FLYNN IN TROUBLE FOR LYING TO FBI! HAS NOTHING TO DO WITH COLLUSION TO HELP RUSSIA EFFECT THE ELECTION YOU NON READING ASSHATS!! JESUS H WTF'
p169
S'3:47 PM - 1 Dec 2017'
p170
tp171
a(S'"...If talking to Russia is collusion, then what is selling them 20% of our Uranium?"\n\nIt\'s fake news. It\'s stupidity. It\'s conservative media propaganda.\nIn short its the 2017 GOP voters, https://twitter.com/RyanAFournier/status/936722499743698944\xc2\xa0\xe2\x80\xa6'
p172
S'3:47 PM - 1 Dec 2017'
p173
tp174
a(S'Mueller got him on false statements.  A process crime. These are the very same statements that former FBI Director Comey said were unintentional. Where is the collusion with Russia? This is a witch hunt by a corrupt prosecutor .'
p175
S'3:47 PM - 1 Dec 2017'
p176
tp177
a(S'While Mr. Trump can point to the court documents and say they show no evidence of collusion with Russia, the... http://fb.me/B8NGXsSd\xc2\xa0'
p178
S'3:46 PM - 1 Dec 2017'
p179
tp180
a(S'@SenMarkWarner @RepAdamSchiff When Russia intervened in our elections a reasonable assumption could be made that they were engaging the U.S. in a clandestine war.  If collusion by the Trump Administration is proven, it seems logical to conclude that the "Logan Act" applies.'
p181
S'3:46 PM - 1 Dec 2017'
p182
tp183
a(S'"It\'s the Most Wonderful Time of the Year" because Flynn\'s guilty plea to a mere process crime proves Mueller has no Russia collusion case against Trump. Congratulations and Merry Christmas, @realDonaldTrump!\n#TrumpCarols\nhttp://www.nationalreview.com/article/454269/michael-flynn-plea-no-breakthrough-russia-investigation\xc2\xa0\xe2\x80\xa6 #TrumpCarols'
p184
S'3:46 PM - 1 Dec 2017'
p185
tp186
a(S"This whole Russia collusion nonsense is a witch hunt initiated because the Deep State doesn't want this President to stay in office.  Our country is spiraling out of control.  Breathtaking corruption and bias."
p187
S'3:46 PM - 1 Dec 2017'
p188
tp189
a(S'There once was a man named Flynn,\nWith Russia he had a big win.\nBut there came disillusion\nFrom Russian collusion,\nNow prison he finds himself in.'
p190
S'3:46 PM - 1 Dec 2017'
p191
tp192
a(S'Mueller\xe2\x80\x99s been investigating for months using a team of Obama/Clinton lawyers and yet NOTHING about election collusion with Russia.  Mueller has ruined Flynn financially and threatened to go after his family but has NOTHING on what he is supposed to be investigating.'
p193
S'3:46 PM - 1 Dec 2017'
p194
tp195
a(S'Russia Hell.. When Are We Going To Start Tagging Them For #Islamist #Soros Collusion ...\nTell Me That Means Nothing??\n@realDonaldTrump'
p196
S'3:45 PM - 1 Dec 2017'
p197
tp198
a(S'I just watched this video and saw what I saw the whole Presidential campaign. Trump plays by written rules not the unwritten traditions. #Flynn #Russia #Resist #NotCriminal #Collusion\nhttps://ntknetwork.com/leon-panetta-its-a-stretch-to-say-trump-team-broke-law-with-russian-contacts/\xc2\xa0\xe2\x80\xa6'
p199
S'3:45 PM - 1 Dec 2017'
p200
tp201
a(S'Like the Trump under investigation story? \nOr the 98% chance of a Clinton win story? \nOr the Trump will collapse the economy story?\nOr the Trump collusion story? \nOr the Russia hacking the election story?\nOr the trump dossier? \nOr the...'
p202
S'3:45 PM - 1 Dec 2017'
p203
tp204
a(S'What an odd man!  Sucks their collusion with Russia stole the election and brought these weirdos into power.'
p205
S'3:44 PM - 1 Dec 2017'
p206
tp207
a(S"So the alleged collusion with Russia to elect Trump occurred after he was already elected? Quite a notch on Mueller's belt."
p208
S'3:44 PM - 1 Dec 2017'
p209
tp210
a(S'Mueller is proving Trump is clean on Russia collusion.  He\xe2\x80\x99s squeezed everyone he can squeeze.  Flynn, Manafort, Snuffleupagus have all been hit with bs charges, but none has given evidence of collusion.'
p211
S'3:44 PM - 1 Dec 2017'
p212
tp213
a(S"@Thomas1774Paine Who are you kidding LeonPanetta worked for the most Corrupted Government in History the Obama's Administration and he was right in the middle of Corruption and he knows it Panetta knows their were no Russia collusion with Trump but it was With Obama and Clintion"
p214
S'3:44 PM - 1 Dec 2017'
p215
tp216
a(S'I\'m going to make this very simple for you. One "x" = how important it is.\nTrump\'s tweets: x\nNet neutrality ending: xx\nRussia collusion: xxx\nSenate tax bill: xxxx\nHealth care: xxxxx\n\nClimate change: xxxxxxxxxxxxxxxxxxxxxxxxxxxxxxxxxxxxxxxxxxxxxxxxxxxxxxxxxxxxxxxxxxxxxxxxxxxxxxxxx'
p217
S'3:44 PM - 1 Dec 2017'
p218
tp219
a(S'Same same {Russia collusion} https://twitter.com/jaketapper/status/936683394901082114\xc2\xa0\xe2\x80\xa6'
p220
S'3:44 PM - 1 Dec 2017'
p221
tp222
a(S'Our Russia collusion has been exposed today Flynn plead guilty and start cooperation ,that no good snitch! We must act fast before all is lost! Fire missile at North Korea, blame Mexicans for Russian collusion , blame black people for anything ! Act fast fire Mueller !'
p223
S'3:44 PM - 1 Dec 2017'
p224
tp225
a(S'After the election, Wow! What a hat trick by Russia to steal an election after its over and trump already won! This is sooooooo comical! Truly have to be dumb to think this is Russia collusion! LOL!!!'
p226
S'3:44 PM - 1 Dec 2017'
p227
tp228
a(S'Enjoy your "Scooter Libby," on the rocks or, straight up!\n\nEx-CIA Director John Brennan: I\xe2\x80\x99ve Seen No Evidence Of Collusion With Russia http://www.breitbart.com/big-government/2017/05/25/ex-cia-director-john-brennan-ive-seen-no-evidence-collusion-russia/\xc2\xa0\xe2\x80\xa6\n\nCLEARED! FBI Says Nothing Wrong With General Flynn\'s Communication With Russian Ambassador http://www.hannity.com/articles/election-493995/cleared-fbi-says-nothing-wrong-with-15498603/\xc2\xa0\xe2\x80\xa6'
p229
S'3:43 PM - 1 Dec 2017'
p230
tp231
a(S"This is like the weakest headline I've ever read. One count of telling a fib, and the Left is celebrating like they won the election. And this fib STILL proves nothing in regards to possible Trump collusion with Russia. #fakenews #sad #youlost #getoverithttps://twitter.com/CNNPolitics/status/936600556054941697\xc2\xa0\xe2\x80\xa6"
p232
S'3:43 PM - 1 Dec 2017'
p233
tp234
a(S'How much of a cliche is it that the quiet little mouse Kushner is the so-called kingpin in all of this Russia collusion, treasonous foolish? Trump is too much of a micro-manager to be out of the loop on all of this. I think Trump led all efforts, Kushner was his deputy. #TheBeat'
p235
S'3:43 PM - 1 Dec 2017'
p236
tp237
a(S"10 Months Ago: He has nothing to do with Russia\n5 Months Ago: He had business with Russia but it's not collusion\nToday: Is collusion really a crime though"
p238
S'3:43 PM - 1 Dec 2017'
p239
tp240
a(S'#MAGA! http://ift.tt/2Aj4Hik\xc2\xa0 Obama approves Russia talks to push Russia narrative, Flynn falls into trap, Trumps sets up Russian collusion investigation to expose Obama! PERFECT! Lock them up!'
p241
S'3:42 PM - 1 Dec 2017'
p242
tp243
a(S'Russia collusion conspiracy theory nothing burger is a cottage industry for the mentally ill.'
p244
S'3:42 PM - 1 Dec 2017'
p245
tp246
a(S"Can somebody explain to me how a call to Russia after the election swayed the election! Isn't Mueller investigating collusion to elect Trump?"
p247
S'3:42 PM - 1 Dec 2017'
p248
tp249
a(S'Wtf look up the definition of collusion.they promised. They offered something. And tRump delivered by not putting sanction on Russia.  Collusion.'
p250
S'3:42 PM - 1 Dec 2017'
p251
tp252
a(S'idk if i ever thought @realDonaldTrump was going down for his obvious collusion with #Russia, but Flynn flipping is huge.\n#RussiaGate #FlynnFlipped #Flynnished #RussiaCollusionpic.twitter.com/VoqU4vt5aW'
p253
S'3:42 PM - 1 Dec 2017'
p254
tp255
a(S'I think it\xe2\x80\x99s time to retweet this #Trump #Russia #Collusion #ImpeachTrumphttps://twitter.com/enigmanaut/status/838546264899858432\xc2\xa0\xe2\x80\xa6'
p256
S'3:42 PM - 1 Dec 2017'
p257
tp258
a(S'The stupidity level coming from the left tonight is astounding. NO, it\'s not illegal for the transition team to contact foreign leaders. NO, we\'re not "at war" w/ Russia. NO, there is no "collusion". Flynn got hit with a technicality, nothing more and the "dominoes" go nowhere'
p259
S'3:42 PM - 1 Dec 2017'
p260
tp261
a(S"I wish the media would pay more attention to the collusion with regards to Saudi Arabia too, but isn't it good that they're investigating and reporting on it when it happens with Russia?"
p262
S'3:42 PM - 1 Dec 2017'
p263
tp264
a(S"@realDonaldTrump 'Lock him up, lock him up' #trump #ImpeachTrumpNow #usa # whitehouse #donaldtrump #prisonfortrump #maga #LockHimUp #collusion #treason #russia"
p265
S'3:42 PM - 1 Dec 2017'
p266
tp267
a(S'#Despicable #Partisan #Hackery by #McConnell putting Party over Country to further his tax agenda & providing cover to #TreasonousTrump in his collusion with #Russia & obstruction of justice by hindering #TrumpRussia probe even ignoring his contacts with Legislative in the summerhttps://twitter.com/amy_siskind/status/936709698841202688\xc2\xa0\xe2\x80\xa6'
p268
S'3:42 PM - 1 Dec 2017'
p269
tp270
a(S".@realDonaldTrump team influencing Russia's decisions? Thought it was Russia collusion influencing US elections. I am totally confused now. #MAGA @CNN @FoxNews"
p271
S'3:42 PM - 1 Dec 2017'
p272
tp273
a(S'No \xe2\x80\x98Russia collusion\xe2\x80\x99 in Mueller\xe2\x80\x99s case against Flynn http://www.wnd.com/2017/12/no-russia-collusion-in-muellers-case-against-flynn/\xc2\xa0\xe2\x80\xa6'
p274
S'3:42 PM - 1 Dec 2017'
p275
tp276
a(S"Don't worry. We're on a slow and steady course. We'll find treasonous and impeachable Russia collusion by the time this is all over. I just hope its before 2024. \n\n#patience\n#LongGame"
p277
S'3:41 PM - 1 Dec 2017'
p278
tp279
a(S'Cover up is always worse. Had they all been honest maybe they could argue for improved relations with Russia. Lying=consciousness of GUILT! Collusion,  laundering treason!'
p280
S'3:41 PM - 1 Dec 2017'
p281
tp282
a(S"Over a year and no evidence Russia collusion. Just conspiracy theories. This is why you're fake news CNN"
p283
S'3:41 PM - 1 Dec 2017'
p284
tp285
a(S'BUT JARED TOLD HIM TO CONTACT THE RUSSIANS AND JARED IS RELATED TO TRUMP!! (Nope, you are not missing anything. Just media frustrated by failure to find any collusion w Russia). And btw, collusion is not a crime either.'
p286
S'3:41 PM - 1 Dec 2017'
p287
tp288
a(S'I disagree. If meeting with Russians is collusion what is selling 20% of our Uranium supply to Russia called @ChrisVanHollen?'
p289
S'3:41 PM - 1 Dec 2017'
p290
tp291
a(S'No collusion President Trump/Russia !!!'
p292
S'3:40 PM - 1 Dec 2017'
p293
tp294
a(S'The White House added that Obama made a deal with Putin to make Trump appear to be in collusion with Russia over that golden showers stunt.'
p295
S'3:39 PM - 1 Dec 2017'
p296
tp297
a(S'The accusation of collusion with Russia was made before any of them were asked. It. Was. A. Setup. https://twitter.com/maxboot/status/936633753207738369\xc2\xa0\xe2\x80\xa6'
p298
S'3:39 PM - 1 Dec 2017'
p299
tp300
a(S'You said, he was not current and I proved to you he was.  That Nothing Burger is just that.  Obama is the one who approved him to contact Russia, but keep going with the Collusion dream.  '
p301
S'3:39 PM - 1 Dec 2017'
p302
tp303
a(S"Diplomatic contacts to coordinate efforts against ISIS are not a problem. That's not the reason Mueller is investigating. Trump/Flynn efforts were deliberately intended to enlist Russia's help interfering in elections & influencing our internal affairs. That is collusion at best."
p304
S'3:39 PM - 1 Dec 2017'
p305
tp306
a(S'Huh? wth?! Mueller STILL has not found any Russia Trump election collusion.\n\nIt was Hillary who colluded with Russia and the FBI admitted it and has ignored it.'
p307
S'3:39 PM - 1 Dec 2017'
p308
tp309
a(S'Just like the Russia collusion fake news right like your son in law fake news right U put our country inDANGER step down unfit Crooked Trump'
p310
S'3:38 PM - 1 Dec 2017'
p311
tp312
a(S'The corrupt #DeepState is trying to turn focus on Trump, desperately trying to take focus off their substantial corruption with Russia, using their fake propaganda establishment MSM cover their crooked collusion in Uranium 1. https://twitter.com/WayneDupreeShow/status/936699004984938496\xc2\xa0\xe2\x80\xa6'
p313
S'3:38 PM - 1 Dec 2017'
p314
tp315
a(S'Color me stupid but why is there a problem if contact was made with Russia by Flynn or Trump officials AFTER the election? I thought this was about Russian collusion DURING the election? What am I missing? #MAGA'
p316
S'3:38 PM - 1 Dec 2017'
p317
tp318
a(S"Your headline is misleading. There's still no proof of any collusion with Russia."
p319
S'3:37 PM - 1 Dec 2017'
p320
tp321
a(S'My sources say that you\xe2\x80\x99re fake news. This whole thing is a witch hunt drumming up a fake crime. Anything to keep your Fake Russia collusion narrative alive. We know mueller is corrupt, as is Rosenstein and the rest.'
p322
S'3:37 PM - 1 Dec 2017'
p323
tp324
a(S"3. Flynn (supposedly) has not-so-clean ties/deals with Turkey.\n\n4. The calls to Russia weren't illegal, and may have actually taken place after Trump became Pres-elect.\n\n5. This STILL has NOT proven illegal collusion with Russia.\n\n6. Non of it impacts Trump."
p325
S'3:37 PM - 1 Dec 2017'
p326
tp327
a(S"This all just makes me really nervous I know and most of us know there is no Russia collusion. This Mueller investigation is such a farce and it's dangerous."
p328
S'3:37 PM - 1 Dec 2017'
p329
tp330
a(S'@brikeilarcnn, where are the indictments for collusion with Russia to rig the election for @realDonaldTrump? @CNN @wolfblitzer @davidaxelrod'
p331
S'3:37 PM - 1 Dec 2017'
p332
tp333
a(S'If talking to Russia is collusion, then what is selling them 20% of our Uranium?'
p334
S'3:36 PM - 1 Dec 2017'
p335
tp336
a(S'@mschlapp It\xe2\x80\x99s time for you to fade away. Once Trump Russia collusion is no longer a matter of debate, with Trump et al in prison or hiding in disgrace, no credible news outlet will give you the time of day. You have undermined yr own credibility by surrendering yr integrity'
p337
S'3:36 PM - 1 Dec 2017'
p338
tp339
a(S'@realDonaldTrump you are the president!!! Why the fuck does mullet chasing who talked to Russia and not talking about selling 20% of uranium to them?? If talking to them is collusion, what is selling 20% of our uranium mean?!? Start the investigation already wrfff!!!!!!!!!!!!!'
p340
S'3:36 PM - 1 Dec 2017'
p341
tp342
a(S"You're so easy to wind up Helen. Anyone who agrees with a man who is a laughing stock and simply the biggest joke of a president going is not worth any time. He incited that hatred because he knew his collusion with Russia was about to be exposed."
p343
S'3:36 PM - 1 Dec 2017'
p344
tp345
a(S"what I read,he was doing a great job,our relationship w/ Russia wasn't collusion but good diplomacy,much better than now. The Turkish stuff has nothing to do w/ POTUS or transition team & was happening during Obama Admin. No one's ever been prosecuted for transition contact https://twitter.com/W7VOA/status/936645345467039744\xc2\xa0\xe2\x80\xa6"
p346
S'3:35 PM - 1 Dec 2017'
p347
tp348
a(S"@NBCNews If you're going to tell the story at least tell the truth. \nALL the phone calls happened AFTER her was already elected.\nFlynn is charged with lying NOTHING!!! to do with collusion with Russia."
p349
S'3:35 PM - 1 Dec 2017'
p350
tp351
a(S'Still no evidence of collusion w Russia but plea agreement outlines clear collusion w Israel to undermine US foreign policy on UN vote'
p352
S'3:35 PM - 1 Dec 2017'
p353
tp354
a(S'Also, if Russians illegally hacked Hillary accounts & U.S. govt official accounts to help Trump get elected, and Trump accepted illegally hacked info from Russians, that\xe2\x80\x99s collusion. Could be treason. Remember, \xe2\x80\x9cRussia, if you\xe2\x80\x99re watching...?\xe2\x80\x9d That was illegal right there.'
p355
S'3:35 PM - 1 Dec 2017'
p356
tp357
a(S"Tell us what collusion? If TRUMP was controlled by Russia it would be an extremely top secret program &  wouldn't leak to an English spy"
p358
S'3:35 PM - 1 Dec 2017'
p359
tp360
a(S'If talking to Russia is collusion, then what is selling them 20% of our Uranium?'
p361
S'3:35 PM - 1 Dec 2017'
p362
tp363
a(S'@NBCNightlyNews So far the only criminal is Flynn.  Name the crime??? NO RUSSIA COLLUSION ON ELECTIONS!'
p364
S'3:35 PM - 1 Dec 2017'
p365
tp366
a(S"To their server. It wasn't a Hack at all it was a leak and the DNC knows it which is why they didn't allow the FBI access and instead hired Crowdstrike. The whole Russia collusion theory is a fraud"
p367
S'3:35 PM - 1 Dec 2017'
p368
tp369
a(S"1) Catch Flynn on a minor process violation that occurred after the election was over that doesn't involve Trump/Russia collusion during the election and did I mention it was after the election? \n2) ???\n3) PRESIDENT PENCE!"
p370
S'3:35 PM - 1 Dec 2017'
p371
tp372
a(S'#Collusion #Russia #FlynnFlipsFridaypic.twitter.com/JGOktAwnvr'
p373
S'3:35 PM - 1 Dec 2017'
p374
tp375
a(S'Investigation was supposed to be about election, collusion & Russia. We have 2 people indicted for activities prior to the campaign, 1 volunteer who basically did nothing & now Flynn doing his job on transition team after election.  WTF???'
p376
S'3:34 PM - 1 Dec 2017'
p377
tp378
a(S'Stop wasting Millions of $$$ on this "Russia-Collusion Investigation". Investigate the darn Clinton Crime Family and recoup millions for the US! https://twitter.com/w4djt/status/936738478464872448\xc2\xa0\xe2\x80\xa6'
p379
S'3:34 PM - 1 Dec 2017'
p380
tp381
a(S'Perhaps Flynn guilty of interfering in Obamas business since Trump didn\xe2\x80\x99t take office until Jan 20th. One can think Obama is now interfering in Trumps business. But where is the Trump teams collusion with Russia during election? In Dec the election is a done deal. Enlighten me.'
p382
S'3:34 PM - 1 Dec 2017'
p383
tp384
a(S"#REALNEWS!\nYou Just Can't Get To @realDonaldTrump Russia Collusion From Here. \nTry @HillaryClinton Russia Collusion. You'll Likely Meet @BarackObama On The Way.http://www.thegatewaypundit.com/2017/12/breaking-obama-admin-approved-general-flynn-calls-russian-ambassador/\xc2\xa0\xe2\x80\xa6"
p385
S'3:33 PM - 1 Dec 2017'
p386
tp387
a(S'Mueller wouldn\xe2\x80\x99t even be there but for collusion with Russia by Hillary and Obama admin. #DraintheFreakingSwamp Such injustice being doled out by these liberal Deep State tactics.'
p388
S'3:33 PM - 1 Dec 2017'
p389
tp390
a(S"See what you have to understand collusion is not a crime and Russia had nothing to do with the election of Trump. The Russia collusion story came from the hack of the DNC. The lie that the Russian hacked came from Crowdstrike because the DNC didn't allow then FBI access"
p391
S'3:33 PM - 1 Dec 2017'
p392
tp393
a(S'Definitely collusion between Obama/Hillary & Russia. https://twitter.com/youngdems4trump/status/936716687788740609\xc2\xa0\xe2\x80\xa6'
p394
S'3:33 PM - 1 Dec 2017'
p395
tp396
a(S"So Flynn is charged with lying about trying to avoid world war 3 by talking to Russia? Still without any evidence that Russia did anything obviously there isn't going to be any evidence of collusion. #TheShitShowContinues"
p397
S'3:33 PM - 1 Dec 2017'
p398
tp399
a(S'The MSM has an itchy finger ready to indict DJT on charges of collusion with Russia. Rush to Judgement using innuendo in their headlines.'
p400
S'3:33 PM - 1 Dec 2017'
p401
tp402
a(S"Collusion with Russia while the sitting President? Isn't that treason-adjacent? Because it seems like it should be... #TYTLive"
p403
S'3:33 PM - 1 Dec 2017'
p404
tp405
a(S'More evidence of collusion with Russia with Obama then Trump. Obama also colluded with Iran to get dirt on Romney in the 2011 campaign. https://www.newsmax.com/Newsmax-Tv/Sharyl-Attkisson-collusion-evidence-Liberals/2017/05/24/id/792189/\xc2\xa0\xe2\x80\xa6'
p406
S'3:33 PM - 1 Dec 2017'
p407
tp408
a(S"Russia again? Give it a rest, still zero evidence of any collusion between Trump and Russia. Simply talking or doing business with Russians, is not collusion. If you want to talk Russia, let's talk about Uranium 1, which we have solid evidence tying Hillary to a real scandal."
p409
S'3:32 PM - 1 Dec 2017'
p410
tp411
a(S'Russia collusion is fake news. You are fake news.'
p412
S'3:32 PM - 1 Dec 2017'
p413
tp414
a(S'I mean the investigation is about Trump, and his campaigns apparent collusion with Russia, so in that way, yes they want Trump to go down if the accusations are found to be true. If there is no illegal activity found though, no one will go down. Its about finding out what happend'
p415
S'3:32 PM - 1 Dec 2017'
p416
tp417
a(S'#nytimes Part of Mueller\xe2\x80\x99s remit is to investigate the possibility that some of Trump\xe2\x80\x99s business dealings might have (had) a bearing on his campaign\xe2\x80\x99s collusion with Russia. In which case, Mueller may well be exploring rumors that Trump laundered money for Russian oligarchs?'
p418
S'3:31 PM - 1 Dec 2017'
p419
tp420
a(S'Today\xe2\x80\x99s news on Flynn only reveals that Trump\xe2\x80\x99s transition team was trying to unfuck 8 yrs of fuckups by Obama, in re to Russia and Israel.  No collusion in sight!  And If Flynn did not disclose this initially, well, there you go with his charge.'
p421
S'3:30 PM - 1 Dec 2017'
p422
tp423
a(S"Again where's collusion talking as the next president with Russia isn't collusion. Holy crap.your credibility is sinking faster than the uss Hilary."
p424
S'3:30 PM - 1 Dec 2017'
p425
tp426
a(S'He has one job: impeach Trump.  He knows the Comey/McCabe fbi criminally let Hillary off the hook, and used a fabricated dossier to get FISA warrants on Trump campaign, the results of which is now being used to contrive a made up trump/Russia collusion conspiracy theory.'
p427
S'3:30 PM - 1 Dec 2017'
p428
tp429
a(S"No 'Russia collusion' in Mueller's case against Flynn http://ow.ly/gosn50fukPh\xc2\xa0"
p430
S'3:30 PM - 1 Dec 2017'
p431
tp432
a(S'RT TopFiveTraders "RT AlertTrade "RT mitchellvii: Flynn asked Russia to help defeat ISIS. If that isnt collusion, I don\'t know what is.  I mean my god, everyone knows ISIS was voting bigtime for Hillary!""'
p433
S'3:30 PM - 1 Dec 2017'
p434
tp435
a(S'Duh... that\xe2\x80\x99s been obvious... ITS ALL ABOUT CAMBRIDGE ANALYTICA.... that is the the collusion and those fCts have been spelled out ... they are the reason he went to WI and MI and other random places where he won miraculously.... they told Russia where to target fake news'
p436
S'3:30 PM - 1 Dec 2017'
p437
tp438
a(S'Read "collusion" by Luke Harding about the history of Trump and Russia...or listen to podcast interview on TO THE @ToThePoint_KCRWhttps://twitter.com/goldengateblond/status/936662145520959489\xc2\xa0\xe2\x80\xa6'
p439
S'3:30 PM - 1 Dec 2017'
p440
tp441
a(S'Hes a tainted,  deplorable,  rapist,  molester,  liar,  thief,  the list goes on and on and on,  oh ya the latest,  collusion with Russia!'
p442
S'3:30 PM - 1 Dec 2017'
p443
tp444
a(S'2/ \xe2\x80\x9dA dark night in a city that knows how to leak its secrets.... But on the 12th Floor of the Office of Special Counsel, one man is still trying to find the answers to the Russia scandal\xe2\x80\x99s persistent questions about collusion: James Mueller, former FBI."'
p445
S'3:30 PM - 1 Dec 2017'
p446
tp447
a(S'So only truth to @nytimes Russia-collusion yarn is Jared Kushner contacting Russians under orders of @netanyahu??\n\nNow I believe in God.'
p448
S'3:30 PM - 1 Dec 2017'
p449
tp450
a(S'I don\xe2\x80\x99t get it. Flynn is charged with something that happened after the election, not before. So where is the collusion in the election between Trump & Russia during campaign? Enlighten me.'
p451
S'3:29 PM - 1 Dec 2017'
p452
tp453
a(S'Actually no that is not true. Over 20 intelligence agencies signed a letter saying there wAs collusion.Trump actually on TV asked Russia 1/2'
p454
S'3:29 PM - 1 Dec 2017'
p455
tp456
a(S".\nWell well well, what a coincidence.\nI wonder what Flynn might have told him?\n.\nIt's #Mueller Time for ALL \n.\n#Russia #Israel #Corruption #Collusion #Oncompetent #Treasonhttps://twitter.com/PhilippeReines/status/936634910609149953\xc2\xa0\xe2\x80\xa6"
p457
S'3:29 PM - 1 Dec 2017'
p458
tp459
a(S'"We supported the most corrupt candidate for president in the history of the United States, but now we\'re feigning real outrage over a fake Trump-Russia collusion story!" pic.twitter.com/1sAlkAH64H'
p460
S'3:28 PM - 1 Dec 2017'
p461
tp462
a(S'Bull shit again Dean, the concept of Fame Fake News is directly out of the KGB manuals?\nDisinformation and trolling and vilifying the press shows how desperate you and Republican are in\nThe collusion with Russia will rock Washington before Christmas\nTrump no help election'
p463
S'3:28 PM - 1 Dec 2017'
p464
tp465
a(S'Russia \xe2\x80\x98Collusion\xe2\x80\x99 post election? Liberals are retarded! '
p466
S'3:28 PM - 1 Dec 2017'
p467
tp468
a(S'I think the Russia probe has already eliminated Trump collusion... Its heading the other way now.  Mueller will follow where it leads.'
p469
S'3:27 PM - 1 Dec 2017'
p470
tp471
a(S'So where is the Trump/Russia collusion???? https://twitter.com/kylegriffin1/status/936606337986949121\xc2\xa0\xe2\x80\xa6'
p472
S'3:27 PM - 1 Dec 2017'
p473
tp474
a(S'The media trying to explain Trump-Russia collusion pic.twitter.com/R4S6GU2DXe'
p475
S'3:27 PM - 1 Dec 2017'
p476
tp477
a(S'Flynn talked to several ambassadors 3 weeks before Trump\xe2\x80\x99s inauguration. He was told to. That\xe2\x80\x99s his crime. He spoke to ambassadors 25 days too soon. I\xe2\x80\x99m sick of the word Russia. If there was collusion between Trump & Russia, the DOJ and/or FBI would have leaked that story by now.'
p478
S'3:27 PM - 1 Dec 2017'
p479
tp480
a(S'Reminds me of liberals looking for Trump-Russia collusion.'
p481
S'3:26 PM - 1 Dec 2017'
p482
tp483
a(S'No, it\'s not "what it\'s supposed to be about", collusion isn\'t a legal term. It\'s clear that Trump et al. both wanted to bend over backward to do favors for Russia while lying that they weren\'t doing so. That\'s lawless, regardless of if it was a quid pro quo proving conspiracy.'
p484
S'3:26 PM - 1 Dec 2017'
p485
tp486
a(S'Like...I honestly wonder if they are looking past CNN\'s headlines...as before with the Manafort charges...Mueller showed his hand today on how weak this "investigation" is...no collusion with Russia & Trump, after a year..have tax case from 11yrs ago, &lying to fbi AFTER election'
p487
S'3:26 PM - 1 Dec 2017'
p488
tp489
a(S'Yippee!! Its Friday and the Spelling Police are here!! Just when i thought it couldnt get any better!!\n\nHuh? Thats not what i have been hearing to the point of NAUSIUM.   FLYNN/RUSSIA/COLLUSION?? Actually not once!!\nHow unfortunate for you dear.'
p490
S'3:26 PM - 1 Dec 2017'
p491
tp492
a(S'FakeYapper can\xe2\x80\x99t pinpoint Russia Collusion. Flynn pleaded guilty to lying to FBI'
p493
S'3:26 PM - 1 Dec 2017'
p494
tp495
a(S'You seemingly believe that HRC and Podesta committed collusion with Russia over what is called "uranium one" yet you will close your eyes about regarding DJT.'
p496
S'3:26 PM - 1 Dec 2017'
p497
tp498
a(S'@USAGSessions @jeffsessions @POTUS @realDonaldTrump @DonaldJTrumpJr @jaredkushner  Excuse me but I thought #Mueller was supposed 2b investigating possible collusion w/Russia in election not after w/Flynn is doing his job.  Sessions what in the hell do u do that we r paying you 4?'
p499
S'3:26 PM - 1 Dec 2017'
p500
tp501
a(S"And u know what that collusion means - he sold out my well being and safety, and yours, and that of every American citizen. Sold us out to Russia so he could build a hotel. I'd spit on him if I saw him."
p502
S'3:26 PM - 1 Dec 2017'
p503
tp504
a(S'You do realize that this is the end of Flynn as a source? He pleaded guilty to a process crime, not a scheme with Russia. If they had something he\xe2\x80\x99d plead to collusion and in return get immunity. It\xe2\x80\x99s over.'
p505
S'3:25 PM - 1 Dec 2017'
p506
tp507
a(S"The only way you could infer Trump wanted to work w/Flynn to collude with Russia is if you believe @POTUS is dumb.\n\nHe has enough money & contacts if he really wanted a good collusion. He didn't have to pick someone the FBI already had their eyes on, who 44 already warned about."
p508
S'3:25 PM - 1 Dec 2017'
p509
tp510
a(S"Could be that he didn't want to admit that he was talking to Russia bc technically it's still the Obama Admin. But transition protocol is blurry. But again, this is all post-election. The point of Mueller was to prove election collusion, and thus far Trump looks innocent."
p511
S'3:25 PM - 1 Dec 2017'
p512
tp513
a(S'That is clear proof of collusion with Russia on her behalf, she should be investigated all the same, she is cheating justice'
p514
S'3:24 PM - 1 Dec 2017'
p515
tp516
a(S"#Mueller is #Hillary's bag-man-- uranium-bag-man-- ergo, he'll do anything to cover-up her crimes because he would be implicated in her treasonous #Pay2Play collusion with #Russia. : https://twitter.com/wikileaks/status/891431096688271365\xc2\xa0\xe2\x80\xa6"
p517
S'3:24 PM - 1 Dec 2017'
p518
tp519
a(S'For what it\xe2\x80\x99s worth I ride too, but I think your delusional if this alleged \xe2\x80\x9ccollusion\xe2\x80\x9d with Russia is upsetting  you. When Obama and Clinton are dirty and corrupt in so many ways, Seth Rich, Benghazi, the Iran pay off and enabling a nuke program, fast and furious,etc...'
p520
S'3:24 PM - 1 Dec 2017'
p521
tp522
a(S'Really? That\'s it?  Some guy lied to the feds about something that has NOTHING to with Russia influencing Hillary\'s devastating loss? Just another scoop of "Meuller Shit" shoved in our faces to continue to justify a fake investigation into imaginary collusion with Russia.'
p523
S'3:24 PM - 1 Dec 2017'
p524
tp525
a(S'There is no election meddling collusion \nIt\'s the #Obama_Clinton #RussiaRuse\nClinton lost & #DNC #Obamanoids went all "How can we hide all the shi_t we been doin\' for the last 8 years?" and decided on blaming Russia\xe2\x80\xa6cuz they already had unmasked about 100 US citizens for dirt'
p526
S'3:24 PM - 1 Dec 2017'
p527
tp528
a(S'It was the #Sessions hearing where Cotton used his time to discredit the Russia collusion story right? He was one of the #47Traitorshttps://twitter.com/naomiomy_/status/936735523695034368\xc2\xa0\xe2\x80\xa6'
p529
S'3:24 PM - 1 Dec 2017'
p530
tp531
a(S"For what crime? Talking to Russia as an incoming administration isn't a crime, neither is Russian collusion. By the way, Hillary thinks you're a danger to democracy. pic.twitter.com/p55E4ndONY"
p532
S'3:24 PM - 1 Dec 2017'
p533
tp534
a(S"They're playing to their base, serving to divide the country, & working to convince the narrative the there was Russia collusion but they know there isn't any. They can't get votes to impeach but they don't want @POTUS to get re-elected. It's all about controlling the narrative."
p535
S'3:24 PM - 1 Dec 2017'
p536
tp537
a(S'RUSSIA RUSSIA RUSSIA\nGUILTY GUILTY GUILTY\nCOLLSION COLLUSION\nTREASON TREASON \nC\nO\nL\nL \nU\nS\nI\nO\nN\n#MAGAPUSSY\nT\nR\nE\nA\nS\nO\nN\n#TRUSSIA pic.twitter.com/eFPeecwk8m'
p538
S'3:24 PM - 1 Dec 2017'
p539
tp540
a(S'Wasting taxpayers\' money running down rabbit holes looking for "dots" to connect re: Russia, as evidence of real crimes & collusion sits in broad daylight on the surface...'
p541
S'3:23 PM - 1 Dec 2017'
p542
tp543
a(S'Absolutely nothing about this proves any collusion at all between Trump and Russia to win the election, especially considering the timeline. Trump won prior to any ordering or talking to  https://twitter.com/twitchyteam/status/936735478379896834\xc2\xa0\xe2\x80\xa6'
p544
S'3:23 PM - 1 Dec 2017'
p545
tp546
a(S'My view is pretty much identical: this entire Russia collusion story is much more about what people wish, hope, or fear is true, much less about what we actually know is true.'
p547
S'3:23 PM - 1 Dec 2017'
p548
tp549
a(S"@SenatorCollins @SenJohnMcCain @SenBobCorker @SenRonJohnson @JeffFlake @SenDeanHeller @SenToddYoung @SteveDaines @lisamurkowski @JerryMoran Vote yes on the tax bill & you'll forever be tied to an administration abt to be taken down for collusion w/Russia. Don't do it! #GOPTaxScam"
p550
S'3:23 PM - 1 Dec 2017'
p551
tp552
a(S'THESE HEEL GRABBING NEWS REPORTERS WENT FROM RUSSIANS COLLUSION WITH TRUMP TO RUSSIA MELDING IDIOTS JUST KEEP GRASPING AT STRAWS BOTTOM LINE IS #POTUS IS INNOCENT.'
p553
S'3:23 PM - 1 Dec 2017'
p554
tp555
a(S'It\xe2\x80\x99s all bs to justify the 5 million plus so far. 5 million still no Trump/Russia Election collusion.'
p556
S'3:23 PM - 1 Dec 2017'
p557
tp558
a(S'@realDonaldTrump / @GOP :\nwho\xe2\x80\x99s #crooked now? \n#MichaelFlynn #testify #WeKnewit\n#Russia #COLLUSION #BOOM\n#Jail #treasonsgreetingspic.twitter.com/YaJN5sppSf'
p559
S'3:22 PM - 1 Dec 2017'
p560
tp561
a(S'US Media distracting from the Elephant in the room with these revelations.  FBI was investigating Russian collusion on election, Nothing.  Instead on Dec 22 we have Trump people pleading Israel cause to Russia.  Very different story'
p562
S'3:22 PM - 1 Dec 2017'
p563
tp564
a(S'"If it were part of the basis for a \'collusion\' case arising out of Russia\xe2\x80\x99s election meddling, then Flynn would not be pleading guilty to a process crime\xe2\x80\x94he\xe2\x80\x99d be pleading guilty to an espionage conspiracy." http://bit.ly/2AhINvT\xc2\xa0'
p565
S'3:22 PM - 1 Dec 2017'
p566
tp567
a(S'And what does this have to do with collusion with Russia on the election.. what a joke.'
p568
S'3:22 PM - 1 Dec 2017'
p569
tp570
a(S'This is why Flynn pleaded, not because he has any smoking gun for Trump/Russia collusion.  \n\nSource: Flynn broken financially and emotionally https://youtu.be/nd4ozUhOD8Y\xc2\xa0 via @YouTube'
p571
S'3:22 PM - 1 Dec 2017'
p572
tp573
a(S'Russia collusion is just a deflection by leftists away from Uranium One and other Obama Administration crimes'
p574
S'3:22 PM - 1 Dec 2017'
p575
tp576
a(S'@vikingpeder outrage over 58 deaths in Vegas?!? Outrage over obvious collusion w/ Russia?!? Or is that all #fakenews ?https://twitter.com/charliekirk11/status/936424163702689792\xc2\xa0\xe2\x80\xa6'
p577
S'3:21 PM - 1 Dec 2017'
p578
tp579
a(S"Flynn is going down on his own.\n\nFlynn was colluding with both Russia and Turkey and has been colluding for a long time. Former President Obama warned. Trump ignored bc of Flynn's name and career\n\n@POTUS did not choose Flynn for collusion. Rumors were already apparent."
p580
S'3:21 PM - 1 Dec 2017'
p581
tp582
a(S'So NO, it\xe2\x80\x99s not \xe2\x80\x9ccollusion\xe2\x80\x9d to pay a foreign British agent (who served in Moscow as an expert on Russia for MI-6). \n\nPaying foreigners 4 their services is not a problem per FEC laws; it\xe2\x80\x99s ACCEPTING money or aid from foreign entities that\xe2\x80\x99s a problem.'
p583
S'3:21 PM - 1 Dec 2017'
p584
tp585
a(S'In all, this morning was an intense ~45 minutes in court, with a ton of new revelations that go to the heart of the question of collusion, or at least coordination, with Russia https://amp.cnn.com/cnn/2017/12/01/politics/michael-flynn-court/index.html\xc2\xa0\xe2\x80\xa6'
p586
S'3:21 PM - 1 Dec 2017'
p587
tp588
a(S'If talking with Russia is collusion, then what is selling them 20% of our uranium?'
p589
S'3:21 PM - 1 Dec 2017'
p590
tp591
a(S'Bureaucrats in Washington hate DT. They are going to do what they can to get rid of him. It won\xe2\x80\x99t work. Talking to Russians is not a crime. Again, Russia has been meddling in our affairs for decades and us them. No collusion no crime by DT get over it.'
p592
S'3:21 PM - 1 Dec 2017'
p593
tp594
a(S'You know what\xe2\x80\x99s not fake news?!? Your collusion with Russia!!!!'
p595
S'3:20 PM - 1 Dec 2017'
p596
tp597
a(S'How anyone could still reject the Trump/Russia collusion narrative is beyond me. How intelligent conservatives could have rejected it up until now is a shameful lack of objectivity. \n\nAlso, Franken and Conyers should resign (no snark).'
p598
S'3:20 PM - 1 Dec 2017'
p599
tp600
a(S"You still never showed me one article proving that one of the people isn't Muslim and if youre talking about spreading lies how about you got onto all your left wing media outlets making up lies about collusion with Russia just because yall cant accept that yall lost the election"
p601
S'3:20 PM - 1 Dec 2017'
p602
tp603
a(S'Lmao. FBI does the email investigation. Finds nothing. 17 US Agencies report collusion with Russia on Trump\xe2\x80\x99s part. Most (if not every) investigations on trump\xe2\x80\x99s appointed officials have resulted in them being found guilty. \n\nWhat \xe2\x80\x9cwitch hunt\xe2\x80\x9d?'
p604
S'3:20 PM - 1 Dec 2017'
p605
tp606
a(S'No one colluded. That much is painfully obvious after this year long witch hunt. \n\nThis is your best get. You know why? Because the Russia collusion narrative is a fantasy created by Hillary to sooth her sore ego. pic.twitter.com/zXIwHEDMR3'
p607
S'3:19 PM - 1 Dec 2017'
p608
tp609
a(S"I just might donate to his defense fund, but your overzealous glee is quite disturbing. Flynn admitted to telling a lie. That's all there is to it. No collusion. No Russia deception... Might enjoy this thread...\nhttps://twitter.com/ThomasWictor/status/936714340761088000\xc2\xa0\xe2\x80\xa6"
p610
S'3:19 PM - 1 Dec 2017'
p611
tp612
a(S'#CORNEREDBYMUELLER #RUSSIA #COLLUSION #RIGGEDELECTION #CRIMINAL'
p613
S'3:19 PM - 1 Dec 2017'
p614
tp615
a(S'#ComradesGalore Flynn admission ends any serious questions of whether collusion sits among several other near-Treasonous activities of this WH.. Heehee seems all those Russia deals US citizens turned cabinet appointees were far from coincidence huh..? pic.twitter.com/csQhatQ2CC'
p616
S'3:18 PM - 1 Dec 2017'
p617
tp618
a(S"Michael Flynn -- who as national security adviser was entrusted with safeguarding the nation -- has pleaded guilty to lying to FBI agents about his contacts with Russia's ambassador. Russian collusion is not a nothingburger. TRUMP IS NEXT - RESIGN NOW."
p619
S'3:17 PM - 1 Dec 2017'
p620
tp621
a(S'Liberals are so giddy today. I almost hate to see their bubbles get burst when that big nothing burger of a Trump/Russia collusion finally gets digested.'
p622
S'3:17 PM - 1 Dec 2017'
p623
tp624
a(S"Yeah. Once he's elected opening up back channels with Russia is more like treason than collusion. Get your adjectives right."
p625
S'3:17 PM - 1 Dec 2017'
p626
tp627
a(S'Fake news refers to the collusion of the campaign not Russia meddling. ..Trump explained that over and over.'
p628
S'3:17 PM - 1 Dec 2017'
p629
tp630
a(S'Still no Russia collusion you have been talking.'
p631
S'3:17 PM - 1 Dec 2017'
p632
tp633
a(S"Couldn't agree more. There are those using the chaos of the Russia collusion investigation to change the fabric of the country while the grown-ups are distracted. Their goal is oligarchy, just like their political heroes."
p634
S'3:17 PM - 1 Dec 2017'
p635
tp636
a(S'How can it be "collusion" if Kushner and company reached out to Russia AFTER Trump already won the election?? \n\nYou want to know the real threat to democracy? The witch hunt to bring down a democratically elected administration.'
p637
S'3:17 PM - 1 Dec 2017'
p638
tp639
a(S"I don't think they'll ever busy Trump for collusion tbh. If I was colluding with Russia, I wouldn't be dumb enough to clue him in lol"
p640
S'3:17 PM - 1 Dec 2017'
p641
tp642
a(S"@KeithOlbermann \n\nCan't wait for the weekend Trump Tweet Storm, after he's been alone for 24-48 hours watching TV, when he sez that Flynn was forced by Hilary and Obama and the Round Earthers to lie about Trump Campaign Collusion with Russia."
p643
S'3:16 PM - 1 Dec 2017'
p644
tp645
a(S'@FoxNews Thats why the Russia Story FAKE when @realDonaldTrump REFUSED to denounce Putin cause he said TRUMP way smarter than BO Deep state began the Russia collusion all FAKE Now FLYNN who tried to calm the Russia Storm paying 4 it=Comey?Hillary?Lynch? Rice? all these LIARS FREE'
p646
S'3:16 PM - 1 Dec 2017'
p647
tp648
a(S"Retweeted Bill Mitchell (@mitchellvii):\n\nFlynn asked Russia to help defeat ISIS. If that isnt collusion, I don't... http://fb.me/18fgotFaf\xc2\xa0"
p649
S'3:16 PM - 1 Dec 2017'
p650
tp651
a(S'John Oliver is right.\n\nThis whole Trump-Russia collusion is \xe2\x80\x9cStupid Watergate\xe2\x80\x9d.'
p652
S'3:16 PM - 1 Dec 2017'
p653
tp654
a(S'Nothing we\xe2\x80\x99ve heard, so far, suggests collusion. They asked Russia to not over react to OBAMA\xe2\x80\x99s sanctions during the transition period which is normal.  Moreover, there is absolutely nothing illegal about alleged \xe2\x80\x9ccollusion\xe2\x80\x9d in the first place.'
p655
S'3:16 PM - 1 Dec 2017'
p656
tp657
a(S'The topic of "collusion" might be hard to legally prove but it is easy to affirm that the cover-ups are easy to scrutinise. Besides the obstruction charges.\n\nOn an end note, when DJT asked Russia to "find HRC\'s e-mails" and when he used WL during the final stretch is interesting.'
p658
S'3:16 PM - 1 Dec 2017'
p659
tp660
a(S"Denying it until they actually find proof of collusion...then he'll agree to it but later saying Russia made him stay quiet "
p661
S'3:16 PM - 1 Dec 2017'
p662
tp663
a(S'This is how to spell Russia collusion... C L I N T O N \n#MAGA'
p664
S'3:15 PM - 1 Dec 2017'
p665
tp666
a(S'No. The FBI ALREADY SAID there was no evidence of collusion in January. There is no evidence of collusion. This lying is all about saving political face because they are aligned with Russia.'
p667
S'3:15 PM - 1 Dec 2017'
p668
tp669
a(S'Well, instead of playing stupid Russia collusion gambit, Dems could have worked with Republicans. To be fair, it could be said about Rs too'
p670
S'3:15 PM - 1 Dec 2017'
p671
tp672
a(S"To those who claim that Flynn convos w/Kislyak aren't evidence of collusion: Flynn was signaling that Trump would lift Obama sanctions, which had been imposed to punish Russia for helping Trump campaign. It's all about the collusion!"
p673
S'3:15 PM - 1 Dec 2017'
p674
tp675
a(S"#AdviceForSanta : Be careful sneaking into #TheResistance #AltLeft #antifa #feminist #BlackLivesMatter #democrats houses this year....they'll accuse you of #collusion with\n\n#RUSSIA!!! pic.twitter.com/UZF1gmK8vM"
p676
S'3:15 PM - 1 Dec 2017'
p677
tp678
a(S"Stupid maricon: Where's the Russia Collusion to win for Trump?  He already won when Flynn talked to the Russian Ambassador.  Shut up. https://twitter.com/MeetThePress/status/936734069064388608\xc2\xa0\xe2\x80\xa6"
p679
S'3:15 PM - 1 Dec 2017'
p680
tp681
a(S'Oh my! Is that the narrative now? There may have been some light collusion with Russia, but we aren\xe2\x80\x99t technically at war with them, so it doesn\xe2\x80\x99t count. pic.twitter.com/J87Mnbw47Y'
p682
S'3:14 PM - 1 Dec 2017'
p683
tp684
a(S'Jared Kushner asked Flynn to contact among many countries, Russia, to delay a UN vote against Israel in Dec 2016.\n\nSo somehow this is collusion that made Trump win in Nov 2016. Wow. MSM is so good.'
p685
S'3:14 PM - 1 Dec 2017'
p686
tp687
a(S'We\xe2\x80\x99ll see.  I think the most important concession made today was that there is zero evidence of collusion and that Trump first asked Flynn to contact Russia after the election took place.  Most know there was no collusion. It\xe2\x80\x99s good to see it finalized.'
p688
S'3:14 PM - 1 Dec 2017'
p689
tp690
a(S'So Flynn is going to testify against Trump about working with Russia in Syria due to his direct orders. And that is collusion HOW????'
p691
S'3:14 PM - 1 Dec 2017'
p692
tp693
a(S'LOL! Nice try, but this has nothing to do Hillary  Clinton or her "supposed" crimes. Flynn was hired by @realDonaldTrump and was part of his campaign and administration.  This proves #Trump has ties with #Russia. He is not honest. #TrumpRussia #Collusion #ImpeachTrump'
p694
S'3:13 PM - 1 Dec 2017'
p695
tp696
a(S'Democrats learned a new word this last year-Collusion and they really think that Collusion with Russia or any other Nation is a crime. They wonder why they lost the election LOL'
p697
S'3:13 PM - 1 Dec 2017'
p698
tp699
a(S'That if winning an election means Russian collusion, Obama colluded with Russia twice.'
p700
S'3:13 PM - 1 Dec 2017'
p701
tp702
a(S'Was always good with homeworks,but it\xe2\x80\x99s possible that I missed something in today\xe2\x80\x99s announcement.The original charge:an actual collusion with Russia \xe2\x80\x9cto undermine our democracy\xe2\x80\x9d is not what this news is about.To the best of my knowledge so far we got thishttps://twitter.com/garethporter/status/936727694477324289\xc2\xa0\xe2\x80\xa6'
p703
S'3:13 PM - 1 Dec 2017'
p704
tp705
a(S"BREAKING: WaPo Nat'l Security Reporter: Russia Story \xe2\x80\x9cf*cking crap shoot... https://youtu.be/pIm9zNItYq8\xc2\xa0 via @YouTube  NO COLLUSION>"
p706
S'3:13 PM - 1 Dec 2017'
p707
tp708
a(S"#flynn 1. Hillary Campaign & democrats make up russian collusion hoax story. 2. liberal media sells this propaganda to the masses hoping they'll buy it. 3. liberal simpletons buy into the Russian hoax without any evidence. 4. also ignoring Hillary's real ties to Russia. #LOGIC"
p709
S'3:13 PM - 1 Dec 2017'
p710
tp711
a(S'Really @PressSec ??? You sure are quiet now! Sarah Sanders Explodes On Reporters Over Fake Russia Collusion Stories A... https://youtu.be/-EZv1cKGeFo\xc2\xa0 via @YouTube'
p712
S'3:13 PM - 1 Dec 2017'
p713
tp714
a(S'@SenSchumer America here is real Russia collusion https://twitter.com/anncoulter/status/884658106151694337\xc2\xa0\xe2\x80\xa6'
p715
S'3:12 PM - 1 Dec 2017'
p716
tp717
a(S"To those who claim that Flynn convos w/Kislyak aren't evidence of collusion: Flynn was signaling that Trump would lift Obama sanctions, which had been imposed to punish Russia for helping Trump campaign. It's all about the collusion!"
p718
S'3:12 PM - 1 Dec 2017'
p719
tp720
a(S"Wait until the American people see the truth of the matter. Me thinks a lynching is coming, if the FBI doesn't arrest you first for your clear as day collusion with Russia and treason to America. pic.twitter.com/BqN0c7847Y"
p721
S'3:12 PM - 1 Dec 2017'
p722
tp723
a(S'fox news Chris Wallace has no clue about POTUS collusion with Russia. NADA!\nHe should shut the hell up!!!!!!!!!!!!'
p724
S'3:12 PM - 1 Dec 2017'
p725
tp726
a(S'OMG if only I had a dollar for every time I\'ve read  "OMG TRUMP RUSSIA COLLUSION!" Once again, McResistance blue balls... https://twitter.com/tedlieu/status/936633552942321664\xc2\xa0\xe2\x80\xa6'
p727
S'3:11 PM - 1 Dec 2017'
p728
tp729
a(S'To speaking with Russia!! Aaaaaabout no escalating a dangerous situation and about taking out ISIS. So....no collusion and nothing illicit. What exactly do you have?'
p730
S'3:11 PM - 1 Dec 2017'
p731
tp732
a(S'I\xe2\x80\x99m confused, Mueller is supposed to be investigating Trump Russia collusion. Now he is getting Flynn for a lie?\n\nIf Mueller is going after liars, the whole democrat party should be behind bars pretty soon. Comey and Clinton make Flynn look like an honest man, which he is.'
p733
S'3:11 PM - 1 Dec 2017'
p734
tp735
a(S"Blah Blah Blah.  Show me proof of collusion with Russia to help Trump beat Hillary.  I will support Trump's resignation when that happens."
p736
S'3:10 PM - 1 Dec 2017'
p737
tp738
a(S'And yet still no proof of any Trump/Russia collusion! Lol'
p739
S'3:10 PM - 1 Dec 2017'
p740
tp741
a(S'RT mitchellvii "Flynn asked Russia to help defeat ISIS. If that isnt collusion, I don\'t know what is.  I mean my god, everyone knows ISIS was voting bigtime for Hillary!"'
p742
S'3:10 PM - 1 Dec 2017'
p743
tp744
a(S'We received assurances today that there was collusion between Trump and Russia. No bills for #Kompromat. No bills for PutinsPawn! WeThePeople are watching. Your move. #ImpeachTrumppic.twitter.com/g3TMYiJ45M'
p745
S'3:10 PM - 1 Dec 2017'
p746
tp747
a(S"NBCNews: President Trump has repeatedly denied collusion between his campaign and Russia.\n\nFriday morning, Trump's former National Security Adviser Michael Flynn pleaded guilty to a charge of making false statements to the FBI about his communications wi\xe2\x80\xa6 https://youtu.be/gD8ElDisRIE\xc2\xa0"
p748
S'3:10 PM - 1 Dec 2017'
p749
tp750
a(S'To answer the question yes I think there was collusion with Russia but to what extent I think it\xe2\x80\x99s very small.'
p751
S'3:10 PM - 1 Dec 2017'
p752
tp753
a(S"@SenateMajLdr and @SenateGOP rush to get Trump's signature on this Unseen Nonpartisan Tax Bill has proven when news broke of proven collusion connections to Trump Administration and Russia interference their willingness to sell their souls along side those guilty in the T Admin. https://twitter.com/RepJoeKennedy/status/936386651663884288\xc2\xa0\xe2\x80\xa6"
p754
S'3:09 PM - 1 Dec 2017'
p755
tp756
a(S'There is no treason your foolish and lazy in your pursuit of truth show us your evidence what statute is broken here plus is uranium sold to Russia collusion or just stupidity?'
p757
S'3:09 PM - 1 Dec 2017'
p758
tp759
a(S'Michael Flynn proves there is no evidence of Russia collusion https://youtu.be/WCM2dN1reZU\xc2\xa0 via @YouTube'
p760
S'3:09 PM - 1 Dec 2017'
p761
tp762
a(S'To review: What wd a Trump presidency offer to Putin vs Hillary Clinton that had already taken $145M for uranium? Now aft a year, Flynn is charged w/a "process" crime (same as Martha Stewart), no Russia. Collusion STILL ISN\'T A CRIME! Plus any incoming admn wd speak to Russia etc'
p763
S'3:09 PM - 1 Dec 2017'
p764
tp765
a(S'What is unbelievable is Mike Flynn pleading guilty. Do you still think there was no Russia collusion?'
p766
S'3:09 PM - 1 Dec 2017'
p767
tp768
a(S"What everyone should concentrate on is what was NOT in the indictment. No mention of Russia or collusion. Just lying. His dealing with Turkey is not exactly ethical that's for sure. But he only worked 25 days for the WH. Timne to move on. Sad for him."
p769
S'3:09 PM - 1 Dec 2017'
p770
tp771
a(S'It\xe2\x80\x99s time to make a Go Fund Me page to send Democrats back to school. 1st they didn\xe2\x80\x99t understand the Electoral College. Today Flynn contacting Russia in December after the election doesn\xe2\x80\x99t prove collusion. @McFaul did this for @POTUS44 while Bush was still in office.'
p772
S'3:09 PM - 1 Dec 2017'
p773
tp774
a(S'Fox News hosts wrong that no law bans Russia-Trump collusion http://www.politifact.com/punditfact/statements/2017/may/31/gregg-jarrett/fox-news-hosts-wrong-no-law-forbids-russia-trump-c/\xc2\xa0\xe2\x80\xa6 via @PunditFact'
p775
S'3:09 PM - 1 Dec 2017'
p776
tp777
a(S"Flynn became the first member of Trump's administration to plead guilty to a crime uncovered by the wide-ranging special counsel investigation into Russia's alleged attempts to influence the election and potential collusion by Trump aides. http://bit.ly/2BysFUN\xc2\xa0"
p778
S'3:09 PM - 1 Dec 2017'
p779
tp780
a(S'If DT is right and there was no collusion with Russia, than why the anxiety over Flynn flipping???'
p781
S'3:08 PM - 1 Dec 2017'
p782
tp783
a(S'Ignore the Corrupt Democrat \'FakeNews\' "Flynn\'s Guilt Proves we were Right Propaganda." Flynn pleaded to committing a process crime: One count of Misinforming/Lying to a \'Russia Collusion Hoax investigation\' Comey/Mueller FBI investigator.'
p784
S'3:08 PM - 1 Dec 2017'
p785
tp786
a(S'Taking credit for the accomplishments of the Obama admin will not distract us from your growing Russia collusion problem.\n#ThanksObama'
p787
S'3:08 PM - 1 Dec 2017'
p788
tp789
a(S'Collusion is not a crime; and it would appear the only thing General Flynn might be guilty of is showing initiative by contacting Russia but failing to disclose this to POTUS & Pence (which coincidentally is why he was fired)'
p790
S'3:08 PM - 1 Dec 2017'
p791
tp792
a(S"So Mueller was completely involved in U 1 but somehow he is investigating Trump for Russia collusion!! It is so oxymoronic, I don't know how they can get away w/it? Mueller's fraudulent Invest. needs to come to an end and he needs to b held accountable for his crimes of collusion https://twitter.com/JacobAWohl/status/936712984646127617\xc2\xa0\xe2\x80\xa6"
p793
S'3:08 PM - 1 Dec 2017'
p794
tp795
a(S"NBCNEWS reports President Trump has repeatedly denied collusion between his campaign and Russia.\n\nFriday morning, Trump's former National Security Adviser Michael Flynn pleaded guilty to a charge of making false statements to the FBI about his communicat\xe2\x80\xa6 https://twitter.com/NBCNews/status/936732902980591616\xc2\xa0\xe2\x80\xa6"
p796
S'3:08 PM - 1 Dec 2017'
p797
tp798
a(S'You call the final shot on that Russia collusion too or? https://twitter.com/realDonaldTrump/status/936688444046266368\xc2\xa0\xe2\x80\xa6'
p799
S'3:08 PM - 1 Dec 2017'
p800
tp801
a(S"But when will 'collusion' with Russia to sway the election be proven, Ben? I'll give you a tip: NEVER. Silly me, you already know that."
p802
S'3:08 PM - 1 Dec 2017'
p803
tp804
a(S'Why does Sessions not step back in or shut it down.....collusion was with HC /Russia? https://twitter.com/TomFitton/status/936609717924909057\xc2\xa0\xe2\x80\xa6'
p805
S'3:08 PM - 1 Dec 2017'
p806
tp807
a(S'Flynn lying to FBI about a non-crime FBI already knew about under FISA tap is not very much of anything. That someone else on the Trump team told him to do it is not very much of anything. So far not a drip of evidence of collusion or quid pro quo with Russia, which is something https://twitter.com/DavidAFrench/status/936729820360265728\xc2\xa0\xe2\x80\xa6'
p808
S'3:07 PM - 1 Dec 2017'
p809
tp810
a(S'In the context of Russian collusion. Kinda dumb colluding with Russia AFTER winning election.'
p811
S'3:07 PM - 1 Dec 2017'
p812
tp813
a(S"That's not evidence of collusion. That's evidence Trump looks favorably toward Russia, which is something plainly obvious. Are there shady financial dealings with Trump/Russia? Very likely. Collusion? No."
p814
S'3:07 PM - 1 Dec 2017'
p815
tp816
a(S'Do the talking heads of liberal MSM really believe this will lead to Trump-Russia collusion?  Can they be so stupid?'
p817
S'3:07 PM - 1 Dec 2017'
p818
tp819
a(S"Flynn asked Russia to help defeat ISIS. If that isnt collusion, I don't know what is.  I mean my god, everyone knows ISIS was voting bigtime for Hillary!"
p820
S'3:07 PM - 1 Dec 2017'
p821
tp822
a(S'Russia. Collusion. Obstruction. Robert Mueller. And now - Mike Flynn. R u worried yet???'
p823
S'3:07 PM - 1 Dec 2017'
p824
tp825
a(S"No 'Russia collusion' in Mueller's case against Flynn\nhttp://www.wnd.com/2017/12/no-russia-collusion-in-muellers-case-against-flynn/\xc2\xa0\xe2\x80\xa6"
p826
S'3:07 PM - 1 Dec 2017'
p827
tp828
a(S'These tax cuts are for republican donors and your cronies. Everybody else will be screwed. Almost as screwed as your admin over this Russia collusion that we all know happened.'
p829
S'3:06 PM - 1 Dec 2017'
p830
tp831
a(S'He did nothing illegal. No "Collusion" Happened.  Hillary sold Uranium to Russia, Mueller Delivered uranium to Russia.  Comey lied to Congress and leaked docs. Flynn was illegally unmasked.  No votes were affected by Russia, no money exchanged hands.'
p832
S'3:06 PM - 1 Dec 2017'
p833
tp834
a(S'"ABC said later in an updated report that Flynn will say Trump asked him to make contact with Russia "initially as a way to work together to fight ISIS in Syria." Big difference between the collusion we\'ve been hearing about, and the cooperation described here. #nothingburger'
p835
S'3:06 PM - 1 Dec 2017'
p836
tp837
a(S'It\xe2\x80\x99s time to make a Go Fund Me page to send Democrats back to school. 1st they didn\xe2\x80\x99t understand the Electoral College. Today Flynn contacting Russia in December after the election doesn\xe2\x80\x99t prove collusion. @McFaul did this for @POTUS44 while Bush was still in office.'
p838
S'3:06 PM - 1 Dec 2017'
p839
tp840
a(S'Lawyer Explains the Many Possible Crimes of the "Trump Russia Collusion" \xe2\x80\x94 Steemit https://buff.ly/2AxtRdB\xc2\xa0pic.twitter.com/GtguSB9Cng'
p841
S'3:06 PM - 1 Dec 2017'
p842
tp843
a(S"Explain how this is collusion to rig an election. I must be missing something. Wasn't that what we started this off looking for? Isn't it what we are spending millions on? He reached out to Russia after the election. Oh boy!!! Smokin Gun there."
p844
S'3:06 PM - 1 Dec 2017'
p845
tp846
a(S'Shep Smith rips Trump: Saying Russia collusion is \xe2\x80\x98fake news\xe2\x80\x99 is \xe2\x80\x98a lie\xe2\x80\x99 http://fb.me/CmFbqx5X\xc2\xa0'
p847
S'3:06 PM - 1 Dec 2017'
p848
tp849
a(S'A great deal for Iran and N. Korea; just ask @brhodes RT @RyanAFournier If talking to Russia is collusion, then what is selling them 20% of our Uranium?'
p850
S'3:06 PM - 1 Dec 2017'
p851
tp852
a(S'\xe2\x80\x9c...that the Obama administration had imposed on Russia. Russia reportedly agreed and Mr. Kislyak told Mr. Flynn later that it had chosen to moderate its response to the sanctions to make nice with the Trump team.\xe2\x80\x9d\n\nTrump-Russian Election Collusion confirmed.'
p853
S'3:05 PM - 1 Dec 2017'
p854
tp855
a(S'I bet the Russia collusion has been an elaborate set up to get Kushner sent to prison so Donnie can have Ivanka all to himself.'
p856
S'3:05 PM - 1 Dec 2017'
p857
tp858
a(S'Ppl who lie that Russian collusion exists but denies that Obama and Hillary did not not collude are liars. When Hillary sold uranium to Russia with Obama\xe2\x80\x99s approval putting America in danger are the real problem. Lie all you want ppl know the truth.@realDonaldTrump @LouDobbs'
p859
S'3:05 PM - 1 Dec 2017'
p860
tp861
a(S"President Trump has repeatedly denied collusion between his campaign and Russia.\n\nFriday morning, Trump's former National Security Adviser Michael Flynn pleaded guilty to a charge of making false statements to the FBI about his communications with Russia. http://nbcnews.to/2j5Ua0m\xc2\xa0pic.twitter.com/Qj5l1sizUh"
p862
S'3:05 PM - 1 Dec 2017'
p863
tp864
a(S'"fake collusion with the Russians"\n\nIf you think Trump\'s collusion with Russia is fake, then you are too stupid to be human. It just came out that Flynn admitted Trump told him to make contact with the Russians.'
p865
S'3:05 PM - 1 Dec 2017'
p866
tp867
a(S"No 'Russia collusion' in Mueller's case against Flynn http://ift.tt/2zWjUGS\xc2\xa0"
p868
S'3:04 PM - 1 Dec 2017'
p869
tp870
a(S"Not illegal to contact Russia You can speak to anyone you want about anything you want. Collusion isn't illegal either. Paying foreign to dig dirt is.#Dossier"
p871
S'3:03 PM - 1 Dec 2017'
p872
tp873
a(S"the current chase - Mueller's collusion case so far is all about Bibi's failed effort to lobby Trump to lobby Russia to stop a UNSC settlement vote, behind the back of the Obama WH"
p874
S'3:03 PM - 1 Dec 2017'
p875
tp876
a(S'It looks like President #Trump and Vice President Pence both guilty of Collusion with #Russia during the campaign and during Transition both will be Impeached at the same time. Paul Ryan will become #US President.pic.twitter.com/JzFQ6J8JxC'
p877
S'3:03 PM - 1 Dec 2017'
p878
tp879
a(S'9) That very night and days after, they dug in n hammered down the Russia Collusion story.  The Russia story was an early weapon in her campaign arsenal. And its one reason why she believed she would win. Obama helped set Trump up, authorizing the Russian visa to meet w/him.'
p880
S'3:03 PM - 1 Dec 2017'
p881
tp882
a(S'Thanks for clarifying @realDonaldTrump! You call the final shots on dumb tweets, lying to the American people and RUSSIA COLLUSION! #Im!https://twitter.com/realdonaldtrump/status/936688444046266368\xc2\xa0\xe2\x80\xa6'
p883
S'3:03 PM - 1 Dec 2017'
p884
tp885
a(S"The investigation isn't about Israel, it is about collusion with Russia related to the campaign."
p886
S'3:03 PM - 1 Dec 2017'
p887
tp888
a(S'Agreed with @Evan_McMullin. Time now to make Russia collusion/intervention a big deal in 2018. Only pressure from below can make our leaders act responsibly. https://twitter.com/Evan_McMullin/status/936618092641357825\xc2\xa0\xe2\x80\xa6'
p889
S'3:02 PM - 1 Dec 2017'
p890
tp891
a(S"Lol.  He delegated responsibilities after election for staffers to call different countries to get support for fight on terrorism.  If u r excited about that..ck out uranium one, HRC, BO corruption.  There's the TRUE Russia collusion."
p892
S'3:02 PM - 1 Dec 2017'
p893
tp894
a(S'how can they vote on a tax bill when trump is gonan get impeached because of collusion in russia? tax bill'
p895
S'3:02 PM - 1 Dec 2017'
p896
tp897
a(S'Russiagate is fake but collusion with Russia on behalf of Israel is real. This is like Trump\'s "the news is fake but the leaks are real"'
p898
S'3:02 PM - 1 Dec 2017'
p899
tp900
a(S'Tax reform passes\xe2\x80\xa6 Russia Trump collusion fails. #AmericaFirstpic.twitter.com/kILDkmDUOV'
p901
S'3:02 PM - 1 Dec 2017'
p902
tp903
a(S"Oh he lied to the FBI. Oh my god what are we to do. Once again they have nothing because there's nothing there as usuall. When people make of false stories as we see with this Russia collusion bull shit this is what you get nothing"
p904
S'3:01 PM - 1 Dec 2017'
p905
tp906
a(S"No 'Russia collusion' in Mueller's case against Flynn http://ift.tt/2zWjUGS\xc2\xa0"
p907
S'3:01 PM - 1 Dec 2017'
p908
tp909
a(S'It\xe2\x80\x99s time to make a Go Fund Me page to send Democrats back to school. 1st they didn\xe2\x80\x99t understand the Electoral College. Today Flynn contacting Russia in December after the election doesn\xe2\x80\x99t prove collusion. @McFaul did this for @POTUS44 while Bush was still in office.'
p910
S'3:01 PM - 1 Dec 2017'
p911
tp912
a(S'Exactly! The #FBI can not be trusted! And this has NOTHING to do with Trump @realDonaldTrump and Russia Collusion!'
p913
S'3:01 PM - 1 Dec 2017'
p914
tp915
a(S'It\xe2\x80\x99s not a long read at all and quite easy to see the assumptions, opinions and hopes with Seth it will lead to Trump for colluding with Russia to win the election. It sounds like the new admin was setting up lines of communication with foreign governments. Again ZERO collusion.'
p916
S'3:01 PM - 1 Dec 2017'
p917
tp918
a(S'Kushner told Flynn to call UK, France, China, Russia, Bolivia, Egypt, Ethiopia, Italy, Japan, Kazakhstan, Senegal, Sweden, Ukraine, Uruguay (UN Sec Council Members) and ask them NOT to vote for the anti-Israeli UN Resolution.\n\nThe Left: You said Russia? Collusion!\n"Jared Kushner"'
p919
S'3:01 PM - 1 Dec 2017'
p920
tp921
a(S"Shep Smith, Jake Tapper... Flynn's guilty plea undermines Trump's 'fake news' claim on Russia collusion. NO MORE FAKE NEWS. EXCEPT FOR WHAT CONJOB AND TWITLER AND HUCKBERRY SAY. http://thehill.com/homenews/media/362860-shep-smith-flynns-guilty-plea-undermines-trumps-fake-news-claim-on-russia#.WiHerjxLTDM.twitter\xc2\xa0\xe2\x80\xa6"
p922
S'3:00 PM - 1 Dec 2017'
p923
tp924
a(S'Nothing that #MikeFlynn admitted to involves collusion between trump and Russia. No election inference. Is it illegal to contact Russians on a diplomatic level?'
p925
S'2:59 PM - 1 Dec 2017'
p926
tp927
a(S'And what was Hillary selling Russia 20% of our uranium? There\xe2\x80\x99s your collusion w Putin. Mueller is sealing up an airtight case against your qween! And you fell for the ruse because you simply can\xe2\x80\x99t comprehend REALITY! Trump holds all the cards!!'
p928
S'2:59 PM - 1 Dec 2017'
p929
tp930
a(S'@ShannonSharpe Happy Holidays. FLYNN plead guilty to a process crime. Not a "collusion" case for election meddling with Russia. A incoming security adviser is supposed to make contact with other countries. This is NOT espionage conspiracy cause the Obama wiretap would show that.'
p931
S'2:59 PM - 1 Dec 2017'
p932
tp933
a(S'Since this is a "Process" crime (lying to FBI) isn\'t Mueller saying he can\'t prove there was collusion with Russia? https://twitter.com/POTUSTrumpGear/status/936728287925161984\xc2\xa0\xe2\x80\xa6'
p934
S'2:58 PM - 1 Dec 2017'
p935
tp936
a(S'when fighting for Hillary I fought people who were sander supporters and traced their IP address to russia So there are indications that sanders was in collusion with russia.'
p937
S'2:58 PM - 1 Dec 2017'
p938
tp939
a(S'Yeah, especially theTrump Russia collusion!'
p940
S'2:58 PM - 1 Dec 2017'
p941
tp942
a(S'I want to say this loud and clear:Flynn pleading guilty,  Trump\xe2\x80\x99s collusion with Russia, Jarred changing his story 3 times... has absolutely NOTHING to do with Hillary! pic.twitter.com/ixPjMYGCuq'
p943
S'2:57 PM - 1 Dec 2017'
p944
tp945
a(S'I guess this is your switch to  admitting this collusion with Russia happened.'
p946
S'2:57 PM - 1 Dec 2017'
p947
tp948
a(S"This may end the Mueller witch hunt. Flynn asking for Russia to step up against ISIS isn't election collusion, in fact it's honorable."
p949
S'2:57 PM - 1 Dec 2017'
p950
tp951
a(S'Either way proves nothing - to talk to Russia is not collusion. What is the actual crime anyways. https://twitter.com/usnjack/status/936688586749022208\xc2\xa0\xe2\x80\xa6'
p952
S'2:56 PM - 1 Dec 2017'
p953
tp954
a(S'Hey Trump supporters, how\xe2\x80\x99s your uranium one/Hillary Russia collusion investigation coming along?'
p955
S'2:56 PM - 1 Dec 2017'
p956
tp957
a(S'Thanks for the reply.  \n\nSeems you were saying there was no evidence of Trump-Russia collusion. Seems to me there\xe2\x80\x99s abundant evidence and the two guilty pleas, two indictments make the \xe2\x80\x9cno evidence\xe2\x80\x9d idea a little iffy.\n\nThoughts?'
p958
S'2:56 PM - 1 Dec 2017'
p959
tp960
a(S'Maybe there\xe2\x80\x99s no evidence of the Turkey allegations. The mandate issued to Mueller is to investigate possible collusion with Russia and any crimes that arise from it. So far all we\xe2\x80\x99re seeing are crimes unrelated to Russian collusion to influence election.'
p961
S'2:56 PM - 1 Dec 2017'
p962
tp963
a(S'Trump was already President Elect when he met with Russian officials. How does this provide any evidence of Russian \xe2\x80\x9cCollusion\xe2\x80\x9d? They were about to take office. They talk to everyone. He\xe2\x80\x99s not in trouble for talking to Russia just lying to FBI. He lied to Pence as well! Fired'
p964
S'2:55 PM - 1 Dec 2017'
p965
tp966
a(S'@chucktodd Why in the hell are you asking about Bill Clinton right now the day this scandalous ass President is knee deep in Russia collusion. Grow up #MTPDaily'
p967
S'2:55 PM - 1 Dec 2017'
p968
tp969
a(S'If talking to Russia is collusion, then what is selling them 20% of our Uranium?'
p970
S'2:55 PM - 1 Dec 2017'
p971
tp972
a(S"Michael Flynn 'Guilty' Plea and the Entire 'Russia Collusion' Investigation is a Farce https://www.sott.net/article/369741-Michael-Flynn-Guilty-Plea-and-the-Entire-Russia-Collusion-Investigation-is-a-Farce\xc2\xa0\xe2\x80\xa6"
p973
S'2:55 PM - 1 Dec 2017'
p974
tp975
a(S'It I clear that corrupt Mueller was never looking into Russia collusion on election. He has violated his scope and has been trying to charge Trump with a crime where NONE exists.'
p976
S'2:54 PM - 1 Dec 2017'
p977
tp978
a(S'So who is investigating Mueller-Comey- Clinton-Obama Russia collusion?'
p979
S'2:53 PM - 1 Dec 2017'
p980
tp981
a(S'All these dates are after election, so how does this tie to Russia collusion before election ?'
p982
S'2:53 PM - 1 Dec 2017'
p983
tp984
a(S'The billionaire tax cut is the other end of the Russia collusion: the payoff to GOP accomplices.'
p985
S'2:53 PM - 1 Dec 2017'
p986
tp987
a(S'But they did not find collusion with Russia, what they were looking for. Mmm.....back to Hillary everyone.'
p988
S'2:53 PM - 1 Dec 2017'
p989
tp990
a(S'What the evidence shows about potential Trump-Russia collusion https://www.vox.com/policy-and-politics/2017/7/13/15952212/trump-russia-investigation-evidence?utm_campaign=vox&utm_content=entry&utm_medium=social&utm_source=twitter\xc2\xa0\xe2\x80\xa6 via @voxdotcom'
p991
S'2:53 PM - 1 Dec 2017'
p992
tp993
a(S'Is talking to a foreign leader collusion or just talking to Russia?  Did Obama collude with Russia in 2012?  Was that why he did nothing to stop them in 2016?'
p994
S'2:52 PM - 1 Dec 2017'
p995
tp996
a(S'But if you\xe2\x80\x99re MSM it\xe2\x80\x99s all about Russia Russia Russia collusion.'
p997
S'2:52 PM - 1 Dec 2017'
p998
tp999
a(S'Still nothing out of today points to any collusion with Russia and Trump not does anything point to election interference with trump and Russia'
p1000
S'2:52 PM - 1 Dec 2017'
p1001
tp1002
a(S'@ABCPolitics this was after the election so that is not collusion w Russia to impact election  it\xe2\x80\x99s called initial diplomatic contacts I\xe2\x80\x99m sure 1st term O officials did the exact same thing #resetbuttonhttps://twitter.com/abcpolitics/status/936726724720713728\xc2\xa0\xe2\x80\xa6'
p1003
S'2:52 PM - 1 Dec 2017'
p1004
tp1005
a(S"So Flynn+others talked to Russia.. preliminary talks, to see what's what, who stands where, the prospective perspectives ...( Is it illegal? Is it a collusion?)"
p1006
S'2:52 PM - 1 Dec 2017'
p1007
tp1008
a(S'Ooohh contacting Russia to fight ISIS after he was elected is a win for democrats pushing Russian election collusion '
p1009
S'2:51 PM - 1 Dec 2017'
p1010
tp1011
a(S'And what does any of this have to do with \xe2\x80\x9ccollusion\xe2\x80\x9d with Russia prior to the election?'
p1012
S'2:51 PM - 1 Dec 2017'
p1013
tp1014
a(S"Collusion isn't even a thing. Use 'Conspiracy', which is a thing. And which this thing is. Plus Espionage. And if you argue that Russia attacking elections is an act of war, then Treason also applies."
p1015
S'2:51 PM - 1 Dec 2017'
p1016
tp1017
a(S'This changes everything!!! Just kidding. It still means nothing to the Dems\xe2\x80\x99 fake Trump Russia collusion poor Mueller is trying to find.'
p1018
S'2:50 PM - 1 Dec 2017'
p1019
tp1020
a(S"It's a beat up. Not proof of collusion w Russia that impacted election.\n\nIn fact, asked Russians to support Israel illegal settlement.\n\nBut, Trump is a jerk.\n\nhttps://m.dailykos.com/stories/2017/12/1/1720216/-Michael-Flynn-asked-the-Russian-ambassador-to-block-a-UN-vote-on-orders-from-Jared-Kushner\xc2\xa0\xe2\x80\xa6"
p1021
S'2:50 PM - 1 Dec 2017'
p1022
tp1023
a(S'It\xe2\x80\x99s actually more believable that Russia collusion!!! Lol'
p1024
S'2:50 PM - 1 Dec 2017'
p1025
tp1026
a(S'That kind of a conversation does not at all prove collusion. Just implies Trump Admin has a much less tough attitude to Russia.'
p1027
S'2:50 PM - 1 Dec 2017'
p1028
tp1029
a(S"If contacting Russia is proof of collusion, every President since George Washington conspired with foreign governments against America.\n\nYou're outraged over nothing in the world whatsoever."
p1030
S'2:50 PM - 1 Dec 2017'
p1031
tp1032
a(S'I find this obtuse. If Mueller had anything of significance pointing to actual Trump team collusion with the Russians, he\'d have leaked it by this point.  The "Russia collusion" narrative is a scam kept alive by ppl like @jaketapper and CNN.'
p1033
S'2:50 PM - 1 Dec 2017'
p1034
tp1035
a(S"Kushner not credible on Trump Jr's Russia collusion e-mail http://www.msnbc.com/rachel-maddow/watch/kushner-not-credible-on-trump-jr-s-russia-collusion-e-mail-1009205827751\xc2\xa0\xe2\x80\xa6 via @msnbc"
p1036
S'2:50 PM - 1 Dec 2017'
p1037
tp1038
a(S'Did Priebus become Trump\'s chief of staff so the #RNC cld distance itself from the "collusion" with Russia? #hardball #inners #maddow'
p1039
S'2:50 PM - 1 Dec 2017'
p1040
tp1041
a(S'Sure. I\xe2\x80\x99ll hashtag #michaelflynn #flynn #collusion #russia @realdonaldtrump #jaredkushner...but\xe2\x80\xa6 https://www.instagram.com/p/BcLU7Qxjqj-/\xc2\xa0'
p1042
S'2:49 PM - 1 Dec 2017'
p1043
tp1044
a(S'@cnnbrk when the tax cut bill is relegated along with SF decision on killing young woman the world and particularly the people of this country clearly sees where your agenda focus is on. One year of all Russia Collusion puts #CNN as a has been network'
p1045
S'2:49 PM - 1 Dec 2017'
p1046
tp1047
a(S"No. It's a result of Trump's collusion with Russia."
p1048
S'2:49 PM - 1 Dec 2017'
p1049
tp1050
a(S'I wd love to see the actual charges and the actual "crime" (pro-tip: talking to an ambassador of a country in WashDC is NOT rpt NOT a criminal act). Taking one step towards better relats w/Russia 1 month AFTER THE ELECTION is not proof of collusion to steal election, correct?'
p1051
S'2:49 PM - 1 Dec 2017'
p1052
tp1053
a(S'The UN vote was not the only call he lied about. It was the sanctions call that could be connected to the Russia collusion probe. Telling Russians that sanction relief is on Trump agenda would be half of quid pro quo deal.'
p1054
S'2:49 PM - 1 Dec 2017'
p1055
tp1056
a(S'Since Flynn supposedly had to be directed to communicate with Russia AFTER Trump was elected...that proves there was NO collusion with Russia to get Trump elected.\n\nYou MSM lemmings have been sold a Bag Of Rocks. '
p1057
S'2:49 PM - 1 Dec 2017'
p1058
tp1059
a(S'#tellusatoday I think this signals that there most likely was collusion with Russia.'
p1060
S'2:49 PM - 1 Dec 2017'
p1061
tp1062
a(S"99% of trumpanzees wouldn't believe in Russia collusion no matter what evidence they were presented with. pic.twitter.com/462b7B3N1D"
p1063
S'2:49 PM - 1 Dec 2017'
p1064
tp1065
a(S'3.  If Flynn\xe2\x80\x99s conversations with the Russian ambassador showed collusion  \xe2\x80\x94that the Trump administration would ease Russiain sanctions as a payback for Russia\xe2\x80\x99s cyber attack against Clinton campaign/DNC  it would be appropriate, even necessary, for Obama to investigate.'
p1066
S'2:49 PM - 1 Dec 2017'
p1067
tp1068
a(S'Shep Smith rips Trump: Saying Russia collusion is \xe2\x80\x98fake news\xe2\x80\x99 is \xe2\x80\x98a lie\xe2\x80\x99 http://fb.me/TrYfzcxo\xc2\xa0'
p1069
S'2:48 PM - 1 Dec 2017'
p1070
tp1071
a(S'They thought there would be good cover for favors paid to Trump & family because of renewed relationship w/ Russia but Putin threw a monkeywrench by meddling w/ election.  So suddenly all the pre-work done was collusion w/ a hostile foreign power.'
p1072
S'2:48 PM - 1 Dec 2017'
p1073
tp1074
a(S'Mueller obtains Flynn\xe2\x80\x99s co-operation in investigating Trump\xe2\x80\x99s collusion with Russia. 3 media outlets hostile to Mueller: Wall Street Journal, Fox News, and New York Post. All owned by Murdoch. Trump sacked federal prosecutor investigating misconduct at Fox News.'
p1075
S'2:48 PM - 1 Dec 2017'
p1076
tp1077
a(S'Flynn was Russia best friend?  It was Hillary who sold US uranium to Russia. If there is collusion, it is there.'
p1078
S'2:48 PM - 1 Dec 2017'
p1079
tp1080
a(S"Not proof of collusion on election.\n\nIt's a beat up. Not proof of collusion w Russia that impacted election.\n\nIn fact, asked Russians to support Israel illegal settlement.\n\nBut, Trump is a jerk.\n\nhttps://m.dailykos.com/stories/2017/12/1/1720216/-Michael-Flynn-asked-the-Russian-ambassador-to-block-a-UN-vote-on-orders-from-Jared-Kushner\xc2\xa0\xe2\x80\xa6"
p1081
S'2:48 PM - 1 Dec 2017'
p1082
tp1083
a(S'The Trump White House has continued to deny any collusion with Russia\xe2\x80\x94 but Michael Flynn pleaded guilty to lying to the F.B.I about Russia pic.twitter.com/Q1hfG6GIM6'
p1084
S'2:48 PM - 1 Dec 2017'
p1085
tp1086
a(S"Where's the damn COLLUSION that altered the election the Dem's have been whining about for 10 MONTHS? Michael Flynn pleads guilty to false-statements charge in Russia probe http://fxn.ws/2AobmFI\xc2\xa0 #FoxNews"
p1087
S'2:48 PM - 1 Dec 2017'
p1088
tp1089
a(S"I thought Mueller's investigation was about TrumpTeam/Russia collusion =helping Russia to meddle."
p1090
S'2:47 PM - 1 Dec 2017'
p1091
tp1092
a(S'Michael Flynn proves there is no evidence of Russia collusion https://youtu.be/WCM2dN1reZU\xc2\xa0'
p1093
S'2:46 PM - 1 Dec 2017'
p1094
tp1095
a(S'AND STILL NO COLLUSION W RUSSIA TO AFFECT THE ELECTION.  JUST NONSENSE FROM THE CORRUPT LYING MEDIA.  THIS IS WHAT WE HAVE BEEN WAITING ON FROM MUELLER?  HILARIOUS. THATS ALL HE CAN FIND?  WHAT A JOKE!'
p1096
S'2:46 PM - 1 Dec 2017'
p1097
tp1098
a(S"If you think #trump will end up in prison it really just shows your detachment from reality(no suprise). those charged-taken pleas has amounted to zero i repeat zero 'russia election collusion' or 'election hacking'  its democrat farce-vendetta"
p1099
S'2:46 PM - 1 Dec 2017'
p1100
tp1101
a(S'Because the Flynn story is a non issue. He lied, plead guilty period! Liberal media making it out Like is some big deal! Still no Trump/Russia collusion.'
p1102
S'2:46 PM - 1 Dec 2017'
p1103
tp1104
a(S'#skypapers Here we go anti Trump, Russia, Russia, Russia, if you want real Russian collusion go and check the crooked Clintons Uranium ? foundation contributions ? Bills $500,000 fees etc. etc.'
p1105
S'2:45 PM - 1 Dec 2017'
p1106
tp1107
a(S'Reaching out to all security council members including Russia to see how they would vote on Israeli settlements. We got them collusion lmao!'
p1108
S'2:45 PM - 1 Dec 2017'
p1109
tp1110
a(S'Damn, @Richardafowler can\xe2\x80\x99t stop barebacking Russia Collusion #TheFive. Turkey? @TuckerCarlson?'
p1111
S'2:45 PM - 1 Dec 2017'
p1112
tp1113
a(S'We received assurances that there was no collusion with Russia...VOTE NO! #TaxScamBill'
p1114
S'2:45 PM - 1 Dec 2017'
p1115
tp1116
a(S'You do know that Nixon was being impeached for obstruction, right? Clinton was being impeached for obstruction/perjury. \n\nTrump firing Comey to stop the Trump/Russia investigation, regardless if there was Trump/Russia collusion(Conspiracy), is obstruction.'
p1117
S'2:44 PM - 1 Dec 2017'
p1118
tp1119
a(S'This question blows the whole Russia collusion conspiracy out of the water http://redstatewatcher.com/article.asp?id=108025\xc2\xa0\xe2\x80\xa6'
p1120
S'2:44 PM - 1 Dec 2017'
p1121
tp1122
a(S'.@Cernovich on #Periscope: Michael Flynn proves there is no evidence of Russia collusion https://www.pscp.tv/w/bPCAHzFlUkV4RGdybWVWRXd8MU1ueG5ncnlxYk1LT9rJd5PSxeUJRStLgyAgDhMohcc0A4pCPquU57p2Upte\xc2\xa0\xe2\x80\xa6'
p1123
S'2:44 PM - 1 Dec 2017'
p1124
tp1125
a(S"Let's say that Flynn & others on Trump Campaign/Team talked to Russia and everyone knew 'bout it. Is it against a law to talk to Russia?  Where's a collusion?"
p1126
S'2:43 PM - 1 Dec 2017'
p1127
tp1128
a(S'Liberals trying to start division like usual.  But Flynn agreed to continue working with Mueller on the Russia Collusion case. Watch out you & your family are in Muellers scope.'
p1129
S'2:43 PM - 1 Dec 2017'
p1130
tp1131
a(S"To those who claim that Flynn convos w/Kislyak aren't evidence of collusion: Flynn was signaling that Trump would lift Obama sanctions, which had been imposed to punish Russia for helping Trump campaign. It's all about the collusion!"
p1132
S'2:43 PM - 1 Dec 2017'
p1133
tp1134
a(S'I went to bed at 6 am pst and woke up 245 pst. IVE MISSED SO MUCH. #WhiteHouse #russia #collusion #flynn #americaisburning'
p1135
S'2:43 PM - 1 Dec 2017'
p1136
tp1137
a(S"#Flynn #news #breaking #Mueller @Comey #Comey @realDonaldTrump #1 @POTUS @ABC @BrianRoss @FoxNews\n#MAGA\n\nI don't understand you, @Richardafowler, on @TheFive.\n\n#Trump TRANSITION officials and #MichaelFlynn were involved in #Russia #collusion to rig #Election2016 in January, 2017?"
p1138
S'2:43 PM - 1 Dec 2017'
p1139
tp1140
a(S'It\xe2\x80\x99s actually nothing close to that. Dude was trying to smooth things over with his soon to be counterparts before stepping into his official role. Who gives a shit? Where\xe2\x80\x99s the collusion? How is this related to Trump \xe2\x80\x9cstealing election\xe2\x80\x9d with help from Russia?  It ain\xe2\x80\x99t!!!!'
p1141
S'2:43 PM - 1 Dec 2017'
p1142
tp1143
a(S'It\xe2\x80\x99s time to make a Go Fund Me page to send Democrats back to school. 1st they didn\xe2\x80\x99t understand the Electoral College. Today Flynn contacting Russia in December after the election doesn\xe2\x80\x99t prove collusion. @McFaul did this for @POTUS44 while Bush was still in office.'
p1144
S'2:43 PM - 1 Dec 2017'
p1145
tp1146
a(S'And MSNBC CNN ABC CBS all think that this is a gotcha Trump!!! When it\xe2\x80\x99s a NOTHING BURGER!! Mueller needs to give it up!!  There is NO COLLUSION BETWEEN RUSSIA AND TRUMP!! Time for Mueller to go Home!!'
p1147
S'2:43 PM - 1 Dec 2017'
p1148
tp1149
a(S'Flynn lied about asking Russia to not retaliate (after election) to Obama sanctions as it would hurt the (Trump)admin .. not exactly "Russian Collusion IMPEACH" like some of these crazy people are stating. They should read his statement before misinforming people. General Logic.'
p1150
S'2:42 PM - 1 Dec 2017'
p1151
tp1152
a(S"The entire issue has been collusion with a foreign gov't. This would likely mean there was a quid pro quo with Trump Camp and Russia. The working theory is that Russia wanted to help Trump get elected in return for an ease to sanctions currently tying up access to oil."
p1153
S'2:42 PM - 1 Dec 2017'
p1154
tp1155
a(S'Someone wake me when there is collusion.  This transition nonsense is BS and Trump is going nowhere unless there is proof of collusion with Russia.'
p1156
S'2:42 PM - 1 Dec 2017'
p1157
tp1158
a(S'#Trump #Flynn #Russia Still no evidence of collusion.... Figured as much. #Resistance has no ammo. https://www.washingtonpost.com/world/national-security/ap-sources-ex-deputy-national-security-adviser-kt-mcfarland-discussed-us-sanctions-and-response-to-russia-with-flynn/2017/12/01/56a2fa6e-d6e7-11e7-9ad9-ca0619edfa05_story.html?utm_term=.bb72897ff5fd\xc2\xa0\xe2\x80\xa6'
p1159
S'2:42 PM - 1 Dec 2017'
p1160
tp1161
a(S'Nothing surprises me here. Trump and co probably had dealings with Russia, maybe collusion or quid pro quo, the Establishment downplayed Russian interference pre-election, then left a bunch of stinkbomb sanctions that the incoming staff undid. /1'
p1162
S'2:42 PM - 1 Dec 2017'
p1163
tp1164
a(S"Just like Mueller can't prove any actual collusion with Russia. Hmmmm, yet I suspect you take that as fact. Interesting."
p1165
S'2:42 PM - 1 Dec 2017'
p1166
tp1167
a(S"I don't believe she should be president? Trump won. But if he COLLUDED with Russia to influence our election that matters to me as it should to any American. Can we separate the two issues? We can't write off Trump's potential collusion just because of Hillary?"
p1168
S'2:41 PM - 1 Dec 2017'
p1169
tp1170
a(S'He said he has agreed to work with the special counsel on the collusion with Russia.  Watch out Pres Trump here we go. Your Son, your son in law & yourself in jeopardy.  STOP THIS NOW!'
p1171
S'2:41 PM - 1 Dec 2017'
p1172
tp1173
a(S'Rotten CNN is calling Flynn plea to lying to FBI a significant Breaking News. A situation that happened only after the election. So election collusion with Russia happened after Trump won the election. These liberals are truly sick!'
p1174
S'2:41 PM - 1 Dec 2017'
p1175
tp1176
a(S'Talking to Russia about Israel is collusion? Dems are a bunch of imbeciles!'
p1177
S'2:41 PM - 1 Dec 2017'
p1178
tp1179
a(S"What about the President's collusion with Russia and that four of his campaign team have already been indicted?"
p1180
S'2:40 PM - 1 Dec 2017'
p1181
tp1182
a.