(lp0
(S"Media collusion with the Democrats \n\nBut let's talk about Russia https://twitter.com/joeconchatv/status/911367311705219072\xc2\xa0\xe2\x80\xa6"
p1
S'4:59 PM - 22 Sep 2017'
p2
tp3
a(S'So Russia "tried" -no doubt in exchange for sanctions they wanted dropped, Trying in exchange for sanctions is actually COLLUSION. #TREASON'
p4
S'4:55 PM - 22 Sep 2017'
p5
tp6
a(S'How can you not get this? Even leaving out collusion, admitting that he was helped by Russia destroys his narrative that he did it all alone'
p7
S'4:52 PM - 22 Sep 2017'
p8
tp9
a(S"The Russia collusion continues, now it's ads on Facebook. What about the totally biased and dishonest coverage in favor of Crooked Donnie?"
p10
S'4:51 PM - 22 Sep 2017'
p11
tp12
a(S'It is.. meant to cover up the REAL Russian collusion. Russia, Hillary, Obama, and the DNC.'
p13
S'4:51 PM - 22 Sep 2017'
p14
tp15
a(S'He also clearly stated that as DNI he found no evidence of collusion between the campaign & Russia. I think that allowance is significant...'
p16
S'4:50 PM - 22 Sep 2017'
p17
tp18
a(S"As nothing to do with collusion with Russia Trump wasn't president then"
p19
S'4:50 PM - 22 Sep 2017'
p20
tp21
a(S"i'm still waiting for the russia collusion evidence."
p22
S'4:49 PM - 22 Sep 2017'
p23
tp24
a(S'This Hollywood Star Keeps Pushing Trump-Russia Collusion Propaganda http://offthewire.com/this-hollywood-star-keeps-pushing-trump-russia-collusion-propaganda/\xc2\xa0\xe2\x80\xa6'
p25
S'4:47 PM - 22 Sep 2017'
p26
tp27
a(S'Mark Zuckerberg collusion with Russia to help Hillary.'
p28
S'4:46 PM - 22 Sep 2017'
p29
tp30
a(S'Trump, Russia, Possible Collusion (REMIX) https://buff.ly/2hn00fZ\xc2\xa0pic.twitter.com/XIlvCBBXxf'
p31
S'4:44 PM - 22 Sep 2017'
p32
tp33
a(S'Strangely never able to make the distinction between Russia collusion and Russian interference, which are two separate investigations.'
p34
S'4:42 PM - 22 Sep 2017'
p35
tp36
a(S'Caller in regards to Russia investigation: "There\'s been absolutely nothing as far as collusion." http://wbur.fm/2hmot1i\xc2\xa0'
p37
S'4:42 PM - 22 Sep 2017'
p38
tp39
a(S'What Mueller will show is no collusion between Russia and the Trump campaign and the end of this nonsense.'
p40
S'4:37 PM - 22 Sep 2017'
p41
tp42
a(S'Should Republican Lawmakers Participating in Anti-Trump Russia Collusion Witch Hunt Be Primaried from Office? http://ow.ly/80GF30fmGWh\xc2\xa0'
p43
S'4:35 PM - 22 Sep 2017'
p44
tp45
a(S'I voted for Trump with my own free will and without Russia influence/collusion'
p46
S'4:33 PM - 22 Sep 2017'
p47
tp48
a(S'1.collusion w Russia but no facts = Untruth  2. #POTUS lies EVERYDAY=Untruth FACT: Her mouth speaks lies =a Fool'
p49
S'4:30 PM - 22 Sep 2017'
p50
tp51
a(S'Arrest all these pos...lying douche bag, slandering a good mans name to ignite fake russia collusion.. Lock him up\nhttps://www.youtube.com/watch?v=NnlQpKdNjWU\xc2\xa0\xe2\x80\xa6https://twitter.com/TrumpsBlonde/status/911303005252747265\xc2\xa0\xe2\x80\xa6'
p52
S'4:29 PM - 22 Sep 2017'
p53
tp54
a(S"Obama wiretapped him. The media's been picking his every move apart. So far, no evidence of Russia collusion. It's coming soon, right?"
p55
S'4:28 PM - 22 Sep 2017'
p56
tp57
a(S'Who thinks @realDonaldTrump will get Amnesty in Russia, after what we already think is true about his collusion with the Kremlin is true?'
p58
S'4:27 PM - 22 Sep 2017'
p59
tp60
a(S'This Hollywood Star Keeps Pushing Trump-Russia Collusion Propaganda http://offthewire.com/this-hollywood-star-keeps-pushing-trump-russia-collusion-propaganda/\xc2\xa0\xe2\x80\xa6'
p61
S'4:48 PM - 22 Sep 2017'
p62
tp63
a(S'Should Republican Lawmakers Participating in Anti-Trump Russia Collusion Witch Hunt Be Primaried from Office? http://ow.ly/80GF30fmGWh\xc2\xa0 TeaP\xe2\x80\xa6'
p64
S'4:39 PM - 22 Sep 2017'
p65
tp66
a(S'Even *if* there was no collusion by #Trump team with #Russia the obstruction of justice in circs around #Comey firing = slamdunk'
p67
S'4:26 PM - 22 Sep 2017'
p68
tp69
a(S"In a few million years, it won't be collusion with Russia, it'll be collision with Russia!"
p70
S'4:25 PM - 22 Sep 2017'
p71
tp72
a(S"RT BillKristol: Trump doesn't merely deny collusion with Russia, as one might expect. He seems to deny the fact of Russian interfer\xe2\x80\xa6 \xe2\x80\xa6"
p73
S'4:25 PM - 22 Sep 2017'
p74
tp75
a(S"Trump's collusion w/Russia won him the election. We need a #NewElection\n@realDonaldTrump @DonaldJTrumpJr @EricTrump @IvankaTrump @FLOTUShttps://twitter.com/DrDenaGrayson/status/911350762571276293\xc2\xa0\xe2\x80\xa6"
p76
S'4:23 PM - 22 Sep 2017'
p77
tp78
a(S'Why is @SenJohnMcCain sending couriers around the globe to fetch false evidence from hookers in Russia Collusion in #sedition is putrid!'
p79
S'4:20 PM - 22 Sep 2017'
p80
tp81
a(S'Tell us about RUSSIA\nPEE PEE TAPE\nTREASONOUS\nCOLLUSION \nOBSTRUCTION OF JUSTICE pic.twitter.com/veGPGAAGgB'
p82
S'4:20 PM - 22 Sep 2017'
p83
tp84
a(S"POTUS collusion w/Russia is a nothing burger. 8 mo.proof. E-mails, lying under oath,Benghazi, debate ?'s, Phx. Tarmac w/AG. etc. All FACTS"
p85
S'4:19 PM - 22 Sep 2017'
p86
tp87
a(S"I believe collusion was on part of Clinton Campaign via #MSM #UraniumOne & b/c #Podesta Group's ties to Russia. #TrumpRussia #Russiagate"
p88
S'4:19 PM - 22 Sep 2017'
p89
tp90
a(S"If that was the case why did you win?Even if it occurred it doesn't  reach the evil of collusion w/Russia or interference by Russia."
p91
S'4:18 PM - 22 Sep 2017'
p92
tp93
a(S'Wait wait... WHO is Mueller investigating for collusion with Russia? #LockHerUphttps://twitter.com/cr/status/911368268283334657\xc2\xa0\xe2\x80\xa6'
p94
S'4:17 PM - 22 Sep 2017'
p95
tp96
a(S'Elites cover up Obama/Clinton corruption for 8 yrs-DOJ and FBI drive \'Russia collusion" to subvert @POTUS #MAGA @realDonaldTrump #TrumpTrainhttps://twitter.com/LouDobbs/status/911346461878693891\xc2\xa0\xe2\x80\xa6'
p97
S'4:17 PM - 22 Sep 2017'
p98
tp99
a(S'@samches Is it "collusion " or "interfering"? Which one is it? You Americans are humiliating your nation with this Russia stuff'
p100
S'4:16 PM - 22 Sep 2017'
p101
tp102
a(S'The media has always been against Hillary. Despite that, and your collusion with Russia, she still won the popular vote handily'
p103
S'4:15 PM - 22 Sep 2017'
p104
tp105
a(S'Let me guess...You are a "Russia Collusion" conspiracy theorist too.....'
p106
S'4:14 PM - 22 Sep 2017'
p107
tp108
a(S'Most us want @SenJohnMcCain BEHIND BARS for his Russia collusion with #Democrats & his pay for play schemes w/Soros thru McCain Institute.https://twitter.com/bobsacard/status/911365005907460096\xc2\xa0\xe2\x80\xa6'
p109
S'4:14 PM - 22 Sep 2017'
p110
tp111
a(S'Have been going on forever with no result proving "Russia Collusion"...'
p112
S'4:12 PM - 22 Sep 2017'
p113
tp114
a(S'by "russia hoax", i think trump is referring to russia collusion-hoax or fake news. https://twitter.com/rocksiphone/status/911357734389452800\xc2\xa0\xe2\x80\xa6'
p115
S'4:08 PM - 22 Sep 2017'
p116
tp117
a(S'@mike_pence Mike - Re: CBS interview - I am an American & hate to burst ur bubble - I am focused on Muller/Russia collusion.'
p118
S'4:06 PM - 22 Sep 2017'
p119
tp120
a(S"No, it's factual information tied to your collusion with Russia. #TtumpRussia #CriminalinChief #CrookedDonald #Liar #LockHimUp"
p121
S'4:05 PM - 22 Sep 2017'
p122
tp123
a(S'Russia is a hoax $100,000 in ads compared to Clinton billions? Do you realize how stupid Russia collusion sounds? .@nytimes'
p124
S'4:05 PM - 22 Sep 2017'
p125
tp126
a(S'I want proof that Russia "hacked" the election. Until you provide that PROOF, give it a rest. Russian Collusion is BULLSHIT! ........LEAKER'
p127
S'4:03 PM - 22 Sep 2017'
p128
tp129
a(S'If you accept "Russia Collusion", Then illegal voter fraud can not be questioned either. It is still under investigation.'
p130
S'4:02 PM - 22 Sep 2017'
p131
tp132
a(S'You seem to be conflating the "Russia election interference" with the Mueller trump/Russia collusion... Both are based on disinfo and lies'
p133
S'4:02 PM - 22 Sep 2017'
p134
tp135
a(S'Great article by @RyanLizza on the investigation of the obvious collusion between the Trump Campaign and Russia.\nhttps://www.newyorker.com/news/ryan-lizza/a-dizzying-week-of-trump-russia-revelations\xc2\xa0\xe2\x80\xa6pic.twitter.com/F0dr7EKmow'
p136
S'4:01 PM - 22 Sep 2017'
p137
tp138
a(S'Russia Denies the accusations...\nFake Russian Dossier...\nNo Russian Collusion w/Trump...\nHmm makes you wonder if this is real too... https://twitter.com/mrwalsh__/status/911357591137157120\xc2\xa0\xe2\x80\xa6'
p139
S'4:01 PM - 22 Sep 2017'
p140
tp141
a(S'We agree on 3 things:\n\n1. Russia collusion/hacking is a hoax\n2. The TPP sucks\n3. Regime change wars are stupid\n4. Hillary Clinton is a POS'
p142
S'3:57 PM - 22 Sep 2017'
p143
tp144
a(S'News Twitter should care about: GOP healthcare vote, Russian voter fraud in 21 states, collusion between Trump campaign manager and Russia'
p145
S'3:56 PM - 22 Sep 2017'
p146
tp147
a(S'Zuckerburg is in collusion with Russia!!!!  I demand an investigation into his business affairs!!!!'
p148
S'3:54 PM - 22 Sep 2017'
p149
tp150
a(S'American Patriot Daily \xe2\x80\x93 This Leak Just Ended The Russia Collusion Story And No One Could Believe It http://www.americanpatriotdaily.com/featured/leak-just-ended-the-russia-collusion-story/\xc2\xa0\xe2\x80\xa6'
p151
S'3:49 PM - 22 Sep 2017'
p152
tp153
a(S'Drumpf wants a war\nTaking attention away from Russia collusion https://twitter.com/NBCNews/status/910990320917237760\xc2\xa0\xe2\x80\xa6'
p154
S'3:49 PM - 22 Sep 2017'
p155
tp156
a(S'The greatest influence over our election was your collusion with Russia. Your denial and immediate use of Fake News is telling. GUILTY.'
p157
S'3:47 PM - 22 Sep 2017'
p158
tp159
a(S'The greatest influence was your collusion w/Russia & their intervention. SHE WON THE POPULAR VOTE. More people wanted her. NOT bad.'
p160
S'3:47 PM - 22 Sep 2017'
p161
tp162
a(S'Rachel Maddow Traces the Russia Collusion Scandal Back to the Republican National Convention @alternethttp://www.alternet.org/investigations/rachel-maddow-traces-russia-collusion-scandal-back-republican-national-convention#.WcWS6vTi3Lw.twitter\xc2\xa0\xe2\x80\xa6'
p163
S'3:47 PM - 22 Sep 2017'
p164
tp165
a(S'one is a lady standing for justice. one is an anti Trump spreading fake Russia collusion theories.'
p166
S'3:46 PM - 22 Sep 2017'
p167
tp168
a(S'Enough is enough!!  There was no Russia collusion by Trump camp prior to the election. That is what they were to be investigating. Its over. https://twitter.com/deplorablem1ke/status/911359850784919553\xc2\xa0\xe2\x80\xa6'
p169
S'3:44 PM - 22 Sep 2017'
p170
tp171
a(S'Left is still chewing on Russia collusion fairytale, crippled by  cognitive dissonance and their holy grail.'
p172
S'3:42 PM - 22 Sep 2017'
p173
tp174
a(S"U can't change subj from ur Russia collusion/justice obstruction. US intel & world know truth. U are on ur way out - dying slowly, painfully"
p175
S'3:41 PM - 22 Sep 2017'
p176
tp177
a(S'Lol! Some aides also warned his ass not to tell Lester the reason he fired comey was to get rid of his collusion with Russia, did he listen!'
p178
S'3:41 PM - 22 Sep 2017'
p179
tp180
a(S"Maybe, sir, President Trump doesn't believe Russia did. And IF they did, it wasn't because of collusion on his part. https://twitter.com/bocavista2016/status/911358291346907136\xc2\xa0\xe2\x80\xa6"
p181
S'3:40 PM - 22 Sep 2017'
p182
tp183
a(S'@seanhannity the Russia collusion/hack narrative is a concocted hoax by Obama admin to provide rationale for their illegal spying on Trump.'
p184
S'3:39 PM - 22 Sep 2017'
p185
tp186
a(S'Yes, @realDonaldTrump, YOU are responsible for making your campaign\'s collusion with Russia a "WH cover-up." Happy Friday, You Big Galoot!'
p187
S'3:36 PM - 22 Sep 2017'
p188
tp189
a(S'@realDonaldTrump #NotLegitimatePresident - Only Reason @POTUS #Won2016Elecection  Help Of @VladimirPutin #Russia #Collusion #RusiaPropaganda'
p190
S'3:35 PM - 22 Sep 2017'
p191
tp192
a(S'@realDonaldTrump When will Russia give up on you and tell the truth about your collusion with them on the election? Sooner than you think'
p193
S'3:35 PM - 22 Sep 2017'
p194
tp195
a(S"correction: He said his collusion with Russia was a hoax because he knows he didn't do it!"
p196
S'3:34 PM - 22 Sep 2017'
p197
tp198
a(S'When u & ur fellow white supremacists r caught red handed u call it a hoax but Americans know u r liar & guilty of collusion w/Russia'
p199
S'3:33 PM - 22 Sep 2017'
p200
tp201
a(S'Russia has spent Millions for decades to influence our elections & USA the same to them &others. W/ No Evidence of Collusion! Swallow it US!'
p202
S'3:33 PM - 22 Sep 2017'
p203
tp204
a(S'When will ppl realize the entities peddling Trump-Russia collusion are the same ones that dragged US into Vietnam war?'
p205
S'3:32 PM - 22 Sep 2017'
p206
tp207
a(S"Show me proof! \nI ask this for the \n1 millionth time...\nI can show you plenty of COLLUSION with Russia and Ukraine but it's Hillary."
p208
S'3:31 PM - 22 Sep 2017'
p209
tp210
a(S'This Hollywood Star Keeps Pushing Trump-Russia Collusion Propaganda http://fb.me/8RQ7TdJR1\xc2\xa0'
p211
S'3:30 PM - 22 Sep 2017'
p212
tp213
a(S"How the hell r U still ranting about ur obvious collusion with Russia when u've so stupidly brought us to the brink of conflict w/ a madman?"
p214
S'3:30 PM - 22 Sep 2017'
p215
tp216
a(S'Pretty much like believing Obama when he said no wiretapping was going on &Dems claiming Russia collusion but no proof & libtards believe it'
p217
S'3:30 PM - 22 Sep 2017'
p218
tp219
a(S"Show me real proof!\nI CAN show you real proof of COLLUSION with Russia and Ukraine. You won't look at it & yell me down because it's Hillary"
p220
S'3:28 PM - 22 Sep 2017'
p221
tp222
a(S'American Patriot Daily \xe2\x80\x93 This Leak Just Ended The Russia Collusion Story And No One Could Believe It http://www.americanpatriotdaily.com/featured/leak-just-ended-the-russia-collusion-story/\xc2\xa0\xe2\x80\xa6'
p223
S'3:28 PM - 22 Sep 2017'
p224
tp225
a(S'Russia.  #collusion, #heromccain'
p226
S'3:27 PM - 22 Sep 2017'
p227
tp228
a(S'Oh. My. God! #Russia. Bought. Ads. On. Facebook! COLLUSION! INTERFERENCE!  \n\nHahahaha. Oh the stupidity of @HillaryClinton supporters!'
p229
S'3:26 PM - 22 Sep 2017'
p230
tp231
a(S'he let Russia use FB, #collusion'
p232
S'3:24 PM - 22 Sep 2017'
p233
tp234
a(S'1) Russia has spent Millions for decades to influence our elections & USA the same to them 2) W/ No Evidence of Collusion! Swallow it Roby!'
p235
S'3:24 PM - 22 Sep 2017'
p236
tp237
a(S'American Patriot Daily \xe2\x80\x93 This Leak Just Ended The Russia Collusion Story And No One Could Believe It -*Clinton is prison-bound*"'
p238
S'3:23 PM - 22 Sep 2017'
p239
tp240
a(S'With all the leaks how is it after a year ZERO evidence has leaked?CNN producers and Van Jones called Russia collusion a nothing burger!'
p241
S'3:21 PM - 22 Sep 2017'
p242
tp243
a(S'Russia...Russia...Russia! They hacked 21 states!! U protect Putin! Tick...tick...tick...tick! Lock Trump up! Lock Trump up! #collusion Sad! pic.twitter.com/68BsZIoLHG'
p244
S'3:21 PM - 22 Sep 2017'
p245
tp246
a(S"Huge difference @ChuckGrassley. @SenJohnMcCain wasn't suspected of collusion with Russia. Changes what info to provide. Pls stop @DevinNunes"
p247
S'3:20 PM - 22 Sep 2017'
p248
tp249
a(S'Russia is great country but no collusion.'
p250
S'3:20 PM - 22 Sep 2017'
p251
tp252
a(S"No mention of your collusion with the Russia that's actual collision, the equivalent of the cheat accusing there partner of cheating "
p253
S'3:20 PM - 22 Sep 2017'
p254
tp255
a(S'Do you remember?? "What we are competing is a rigged election." Russia collusion, etc etc etc'
p256
S'3:13 PM - 22 Sep 2017'
p257
tp258
a(S'Should Republican Lawmakers Participating in Anti-Trump Russia Collusion Witch Hunt Be Primaried from Office? http://www.thegatewaypundit.com/2017/09/point-republican-lawmakers-participating-anti-trump-witch-hunt-primaried-office/\xc2\xa0\xe2\x80\xa6'
p259
S'3:07 PM - 22 Sep 2017'
p260
tp261
a(S"LOL,OL that's because they Promissed Him-Kim, that the Billions will keep flooding to him soon after they prove @POTUS #Russia collusion LOL"
p262
S'3:02 PM - 22 Sep 2017'
p263
tp264
a(S'Now theyre back at it again with RUSSIAN COLLUSION. That\xe2\x80\x99s leading to a path of potential war with Russia.'
p265
S'3:00 PM - 22 Sep 2017'
p266
tp267
a(S'DonTheCon.\nDeflecting Don.\nAnd now, presenting...Dotage Don\n\nOh,\n\xe2\x80\xa2 Your tax returns\n\xe2\x80\xa2 Your birth certificate\n\xe2\x80\xa2 Russia collusion\n\xe2\x80\xa2 Emoluments'
p268
S'2:59 PM - 22 Sep 2017'
p269
tp270
a(S'Time to sell some $40 hats to pay my collusion with Russia legal fees! There, fixed it for you.'
p271
S'2:56 PM - 22 Sep 2017'
p272
tp273
a(S'Grassley to FBI: Was Trump warned about Russia? http://a.msn.com/01/en-us/AAskbzn?ocid=st\xc2\xa0\xe2\x80\xa6 They were investigating Manafort and collusion w/Russian. Heads Up?'
p274
S'2:55 PM - 22 Sep 2017'
p275
tp276
a(S'@toddschnitt ... I think he means his COLLUSION with RUSSIA is a HOAX.'
p277
S'2:52 PM - 22 Sep 2017'
p278
tp279
a(S'After 18 mo of Trump/Russia collusion investigation is reasonable to rename the Justice Department and call it "HIDING & COVERUP" Department'
p280
S'2:51 PM - 22 Sep 2017'
p281
tp282
a(S"He's comparing collusion with Russia to media coverage. https://twitter.com/realDonaldTrump/status/911179462745710593\xc2\xa0\xe2\x80\xa6"
p283
S'2:51 PM - 22 Sep 2017'
p284
tp285
a(S'Everyone knows wag-the-dog #Hollywood invented Russia collusion story for #Democrats as retaliation for rampant Russian US movie piracy!pic.twitter.com/KShIQBmY31'
p286
S'2:50 PM - 22 Sep 2017'
p287
tp288
a(S'"We need to stop using the word collusion. The word is conspiracy." -@MalcolmNance on the week\'s Russia news. WATCH: https://youtu.be/4kLgHNkX498\xc2\xa0'
p289
S'2:50 PM - 22 Sep 2017'
p290
tp291
a(S'Elites cover up Obama/Clinton corruption for 8 yrs-DOJ and FBI drive \'Russia collusion" to subvert @POTUS #MAGA @realDonaldTrump #TrumpTrainhttps://twitter.com/TomFitton/status/911315541415129088\xc2\xa0\xe2\x80\xa6'
p292
S'2:48 PM - 22 Sep 2017'
p293
tp294
a(S"FUCK YOU PENCE! You're in deep shit w/the LAW because you were part of the RUSSIA COLLUSION to tamper w/ELECTION! You'll  be indicted too!"
p295
S'2:48 PM - 22 Sep 2017'
p296
tp297
a(S"No one believes you! How's that Russia collusion thing going? pic.twitter.com/zxuKjDH0KN"
p298
S'2:46 PM - 22 Sep 2017'
p299
tp300
a(S"Right Jimmy \n@SenJohnMcCain GOP also on wrong side of Russia investigation.\nClear now it's Trump incompetence at best, collusion likely. https://twitter.com/jimmykimmel/status/911289521269989377\xc2\xa0\xe2\x80\xa6"
p301
S'2:45 PM - 22 Sep 2017'
p302
tp303
a(S"Dems looking for Trump Russia collusion and say Trump's campaign wasn't wiretapped. There are the hoaxes."
p304
S'2:44 PM - 22 Sep 2017'
p305
tp306
a(S"Mueller, Comey's buddy.Congress Rep said Russia tried 2 meddle, no collusion. Irrelevant, countries do it all the time. Facebk is pro Dems"
p307
S'2:42 PM - 22 Sep 2017'
p308
tp309
a(S"Not necessarily. If Trump is found guilty of collusion with Russia that means Pence being elected is invalid too. So it's possible I think."
p310
S'2:38 PM - 22 Sep 2017'
p311
tp312
a(S'by "russia hoax", i believe trump was referring to the "russia collusion (which is not even a crime)-hoax". cnn is really fake news media.'
p313
S'2:38 PM - 22 Sep 2017'
p314
tp315
a(S'#BREAKING #NEWS #OBAMAFORPRISON #TREASON #Wiretapping #DNCCORRUPTION #COLLUSION #Russia #URANIUMhttps://twitter.com/StockMonsterUSA/status/911089670850723841\xc2\xa0\xe2\x80\xa6'
p316
S'2:38 PM - 22 Sep 2017'
p317
tp318
a(S'The absurd is to be biased against seeing the truth. Lies, paranoid comments, Russia collusion, firing who is getting closer! OMG! Wake up! https://twitter.com/thehill/status/911322464285872128\xc2\xa0\xe2\x80\xa6'
p319
S'2:36 PM - 22 Sep 2017'
p320
tp321
a(S'Thank you for not letting up on murder of Seth Rich .Mueller only has to investigate this and the Russia collusion will be solved'
p322
S'2:35 PM - 22 Sep 2017'
p323
tp324
a(S"He only cries HRC when people shout Russia only thing he can come up with. There's a correlation between collusion visibility and HRC tweets"
p325
S'2:25 PM - 22 Sep 2017'
p326
tp327
a(S"The Russia Trump Collusion is real. Don't let Trump the colluder try to cover it up. #TrumpRussiaCoverUp#TrumpRussia#Russiaisforreal pic.twitter.com/WU1fLsrmuz"
p328
S'2:24 PM - 22 Sep 2017'
p329
tp330
a(S"The WSJ reports a Ukrainian pal of Russian oligarchs (close to Sechin) is funding Trump's legal defense against collusion with Russia. 1.) https://twitter.com/yashar/status/911323084598206464\xc2\xa0\xe2\x80\xa6"
p331
S'2:23 PM - 22 Sep 2017'
p332
tp333
a(S'As a businessman, trying to build a building in Russia. Was not president elect at the time, did not break any laws. Still.Not.Collusion'
p334
S'2:23 PM - 22 Sep 2017'
p335
tp336
a(S"The more that you say stuff like this, the more I believe there's collusion & there's a pre-election agreement w/ Russia stashed somehere."
p337
S'2:21 PM - 22 Sep 2017'
p338
tp339
a(S'What about you CONFESS to MUELLER your COLLUSION & STOP pathetically defending RUSSIA? You will be EXPOSED soon & your CROOKED EMPIRE too!'
p340
S'2:20 PM - 22 Sep 2017'
p341
tp342
a(S"So...Putin is bankrolling the US President's legal battle against state and federal charges stemming from collusion with Russia. Hmmmm."
p343
S'2:19 PM - 22 Sep 2017'
p344
tp345
a(S'Everything about what?\nThe Trump-Russia collusion that was hoaxed for views?\nHis fake rape allegations?\nWhat exactly are you referring to?'
p346
S'2:16 PM - 22 Sep 2017'
p347
tp348
a(S"The so called Russia collusion is a hoax ,that's what POTUS is saying. CNN is fake news"
p349
S'2:16 PM - 22 Sep 2017'
p350
tp351
a(S'You know good and well he\'s not referring to Russia hacking the US when he says "Hoax", he\'s referring to Russian collusion with him!'
p352
S'2:16 PM - 22 Sep 2017'
p353
tp354
a(S"So he's saying his collusion w Russia was helped more than he expected by the media? An accidental admission?"
p355
S'2:16 PM - 22 Sep 2017'
p356
tp357
a(S'Unsuccessful! His ONLY success is by profiting from his multiple failures, FRAUD, and collusion with Russia and White Supremacists!'
p358
S'2:15 PM - 22 Sep 2017'
p359
tp360
a(S"Well there is more evidence of collusion with Russia than there was for Benghazi or the birther movement so yeah, There's that."
p361
S'2:15 PM - 22 Sep 2017'
p362
tp363
a(S'Yes hundreds of thousands tax payer dollars for collusion w/Russia ? I think not! Shut it down'
p364
S'2:10 PM - 22 Sep 2017'
p365
tp366
a(S'The Russia collusion delusion is the "hoax" he\'s referring to.'
p367
S'2:08 PM - 22 Sep 2017'
p368
tp369
a(S"This is so obvious! It's said to distract the attention on the Russia Collusion probe... BTW, Newt, how is yr 4rd wife? The 5th in sight?"
p370
S'2:03 PM - 22 Sep 2017'
p371
tp372
a(S"I'm confused.  She lost right?  Your son admitted to attempted collusion right?  MSM is biased BS, but Russia thing does stink to high hell."
p373
S'2:03 PM - 22 Sep 2017'
p374
tp375
a(S'Should Republican Lawmakers Participating in Anti-Trump Russia Collusion Witch Hunt Be Primaried from Office? http://www.thegatewaypundit.com/2017/09/point-republican-lawmakers-participating-anti-trump-witch-hunt-primaried-office/\xc2\xa0\xe2\x80\xa6'
p376
S'1:56 PM - 22 Sep 2017'
p377
tp378
a(S'This is concerted evil. Praying Graham Cassidy goes up in flames. There is not only collusion with Russia from this administration.'
p379
S'1:56 PM - 22 Sep 2017'
p380
tp381
a(S'Every time he tweets that Russia interference in election 2016 investigation is a hoax he is participating in COLLUSION in it'
p382
S'1:55 PM - 22 Sep 2017'
p383
tp384
a(S'What about Facebook/Russia Collusion?'
p385
S'1:54 PM - 22 Sep 2017'
p386
tp387
a(S"Trump's Collusion w Russia in stealing the 2016 Election will be taught alongside Pearl Harbor and 9/11 in future American History classes. https://twitter.com/cnnpolitics/status/911311898532106240\xc2\xa0\xe2\x80\xa6"
p388
S'1:51 PM - 22 Sep 2017'
p389
tp390
a(S'http://www.alternet.org/node/1082844\xc2\xa0 INVESTIGATIONS\nRachel Maddow Traces the #Russia Collusion #Scandal Back to the #RNC'
p391
S'1:51 PM - 22 Sep 2017'
p392
tp393
a(S"To stop providing cover is him admitting guilt of his collusion and admitting he only won because of Russia's interference. It won't happen."
p394
S'1:51 PM - 22 Sep 2017'
p395
tp396
a(S'the corrupt media ran dozens of stories claiming anonymous sources of Russia collusion - Mueller is still trawling cos it was a pack of lies'
p397
S'1:49 PM - 22 Sep 2017'
p398
tp399
a(S'Meuller , collusion with Comey, Obama,Clinton, Russia, all the administration .'
p400
S'1:48 PM - 22 Sep 2017'
p401
tp402
a(S'Investigate McCain for collusion with Russia. Money McCain has for payoff.'
p403
S'1:47 PM - 22 Sep 2017'
p404
tp405
a(S"And was helped by his campaign's collusion with Russia."
p406
S'1:45 PM - 22 Sep 2017'
p407
tp408
a(S"What about your collusion with Russia? That's the real story and no, it's not a hoax. Your time in office will be brief."
p409
S'1:45 PM - 22 Sep 2017'
p410
tp411
a(S'Gotta love the Dems. They look for collusion but it appears to be between Facebook and Russia. Hardhitting irrelevance.'
p412
S'1:44 PM - 22 Sep 2017'
p413
tp414
a(S"of course not - that's why the corrupt media had to invent and promote the Russia collusion story"
p415
S'1:44 PM - 22 Sep 2017'
p416
tp417
a(S'You do realize even if he collude with Russia, it\xe2\x80\x99s not even a crime  there is no federal crime of collusion whatsoever'
p418
S'1:41 PM - 22 Sep 2017'
p419
tp420
a(S'Anyone with half-brain KNOWS there was Russia-tRump Collusion. Guess that\'s why your "followers" just don\'t get it. pic.twitter.com/K3OYrMDIrY'
p421
S'1:41 PM - 22 Sep 2017'
p422
tp423
a(S"Trump  is on a suicide mission for all americans in s korea, just so nobody will focus on his collusion w Russia.  America don't be fooled"
p424
S'1:41 PM - 22 Sep 2017'
p425
tp426
a(S'What about your collusion?  By not taking the Russia allegations seriously ..you have shown us once again who you are,'
p427
S'1:41 PM - 22 Sep 2017'
p428
tp429
a(S'American Patriot Daily \xe2\x80\x93 This Leak Just Ended The Russia Collusion Story And No One Could Believe It http://www.americanpatriotdaily.com/featured/leak-just-ended-the-russia-collusion-story/\xc2\xa0\xe2\x80\xa6'
p430
S'1:40 PM - 22 Sep 2017'
p431
tp432
a(S'What does this have to do with "Russia collusion"?'
p433
S'1:39 PM - 22 Sep 2017'
p434
tp435
a(S"Dotard Trump, still trying to call your collusion a hoax. Newest evidence suggests you didn't really win.Russia hacked it for you. #Mueller."
p436
S'1:39 PM - 22 Sep 2017'
p437
tp438
a(S"Where's Mr. Integrity, Mr. Most Trusted, Mr. Honesty, Mr. Honorable? Mr. Mueller is scouring Facebook ads hoping to find collusion w Russia"
p439
S'1:36 PM - 22 Sep 2017'
p440
tp441
a(S"Keep going. The only collusion was to nix Bernie and steer towards Clinton. There's more evidence of Podesta and Russia than Trump"
p442
S'1:36 PM - 22 Sep 2017'
p443
tp444
a(S'Why?? Because he is searching deeply into the Russia collusion ?'
p445
S'1:34 PM - 22 Sep 2017'
p446
tp447
a(S'Russia and Facebook Collusion - Election Meddling'
p448
S'1:34 PM - 22 Sep 2017'
p449
tp450
a(S'The special prosecutor was to investigate Russia collusion not events from a decade ago or use Brownshirt tactics!'
p451
S'1:34 PM - 22 Sep 2017'
p452
tp453
a(S'This Hollywood Star Keeps Pushing Trump-Russia Collusion Propaganda http://offthewire.com/this-hollywood-star-keeps-pushing-trump-russia-collusion-propaganda/\xc2\xa0\xe2\x80\xa6'
p454
S'1:32 PM - 22 Sep 2017'
p455
tp456
a(S"Mueller's entire investigation is tainted by conflicts of interest in addition to the fact that there's no proof of Trump-Russia collusion."
p457
S'1:31 PM - 22 Sep 2017'
p458
tp459
a(S'Russia tried to influence the election?  How About CNN, MSNBC, NY Times, Wash Post??? Now that was collusion!'
p460
S'1:31 PM - 22 Sep 2017'
p461
tp462
a(S'Fb is going 2 start a "Russia investigation" so privacies R going 2 b nill, they will even be able 2 look @ your Pm\'s 4 "Russian collusion"'
p463
S'1:28 PM - 22 Sep 2017'
p464
tp465
a(S'Your Russian buddies influenced the outcome quite a bit, and you will pay for your collusion. Russia, Russia, Russia, Russia, Russia, Russia'
p466
S'1:28 PM - 22 Sep 2017'
p467
tp468
a(S'Atty Muller, Here is your Russia Collusion case. Solved! Now dissolve. https://twitter.com/drmartyfox/status/910784590117314560\xc2\xa0\xe2\x80\xa6'
p469
S'1:27 PM - 22 Sep 2017'
p470
tp471
a(S'Oh, the Irony!  He is up to his neck in legal turmoil over charges of collusion with Russia & who comes to his legal defense?  RUSSIA!'
p472
S'1:27 PM - 22 Sep 2017'
p473
tp474
a(S'Russia collusion is no hoax, President Dotard. Mueller asked WH for phone records on Air Force One statement http://thehill.com/homenews/administration/351821-mueller-requested-documents-phone-records-about-air-force-one#.WcVxPUObAiE.twitter\xc2\xa0\xe2\x80\xa6'
p475
S'1:25 PM - 22 Sep 2017'
p476
tp477
a(S'Why do you assume they did anything wrong?The special prosecutor was supposed to be for Russia collusion,not events a decade ago!'
p478
S'1:25 PM - 22 Sep 2017'
p479
tp480
a(S'Muller is BF with Comey which is a conflict of interest and should not be investigating this so call Russia collusion.  His breaking the law'
p481
S'1:25 PM - 22 Sep 2017'
p482
tp483
a(S"She can guarantee Trump is in collusion with Russia to undermine our democracy.\nI'd like to see that. https://twitter.com/RealKyleMorris/status/910928741777465346\xc2\xa0\xe2\x80\xa6"
p484
S'1:24 PM - 22 Sep 2017'
p485
tp486
a(S'Ah, feeling trapped by the Russia investigation again?   Collusion is a reality for you!'
p487
S'1:23 PM - 22 Sep 2017'
p488
tp489
a(S"Lmfao he is saying Russia collusion with the president is a hoax don't make it something it isn't https://twitter.com/cnnpolitics/status/911323481429692416\xc2\xa0\xe2\x80\xa6"
p490
S'1:22 PM - 22 Sep 2017'
p491
tp492
a(S'@realDonaldTrump Russian Diplomats vs Canadian boys hockey game,wait whose here cheering for Russia...heads up Donald I smell collusion... pic.twitter.com/ELnLqcgj8X'
p493
S'1:20 PM - 22 Sep 2017'
p494
tp495
a(S'Dick Morris Says Russia Collusion Completely False Narrative Created By Deep State To Destroy Trump - Tsarizm https://tsarizm.com/news/2017/09/20/dick-morris-says-russia-collusion-completely-false-narrative-created-deep-state-destroy-trump/\xc2\xa0\xe2\x80\xa6'
p496
S'1:18 PM - 22 Sep 2017'
p497
tp498
a(S'45 YOUR THE GREATEST RISK TO THIS COUNTRY!! YOUR COLLUSION WITH RUSSIA WILL COME TO LIGHT AND YOUR A@@ WILL BE GOING TO JAIL!'
p499
S'1:18 PM - 22 Sep 2017'
p500
tp501
a(S'Prosecutorial Abuse \nMueller is way beyond scope of Russia collusion invest.\nVengeance, not justice is his guide https://www.reuters.com/article/us-usa-trump-russia-manafort/u-s-investigators-seek-to-turn-manafort-in-russia-probe-sources-idUSKBN1A70F8\xc2\xa0\xe2\x80\xa6'
p502
S'1:18 PM - 22 Sep 2017'
p503
tp504
a(S'It\'s not funny any more that Trump\'s arguments against collusion with Russia is "what about \'Crooked Hillary\'". What a fucking loser.'
p505
S'1:17 PM - 22 Sep 2017'
p506
tp507
a(S"That's racist and proof of collusion with Russia. I'm not sure exactly how it's racist but it's a Trump, so RACIST NAZI RUSSIA!"
p508
S'1:13 PM - 22 Sep 2017'
p509
tp510
a(S"What's fake is your presidency, thanks to your collusion with Russia.  We are not fooled by a fool such as you."
p511
S'1:13 PM - 22 Sep 2017'
p512
tp513
a(S'Trump 3 marriages cheated all of them never served in anything. In collusion with Russia!'
p514
S'1:10 PM - 22 Sep 2017'
p515
tp516
a(S'Sources: No-knock warrants served at @NWS as Rosenstein orders Mueller to investigate for @realDonaldTrump-Russia collusion on hurricanes'
p517
S'1:08 PM - 22 Sep 2017'
p518
tp519
a(S'What does Hillary have to do with your collusion with Russia? #ImpeachTrump #MuellerIsComingForYou'
p520
S'1:03 PM - 22 Sep 2017'
p521
tp522
a(S'The fact that Manafort was wiretapped before & after election, if there were actual proof of Russia collusion would have come out.'
p523
S'1:03 PM - 22 Sep 2017'
p524
tp525
a(S'The GOP are all complicit in the Trump Russia Collusion as well. $ from RNC was Russian  $ given to the Congressman for re-election & PACS!'
p526
S'1:01 PM - 22 Sep 2017'
p527
tp528
a(S'#FakeNews @AP_Politics @AP Instead of going after Russia for FB ads, #Mueller needs to investigate collusion with the press. https://twitter.com/ap_politics/status/911252736603250688\xc2\xa0\xe2\x80\xa6'
p529
S'1:00 PM - 22 Sep 2017'
p530
tp531
a(S"There's more proven collusion between Hillary and Russia during her tenure @ State Dept than Trump. Where was your voice when this happened?"
p532
S'12:55 PM - 22 Sep 2017'
p533
tp534
a(S"Let's hope not. But we still gotta brace for the period when all these people stuck in a mass hysteria hear no collusion with Russia. lol"
p535
S'12:54 PM - 22 Sep 2017'
p536
tp537
a(S"It's been proven that there was no Russia-Trump collusion. This is a witch hunt from the Left/"
p538
S'12:53 PM - 22 Sep 2017'
p539
tp540
a(S'I hope her and her Brother are implicated in the Russia collusion she really is a Trump turd'
p541
S'12:51 PM - 22 Sep 2017'
p542
tp543
a(S'What about the FACT that you have yet to condemn Russia, your comrade Putin, the Russian machine, or any one connected to it? #collusion'
p544
S'12:51 PM - 22 Sep 2017'
p545
tp546
a(S'Democrats & media said there was widespread Trump Russia collusion during campaign\n\nThat failed.\n\nNow it\'s "RUSSIA BOUGHT FACEBOOK ADS!"\n\n'
p547
S'12:48 PM - 22 Sep 2017'
p548
tp549
a(S'Wow! GOP is really showing that they will bribe, cheat and steal, really breathes life into the Russia collusion by their party. SMH!'
p550
S'12:48 PM - 22 Sep 2017'
p551
tp552
a(S'He is under investigation for collusion with Russia. From day one he has denied having anything to do with them, now we know diff.'
p553
S'12:46 PM - 22 Sep 2017'
p554
tp555
a(S'Your collusion w Russia is real news. Fake President.'
p556
S'12:45 PM - 22 Sep 2017'
p557
tp558
a(S'Do we need to get a bullhorn and start shouting about who was in collusion with Russia.'
p559
S'12:44 PM - 22 Sep 2017'
p560
tp561
a(S"You're under investigation for obstruction and collusion w/Russia. Hillary Clinton is not. \nExplain why you trash talk everyone but Putin. https://twitter.com/realDonaldTrump/status/911189860769255424\xc2\xa0\xe2\x80\xa6"
p562
S'12:42 PM - 22 Sep 2017'
p563
tp564
a(S'A meeting with someone in Russia does not mean collusion Otherwise Obama Hillary and damn near every other politician is guilty of collusion'
p565
S'12:42 PM - 22 Sep 2017'
p566
tp567
a(S'Nobody has shown any collusion on the part of Trump with Russia.  How about some evidence.'
p568
S'12:41 PM - 22 Sep 2017'
p569
tp570
a(S'Not at all. For issues from years ago totally unrelated to Russia collusion.'
p571
S'12:40 PM - 22 Sep 2017'
p572
tp573
a(S"@DonaldJTrumpJr Nice Try Jr. Don't insult #TheMajority & America making light of magnitude & collusion w/Russia. June16Meeting. #trumprussia https://twitter.com/noltenc/status/911236567875948544\xc2\xa0\xe2\x80\xa6"
p574
S'12:40 PM - 22 Sep 2017'
p575
tp576
a(S'Collusion to the International Space Station @NASA $17.1 billion budget\n(Money up front) pay Russia $80 million a pop for an astronaut, SMH https://twitter.com/realDonaldTrump/status/911179462745710593\xc2\xa0\xe2\x80\xa6'
p577
S'12:37 PM - 22 Sep 2017'
p578
tp579
a(S'No you were the bad Candidate and the Russians helped you get there. It was your collusion with Russia. It will all come out'
p580
S'12:36 PM - 22 Sep 2017'
p581
tp582
a(S'RUSSIABOY RUSSIA RUSSIA RUSSIA MOB TIES TRUMPRUSSIA TRUMPRUSSIA RUSSIA COLLUSION WITH RUSSIA TRUMPRUSSIA RUSSIA RUSSIA RUSSIA RUSSIA MOB'
p583
S'12:36 PM - 22 Sep 2017'
p584
tp585
a(S'What happened to "collusion" between #Trump campaign & #Russia? #Media keeps p0roving did NOT happen, & acting like proving opposite! #Liars'
p586
S'12:32 PM - 22 Sep 2017'
p587
tp588
a(S'Crooked Trump is hiding tax returns because of Russia collusion! Transparent Hillary showed she has nothing to hide.\nhttp://www.taxhistory.org/www/website.nsf/web/presidentialtaxreturns\xc2\xa0\xe2\x80\xa6'
p589
S'12:32 PM - 22 Sep 2017'
p590
tp591
a(S'Should Republican Lawmakers Participating in Anti-Trump Russia Collusion Witch Hunt Be Primaried from Office? http://www.thegatewaypundit.com/2017/09/point-republican-lawmakers-participating-anti-trump-witch-hunt-primaried-office/\xc2\xa0\xe2\x80\xa6'
p592
S'12:31 PM - 22 Sep 2017'
p593
tp594
a(S'Nice try at deflection asshole! #RUSSIA #COLLUSION #RIGGEDELECTION #CRIMINAL #SexualPredator #UNFIT #PUTINSBITCH'
p595
S'12:28 PM - 22 Sep 2017'
p596
tp597
a(S'Rachel Maddow Traces the #Russia #Collusion Scandal Back to the Republican National Convention #TheResistancehttp://www.alternet.org/investigations/rachel-maddow-traces-russia-collusion-scandal-back-republican-national-convention#.WcVkWYbrJTE.twitter\xc2\xa0\xe2\x80\xa6'
p598
S'12:28 PM - 22 Sep 2017'
p599
tp600
a(S"Basically, your killing millions of children to cover-up Trump's collusion with Russia.  That is all your bill was."
p601
S'12:26 PM - 22 Sep 2017'
p602
tp603
a(S"not one little piece of evidence presented of a Trump/Russia collusion... it's a witch hunt. I hope they get fired wasting taxpayers money."
p604
S'12:25 PM - 22 Sep 2017'
p605
tp606
a(S'Wall Street Journal- evidence Trump WAS "wiretapped" during election campaign & Russia/ Trump collusion discredited https://www.wsj.com/amp/articles/all-mr-comeys-wiretaps-1505862793\xc2\xa0\xe2\x80\xa6'
p607
S'12:22 PM - 22 Sep 2017'
p608
tp609
a(S'Wyden rightfully wants to follow money trail in Russia meddling/collusion investigation. DOT not helpful.'
p610
S'12:21 PM - 22 Sep 2017'
p611
tp612
a(S"There was Nothing to investigate. He should've focused more on #Trump and his Collusion with #Russia #PutinsPuppets "
p613
S'12:21 PM - 22 Sep 2017'
p614
tp615
a(S'Adds on FB were probably Hillary collusion with Russia to start the Russian Trump Collusion scenario, to aid her campaign.'
p616
S'12:20 PM - 22 Sep 2017'
p617
tp618
a(S"the only fake news during the election came from your team's collusion with Russia.  GET OVER HRC - everyone knows she should have won."
p619
S'12:13 PM - 22 Sep 2017'
p620
tp621
a(S'On more than one occasion, collusion between US backed minority Syrian Kurdish factions & ISIS has been documented.'
p622
S'12:12 PM - 22 Sep 2017'
p623
tp624
a(S'It\'s great that #MSM has lied about the "Russia collusion" so much because it\'s easy to ID a complete idiot.Nobody paying attention believes https://twitter.com/joshnoneyabiz/status/911098672385011712\xc2\xa0\xe2\x80\xa6'
p625
S'12:11 PM - 22 Sep 2017'
p626
tp627
a(S'So you believe these FAKE compliments but not REAL news about your collusion with Russia? FAKE FRAUD'
p628
S'12:11 PM - 22 Sep 2017'
p629
tp630
a(S'@POTUS @realDonaldTrump @seanhannity Book by Clinton aide on campaign admits they created Russia collusion FICTION, #FakenewsCNN did resthttps://twitter.com/realDonaldTrump/status/911189860769255424\xc2\xa0\xe2\x80\xa6'
p631
S'12:10 PM - 22 Sep 2017'
p632
tp633
a(S'But "investigations" focusing on absurd "collusion" between #Trump & #Russia--not on countering RUSSIA. About #Trump/#HateTrump, not Russia.'
p634
S'12:10 PM - 22 Sep 2017'
p635
tp636
a(S'Only the extremely & willfully ignorant would continue calling your collusion w/ Russia a "hoax." #Drumpf #AmericaHater #Traitor #GUILTY'
p637
S'12:09 PM - 22 Sep 2017'
p638
tp639
a(S"Collusion with Russia or Russian Propaganda? What's Mueller investigating? Did Russia run ads showing everyone how crooked Clinton Inc was?"
p640
S'12:07 PM - 22 Sep 2017'
p641
tp642
a(S"Funny she thought Russia was behind election collusion when it appears NSA was & didn't want her either. The question is Who did they want?"
p643
S'12:06 PM - 22 Sep 2017'
p644
tp645
a(S'Sorry, Fox News: Trump collusion with Russia could break more than a dozen laws http://www.motherjones.com/politics/2017/06/sorry-fox-news-legal-experts-say-trump-collusion-with-russia-could-be-a-crime/\xc2\xa0\xe2\x80\xa6 via @MotherJones'
p646
S'12:05 PM - 22 Sep 2017'
p647
tp648
a(S'@MaxineWaters Still w/ Russia collusion? For a year, f there was an iota of evidence..would be headlines now, what is your true intention? https://twitter.com/dcexaminer/status/911260305912680448\xc2\xa0\xe2\x80\xa6'
p649
S'12:04 PM - 22 Sep 2017'
p650
tp651
a(S'Why do most people ignore and/or deny this as a crime but support the #Russia collusion theory with less evidence of a crime?  #Weird'
p652
S'12:03 PM - 22 Sep 2017'
p653
tp654
a(S"He's a fricken Communist, no surprise. This Hollywood Star Keeps Pushing Trump-Russia Collusion Propaganda http://offthewire.com/this-hollywood-star-keeps-pushing-trump-russia-collusion-propaganda/\xc2\xa0\xe2\x80\xa6"
p655
S'12:03 PM - 22 Sep 2017'
p656
tp657
a(S'The greatest influence over our election was your unending willingness to lie to a bunch of ignorant people and your collusion with Russia!'
p658
S'12:01 PM - 22 Sep 2017'
p659
tp660
a(S'Its The Ads Stupid: Since there is no evidence of Russia-Trump election fixing collusion, it must be the Russian... http://fb.me/x250aQMK\xc2\xa0'
p661
S'12:00 PM - 22 Sep 2017'
p662
tp663
a(S'No. She knew history. Hard for a party to hold presidency 3 consecutive terms. Despite her mistakes it still took Russia/DT collusion/Comey'
p664
S'11:56 AM - 22 Sep 2017'
p665
tp666
a(S"Trump is going to have a come to Jesus moment and confess his collusion with Russia publicly. Then he'll announce a peace mission to NK!"
p667
S'11:56 AM - 22 Sep 2017'
p668
tp669
a(S'Rachel Maddow Traces the Russia Collusion Scandal Back to the Republican National Convention @alternethttp://www.alternet.org/investigations/rachel-maddow-traces-russia-collusion-scandal-back-republican-national-convention\xc2\xa0\xe2\x80\xa6'
p670
S'11:54 AM - 22 Sep 2017'
p671
tp672
a(S'& the obvious lies keep mounting, pointing towards coverup of larger collusion.Trump denies Facebook-Russia Ads while Facebook acknowledges.'
p673
S'11:52 AM - 22 Sep 2017'
p674
tp675
a(S"Look at all the idiots all in one place!! You guys really can't smell collusion with Russia huh? Amazing how many stupid people!!"
p676
S'11:51 AM - 22 Sep 2017'
p677
tp678
a(S'Who mentioned collusion?  though I can appreciate that concern. Russia meddled in our elections, our president seems ok with that.'
p679
S'11:51 AM - 22 Sep 2017'
p680
tp681
a(S"Dotard's at it again. Russia collusion is not a hoax, climate change is not a hoax, Dotard is a hoax. Kim Jong-Un better person than DJT pic.twitter.com/Cx9pqcVOQX"
p682
S'11:50 AM - 22 Sep 2017'
p683
tp684
a(S'Should Republican Lawmakers Participating in Anti-Trump Russia Collusion Witch Hunt Be Primaried from Office? http://www.thegatewaypundit.com/2017/09/point-republican-lawmakers-participating-anti-trump-witch-hunt-primaried-office/\xc2\xa0\xe2\x80\xa6'
p685
S'11:49 AM - 22 Sep 2017'
p686
tp687
a(S'Only good thing coming out of Trump is that tens will be indicted for collusion w/Russia, obstruction, and GOP will be cleaned out'
p688
S'11:46 AM - 22 Sep 2017'
p689
tp690
a(S'Should Republicans Participating in Anti-Trump Russia Collusion Witch Hunt Be Primaried from Office? Hell YES! http://www.thegatewaypundit.com/2017/09/point-republican-lawmakers-participating-anti-trump-witch-hunt-primaried-office/\xc2\xa0\xe2\x80\xa6'
p691
S'11:45 AM - 22 Sep 2017'
p692
tp693
a(S'Corrupt Obama regime engaged all intelligence agencies to spy on Trump campaign. Russia Collusion is a fraud. Used to cover criminal spying!'
p694
S'11:45 AM - 22 Sep 2017'
p695
tp696
a(S"You truly don't believe in his ties to Russia? His sexism with the vaginagate, his son's clear collusion his super shitty healthcare bill??"
p697
S'11:44 AM - 22 Sep 2017'
p698
tp699
a(S'American Patriot Daily \xe2\x80\x93 This Leak Just Ended The Russia Collusion Story And No One Could Believe It http://www.americanpatriotdaily.com/featured/leak-just-ended-the-russia-collusion-story/\xc2\xa0\xe2\x80\xa6'
p700
S'11:42 AM - 22 Sep 2017'
p701
tp702
a(S"Chris Matthews: Trump-Russia collusion theory 'came apart' with Comey testimony http://ref.gl/2ioRLO8Y\xc2\xa0"
p703
S'11:40 AM - 22 Sep 2017'
p704
tp705
a(S"Trump/Russia COLLUSION is a hoax & I agree. Clinton used Russia for the fake dossier, there's your Russia connection."
p706
S'11:38 AM - 22 Sep 2017'
p707
tp708
a(S'@realDonaldTrump Your arguments hold no water & only show your guilt in collusion w/foreign countries & against US. Resign, move to Russia.'
p709
S'11:34 AM - 22 Sep 2017'
p710
tp711
a(S'Russia is real. Collusion is real. The only fakery is #FakePrez. The election should be overturned. #ImpeachTrump'
p712
S'11:30 AM - 22 Sep 2017'
p713
tp714
a(S"Its called justification by comparison to make 45's collusion with Russia and subsequent obstruction look mild and non actionable."
p715
S'11:30 AM - 22 Sep 2017'
p716
tp717
a(S'Yep...that will prove Russia pre election collusion....what an evil b...thats the deep state that wants to destroy our Republic'
p718
S'11:29 AM - 22 Sep 2017'
p719
tp720
a(S'"#Russia" -- #ObamaGate \n... much better - note as mentioned before he is smack-dab in the middle of collusion wrt. dodgy dossier (RIS).'
p721
S'11:28 AM - 22 Sep 2017'
p722
tp723
a(S'Russia what? Are you talking about your collusion theory? Or are you talking about election meddling? Clarify your headline.'
p724
S'11:25 AM - 22 Sep 2017'
p725
tp726
a(S'Maxine Waters and Nancy Pelosi had Seth Rich killed in Washington and both have taken money from Russia, here is your collusion'
p727
S'11:25 AM - 22 Sep 2017'
p728
tp729
a(S'Lol what about all those Russian hacks that stole voter data, also mueller is investigating collusion with russia not direct Russian hacking'
p730
S'11:25 AM - 22 Sep 2017'
p731
tp732
a(S'This Hollywood Star Keeps Pushing Trump-Russia Collusion Propaganda http://offthewire.com/this-hollywood-star-keeps-pushing-trump-russia-collusion-propaganda/\xc2\xa0\xe2\x80\xa6'
p733
S'11:25 AM - 22 Sep 2017'
p734
tp735
a(S'BREAKING: Nibiru is on a "collusion" path with Russia. #PlanetX'
p736
S'11:23 AM - 22 Sep 2017'
p737
tp738
a(S'Just stop with the false narrative! You know that Trump was saying the liberal lies about his collusion w/Russia is a hoax. Pathetic CNN.'
p739
S'11:22 AM - 22 Sep 2017'
p740
tp741
a(S"As the Russia collusion gets closer, he'll make sure we enter war."
p742
S'11:21 AM - 22 Sep 2017'
p743
tp744
a(S'#Russia #Collusion #BarackObama #duplicity https://twitter.com/pamela_sharky13/status/911291857870745601\xc2\xa0\xe2\x80\xa6'
p745
S'11:17 AM - 22 Sep 2017'
p746
tp747
a(S'Should Republican Lawmakers Participating in Anti-Trump Russia Collusion Witch Hunt Be Primaried from Office? http://www.thegatewaypundit.com/2017/09/point-republican-lawmakers-participating-anti-trump-witch-hunt-primaried-office/\xc2\xa0\xe2\x80\xa6'
p748
S'11:17 AM - 22 Sep 2017'
p749
tp750
a(S'your brain problems has clouded your judgement resign now.  An what is this news about you in collusion with Russia mmmm'
p751
S'11:16 AM - 22 Sep 2017'
p752
tp753
a(S'@POTUS \n\nTIME TO ARREST COMEY & MUELLER, SEEMS THEY HAD THIS RUSSIA-COLLUSION STORY IN THE BAG FOR ALONG TIME! Amen! \xd7\x91\xd7\x95\xd7\x91\xd7\x99'
p754
S'11:16 AM - 22 Sep 2017'
p755
tp756
a(S'Trump doesn\'t merely deny collusion with Russia, as one might expect. He seems to deny the fact of Russian interference ("the Russia hoax")'
p757
S'11:11 AM - 22 Sep 2017'
p758
tp759
a(S'This Hollywood Star Keeps Pushing Trump-Russia Collusion Propaganda http://offthewire.com/this-hollywood-star-keeps-pushing-trump-russia-collusion-propaganda/\xc2\xa0\xe2\x80\xa6'
p760
S'11:10 AM - 22 Sep 2017'
p761
tp762
a(S'Made up the Trump Russia collusion?'
p763
S'11:09 AM - 22 Sep 2017'
p764
tp765
a(S"Your #Russia #Collusion denials lose credibility when you try to discredit unarguable facts.\nMaybe #KimJongUn is right - you're a #dotard!"
p766
S'11:08 AM - 22 Sep 2017'
p767
tp768
a(S'#LITechNews: Why the media is consumed with Trump, Russia collusion story #Russia #Trump #YouTubehttps://longislandtechnologynews.com/2017/07/why-the-media-is-consumed-with-trump-russia-collusion-story/\xc2\xa0\xe2\x80\xa6'
p769
S'11:08 AM - 22 Sep 2017'
p770
tp771
a(S"Crazy blizzard! Dianne Feinstein and Maxine Waters both said there's no evidence of collusion between the Trump campaign and Russia. NUTS!"
p772
S'11:08 AM - 22 Sep 2017'
p773
tp774
a(S"DON'T FORGET THE COLLUSION WITH RUSSIA LITTLE DOTARD!"
p775
S'11:06 AM - 22 Sep 2017'
p776
tp777
a(S'Rachel Maddow Traces the Russia Collusion Scandal Back to the Republican National Convention | Alternet http://www.alternet.org/investigations/rachel-maddow-traces-russia-collusion-scandal-back-republican-national-convention\xc2\xa0\xe2\x80\xa6'
p778
S'11:05 AM - 22 Sep 2017'
p779
tp780
a(S"I know. If it walks like a duck, and quacks like a duck, it's collusion with Russia."
p781
S'11:04 AM - 22 Sep 2017'
p782
tp783
a(S"Besides the collusion with Russia, Trump is a failure. Read this list and tell me he's not a failure. https://twitter.com/brianklaas/status/910228529626968065\xc2\xa0\xe2\x80\xa6"
p784
S'11:03 AM - 22 Sep 2017'
p785
tp786
a(S'$100 to charity of winners choice. If a grand jury indicts any member of Trumps campaign team for collusion with Russia. Receipt posted.'
p787
S'11:01 AM - 22 Sep 2017'
p788
tp789
a(S'That\'s it exactly. It\'s his "go-to" response whenever they hit on evidence of his collusion with Russia.'
p790
S'10:57 AM - 22 Sep 2017'
p791
tp792
a(S'lying crooked trump I\xe2\x80\x99ll dance the night when Mueller & his dream team reveals ur russia collusion act...Impeach45 & LOCK HIM UP '
p793
S'10:54 AM - 22 Sep 2017'
p794
tp795
a(S'BOMBSHELL !NO RUSSIA COLLUSION! DNC HACK PROVEN BY METADATA EXPERTS AND WIKI LEAKS TO BE A LEAK. YET TAXPAYER FRAUD CONTINUES BY LOSERS'
p796
S'10:53 AM - 22 Sep 2017'
p797
tp798
a(S'No his collusion with Russia, that makes him my enemy.'
p799
S'10:51 AM - 22 Sep 2017'
p800
tp801
a(S'Lol spoken like a true liberal. "Its not over" been almost a year. Only collusion is between Facebook and Russia, DNC and Hillary.'
p802
S'10:50 AM - 22 Sep 2017'
p803
tp804
a(S"He's running for 2020 so he can pay lawyers to cover up collusion with Russia. Who's the biggest loser, him or you? #TryGoogleSometimepic.twitter.com/fSOKtUtd3W"
p805
S'10:49 AM - 22 Sep 2017'
p806
tp807
a(S"It's a pretty pathetic accuse for the DNC. Real collusion was between FB and Russia, russia did pay for the ads? FB benefitted financially."
p808
S'10:48 AM - 22 Sep 2017'
p809
tp810
a(S'It seems like the left & old Obama admin holdovers using "meddling" instead of collusion or hacking when referring to Russia "investigation"'
p811
S'10:48 AM - 22 Sep 2017'
p812
tp813
a(S'The last gasps of the Russia collusion narrative'
p814
S'10:43 AM - 22 Sep 2017'
p815
tp816
a(S'Should Republican Lawmakers Participating in Anti-Trump Russia Collusion Witch Hunt Be Primaried from Office? http://www.thegatewaypundit.com/2017/09/point-republican-lawmakers-participating-anti-trump-witch-hunt-primaried-office/\xc2\xa0\xe2\x80\xa6'
p817
S'10:41 AM - 22 Sep 2017'
p818
tp819
a(S"Every day we have more proof of Trump's collusion with Russia. Russia is taking over & you STILL just whine about Hillary. You need help."
p820
S'10:41 AM - 22 Sep 2017'
p821
tp822
a(S'there has been no evidence of Russia collusion as it has all been disproven.'
p823
S'10:41 AM - 22 Sep 2017'
p824
tp825
a(S'This Hollywood Star Keeps Pushing Trump-Russia Collusion Propaganda http://offthewire.com/this-hollywood-star-keeps-pushing-trump-russia-collusion-propaganda/\xc2\xa0\xe2\x80\xa6 via @anteksiler'
p826
S'10:41 AM - 22 Sep 2017'
p827
tp828
a(S"Hey Joe, Given 78K margin and what we know, it took 3 things: Russia's massive effort; Trump & team's collusion with Russia; Comey's letter. https://twitter.com/JoeNBC/status/911244097071075330\xc2\xa0\xe2\x80\xa6"
p829
S'10:39 AM - 22 Sep 2017'
p830
tp831
a(S"oh yeah thats right, an ad I didn't see on face book made me vote my vote. You all are outside your minds!! Face book/Russia Collusion? next"
p832
S'10:37 AM - 22 Sep 2017'
p833
tp834
a(S"WTF does media coverage of clinton have to do with your campaign's collusion with Russia???"
p835
S'10:36 AM - 22 Sep 2017'
p836
tp837
a(S'Nobody buys the #trump #russia collusion theory anymore.. No sale !'
p838
S'10:35 AM - 22 Sep 2017'
p839
tp840
a(S'@robreiner finally at end of segment we found out the truth behind ur war . DT not Russia or China collusion . https://twitter.com/foxnews/status/910995601948524544\xc2\xa0\xe2\x80\xa6'
p841
S'10:34 AM - 22 Sep 2017'
p842
tp843
a(S'True. If Hillary would have won the election we would have heard nothing more about Russia collusion or never known about Facebook ads'
p844
S'10:33 AM - 22 Sep 2017'
p845
tp846
a(S'And the sitting president is under investigation for collusion with Russia.'
p847
S'10:33 AM - 22 Sep 2017'
p848
tp849
a(S'Russian interference meant nothing to Obama till Trump won. He knew spying story wd get out. Russia collusion = cover for spying. https://twitter.com/thebradfordfile/status/911106217124151296\xc2\xa0\xe2\x80\xa6'
p850
S'10:32 AM - 22 Sep 2017'
p851
tp852
a(S'trying to start a war with Russia??? all fake news trying to justify this Russian collusion krap!! @POTUSpic.twitter.com/mqoZykhWmE'
p853
S'10:31 AM - 22 Sep 2017'
p854
tp855
a(S"What does YOUR collusion with Russia have to do with Hillary? Damn you're obsessed with her. Napoleon Complex....It's pretty obvious!"
p856
S'10:31 AM - 22 Sep 2017'
p857
tp858
a(S'In what way was the bogus election of @realDonaldTrump and @VP NOT a Russia-sponsored coup? #TrumpRussia #PenceRussia #collusion @conspiracy'
p859
S'10:29 AM - 22 Sep 2017'
p860
tp861
a(S'Russia is great contry but no collusion!'
p862
S'10:27 AM - 22 Sep 2017'
p863
tp864
a(S'Yeah, bernie is garbage, but Mueller has states attorney\xe2\x80\x99s involved on trump\xe2\x80\x99s collusion with Russia.'
p865
S'10:27 AM - 22 Sep 2017'
p866
tp867
a(S'Retweeted StrongWomenLoveTrump (@mcgilh):\n\nRetweet if  GOP Lawmakers Participating in Anti-Trump Russia Collusion... http://fb.me/1lcjpUoTy\xc2\xa0'
p868
S'10:23 AM - 22 Sep 2017'
p869
tp870
a(S"Yes let's wait and see about Wasserman Schultz, Hillary's emails, Hillary's collusion with Russia not trumps... 33% of our uranium reserves"
p871
S'10:21 AM - 22 Sep 2017'
p872
tp873
a(S"It's NOT bias to be concerned about Russia collusion and want answers. It's NOT bias to distrust someone who's been caught in many lies."
p874
S'10:20 AM - 22 Sep 2017'
p875
tp876
a(S'Stop deflecting. Address your collusion with Russia & release your taxes #resist #RacistTrump #TrumpRussia #ImpeachTrump #ImpeachTrump'
p877
S'10:19 AM - 22 Sep 2017'
p878
tp879
a(S'Where\'s this "Russia collusion" proof? You don\'t have any, thus it didn\'t happen, stop spreading #FakeNews'
p880
S'10:18 AM - 22 Sep 2017'
p881
tp882
a(S"Fox political experts say that Trump's collusion with Russia could be considered a crime."
p883
S'10:18 AM - 22 Sep 2017'
p884
tp885
a(S'This Hollywood Star Keeps Pushing Trump-Russia Collusion Propaganda \xe2\x80\x93 Off the Wire http://offthewire.com/this-hollywood-star-keeps-pushing-trump-russia-collusion-propaganda/\xc2\xa0\xe2\x80\xa6'
p886
S'10:18 AM - 22 Sep 2017'
p887
tp888
a(S'Why would FBI warn Trump? They were all in collusion for Hillary to win.  The whole Russia hoax was designed by obama'
p889
S'10:16 AM - 22 Sep 2017'
p890
tp891
a(S'The New Yorker Radio Hour: Hillary Clinton on the \xe2\x80\x9cClear and Present Danger\xe2\x80\x9d of Collusion with Russia https://overcast.fm/+FZsukLov0\xc2\xa0'
p892
S'10:16 AM - 22 Sep 2017'
p893
tp894
a(S"Here's a 30 second clip of ACTUAL collusion with Russia.  #InconvenientTruthhttps://youtu.be/XsFR8DbSRQE\xc2\xa0"
p895
S'10:16 AM - 22 Sep 2017'
p896
tp897
a(S"@TuckerCarlson was 2 kind 2 @robreiner. Caught him in a HUGE LIE. Peddling the RUSSIA COLLUSION BS. YA, CHINA GOUD. Holywd fools don't C."
p898
S'10:16 AM - 22 Sep 2017'
p899
tp900
a(S"Mueller knows no smoking gun re @POTUS Russia collusion he's trying as did Comey to collect dirt 2/feed narrative Trump+Co must be impeached"
p901
S'10:15 AM - 22 Sep 2017'
p902
tp903
a(S"So when is Zuckerberg getting indicted for collusion with Russia? I can't see any way this is legal. https://twitter.com/thegarance/status/911262390641217536\xc2\xa0\xe2\x80\xa6"
p904
S'10:15 AM - 22 Sep 2017'
p905
tp906
a(S' @SenJohnMcCain looks like ur about 2get exposed 4ur dirty secrets of collusion w FBI&false Russia narrative #OnceATraitorAlwaysA Traitor'
p907
S'10:12 AM - 22 Sep 2017'
p908
tp909
a(S"They wanna get rid of Trump\nThat's why? \nThis whole Russia Collusion is a political game that will never go away until Trumps out of office"
p910
S'10:12 AM - 22 Sep 2017'
p911
tp912
a(S'Obama-era WH, DOJ, Comey, RINO collusion \n\nGrassley to FBI: Did you try to warn Trump about Russia? http://politi.co/2xmaRe7\xc2\xa0 via @politico'
p913
S'10:12 AM - 22 Sep 2017'
p914
tp915
a(S"Actually, they're complicit in the Russia collusion. They have no choice but to defend. ROBERT MUELLER."
p916
S'10:09 AM - 22 Sep 2017'
p917
tp918
a(S'As Russia probe turns to fake Facebook ads, Trump follows with a tweet. Even FBI Director Wray says there is NO evidence Russian collusion'
p919
S'10:09 AM - 22 Sep 2017'
p920
tp921
a(S"OK Helen, I thought you might still have an American patriotic bone left in you, but you're clearly OK with Russia/Trump collusion. Bye."
p922
S'10:08 AM - 22 Sep 2017'
p923
tp924
a(S'Past due! Evidence of collusion with Russia or at least how much he owes Putin and Co. https://twitter.com/Impeach_D_Trump/status/910833491222331392\xc2\xa0\xe2\x80\xa6'
p925
S'10:06 AM - 22 Sep 2017'
p926
tp927
a(S'Rachel Maddow Traces the Russia Collusion Scandal Back to the Republican National Convention @alternethttp://www.alternet.org/investigations/rachel-maddow-traces-russia-collusion-scandal-back-republican-national-convention\xc2\xa0\xe2\x80\xa6'
p928
S'10:05 AM - 22 Sep 2017'
p929
tp930
a(S'Studies have already shown that media coverage favored you, not Hillary. Stop trying to distract from your collusion with Russia.'
p931
S'10:03 AM - 22 Sep 2017'
p932
tp933
a(S'U have less proof of what u believe about \xe2\x80\x9cratio\xe2\x80\x9d than u have of DT\xe2\x80\x99s Russia collusion yet u only CHOOSE not 2 connect the dots w/Trump. '
p934
S'10:01 AM - 22 Sep 2017'
p935
tp936
a(S'The real solution was an expansion of Medicaid, or God forbid, single payer. Why are our political leaders so stupid? #russia #collusion https://twitter.com/vp/status/911261702532059136\xc2\xa0\xe2\x80\xa6'
p937
S'9:59 AM - 22 Sep 2017'
p938
tp939
a(S'It is not difficult to figure out when he is saying hoax he is referring to the Trump/Russia collusion part.  It is you that conflates the 2'
p940
S'9:57 AM - 22 Sep 2017'
p941
tp942
a(S'It\'s what you and the media are implying. Russia always "tries" to interfere in our elections but you don\'t say that. You imply collusion.'
p943
S'9:56 AM - 22 Sep 2017'
p944
tp945
a(S"There's TONS of evidence for GOP collusion with Russia you imbecile !!! https://twitter.com/ScandalsRUs/status/904956261149556736\xc2\xa0\xe2\x80\xa6"
p946
S'9:54 AM - 22 Sep 2017'
p947
tp948
a(S"Trump's dangerous denialism on Russia @CNNPolitics http://cnn.it/2xljA2i\xc2\xa0\nLOOKS MORE LIKE COLLUSION, COVER-UP, & OBSTRUCTION THAN DENIAL"
p949
S'9:54 AM - 22 Sep 2017'
p950
tp951
a(S"Still 0 proof of Russia collusion, which even shitstain Toobin says isn't a crime. Still waiting for your apology to Levin....."
p952
S'9:51 AM - 22 Sep 2017'
p953
tp954
a(S'First, Russia isn\xe2\x80\x99t a hoax. Second, media coverage is far different than collusion. Perhaps you should invest in a dictionary. #DotardTrump'
p955
S'9:51 AM - 22 Sep 2017'
p956
tp957
a(S'there was NO contact with Russia. OK, there WAS contact, NO collusion. collusion is NOT a crime, right? tell me about my pardon '
p958
S'9:49 AM - 22 Sep 2017'
p959
tp960
a(S"@MSNBC @CNN Trump keeps denying his collusion with Russia, but now he changed regs so lobbyists can pay for his and his son's legal fees!"
p961
S'9:49 AM - 22 Sep 2017'
p962
tp963
a(S'@realdonaldjtrump if it has nothing to with Russia collusion Mueller should face charges himself its noncence from the start.'
p964
S'9:48 AM - 22 Sep 2017'
p965
tp966
a(S'I never believed the Russia Collusion Story.'
p967
S'9:47 AM - 22 Sep 2017'
p968
tp969
a(S"#Mueller's far exceeded Russia Collusion & @AGJeffBSession knows it.  Sessions should fire #Rosenstein & Mueller for collusion."
p970
S'9:46 AM - 22 Sep 2017'
p971
tp972
a(S"Except no one has ever said Russia didn't try to influence. Charges of #Trump collusion, however, are laughable at best. #FakeNewshttps://twitter.com/brianstelter/status/911269889620426752\xc2\xa0\xe2\x80\xa6"
p973
S'9:46 AM - 22 Sep 2017'
p974
tp975
a(S"It's About time!Where they been all my life? In deference to FBI,Trump Russia election win, laundering, collusion, & treason do come first"
p976
S'9:42 AM - 22 Sep 2017'
p977
tp978
a(S'Lets make a deal Maxine. If Trumps gets prosecuted & convicted of collusion w/ Russia he steps down. If not, you step down. I like the odds.'
p979
S'9:42 AM - 22 Sep 2017'
p980
tp981
a(S"Yea, This Russia/Trump Collusion Fake News Story Has All But Run It's Course. Time For Liberals To Began The Old TAX RETURN Narrative Again!"
p982
S'9:40 AM - 22 Sep 2017'
p983
tp984
a(S"Donald Trump's supporters spread disinformation in collusion with Russia. Anyway, she's the President."
p985
S'9:40 AM - 22 Sep 2017'
p986
tp987
a(S'MAKE AMERICA FREE AGAIN! IMPEACH THIS TRAITOR! NO COLLUSION OR BUSINESS TIES, U R SUCH A JOKER. LOL RUSSIA LOANED U MONEY IN 2008 COLLAPSE! pic.twitter.com/MYZLdibtN6'
p988
S'9:40 AM - 22 Sep 2017'
p989
tp990
a(S'The "Russia hoax" is clearly true or you wouldn\'t be trying to spread fake news about it. Collusion, money laundering, who know what else?'
p991
S'9:38 AM - 22 Sep 2017'
p992
tp993
a(S'Dems and Old Media Creating Conflict Between USA and Russia with Collusion Meme - http://www.vivaliberty.com/dems-and-old-media-creating-conflict-between-usa-and-russia-with-their-collusion-meme/\xc2\xa0\xe2\x80\xa6'
p994
S'9:38 AM - 22 Sep 2017'
p995
tp996
a(S'He was in collusion with Russia to influence the election in the United States. https://twitter.com/made__usa/status/911212171513729024\xc2\xa0\xe2\x80\xa6'
p997
S'9:38 AM - 22 Sep 2017'
p998
tp999
a(S'Omg stop! Ur collusion with Russia is real! And Facebook was involved! U r the crooked one not @HillaryClinton she has been wrongly Vilified'
p1000
S'9:38 AM - 22 Sep 2017'
p1001
tp1002
a(S'Rachel Maddow Traces the Russia Collusion Scandal Back to the Republican National Convention @alternethttp://www.alternet.org/investigations/rachel-maddow-traces-russia-collusion-scandal-back-republican-national-convention#.WcU79PXiC4Y.twitter\xc2\xa0\xe2\x80\xa6'
p1003
S'9:36 AM - 22 Sep 2017'
p1004
tp1005
a(S'Should Republican Lawmakers Participating in Anti-Trump Russia Collusion Witch Hunt Be Primaried from Office? ..YES http://www.thegatewaypundit.com/2017/09/point-republican-lawmakers-participating-anti-trump-witch-hunt-primaried-office/\xc2\xa0\xe2\x80\xa6'
p1006
S'9:34 AM - 22 Sep 2017'
p1007
tp1008
a(S"Here's your Russia Collusion story pic.twitter.com/t5HdykYRMy"
p1009
S'9:34 AM - 22 Sep 2017'
p1010
tp1011
a(S'An important article from Australian showcasing collusion btwn Russia and Trumpers\n@TulsaDemocrats @UniteBlueOK @HouseDemsOKhttps://twitter.com/chrizap/status/758224177220366336\xc2\xa0\xe2\x80\xa6'
p1012
S'9:34 AM - 22 Sep 2017'
p1013
tp1014
a(S'Rachel @maddow @MSNBC Traces The Russia Collusion Scandal Back To The Republican National Convention.\nhttp://www.alternet.org/investigations/rachel-maddow-traces-russia-collusion-scandal-back-republican-national-convention\xc2\xa0\xe2\x80\xa6 #UniteBlue'
p1015
S'9:33 AM - 22 Sep 2017'
p1016
tp1017
a(S"worst part of this tweet is that he isn't defending himself from a collusion accusation, he's literally defending Russia/Putin. #TrumpRussiahttps://twitter.com/realDonaldTrump/status/911179462745710593\xc2\xa0\xe2\x80\xa6"
p1018
S'9:33 AM - 22 Sep 2017'
p1019
tp1020
a(S"Sorry, that was your campaign's collusion with Russia!! #TrumpCrimeFamily #TrumpRussia #LockThemUp"
p1021
S'9:33 AM - 22 Sep 2017'
p1022
tp1023
a(S'Are there prediction markets for: 1 or more Trump campaign member(s) will be convicted on conspiracy charges (re collusion w/ Russia)?'
p1024
S'9:33 AM - 22 Sep 2017'
p1025
tp1026
a(S"Hope you're investigating the Democrats. The only collusion was Obama Admin and Russia to try to oust @realDonaldTrump !https://twitter.com/robreiner/status/910134400825913344\xc2\xa0\xe2\x80\xa6"
p1027
S'9:32 AM - 22 Sep 2017'
p1028
tp1029
a(S'"The Russia-Trump collusion story is a total hoax, when will this taxpayer-funded charade end?" - DT. That was a good one, huh? https://twitter.com/brontyman/status/911265218843381760\xc2\xa0\xe2\x80\xa6'
p1030
S'9:32 AM - 22 Sep 2017'
p1031
tp1032
a(S'GOP gerrymandering, voter suppression of minorities , collusion with Russia caused the "victory " of  that abomination Trump !!!! https://twitter.com/PrimoPolls/status/907497437996105729\xc2\xa0\xe2\x80\xa6'
p1033
S'9:31 AM - 22 Sep 2017'
p1034
tp1035
a(S"Don't let @realdonaldtrump @potus manufactured crisis take your mind of #Russia #collusion"
p1036
S'9:31 AM - 22 Sep 2017'
p1037
tp1038
a(S'What about your lies to the American people? What about your collusion with Russia? #ImpeachTrump #Resist #TrumpRussia #TrumpResign'
p1039
S'9:30 AM - 22 Sep 2017'
p1040
tp1041
a(S'Russia.  & collusion.'
p1042
S'9:28 AM - 22 Sep 2017'
p1043
tp1044
a(S'"My advisors tell me my collusion with Russia to influence the 2016 election may be a liability when I run for President in 2020, sooooo\xe2\x80\xa6" https://twitter.com/Complex_News/status/910970306038288385\xc2\xa0\xe2\x80\xa6'
p1045
S'9:28 AM - 22 Sep 2017'
p1046
tp1047
a(S'I love "watching" Trump collude with Russia to hide Trump\'s collusion with Russia.'
p1048
S'9:26 AM - 22 Sep 2017'
p1049
tp1050
a(S'Scientist discovers new trick that will uncover the secrets to the Russia/Trump collusion.... idiots. https://twitter.com/realDonaldTrump/status/911179462745710593\xc2\xa0\xe2\x80\xa6'
p1051
S'9:25 AM - 22 Sep 2017'
p1052
tp1053
a(S"and what does having those add'l docs do for the case of trump and russia 2016 election collusion?"
p1054
S'9:24 AM - 22 Sep 2017'
p1055
tp1056
a(S'Stop trying to deflect-media is closing in on your collusion efforts with Russia to sway the 2016 election- yr lack of scruples is appalling'
p1057
S'9:24 AM - 22 Sep 2017'
p1058
tp1059
a(S'The Russia hoax, perpetuated by Trump, that there was no collusion is  being pushed because DT knows he is deep, deep trouble. #toxictrump'
p1060
S'9:23 AM - 22 Sep 2017'
p1061
tp1062
a(S"Don't you just love how everyone believes that @POTUS colluded with Russia, but fail to look at the Collusion obama, Killery & Dems Did, Wow"
p1063
S'9:22 AM - 22 Sep 2017'
p1064
tp1065
a(S'#MSM of course never self reflected on their collusion w->@HillaryClinton or defeat went straight for Russia interference/undermining @POTUS'
p1066
S'9:22 AM - 22 Sep 2017'
p1067
tp1068
a(S'Should Republican Lawmakers Participating in Anti-Trump Russia Collusion Witch Hunt Be Primaried from Office?  YES http://www.thegatewaypundit.com/2017/09/point-republican-lawmakers-participating-anti-trump-witch-hunt-primaried-office/\xc2\xa0\xe2\x80\xa6'
p1069
S'9:21 AM - 22 Sep 2017'
p1070
tp1071
a(S"I love watching watching Trump collude with Russia to hide Trump's collusion with Russia."
p1072
S'9:19 AM - 22 Sep 2017'
p1073
tp1074
a(S'No, those are witch hunts and fake news. Sure. The investigation keeps finding more evidence of collusion b/w your campaign & Russia. Sad!'
p1075
S'9:19 AM - 22 Sep 2017'
p1076
tp1077
a(S'You were bad candidate and you rigged election with Russia collusion. #FakePresident #InvalidElection #DoOver'
p1078
S'9:18 AM - 22 Sep 2017'
p1079
tp1080
a(S'But what\'s the "fake" Russia story you\'re blathering on about? It\'s not fake they interfered, big time. As to your collusion?'
p1081
S'9:17 AM - 22 Sep 2017'
p1082
tp1083
a(S'Rachel Maddow Traces the Russia Collusion Scandal Back to the Republican National Convention http://www.alternet.org/investigations/rachel-maddow-traces-russia-collusion-scandal-back-republican-national-convention\xc2\xa0\xe2\x80\xa6'
p1084
S'9:14 AM - 22 Sep 2017'
p1085
tp1086
a(S"Your collusion with Russia, to win our election, isn't a hoax. You're presidency is a hoax!"
p1087
S'9:13 AM - 22 Sep 2017'
p1088
tp1089
a(S"What about your treasonous collusion with Russia?! You're going down and REAL AMERICANS cannot wait!! \n#TrumpRussia\n#TrumpTreasonhttps://twitter.com/TalbertSwan/status/911180319025442816\xc2\xa0\xe2\x80\xa6"
p1090
S'9:12 AM - 22 Sep 2017'
p1091
tp1092
a(S'STOP IT ALREADY! Always trying to not be accountable for your part in the collusion with Russia.'
p1093
S'9:10 AM - 22 Sep 2017'
p1094
tp1095
a(S'As oppose to supporting actual treason and collusion with Russia? Roll on #MullerTime'
p1096
S'9:09 AM - 22 Sep 2017'
p1097
tp1098
a(S"No matter how many times you say it won't make it true. Hillary was best candidate. You and Russia knew it. Collusion. Conspiracy. Con man."
p1099
S'9:07 AM - 22 Sep 2017'
p1100
tp1101
a(S'Will go higher with tax bill and collapse of Russia/collusion investigation.  Plus, he is clearly learning fast.'
p1102
S'9:06 AM - 22 Sep 2017'
p1103
tp1104
a(S'It\xe2\x80\x99s no hoax, and you know it. Face it: you lost by a couple of million votes...to a woman...despite your collusion with Russia. Loser! Sad.'
p1105
S'9:06 AM - 22 Sep 2017'
p1106
tp1107
a(S'Your collusion with Russia, money laundering and profiting off the presidency makes Hillary Clinton look like Mother Theresa. Impeach now!'
p1108
S'9:06 AM - 22 Sep 2017'
p1109
tp1110
a(S'Umm. Try your collusion w Russia. Russian hacking and Fb and twitter troll farms from your boy putin and manafort. U said it was rigged!'
p1111
S'9:05 AM - 22 Sep 2017'
p1112
tp1113
a(S"Can't wait to see you in an orange jumpsuit. It should really bring out your skin tone! #Collusion #Obstruction #Dotard #Russia #Impeach"
p1114
S'9:04 AM - 22 Sep 2017'
p1115
tp1116
a(S'Should Republican Lawmakers Participating in Anti-Trump Russia Collusion Witch Hunt Be Primaried from Office? http://www.thegatewaypundit.com/2017/09/point-republican-lawmakers-participating-anti-trump-witch-hunt-primaried-office/\xc2\xa0\xe2\x80\xa6'
p1117
S'9:01 AM - 22 Sep 2017'
p1118
tp1119
a(S"You want to know about the real collusion? Hillary sold 60% of America's uranium to Russia.She should be tried for treason!"
p1120
S'9:00 AM - 22 Sep 2017'
p1121
tp1122
a(S'Russia Collusion Probe May Implicate One Of The Biggest Names In Law http://www.Lucianne.com/thread/?artnum=923434\xc2\xa0\xe2\x80\xa6'
p1123
S'9:00 AM - 22 Sep 2017'
p1124
tp1125
a.