(lp0
(S'BREAKING: Rep Adam Schiff just announced that the Republicans on the House Intelligence Committee have opened an investigation of the FBI and the Department of Justice in order to undermine Mueller\xe2\x80\x99s investigation of Trump\xe2\x80\x99s collusion with Russia.\n#Watergate'
p1
S'3:23 PM - 29 Jan 2018'
p2
tp3
a(S'Oh my.  Collusion with Russia. https://fb.me/1avbahtrP\xc2\xa0'
p4
S'12:19 PM - 27 Jan 2018'
p5
tp6
a(S'Guardian reports a SECOND Trump Dossier by veteran journalist. Very similar to Steele Dossier.  https://www.theguardian.com/us-news/2018/jan/30/trump-russia-collusion-fbi-cody-shearer-memo\xc2\xa0\xe2\x80\xa6'
p7
S'10:09 AM - 30 Jan 2018'
p8
tp9
a(S'WHOA\n\nFBI has a *second* dossier (by Cody Shearer) that independently corroborates some findings in the #SteeleDossier, including sex-related kompromat on Trump from his trip to #Russiain 2013.\n\n#TrumpRussia\n#ReleaseTheDossier\nhttps://www.theguardian.com/us-news/2018/jan/30/trump-russia-collusion-fbi-cody-shearer-memo?CMP=share_btn_tw\xc2\xa0\xe2\x80\xa6'
p10
S'8:17 AM - 30 Jan 2018'
p11
tp12
a(S'BREAKING NEWS: The FBI is in possession of a SECOND dossier of Trump-Russia intelligence, known colloquially as the "Shearer Dossier," and it may confirm the already-known Steele Dossier. \n\nPer the Guardian, there are indications that the FBI thinks so. https://www.google.com/amp/s/amp.theguardian.com/us-news/2018/jan/30/trump-russia-collusion-fbi-cody-shearer-memo\xc2\xa0\xe2\x80\xa6'
p13
S'10:55 AM - 30 Jan 2018'
p14
tp15
a(S'Whoa -- Christopher Steele provided the FBI with a 2nd dossier on Trump put together by Clinton hatchetman Cody Shearer https://www.theguardian.com/us-news/2018/jan/30/trump-russia-collusion-fbi-cody-shearer-memo\xc2\xa0\xe2\x80\xa6'
p16
S'7:53 AM - 30 Jan 2018'
p17
tp18
a(S'When you are President of the United States and under investigation by the the United States for colluding with Russia what better way to say \xe2\x80\x9cno collusion! No obstruction!\xe2\x80\x9d than to stop another Russia Sanctions Deadline that both chambers of Congress overwhelmingly voted for.'
p19
S'9:37 PM - 29 Jan 2018'
p20
tp21
a(S"We could've avoided all this had you people just accepted the election results rather than trying to impeach our President on an accusation of collusion with Russia that you invented out of whole cloth. pic.twitter.com/kYUCo8Hsie"
p22
S'6:48 PM - 29 Jan 2018'
p23
tp24
a(S"You mean proof of collusion. It's an absolute fact that there was election interference from Russia. That's why the sanctions were voted in favor overwhelmingly by both sides of the aisle."
p25
S'11:29 AM - 30 Jan 2018'
p26
tp27
a(S'\xe2\x80\x9cAmong other things, both documents allege Donald Trump was compromised during a 2013 trip to Moscow that involved lewd acts in a five-star hotel.\xe2\x80\x9d https://www.theguardian.com/us-news/2018/jan/30/trump-russia-collusion-fbi-cody-shearer-memo?CMP=share_btn_tw\xc2\xa0\xe2\x80\xa6'
p28
S'9:26 AM - 30 Jan 2018'
p29
tp30
a(S'"The FBI...has been given a second memo that independently set out some of the same allegations made in a dossier by Christopher Steele, the British former spy."\n\nhttps://www.theguardian.com/us-news/2018/jan/30/trump-russia-collusion-fbi-cody-shearer-memo?CMP=share_btn_tw\xc2\xa0\xe2\x80\xa6'
p31
S'10:01 AM - 30 Jan 2018'
p32
tp33
a(S'2017: "Trump\'s a racist!"\n\n2018: Black unemployment at lowest levels ever\n\n2017: "The economy will never recover!"\n\n2018: Dow smashes 26,000, NASDAQ 7,000\n\n2016: "ISIS is a generational problem"\n\n2017: ISIS crushed in nine months\n\n2017: "RUSSIA COLLUSION!"\n\n2018: #ReleaseTheMemo'
p34
S'7:20 AM - 28 Jan 2018'
p35
tp36
a(S'Now they\xe2\x80\x99re claiming Steele had a SECOND dossier, witten by another Clinton ally! What a scam https://www.theguardian.com/us-news/2018/jan/30/trump-russia-collusion-fbi-cody-shearer-memo\xc2\xa0\xe2\x80\xa6'
p37
S'9:57 AM - 30 Jan 2018'
p38
tp39
a(S"Two dossiers.  No waitin'. \n\nhttps://www.theguardian.com/us-news/2018/jan/30/trump-russia-collusion-fbi-cody-shearer-memo?CMP=share_btn_tw\xc2\xa0\xe2\x80\xa6"
p40
S'8:27 AM - 30 Jan 2018'
p41
tp42
a(S'#GOP=BenedictArnold. GOP, it isn\xe2\x80\x99t going away-most infamous Collusion/Treason in US history. US\xe2\x80\x99s greatest Enemy/Russia infiltrates US &Installs compromised President beholding to them. Fail to protect Mueller now & in 100yrs term Benedict Arnold will be replaced with Republican!'
p43
S'8:04 AM - 27 Jan 2018'
p44
tp45
a(S'Sure, but we were told of treasonous collusion with Russia to steal an election, not legal policy differences from the previous two administrations.'
p46
S'7:47 PM - 29 Jan 2018'
p47
tp48
a(S'Adam Schiff is portrayed by many in the media as a straight shooter. His record in reality is of fanning the flames of every single Trump-Russia collusion allegation out there. h/t @MZHemingwayhttp://thefederalist.com/2018/01/30/adam-schiffs-versions-of-events-are-frequently-false-or-missing-key-details/\xc2\xa0\xe2\x80\xa6'
p49
S'6:42 AM - 30 Jan 2018'
p50
tp51
a(S'BREAKING: \n\n#FBI has second dossier on possible #TrumpRussia collusion.\n\nParts of #SteeleDossier may have been corroborated by #ShearerMemo.\n\n#ReleaseTheMemo #ReleaseTheDocuments #RussiaGate #SOTU\nhttps://www.theguardian.com/us-news/2018/jan/30/trump-russia-collusion-fbi-cody-shearer-memo\xc2\xa0\xe2\x80\xa6'
p52
S'8:17 AM - 30 Jan 2018'
p53
tp54
a(S"Trump Admin\xe2\x80\x99s decision not to enforce sanctions on Russia after passing with bipartisan majorities in Congress is completely unacceptable. It's also pathetically weak. They attacked our democracy, yet @realDonaldTrump won't stand up to them. Definitely no collusion here, folks..."
p55
S'3:41 PM - 30 Jan 2018'
p56
tp57
a(S"Here are the faces of the GOPers on House Intel Committee who voted to release a partisan memo designed to undermine the investigation into Trump's collusion w/ Russia and tarnish the men & women of FBI & DOJ. \n\nWho does this help? Putin. \nWho does this hurt? Americans pic.twitter.com/orjg71ZiAd"
p58
S'6:20 PM - 29 Jan 2018'
p59
tp60
a(S'Devin Nunes: "Well, that ought to keep everybody busy for a news cycle or two..."\nThe Guardian: Hold my second dossier.\n#Scabbers\n#ReleaseTheDemMemo\nhttps://www.theguardian.com/us-news/2018/jan/30/trump-russia-collusion-fbi-cody-shearer-memo?CMP=share_btn_tw\xc2\xa0\xe2\x80\xa6'
p61
S'10:51 AM - 30 Jan 2018'
p62
tp63
a(S'2/ Every time the President says, "No collusion..." think of this day. *Every* American intelligence agency reports that Russia interfered in our election, and *continues* to interfere today via influence operations online, and intel operations on a massive scale.'
p64
S'5:15 PM - 29 Jan 2018'
p65
tp66
a(S'1 President Trump is a traitor. It is time for people to quit buying this "no collusion" BS. Just because he\'s said it 10,000 times doesn\'t make it any more true than "I am not a crook" or "I did not have sexual relations with that woman." He\'s IGNORING sanctions against Russia.'
p67
S'8:31 AM - 30 Jan 2018'
p68
tp69
a(S"Nobody's willing to concretely say what specifically Trump-Russia collusion even *is*. How is any memo supposed to disprove allegations that have never even been defined? Russiagate has no facts you can disprove because it has no facts. It's just a fuzzy feeling Dems get inside."
p70
S'10:44 PM - 27 Jan 2018'
p71
tp72
a(S'1) The Nunez memo shows Rosenstein approved an application to extend surveillance on Carter Page.\n2) Page is currently under investigation by the FBI, CIA, NSA, and other US intelligence agencies for possible collusion with Russia.\n3) Rosenstein was in the wrong because .... ??? https://twitter.com/thinkprogress/status/958222014795472898\xc2\xa0\xe2\x80\xa6'
p73
S'10:24 PM - 29 Jan 2018'
p74
tp75
a(S'Well, a bigot convicted of multiple sexual assaults and collusion between his campaign and Russia, never was fit to be president and so presidential is eternally out of the question. Resignation also isn\xe2\x80\x99t going to happen so lets just hope he doesn\xe2\x80\x99t say anything wildly offensive https://twitter.com/poulterwill/status/958210565645721600\xc2\xa0\xe2\x80\xa6'
p76
S'9:39 PM - 29 Jan 2018'
p77
tp78
a(S'It\xe2\x80\x99s also inspiring to watch Americans stand up against deplorable republican gerrymandering and Trump\xe2\x80\x99s collusion with Russia. https://twitter.com/senjohnmccain/status/957653122805051393\xc2\xa0\xe2\x80\xa6'
p79
S'1:41 PM - 28 Jan 2018'
p80
tp81
a(S'#breaking\nFBI has a second dossier \n\n https://www.theguardian.com/us-news/2018/jan/30/trump-russia-collusion-fbi-cody-shearer-memo\xc2\xa0\xe2\x80\xa6'
p82
S'12:33 PM - 30 Jan 2018'
p83
tp84
a(S"And after I definitively proved Russia collusion and fully exonerated Hillary Clinton, I saw no need to remain at the FBI, my work was done - Things you won't see in the Andrew McCabe resignation letter"
p85
S'12:11 PM - 29 Jan 2018'
p86
tp87
a(S"The REAL Russian Collusion:\n\nPresident Obama's shameless collusion was so obvious, even Putin praised Obama's sellout of our allies as a \xe2\x80\x9cbrave decision.\xe2\x80\x9d\n\nPresident Trump assisted Poland & Ukraine from Russia's threat his first year. #ReleaseTheMemo #SOTUhttps://www.zerohedge.com/news/2018-01-29/year-russian-collusion\xc2\xa0\xe2\x80\xa6"
p88
S'3:42 PM - 30 Jan 2018'
p89
tp90
a(S"At any rate, remember this: \n\n1) there's no real Russia collusion to be found. \n2) Mueller knows this by now\n3) Trump KNOWS Mueller knows this by now\n4) Trump will be ready for any lame attempt at a process violation like a perjury charge\n\n{IF Mueller = Black Hat]"
p91
S'5:06 PM - 26 Jan 2018'
p92
tp93
a(S"Let's see.... Russian bots retweet Trump 500,000 times, and Trump refuses to implement sanctions which aim at stopping Russia from retweeting Trump 500,000 times.  \n\nIsn't that collusion?  Asking for a friend."
p94
S'3:03 PM - 28 Jan 2018'
p95
tp96
a(S'There are multiple dossiers. #TrumPutin\n\nFBI has second dossier on possible Trump-Russia collusion\nhttps://www.theguardian.com/us-news/2018/jan/30/trump-russia-collusion-fbi-cody-shearer-memo?CMP=share_btn_tw\xc2\xa0\xe2\x80\xa6'
p97
S'8:09 AM - 30 Jan 2018'
p98
tp99
a(S'Democrat desperation is schizophrenic insanity.\n\nEven Strzok, the top FBI investigator, revealed in text messages that there was no Trump-Russia collusion. But Mueller & a team of top Democrat lawyers have wasted a year of their lives investigating nothing.\n\n#ReleaseTheMemo #MAGApic.twitter.com/wOBXhkORse'
p100
S'5:48 PM - 27 Jan 2018'
p101
tp102
a(S"All you people panicking about Trump sitting down with Mueller for an interview, I'll just leave this here.......http://dailycaller.com/2018/01/26/source-strzok-hadnt-seen-evidence-of-collusion-after-10-months-on-russia-probe/?utm_source=site-share\xc2\xa0\xe2\x80\xa6"
p103
S'4:19 PM - 26 Jan 2018'
p104
tp105
a(S'Rep. Devin Nunes (R-CA) Holds Press Conference To Discuss Trump Campaign Collusion With Russia pic.twitter.com/0qbUaJTctM'
p106
S'9:01 AM - 29 Jan 2018'
p107
tp108
a(S'\xe2\x80\x9cThe exact degree of collusion between the Trump team and Russia remained shadowy at that time [but] the odor of treason already hung heavy in April.\xe2\x80\x9d \xe2\x80\x94@davidfrum, Trumpocracy'
p109
S'10:37 AM - 27 Jan 2018'
p110
tp111
a(S'Pretty funny that Dems are trying to say that Andrew McCabe was forced out by Trump because of \xe2\x80\x9cRUSSIA COLLUSION\xe2\x80\x9d\n\nOpen your eyes, Democrats. This is just the beginning. McCabe was forced out hours after Wray read the memo\n\nIt\xe2\x80\x99s not too late to jump ship and join the Trump Train!'
p112
S'12:45 PM - 29 Jan 2018'
p113
tp114
a(S'The Democrats and the media still have their sheep fixated on \xe2\x80\x9cTRUMP RUSSIA COLLUSION!!!!\xe2\x80\x9d\n\nThat\xe2\x80\x99s not going to go too well when the FISA memo is released. \n\nThe entire premise of the collusion was on the fake dossier which was funded by DNC & used by Obama Admin to spy on Trump.'
p115
S'2:14 PM - 28 Jan 2018'
p116
tp117
a(S"Wouldn't you know it the #FakeNewsMedia #DeepState #libturds  came out with preposterou second dossier on possible Trump-Russia collusion on the day of #stou.  https://www.msn.com/en-us/news/politics/fbi-has-second-dossier-on-possible-trump-russia-collusion/ar-BBItu9C?li=BBmkt5R&ocid=spartanntp\xc2\xa0\xe2\x80\xa6pic.twitter.com/8mnrSaMkWr"
p118
S'12:49 PM - 30 Jan 2018'
p119
tp120
a(S'As long as we\xe2\x80\x99re releasing memos, how bout this one?\n\nSecond Trump-Russia dossier being assessed by FBI https://www.theguardian.com/us-news/2018/jan/30/trump-russia-collusion-fbi-cody-shearer-memo?CMP=share_btn_tw\xc2\xa0\xe2\x80\xa6'
p121
S'11:08 AM - 30 Jan 2018'
p122
tp123
a(S"RT @KatrinaPierson: '@realDonaldTrump beat @HillaryClinton and all we've heard since is Russia collusion. The people need to know what's in the memo.\xe2\x80\x99 #ReleaseTheMemopic.twitter.com/k2DO9nm44G"
p124
S'10:29 AM - 30 Jan 2018'
p125
tp126
a(S'Not enough credit has been given to this man #Patriots @DevinNunes He got the ball rolling on the Fake @DonaldTrump #Russia collusion narrative and toward Democrats and exposing bogus #TrumpDossier #ReleaseTheMemo http://www.worldtribune.com/one-congressman-turned-the-trump-russia-collusion-narrative-on-its-head/\xc2\xa0\xe2\x80\xa6pic.twitter.com/647dl8fEzL'
p127
S'8:58 AM - 30 Jan 2018'
p128
tp129
a(S'Remember this the next the #Democrats and #MSM\naccuse @realDonaldTrump of Russian #Obstruction, #Collusion. #Russia #ReleaseTheMemo #Treason @RealJamesWoods #SOTU2018 #RussiaGate #ObamaGate #RussianCollusion #FBICorruption #Mueller #SchiffAboutToHitTheFanpic.twitter.com/7hUdbpKV3l'
p130
S'5:05 AM - 30 Jan 2018'
p131
tp132
a(S'98-2.... that was the vote to implement sanctions on Russia! 98-2 is not partisan, so why hasn\xe2\x80\x99t \xe2\x80\x9cno collusion\xe2\x80\x9d Trump followed through? #TrumpRussiaCollusion'
p133
S'4:50 AM - 30 Jan 2018'
p134
tp135
a(S'trump is under investigation for his ties to Russia. He refused to enforce sanctions against Russia that congress almost unanimously voted for. Deadline was same day @GOP voted for BS memo release. Guess @DevinNunes & his partisan hacks wanted in on trump\xe2\x80\x99s collusion party.'
p136
S'3:35 AM - 30 Jan 2018'
p137
tp138
a(S"It will soon come to light that the real collusion wasn't with #Russia - it was the Deep State trying to elect #HillaryClinton and sabotage @realDonaldTrump , @tomborelli tells @MichelleMakoripic.twitter.com/ElR6uQiZ31"
p139
S'6:04 PM - 29 Jan 2018'
p140
tp141
a(S'They started this whole Russia/ collusion story hoping to impeach Trump before they got exposed'
p142
S'5:49 PM - 29 Jan 2018'
p143
tp144
a(S'The House Intelligence Committee voted to #ReleaseTheMemo. Soon, Russia collusion hoaxster, Crooked @RepAdamSchiff should be tossed into a cold slammer for sedition and treason against the USA.pic.twitter.com/SWLtaphVMH'
p145
S'4:43 PM - 29 Jan 2018'
p146
tp147
a(S"The actions today by @SenateGOP members of the #HouseIntelligenceCommittee - combined w. the removal of #McCabe - should lead all thinking people who still care about America to believe that #collusion by @realDonaldTrump w. Russia is much worse than we've even imagined."
p148
S'4:10 PM - 29 Jan 2018'
p149
tp150
a(S"Adam Schiff and the drive-by media are in PANIC MODE right now over the Republicans' vote to #ReleaseTheMemo. They know their Russia collusion narrative is quickly dying and the truth is coming out and they despise that. Their party has been crashed!"
p151
S'3:50 PM - 29 Jan 2018'
p152
tp153
a(S'Donald Trump has been attacked by media for over a year for a Russia collusion scandal that doesn\xe2\x80\x99t exist.\n\nThe #ReleaseTheMemo exists. Hillary\xe2\x80\x99s mishandling classified emails exist. Wasserman-Schultz scandal exists + many more.\n\nWhat does the media talk about?\n\nI see a trend. '
p154
S'2:52 PM - 29 Jan 2018'
p155
tp156
a(S'We\xe2\x80\x99re supposed to believe hostile FBI texts about Trump are just jokes, but the joke Trump said Russia having Hillary\xe2\x80\x98s emails is collusion? pic.twitter.com/l9JAAzAHRJ'
p157
S'2:30 PM - 29 Jan 2018'
p158
tp159
a(S'STUNNING REPORT: FBI Deputy Director #AndrewMcCabe Caught Leaking After Admitting \xe2\x80\x9cTrump-Russia\xe2\x80\x9d Collusion Story Was \xe2\x80\x9cBullsh*t\xe2\x80\x9d! \n\n#ReleaseTheMemo #StateOfTheUnion\n#FISAabuse\n#LockThemUp\n#QAnon\nhttp://www.thegatewaypundit.com/2018/01/stunning-report-fbi-deputy-director-andrew-mccabe-caught-leaking-admitting-trump-russia-collusion-story-bullsht/\xc2\xa0\xe2\x80\xa6 pic.twitter.com/OXl5qOS5Rn'
p160
S'8:38 AM - 29 Jan 2018'
p161
tp162
a(S'"Carter Page"\n\nThe pieces of the Trump Russia collusion is coming together quite nicely. Thank you. pic.twitter.com/FFfd99TRh8'
p163
S'8:23 AM - 29 Jan 2018'
p164
tp165
a(S'.@realDonaldTrump it\xe2\x80\x99s time to pull your head out of Putin\xe2\x80\x99s a$$ and enact the Sanctions you were supposed to by 10/1/2017 and once again they need to be enacted by today. Quit #Colluding with Russia. #Collusion #Treason. #Impeachment'
p166
S'8:22 AM - 29 Jan 2018'
p167
tp168
a(S'REPORT: Andrew McCabe Caught Leaking After Admitting \xe2\x80\x9cTrump-Russia\xe2\x80\x9d Collusion Story Was \xe2\x80\x9cBullsh*t\xe2\x80\x9d\nhttp://www.thegatewaypundit.com/2018/01/stunning-report-fbi-deputy-director-andrew-mccabe-caught-leaking-admitting-trump-russia-collusion-story-bullsht/\xc2\xa0\xe2\x80\xa6pic.twitter.com/Vg4thhiKYJ'
p169
S'8:08 AM - 29 Jan 2018'
p170
tp171
a(S'This is why I knew it was a bad idea to let @DevinNunes look at the results of Trump Russia investigation of the classified information. He has been so irresponsible. Shame on @SpeakerRyan for his "collusion".'
p172
S'6:49 AM - 29 Jan 2018'
p173
tp174
a(S'The liberal-left is acting like this is no big deal, but we all know what would be happening if the shoe was on the other foot.\n\nThese are the ppl that keep complaining about fake collusion with Russia?\n\nDemocrats are the only criminals here. Jail time! http://www.foxnews.com/politics/2018/01/28/gowdy-fbis-strzok-page-should-testify-to-answer-allegations-questions-about-secret-society.html\xc2\xa0\xe2\x80\xa6'
p175
S'1:51 PM - 28 Jan 2018'
p176
tp177
a(S'All the talk about Russia colluding with our politics makes me think why the Russian hackers haven\xe2\x80\x99t leaked the memo yet.  Could it be the fact that there was never any Russian collusion to begin with?  Hmmmm \n#ReleaseTheMemo'
p178
S'9:46 AM - 30 Jan 2018'
p179
tp180
a(S'FBI has second dossier on possible #TrumpRussiaCollusion: The\xc2\xa0FBI inquiry\xc2\xa0into alleged Russian collusion in the 2016 US election has been given a 2nd memo that also set out many of the SAME allegations made by\xc2\xa0C. Steele, the British former spy.#MuellerTimehttps://www.theguardian.com/us-news/2018/jan/30/trump-russia-collusion-fbi-cody-shearer-memo?CMP=share_btn_tw\xc2\xa0\xe2\x80\xa6'
p181
S'8:39 AM - 30 Jan 2018'
p182
tp183
a(S'FBI has second dossier on possible Trump-Russia collusion https://www.theguardian.com/us-news/2018/jan/30/trump-russia-collusion-fbi-cody-shearer-memo?CMP=share_btn_tw\xc2\xa0\xe2\x80\xa6'
p184
S'8:16 AM - 30 Jan 2018'
p185
tp186
a(S'Hillary Clinton wanted to start war with Russia. Trump wanted to defeat terror groups. He did. Since Hillary didn\xe2\x80\x99t win, she & her media cronies are trying to start the war anyway. If you don\xe2\x80\x99t understand this yet & keep pushing \xe2\x80\x9cTrump Russia collusion\xe2\x80\x9d... you\xe2\x80\x99re a f*cking moron.'
p187
S'2:39 AM - 30 Jan 2018'
p188
tp189
a(S'Pelosi a babbling idiot representing & compliant in attempting to aid the Obama/Clinton/FBI/DOJ/Schiff anti-PresTrump Russia Russia Russia collusion hoax that was illegally contrived to persuade the FISA court to allow spying on Americans when in reality NO CRIME WAS COMMITTED.\xe2\x98\x86 pic.twitter.com/fo7Nur01sn'
p190
S'12:33 AM - 30 Jan 2018'
p191
tp192
a(S'House intel Republicans are really scared of double RUSSIA/US agent spy Carter Page. His surveillance tapes have them frantically covering up evidence of Trump\xe2\x80\x99s collusion...so they write a memo they hope will get them a twofer...cover up Page/Russa/Trump and fire Rosenstein. pic.twitter.com/Qa0DOSbFBh'
p193
S'9:23 PM - 29 Jan 2018'
p194
tp195
a(S"It will soon come to light that the real collusion wasn't with #Russia - it was the Deep State trying to elect #HillaryClinton and sabotage #Trump, @tomborelli tells @MichelleMakoripic.twitter.com/mRlS2V5kgz"
p196
S'5:58 PM - 29 Jan 2018'
p197
tp198
a(S"why was a dossier filled with false info used to get a #FISA warrant?? \nwhy are so many FBI agents quitting or being reassigned..??\nwhy is there been no evidence of Trump collusion with Russia??\nwhy didn't you vote to lower my taxes??\n#ReleaseTheMemo #notabot"
p199
S'5:47 PM - 29 Jan 2018'
p200
tp201
a(S'What does it say about the Democrats that they are still pushing the dead Russia collusion fairy tale even more right now as a deflection from the biggest criminal scandal in government in the history of the USA?\n#ObamaGate #ReleaseTheMemo #ArrestMcCabe'
p202
S'5:32 PM - 29 Jan 2018'
p203
tp204
a(S'If there was no collusion, then why is Donald Trump refusing to implement sanctions on Russia?  \n\n#WhereAreTheRussiaSanctionspic.twitter.com/8kVtprP5Wl'
p205
S'4:24 PM - 29 Jan 2018'
p206
tp207
a(S'So while @RealDonaldTrump cries "no collusion" today he forced out another American patriot (McCabe) and the @GOP opened investigations into the FBI and DOJ on same day Trump said he will not impose the sanctions passed against Putin and Russia.'
p208
S'4:23 PM - 29 Jan 2018'
p209
tp210
a(S"#Russia blatantly attacked the United States with cyber weapons in 2017. US military intelligence reported and confirmed this. The US congress responded as weakly as possible - by 'imposing sanctions'. President Donald Trump will not even implement those. #Treason & #Collusion"
p211
S'4:01 PM - 29 Jan 2018'
p212
tp213
a(S'Dear President Trump,\n\nPlease authorize Congress to #ReleaseTheMemo then we can turn the #WitchHunt on the real witch, corrupt heads of FBI, DOJ & DNC then go after the real collusion between the Clintons & Russia via the #UraniumOne money laundering scheme!\n\nFondly,\nAMERICApic.twitter.com/GsPYTm3hEP'
p214
S'3:44 PM - 29 Jan 2018'
p215
tp216
a(S'SOURCE: The #NunesMemo will likely result in Robert #Mueller recusing himself. \n\nTHE RUSSIA COLLUSION HOAX WITCH HUNT WILL BE OVER SOON\n#ReleaseTheMemo\n#Trump'
p217
S'2:01 PM - 29 Jan 2018'
p218
tp219
a(S'#protip: Ways to say "We didn\'t collude with Russia" do not include forcing out FBI Deputy Director McCabe during an FBI investigation into possible collusion with Russia.'
p220
S'11:56 AM - 29 Jan 2018'
p221
tp222
a(S'Stunning Report: FBI Deputy Director Andrew McCabe Caught Leaking After Admitting \xe2\x80\x9cTrump-Russia\xe2\x80\x9d Collusion Story Was \xe2\x80\x9cBullsh*t\xe2\x80\x9d https://bluntforcetruth.com/stunning-report-fbi-deputy-director-andrew-mccabe-caught-leaking-after-admitting-trump-russia-collusion-story-was-bullsht/\xc2\xa0\xe2\x80\xa6pic.twitter.com/ClkbnoL0JT'
p223
S'8:58 AM - 29 Jan 2018'
p224
tp225
a(S'The \xe2\x80\x9cRussia collusion\xe2\x80\x9d narrative and the special counsel was an obvious overreaction by @TheDemocrats because they never thought for a second that @realDonaldTrump would beat @HillaryClinton. It\xe2\x80\x99s time to end this conspiracy theory and work together to #MakeAmericaGreatAgain.'
p226
S'7:14 PM - 28 Jan 2018'
p227
tp228
a(S'FBI has second dossier on possible Trump-Russia collusion https://www.theguardian.com/us-news/2018/jan/30/trump-russia-collusion-fbi-cody-shearer-memo?CMP=share_btn_tw\xc2\xa0\xe2\x80\xa6'
p229
S'8:25 AM - 30 Jan 2018'
p230
tp231
a(S'Stunning Report: FBI Deputy Director Andrew McCabe Caught Leaking After Admitting \xe2\x80\x9cTrump-Russia\xe2\x80\x9d Collusion Story Was \xe2\x80\x9cBullsh*t\xe2\x80\x9d \nhttp://www.thegatewaypundit.com/2018/01/stunning-report-fbi-deputy-director-andrew-mccabe-caught-leaking-admitting-trump-russia-collusion-story-bullsht/\xc2\xa0\xe2\x80\xa6\n#ReleaseTheDamnMemo'
p232
S'4:24 AM - 30 Jan 2018'
p233
tp234
a(S'RT @AdamParkhomenko When you are President of the United States and under investigation, how better to argue \xe2\x80\x9cno collusion! No obstruction!\xe2\x80\x9d than to stop another Russia Sanctions Deadline that both chambers of Congress overwhelmingly voted for.\n#sanctions\n#SANCTIONSDEADLINE'
p235
S'3:15 AM - 30 Jan 2018'
p236
tp237
a(S'Regardless, Mueller should work with Congress to release an interim report (they can take steps to protect sources, future moves) to update the public on what new evidence they\xe2\x80\x99ve found regarding Russian meddling in 2016 elections and Trump campaign-Russia \xe2\x80\x9ccollusion\xe2\x80\x9d https://twitter.com/juliaioffe/status/958030778071441408\xc2\xa0\xe2\x80\xa6'
p238
S'12:01 AM - 30 Jan 2018'
p239
tp240
a(S'Republicans in collusion with Trump, decide to release a memo to poison the well. Then Trump decides not to levy sanctions against Russia. The @HouseGOP has put the interests of their Party and Trump above National interests. #SOTU2018 #PeoplesSOTU #Maddow'
p241
S'7:21 PM - 29 Jan 2018'
p242
tp243
a(S'Collusion https://www.cnn.com/2018/01/29/politics/trump-russia-sanctions/index.html\xc2\xa0\xe2\x80\xa6'
p244
S'6:16 PM - 29 Jan 2018'
p245
tp246
a(S"\xe2\x80\x9cTreason Weasels\xe2\x80\x9d is today\xe2\x80\x99s podcast. The GOP just forced the resignation of FBI #2 Andrew McCabe, & they\xe2\x80\x99re gunning for deputy attorney general Rod Rosenstein as well. All to undermine Mueller\xe2\x80\x99s investigation of Trump's collusion with Russia. Listen here:\nhttp://bit.ly/2rQkx1a\xc2\xa0pic.twitter.com/ok2WL1H200"
p247
S'3:10 PM - 29 Jan 2018'
p248
tp249
a(S'.@realDonaldTrump If there is \xe2\x80\x9cno collusion\xe2\x80\x9d then why haven\xe2\x80\x99t you implemented sanctions on Russia?\n\nWhy did your son meet with Russian operatives in Trump Tower?\n\nWhy did Flynn discuss sanctions with Russia during transition & lie to FBI?\n\nThe FACTS just don\xe2\x80\x99t support your claim.'
p250
S'1:47 PM - 29 Jan 2018'
p251
tp252
a(S'If Democrats really cared about President-Russia collusion, this video would have landed Obama in Leavenworth and made Romney the first Mormon President in 2012. pic.twitter.com/RfPq2pb2Go'
p253
S'12:17 PM - 29 Jan 2018'
p254
tp255
a(S'tick tock, @realDonaldTrump - Your failure to impose the sanctions against Russia is evidence of your collusion and conspiracy with Russia.  #MuellerTimehttps://twitter.com/CheriJacobus/status/957830790208892929\xc2\xa0\xe2\x80\xa6'
p256
S'8:37 AM - 29 Jan 2018'
p257
tp258
a(S"For WEEKS Glenn Simpson & his media allies tried to desperately float a fake narrative about George Papadadpoulos having a drunk chat in a bar with an Aussie diplomat being the REAL trigger of the FBI's Trump/Russia collusion investigation and thus the FISA warrants."
p259
S'8:03 AM - 29 Jan 2018'
p260
tp261
a(S"Desperate Devin Nunes is kicking a hornet's nest with Carter Page. Page was the collusion/conspiracy courier.\n\nSessions, Flynn & Trump knew he was going to Russia in June  2016. He was under FISA surveillance. He delivered the offer from Trump to conspire with Russia on tape."
p262
S'6:13 AM - 29 Jan 2018'
p263
tp264
a(S'Not only do republicans refuse to even entertain the idea that Trump is guilty of collusion, they refuse to take actions to prevent Russia from doing the same exact things in future elections.'
p265
S'5:04 PM - 28 Jan 2018'
p266
tp267
a(S"Gotta keep in mind Mueller's underlying charge: to investigate collusion with Russia.  Obstruction is secondary and only arises as Trump tries to derail the investigation's prime purpose. But why would one risk obstructing justice unless you knew bad stuff was about to be found?"
p268
S'3:05 PM - 28 Jan 2018'
p269
tp270
a(S'.@RepMaxineWaters So this retirement money you have invested in Russia, do you count it in dollars or ruples? Just curious. As someone who constantly pushes the false Russia collusion narrative against our @POTUS @realDonaldTrump, isn\xe2\x80\x99t that a bit hypocritical of you? #JustSayin'
p271
S'4:05 AM - 28 Jan 2018'
p272
tp273
a(S'The broke DNC has no real leadership, no real hope, and no agenda. \n\nThe memo is likely going to crush them. \n\nThey only have two things they\xe2\x80\x99re doing right now: Hoping for ANY evidence of Trump Russia collusion and many Democrats are skipping Trump\xe2\x80\x99s State of Union address. \n\n'
p274
S'11:20 PM - 27 Jan 2018'
p275
tp276
a(S'ELECTION \nMEDDLING/COLLUSION !!\n\nFLASHBACK: Obama encourages illegals to vote and tells them not to fear investigation! And the left say Russia was the problem??\n#KickThemAllOut #NODACA\n#BuildTheWall #VoterID #Tucker #Muellerpic.twitter.com/mwpJo6ABRz'
p277
S'7:49 PM - 26 Jan 2018'
p278
tp279
a(S'When Trump was first being investigated for Russia Collusion conservatives waited to see what the results were\n\nWhen Mueller/FBI/Obama is being investigated, Liberals went insane over any investigation at all\n#MAGA #Conservative #TrumpRussia #Mueller #ReleaseTheMemo'
p280
S'5:26 PM - 26 Jan 2018'
p281
tp282
a(S'We already know the Russia collusion is fake as seen in the texts as a backup plan in case Trump won. The whole thing is sham. They obtained a fisa warrant illegally to spy on Trump.'
p283
S'8:03 PM - 29 Jan 2018'
p284
tp285
a(S'There was no Russia Collusion.\nIt was all made up.\n#QAnon'
p286
S'8:01 PM - 29 Jan 2018'
p287
tp288
a(S"Why, you can find it here and there! \nYou can find Russia collusion anywhere!\nYou can find it in liberal dreams!\nYou can find it in Facebook memes!\nYou can find it on TV!\nI'm in Congress! Listen to me!\nYou can smell it! Take a sniff! \nWhat's that you say? It smells like #Schiff?pic.twitter.com/BAg1cORbBG"
p289
S'6:44 PM - 29 Jan 2018'
p290
tp291
a(S"The fact people is making Trump collusion with Russia about Hillary Clinton means youre too obsessed with her. If Trump crimes lead to a Hillary Clinton presidency thats called democracy. An act of war was conducted against America with Americans & you're focus on Hillary Clinton"
p292
S'6:31 PM - 29 Jan 2018'
p293
tp294
a(S'So #2 FBI - McCabe is "stepping down"  \nDay after Wray received Memo and on the day it will go public\nKey figure in both clearing Hillary and the phony Trump / Russia collusion \n\nStill think Q is a Larp?\n\n#QAnon'
p295
S'11:21 AM - 29 Jan 2018'
p296
tp297
a(S'I say charge him & if found guilty he loses his pension & make him reimburse the government for wasted monies spent on fake Russia Collusion investigation'
p298
S'10:24 AM - 29 Jan 2018'
p299
tp300
a(S'Stunning Report: FBI Deputy Director Andrew McCabe Caught Leaking After Admitting \xe2\x80\x9cTrump-Russia\xe2\x80\x9d Collusion Story Was \xe2\x80\x9cBullsh*t\xe2\x80\x9d https://bluntforcetruth.com/stunning-report-fbi-deputy-director-andrew-mccabe-caught-leaking-after-admitting-trump-russia-collusion-story-was-bullsht/\xc2\xa0\xe2\x80\xa6pic.twitter.com/M8LMCtBfym'
p301
S'8:58 AM - 29 Jan 2018'
p302
tp303
a(S'Ok, I need to interject. Here is your ridiculous Russian collusion....\xe2\x80\x98Russia, if you\xe2\x80\x99re listening, I hope you\xe2\x80\x99re able to find the 30,000 emails that are missing\xe2\x80\x99....There it is, that\xe2\x80\x99s how it started. The most asinine waste of tax payers dollars.'
p304
S'8:01 AM - 29 Jan 2018'
p305
tp306
a(S"It's funny that after a year people have failed to find Collusion between Trump and Russia\n\nPeople have also forgotten that even if found, Collusion isn't a crime. It takes place every election\n\nHillary was paid $ by Saudi & qatar\n\n#MondayMotivation Carter page"
p307
S'7:11 AM - 29 Jan 2018'
p308
tp309
a(S'.@Marcshort45 on the Russia investigation: "There\'s been a significant investigation so far and no evidence of any sort of collusion." #FoxNewsSundaypic.twitter.com/V0RPOAfPip'
p310
S'11:25 PM - 28 Jan 2018'
p311
tp312
a(S"Media outlets have had a non-stop deluge of Russia-Trump-collusion theorizing. It's insane and ridiculous to pretend that didn't happen. https://twitter.com/Doranimated/status/957676808886980609\xc2\xa0\xe2\x80\xa6"
p313
S'7:40 PM - 28 Jan 2018'
p314
tp315
a(S'When pollsters make calls for the #2018Midterms, they should probably toss in, \xe2\x80\x9cIf it turns out Trump-Russia collusion was a hoax by the Dems to frame @realDonaldTrump, after their year-long hysterics would you vote for X or Y\xe2\x80\x9d Probably a smart business move\n\n#ReleaseTheMemo'
p316
S'6:20 PM - 28 Jan 2018'
p317
tp318
a(S'The real Russia collusion #UraniumOnepic.twitter.com/4ugteL94gt'
p319
S'1:47 PM - 28 Jan 2018'
p320
tp321
a(S'Trey Gowdy on Trump-Mueller Interview, but his point about @RepAdamSchiff says a lot about his lies/deceit:\nSchiff has been consistently wrong abt Trump-Russia collusion. \nSchiff claimed he had evidence of collusion before the first witness testified. \npic.twitter.com/N3oNk2BJp0'
p322
S'12:57 PM - 28 Jan 2018'
p323
tp324
a(S'Democrats colluded with Russia to spread discord and chaos. They have facilitated it with their resist, lies, collusion with the MSM with a false narrative. And it appears with the DOJ/FBI/Obama/HRC shills.'
p325
S'9:48 AM - 28 Jan 2018'
p326
tp327
a(S'Didn\'t anti-Trump, FBI agent Strzok text that he felt the Russia collusion investigation would turn up nothing?\n\nSo being against Law Enforcement pursuing  investigations w/o evidence is now stuff of "conspiracy theorists? \n\nNot quite sure how you sleep at night, Ben. pic.twitter.com/43DtPrrOHj'
p328
S'6:19 AM - 28 Jan 2018'
p329
tp330
a(S'Keep digging Jake. We said the Dems would rue the day they ginned up the Trump Russia collusion narrative. FWIW the FBI-DOJ long overdue for an enema.'
p331
S'6:29 PM - 29 Jan 2018'
p332
tp333
a(S'Any collusion in 2016 election was by Obama and his political proxies at the IRS, FBI and DOJ.  Their corruption is what you see happen in present day Russia. People need to go to jail and Hillary and Obama should be at the head of the line.'
p334
S'6:15 PM - 29 Jan 2018'
p335
tp336
a(S'Trump has unilaterally decided not to apply sanctions on Russia. He is not even hiding his collusion and conspiracy any more. \n\nAlso, the meeting on the memo was timed exactly to create disinformation away from Trump\xe2\x80\x99s treasonous act today.  \n\nhttps://twitter.com/eschor/status/958110759489294336\xc2\xa0\xe2\x80\xa6'
p337
S'5:06 PM - 29 Jan 2018'
p338
tp339
a(S'Schiff has provided zero evidence of Russia/Trump Collusion despite months of investigation & his promises of having proof. He has zero credibility. Just a Liberal hack.'
p340
S'4:28 PM - 29 Jan 2018'
p341
tp342
a(S'The House just voted to #ReleaseTheMemo and now it goes over to President for approval. Of course Schiff on tv complaining and blaming the White House and Russia collusion.  '
p343
S'3:26 PM - 29 Jan 2018'
p344
tp345
a(S'Anyone that is truly concerned about Trump/Russia collusion, should be twice as concerned about Hillary/Russia collusion.\n\nWe know FGPS was paid by Dems for oppo-research\nWe know they used Russian sources\nWe know it was used for FISA\nIf that\xe2\x80\x99s not Russian collusion what is? pic.twitter.com/XFwVitgDls'
p346
S'1:54 PM - 29 Jan 2018'
p347
tp348
a(S'DEMOCRAT TALKING POINTS ARE THAT TRUMPS ATTACKS ARE TO FINISH MUELLERS INVESTIGATION\n\nBECAUSE OF RUSSIA COLLUSION  & OBSTRUCTION.   \n\nFUNNY,  THE REAL HONEST FBI AGENTS CAN\xe2\x80\x99T WAIT TO SEE THEIR CORRUPT LEADERS FALL.  \n\nONLY ONES DEFENDING CORRUPTION ARE DEMOCRAT CLOWNS!'
p349
S'1:09 PM - 29 Jan 2018'
p350
tp351
a(S'So does that hurt the R case that the whole Russia collusion story is a farce or does it indicate Dep AG Rosenstein is part of the swamp??'
p352
S'9:28 AM - 29 Jan 2018'
p353
tp354
a(S'FBI Deputy Director Andrew McCabe Caught Leaking After Admitting "Trump-Russia" Collusion Story Was "Bullsh*t" #QAnonhttp://thegatewaypundit.com/2018/01/stunning-report-fbi-deputy-director-andrew-mccabe-caught-leaking-admitting-trump-russia-collusion-story-bullsht/\xc2\xa0\xe2\x80\xa6'
p355
S'8:32 AM - 29 Jan 2018'
p356
tp357
a(S'GOP #1 Target should be Rod Rosenstein. He\xe2\x80\x99s the one in charge of hiring Mueller and overseeing the fake Russia Collusion investigation. You get rid of him, you get rid of Mueller and his biased team!'
p358
S'6:58 AM - 29 Jan 2018'
p359
tp360
a(S'Good morning, @realDonaldTrump. \nToday is the deadline for implementing the sanctions against Russia. If, as you keep saying, there is no collusion, then this should be at the top of your list of today\xe2\x80\x99s action items.\n#ImplementTheSanctions'
p361
S'6:33 AM - 29 Jan 2018'
p362
tp363
a(S'The Trump and Russia investigation is going down in flames. The only collusion is between Mueller and the FBI, DOJ. #TrumpRussia #ReleaseTheMemo #ReleasetheTexts'
p364
S'4:29 AM - 29 Jan 2018'
p365
tp366
a(S'Remember:  #QAnon said to expect well orchestrated false flag attack by all media outlets. They may make the "Memos" appear like Trump etc are cornered by Mueller and Russia Collusion evidence, and literally MAKING THE MEMO UP!\n#TheGreatAwakening #ObamaGate #ReleaseTheMemo'
p367
S'5:52 PM - 28 Jan 2018'
p368
tp369
a(S'When you realize there is no evidence of collusion with Russia so you need to move the goalpost... pic.twitter.com/9oFnCFPisj'
p370
S'4:16 PM - 27 Jan 2018'
p371
tp372
a(S'This is it - the Republicans are conspiring with Trump to consolidate power and own the American government, ending the investigation into all of their collusion w/Russia'
p373
S'10:58 AM - 29 Jan 2018'
p374
tp375
a(S'Remember way back in the day when THEY all said there\xe2\x80\x99s no collusion with Russia. They\xe2\x80\x99re right! It\xe2\x80\x99s a conspiracy, not collusion.'
p376
S'8:36 AM - 29 Jan 2018'
p377
tp378
a(S'Stunning Report: FBI Deputy Director Andrew MCCABE Caught LEAKING After Admitting "Trump-Russia" COLLUSION Story Was "BULLSH*T\xe2\x80\x9d\n\n\n#ReleaseTheMemo\n#MAGA\nhttp://www.thegatewaypundit.com/2018/01/stunning-report-fbi-deputy-director-andrew-mccabe-caught-leaking-admitting-trump-russia-collusion-story-bullsht/\xc2\xa0\xe2\x80\xa6'
p379
S'8:08 AM - 29 Jan 2018'
p380
tp381
a(S'Democrats aren\xe2\x80\x99t for the truth regarding Russia Collusion...\n\nIf they were they wouldn\xe2\x80\x99t care about the Memo being released...\n\n#ReleaseTheMemo'
p382
S'7:43 AM - 29 Jan 2018'
p383
tp384
a(S'surprise surprise. The lead investigator of Russian collusion is....wait for it...COLLUDING WITH RUSSIA!!!!  https://twitter.com/wikileaks/status/891431096688271365\xc2\xa0\xe2\x80\xa6'
p385
S'7:01 AM - 29 Jan 2018'
p386
tp387
a(S'I can see the Russia Collusion narrative collapsing from my house.'
p388
S'5:46 AM - 29 Jan 2018'
p389
tp390
a(S"trump's collusion with Russia ruined this country. Filthy GOP traitors. #GRAMMYs"
p391
S'7:12 PM - 28 Jan 2018'
p392
tp393
a(S'Wait so now the \xe2\x80\x9ccollusion\xe2\x80\x9d isn\xe2\x80\x99t between Trump & Russia but Nunes and Russia with enabler Paul Ryan seeking to undermine the United States! https://twitter.com/normornstein/status/957072314348208128\xc2\xa0\xe2\x80\xa6'
p394
S'12:48 PM - 28 Jan 2018'
p395
tp396
a(S'2017: "Trump\'s a racist!"\n\n2018: Black unemployment at lowest levels ever\n\n2017: "The economy will never recover!"\n\n2018: Dow smashes 26,000, NASDAQ 7,000\n\n2016: "ISIS is a generational problem"\n\n2017: ISIS crushed in nine months\n\n2017: "RUSSIA COLLUSION!"\n\n2018: #ReleaseTheMemo'
p397
S'7:20 AM - 28 Jan 2018'
p398
tp399
a(S"Term of The Day:  Mission Creep\n\nDo y'all remember, why there even is a Mueller Investigation?\n\nThat farce was installed to investigate \nCOLLUSION BETWEEN TRUMP & RUSSIA/PUTIN\n\nHow elegantly they moved the goal-posts\n(presently it's obstruction again)\n\nWhere's the beef, Scheeeff? pic.twitter.com/He6IsH1M5J"
p400
S'6:46 AM - 28 Jan 2018'
p401
tp402
a(S'Despite denying collusion with Russian operatives in 2016 and labeling special counsel Robert Mueller\'s investigation a "witch hunt," Trump racked up a series of decisions that now loom over the investigation that\'s engulfed the White House.  #DemForcehttp://www.cnn.com/2018/01/26/politics/trump-actions-russia-investigation/index.html\xc2\xa0\xe2\x80\xa6'
p403
S'5:47 AM - 27 Jan 2018'
p404
tp405
a(S'There was never a collusion between Trump and Russia. All made up just to impeach him. But other things are coming out because of this, the tables have turn. What have the Dirty Dems been up to? Any Secret memo hints? #GodWorksInMysteriousWays'
p406
S'4:43 AM - 29 Jan 2018'
p407
tp408
a(S'Wonder if all of the political unrest in the Soviet Union, I mean Russia, will be attributed to American Collusion? Just sayin.... pic.twitter.com/pwCmM6zrRn'
p409
S'3:18 AM - 29 Jan 2018'
p410
tp411
a(S"Hahahahaha\n\nHey Nikki,\nSome of us like America without ruining it with Russia and collusion. We'll take our wins where we can. #FireAndFury \n\nYour boss, and you by association, are ruining the Republic, snowflake.\n\n#FollowBackResistance #fbrhttps://twitter.com/nikkihaley/status/957813664207245313\xc2\xa0\xe2\x80\xa6"
p412
S'8:41 PM - 28 Jan 2018'
p413
tp414
a(S'Funny, some of us love America without the racism, incompetence, corruption and collusion with Russia thrown in it. #grammyshttps://twitter.com/nikkihaley/status/957813664207245313\xc2\xa0\xe2\x80\xa6'
p415
S'7:19 PM - 28 Jan 2018'
p416
tp417
a(S'I got a feeling this season of @CBSBigBrother is all just a ploy by Robert Mueller to catch @OMAROSA on a hot mic   who knows she might just confess to other houseguests about the Russia  collusion  #CelebrityBigBrother'
p418
S'6:33 PM - 28 Jan 2018'
p419
tp420
a(S'Why is @CNN ignoring a "real" Russia collusion story?  A Florida Democrat Mayor, Joy Cooper arrested by FBI for taking money from Russians for her campaign, plus other charges!'
p421
S'10:56 AM - 28 Jan 2018'
p422
tp423
a(S'Robert Mualer tried very hard to get Trump on collusion with Russia. Now his antics switched over to Obstruction against President Trump. This is an utter joke and a waste of tax payer dollars. Shame on you for believing in this garbage if so. #ReleaseTheMemo #ObamaGate'
p424
S'10:16 AM - 28 Jan 2018'
p425
tp426
a(S'January 29 is the deadline for @realDonaldTrump to apply sanctions against Russia for its intervention in the 2016 election. January 30 Trump is giving his state of the union address. Regardless how Trump responds January 29 his collusion with Russia will loom over the SOU.'
p427
S'9:31 AM - 28 Jan 2018'
p428
tp429
a(S'#FBR #FBRParty #Resistance @BarackObama @WhiteHouse\n\nThey ALL Committed #TREASON #COLLUSION with RUSSIA\n#BananaRepublicans #TRAITORnChief are ALL #GUILTY !!!\n\nRIGHTEOUS #MUELLER\n.pic.twitter.com/C7F3ZUGTvd'
p430
S'6:28 AM - 28 Jan 2018'
p431
tp432
a(S' Must Read \n\xe2\x80\x9cRussia-Trump\xe2\x80\x9d Collusion Hoax Represents a U.S. Government Crime Spree of Epic Proportions\xe2\x80\x9d http://stateofthenation2012.com/?p=93380\xc2\xa0'
p433
S'6:14 PM - 27 Jan 2018'
p434
tp435
a(S"Why, you can find it here and there! \nYou can find Russia collusion anywhere!\nYou can find it in liberal dreams!\nYou can find it in Facebook memes!\nYou can find it on TV!\nI'm in Congress! Listen to me!\nYou can smell it! Take a sniff! \nWhat's that you say? It smells like #Schiff?pic.twitter.com/U7YrEpaS17"
p436
S'3:47 PM - 27 Jan 2018'
p437
tp438
a(S'Bots are also all over Rosenstein this am, which I\xe2\x80\x99m sure is a harmless coincidence and not at all collusion with Russia.'
p439
S'7:32 AM - 27 Jan 2018'
p440
tp441
a(S'The Real Fake Scandal is the Russian Collusion Scandal.\n\nStill to this day the Left has found ZERO credible evidence that the Trump Administration coordinated with Russia to hack the 2016 election. \n\nYet the Left screams about this phony scandal every single day. #SaturdayMorning'
p442
S'5:03 AM - 27 Jan 2018'
p443
tp444
a(S"If you listen to them long enough (it's very hard, I know) the Trump Boys ALWAYS ACCIDENTALLY INCRIMINATE THEMSELVES & DADDY.\n\n#Maddow @JoyAnnReid #Inners #TrumpRussia #DonJr #EricTrump #Russia #Collusion #ObstructionOfJusticehttps://twitter.com/maddowblog/status/957083352405856257\xc2\xa0\xe2\x80\xa6"
p445
S'7:58 PM - 26 Jan 2018'
p446
tp447
a(S'ICYMI: Source close to FBI official Peter Strzok told me that the May 19, 2017, "there\'s no big there there" text message meant how it reads -- Strzok hadn\'t seen compelling evidence of collusion at that time. http://dailycaller.com/2018/01/26/source-strzok-hadnt-seen-evidence-of-collusion-after-10-months-on-russia-probe/\xc2\xa0\xe2\x80\xa6 @dailycaller'
p448
S'5:39 PM - 26 Jan 2018'
p449
tp450
a(S"Assuming Black Hat Bob knows he can't get Trump on any collusion with Russia & so decides he'll settle for some lame process violation, like Trump giving a false answer about how many hotels he had in Atlantic City?"
p451
S'4:54 PM - 26 Jan 2018'
p452
tp453
a(S'PRESIDENT TRUMP LOOKS TO WALK INTO CONGRESS TO DELIVER STATE OF UNION WITH OBAMAGATE MEMO RELEASED, DEMS COWERING FOR COVER, TRUMP PUBLICLY EXONERATED OF RUSSIA COLLUSION & MUELLER INQUIRY DESTROYED & HEADED HOME! SEE WHAT HAPPENS IF YOU GO AFTER TRUMP- HE\xe2\x80\x99S WAY AHEAD OF DEMS! pic.twitter.com/hiez2HnOhJ'
p454
S'9:26 AM - 28 Jan 2018'
p455
tp456
a(S'Mueller was appointed by @TheJusticeDept Rosenstein for "2016 Prez Election Russia Collusion" & now Mueller\'s new mission is to frame @POTUS @realDonaldTrump for Obstruction of Justice?   We now find out Mueller is redacting Strzok/Page text messages--Obstruction of Justice?'
p457
S'6:43 AM - 28 Jan 2018'
p458
tp459
a(S'It\xe2\x80\x99s time for truth to come out! Republican or Democrat, we deserve to know what our FBI was doing and whether they tried to thwart the will and the vote of the American people! Did they make up the whole Russia collusion story? Sure seems so!\n\n#ReleaseTheMemo\n#FindTheTexts\n#MAGA'
p460
S'6:32 AM - 28 Jan 2018'
p461
tp462
a(S'There are ONLY two possibilities:\n\n1. Rosenstein didn\xe2\x80\x99t even ask the top FBI agent on Trump-Russia probe if collusion existed before appointing Mueller; or\n\n2. Rod did ask, and Strzok lied and said he did see collusion \n\nEither one invalidates Mueller\n\nhttp://amp.dailycaller.com/2018/01/26/source-strzok-hadnt-seen-evidence-of-collusion-after-10-months-on-russia-probe/\xc2\xa0\xe2\x80\xa6'
p463
S'4:04 AM - 28 Jan 2018'
p464
tp465
a(S'They know it is happening. They aren\xe2\x80\x99t stupid enough to believe their own BS. That fact makes their behavior even more diabolical.  They know Russia Collusion is a Lie and yet are aggressively pushing the Lie'
p466
S'3:04 AM - 28 Jan 2018'
p467
tp468
a(S'"Both Strzok and Page worked for a time with special counsel Robert Mueller on Russia collusion allegations slung Team Trump\xe2\x80\x99s way." writes @ckchumley #RapidReactions #BestOfWashTimeshttp://ow.ly/4bGd30hVnWL\xc2\xa0'
p469
S'9:45 PM - 27 Jan 2018'
p470
tp471
a(S'Hello real world here, You have a President about to be charged with Obsctruction of Justice. Global moneylaundering for the mob not too far behind. Collusion with Russia too, maybe even trafficking of eastern European women. And YOU run stories on 2007!!!'
p472
S'8:27 PM - 27 Jan 2018'
p473
tp474
a(S'Between collusion/conspiring with Russia and Obstruction of Justice, how has he not been indicted yet? There\xe2\x80\x99s so much evidence on full display for all of us to see on the daily. I can only imagine the mountain of evidence investigators have on him. #TrumpRussia #MuellerIsComing'
p475
S'2:16 PM - 27 Jan 2018'
p476
tp477
a(S'It\xe2\x80\x99s time for @HillaryClinton to answer serious questions why she deleted this tweet!  Was it because it was defamation of character for which she could be sued? Perhaps it was a red herring to distract from her own real #collusion with #Russia in the #UraniumOne deal?pic.twitter.com/5k18QtdMDU'
p478
S'1:53 PM - 27 Jan 2018'
p479
tp480
a(S'If @Twitter can track the actions of Russian bots, what is stopping them from deactivating those accounts. You know, like they said they were going to do. If they don\xe2\x80\x99t, @Twitter is in collusion with #Russia. #EmptyPromises.'
p481
S'12:50 PM - 27 Jan 2018'
p482
tp483
a(S'Question - what if the Trump-Russia collusion turns out to be \xe2\x80\x9cUS DOJ\xe2\x80\x9d-UK collusion?'
p484
S'11:47 AM - 27 Jan 2018'
p485
tp486
a(S'Ever wonder what Russian ties exist between #FoxNews and Russia...????\n\n#SaturdayMorning #SaturdayMotivation #TrumpRussia #TrumpShutdown #Collusion #TrumpCrimeFamily @PamelaGlasnerpic.twitter.com/yWwAJkp8UQ'
p487
S'8:47 AM - 27 Jan 2018'
p488
tp489
a(S'The REAL Russia Collusion:\n\n1. Communism defeated Russian Revolutionaries by controlling the media & killing opponents.   (Clinton Body County & DNC take over of MSM proved in FISA memos) \n2. Outlawing Religion (Liberals have used legal system to rule against religion, Johnson ..'
p490
S'7:27 AM - 27 Jan 2018'
p491
tp492
a(S'Source: Strzok Hadn\xe2\x80\x99t Seen Evidence Of Collusion After 10 Months On Russia Probe https://trib.al/W9LUIAz\xc2\xa0pic.twitter.com/nkCtO1vOzS'
p493
S'5:47 PM - 26 Jan 2018'
p494
tp495
a(S"'Wait, I thought it was Russia collusion we were after... What's that?...There was no Russia collusion? Never mind we'll get him on the charges that he once thought about maybe firing Mueller, something he has the legal authority to do.'  Yes, sounds credible to me."
p496
S'5:26 PM - 26 Jan 2018'
p497
tp498
a(S"I was telling people relentlessly pushing the Russia-Trump collusion narrative 6 months ago: You will NOT like where this is going to end up. \n\nAnd indeed: they don't."
p499
S'5:11 PM - 26 Jan 2018'
p500
tp501
a(S"Liberal Facebook just said they Can\xe2\x80\x99t Prove or Disprove Trump-Russia Collusion.  Stop wasting our time with Russia.  It's the FBI that we need to look into."
p502
S'4:47 PM - 26 Jan 2018'
p503
tp504
a(S'Also how much coordination there was between the plotters inside the DOJ & the HRC/DNC as they whipped up Trump/Russia collusion hysteria using the dossier to help launch a fake media narrative to cast suspicion on Gen. Flynn so he needed to be investigated.'
p505
S'1:55 PM - 27 Jan 2018'
p506
tp507
a(S'Are we really surprised at this point. U say Russia collusion or corruption I ask what Democrat is involved now.'
p508
S'1:12 PM - 27 Jan 2018'
p509
tp510
a(S'MUELLER NEEDS TO GO TO RUSSIA AND APPLY FOR CITIZENSHIP... http://dailycaller.com/2018/01/26/source-strzok-hadnt-seen-evidence-of-collusion-after-10-months-on-russia-probe/\xc2\xa0\xe2\x80\xa6'
p511
S'12:19 PM - 27 Jan 2018'
p512
tp513
a(S'No more BS from Collusion Dems with Media & Fake Russia Collusion& fraud #AdamScrewloose   . No more Deep state trying to destroy the Republic & #POTUS & Abuse of Power #ReleaseTheMemo We & will not put up with it #obamagate pic.twitter.com/zpH9ejY2kF'
p514
S'11:01 AM - 27 Jan 2018'
p515
tp516
a(S'Strzok Hadn\xe2\x80\x99t Seen Evidence Of Collusion After 10 Months On Russia Probe, and he is more biased than you both.  End this fraud! Muller is the obstructionist...  let the potus do his job...  Geez...'
p517
S'9:55 AM - 27 Jan 2018'
p518
tp519
a(S'However, the #DNC DID collude and work with Russia to throw the election! THAT needs to be shown to all. #ReleaseTheMemo #LockThemAllUp It cannot be both ways, if Russia collusion is a crime, the #Democrats are guilty.'
p520
S'9:13 AM - 27 Jan 2018'
p521
tp522
a(S'"How Trump\xe2\x80\x99s People Tried to Cover Up Collusion with Russia" - http://www.newsweek.com/how-trumps-people-tried-cover-collusion-russia-790942\xc2\xa0\xe2\x80\xa6'
p523
S'8:22 AM - 27 Jan 2018'
p524
tp525
a(S'A source familiar with the thinking of FBI agent Peter Strzok revealed to the Daily Caller\xe2\x80\x98s Chuck Ross that after 10 months of investigating alleged collusion between Trump campaign officials and Russia, no proof had been found.  http://www.thegatewaypundit.com/2018/01/report-peter-strzok-saw-zero-proof-trump-russia-collusion-10-months-mueller-witch-hunt/\xc2\xa0\xe2\x80\xa6'
p526
S'7:59 AM - 27 Jan 2018'
p527
tp528
a(S'http://dailycaller.com/2018/01/26/source-strzok-hadnt-seen-evidence-of-collusion-after-10-months-on-russia-probe/?utm_medium=email\xc2\xa0\xe2\x80\xa6\nEven STRZOK admitted NO evidence of collusion after 10 months on russia probe.  @DevinNunes @AGJeffBSessions @realDonaldTrump\n#ReleaseTheMemo. #ReleaseTheMemo\n#ReleaseTheMemo'
p529
S'7:45 AM - 27 Jan 2018'
p530
tp531
a(S"Obama framed Donald Trump to hide his own collusion with Russia. It's time to arrest Obama! https://twitter.com/JacobAWohl/status/957273783219380224\xc2\xa0\xe2\x80\xa6"
p532
S'7:37 AM - 27 Jan 2018'
p533
tp534
a(S'The Real Fake Scandal is Russia Collusion. Obama wrote his Legacy in Sidewalk Chalk, pretty colors but easily wiped away. Hilarious.'
p535
S'5:47 AM - 27 Jan 2018'
p536
tp537
a(S'THERE IS NO RUSSIA COLLUSION STORY.  THATS WHY FIRING COMEY IS A USELESS EXCUSE.  IF U WOULD PULL UR HEAD OUT & READ THINGS OTHER THAN THE LYING CORRUPT LIBERAL MEDIA, U MIGHT LEARN SOMETHING.  THE FBI TEXTS R DAMNING TO HRC, THE DEMS, AND THE WHOLE FAKE RUSSIA STORY.  ITS OVER.'
p538
S'4:41 AM - 27 Jan 2018'
p539
tp540
a(S'Today #Twitter admitted Trump was amplified *SIGNIFICANTLY* by Russian bots during the final months of his campaign. That directly affects the outcome of the election and is undoubtedly #COLLUSION. Once again, Russia and Trump were aligned perfectly. https://www.bloomberg.com/news/articles/2018-01-26/twitter-says-russian-linked-bots-retweeted-trump-470-000-times\xc2\xa0\xe2\x80\xa6'
p541
S'8:32 PM - 26 Jan 2018'
p542
tp543
a(S'#TrumpRussia Dec 18, 2017\xe2\x80\x9c#WSJ reported...Special Counsel #RobertMueller has requested that a data analytics company called #CambridgeAnalytica turn over internal documents as part of its investigation into possible #collusion btwn Trump campaign & Russia during 2016 election\xe2\x80\x9d pic.twitter.com/NutJkR12m9'
p544
S'8:25 PM - 26 Jan 2018'
p545
tp546
a(S'#Democrats PlayBook is by the numbers\n1. Trump team Russia collusion proven false\n2. Their story falls apart reveals FBI, DOJ & Obama team spied on Trump\n3. 4 pg Memo and text discovery #ReleaseTheMemo is born\n4. @AdamSchiffCA and @pelos push Russian Bots it fails\n(Continued)pic.twitter.com/Xrnw8KPOLT'
p547
S'6:33 PM - 26 Jan 2018'
p548
tp549
a(S'Not one pro Russia/Trump collusion theorist can explain to me if Russia wanted Trump to win, why would they create a phony, derogatory Trump dossier?\nI had no idea Russia is so PRO #MAGA.'
p550
S'6:20 PM - 26 Jan 2018'
p551
tp552
a(S'Witch Hunt: Disgrace, left-wing @FBI agent, Peter Strzok, Hadn\xe2\x80\x99t Seen Evidence Of Collusion After 10 Months On... https://fb.me/1siJNrqFI\xc2\xa0'
p553
S'6:13 PM - 26 Jan 2018'
p554
tp555
a(S'He did not attempt to fire Mueller. In a year no collusion has been found between President Trump & Russia. They did find collusion between Obama, Clinton & Russia & criminal intent within both, plus the FBI, DOJ 2incriminate President Trump. #ReleaseTheMemo #tcot #Ccot #NotABot'
p556
S'5:04 PM - 26 Jan 2018'
p557
tp558
a(S'Source: Strzok Hadn\xe2\x80\x99t Seen Evidence Of Collusion After 10 Months On Russia Probe\nhttp://dailycaller.com/2018/01/26/source-strzok-hadnt-seen-evidence-of-collusion-after-10-months-on-russia-probe/?utm_source=site-share\xc2\xa0\xe2\x80\xa6'
p559
S'4:54 PM - 26 Jan 2018'
p560
tp561
a(S'@HouseGOP @SenateGOP @SenateMajLdr @SpeakerRyan  Do You Honestly think people laid off due to your tax plan will forget?\nWomen dont Forget!\nCollusion with Russia, gerrymandering districts or Suppressing Vote wont stop the WAVE of Pink HATS headed your way! \n#BlueTsunami2018https://twitter.com/tygjam/status/957265749197971457\xc2\xa0\xe2\x80\xa6'
p562
S'7:36 AM - 27 Jan 2018'
p563
tp564
a(S'The collusion with Russia was coming from inside Obama\xe2\x80\x99s office'
p565
S'7:18 AM - 27 Jan 2018'
p566
tp567
a(S'Real Fake Scandal is Russia Trump collusion. pic.twitter.com/b11k2RGtl0'
p568
S'5:26 AM - 27 Jan 2018'
p569
tp570
a(S'THE Real Russia Collusion pic.twitter.com/IZrt3oM2Jm'
p571
S'5:17 AM - 27 Jan 2018'
p572
tp573
a(S"REPORT: Peter\xc2\xa0Strzok Saw ZERO PROOF of 'Trump-Russia' Collusion After 10 Months of Mueller Witch Hunt http://www.thegatewaypundit.com/2018/01/report-peter-strzok-saw-zero-proof-trump-russia-collusion-10-months-mueller-witch-hunt/\xc2\xa0\xe2\x80\xa6"
p574
S'7:38 PM - 26 Jan 2018'
p575
tp576
a(S'#QAnon\nThe #ReleaseTheMemo will reinstate #Sessions authority on Russia\nmemo factually demonstrates collusion\nMemo factually demonstates Obama admin weaponizing intelligence community\n#ReleaseTheMemo\n#ObamaGate\n#GreatAwakeningpic.twitter.com/ScOHcEFXKp'
p577
S'7:22 PM - 26 Jan 2018'
p578
tp579
a(S'Yes, him and most of the right know it too. Many on the left want it to be.http://dailycaller.com/2018/01/26/source-strzok-hadnt-seen-evidence-of-collusion-after-10-months-on-russia-probe/\xc2\xa0\xe2\x80\xa6'
p580
S'5:51 PM - 26 Jan 2018'
p581
tp582
a(S'Strzok Hadn\xe2\x80\x99t Seen Evidence Of Collusion After 10 Months On Russia Probe http://dailycaller.com/2018/01/26/source-strzok-hadnt-seen-evidence-of-collusion-after-10-months-on-russia-probe/?utm_source=site-share\xc2\xa0\xe2\x80\xa6 via @dailycaller'
p583
S'5:48 PM - 26 Jan 2018'
p584
tp585
a(S'BOMBSHELL FBI Agent Peter Strzok text surfaces saying \xe2\x80\x9cno there there\xe2\x80\x9d in Russia Collusion investigation.\nhttps://mediaequalizer.com/martin-walsh/2018/01/bombshell-explosive-text-message-from-strzok-surfaces-about-russia-probe\xc2\xa0\xe2\x80\xa6\n@mrwalsh__ @MediaEqualizer @MonicaCrowley @SheriffClarke @SScalpings'
p586
S'4:57 PM - 26 Jan 2018'
p587
tp588
a(S'"collusion with Russia" pic.twitter.com/iyM5mtUjPc'
p589
S'4:45 PM - 26 Jan 2018'
p590
tp591
a(S'Source: Strzok Hadn\xe2\x80\x99t Seen Evidence Of Collusion After 10 Months On Russia Probe https://www.weaselzippers.us/372555-source-strzok-hadnt-seen-evidence-of-collusion-after-10-months-on-russia-probe/\xc2\xa0\xe2\x80\xa6 via @weaselzippers'
p592
S'4:44 PM - 26 Jan 2018'
p593
tp594
a(S'If there was no collusion between your campaign and Russia, why are you so worried about the investigation??  So worried that you fired @SallyQYates and @Comey, and wanted to fire mueller???  Guilty!  #fucktrump'
p595
S'4:42 PM - 26 Jan 2018'
p596
tp597
a(S'#Trump accuses Hillary Clinton DNC of \xe2\x80\x98real collusion https://tacticalinvestor.com/donald-trump-accuses-hillary-clinton-collusion-russia/\xc2\xa0\xe2\x80\xa6'
p598
S'4:40 PM - 26 Jan 2018'
p599
tp600
a(S"THIS DOESN'T MATTER... \n\nThis is what matters\nTHE REAL RUSSIA COLLUSION... \n#ReleaseTheMemo \nNo matter WHAT YOUR SHOW  AIRS #middleclassAmericans KNOW THE TRUTH....pic.twitter.com/2IXeAtwRUR"
p601
S'4:28 PM - 26 Jan 2018'
p602
tp603
a(S"REPORT: Peter\xc2\xa0Strzok Saw ZERO PROOF of 'Trump-Russia' Collusion After 10 Months of Mueller Witch Hunt. #MAGAhttp://www.thegatewaypundit.com/2018/01/report-peter-strzok-saw-zero-proof-trump-russia-collusion-10-months-mueller-witch-hunt/\xc2\xa0\xe2\x80\xa6"
p604
S'4:24 PM - 26 Jan 2018'
p605
tp606
a(S"We have to wait till 2020 for implosion? 4 guilty dt President's men. There's trump tower collusion mt. w Russians, obstruction over Comey Russia firing, money laundering thru trump inc. I love this states law suit over gop tax scam. Let's hope more jump on board. F the wall. pic.twitter.com/Jw9Nsrh6Xv"
p607
S'4:23 PM - 26 Jan 2018'
p608
tp609
a(S'Evolving Trump Russia excuses over months:\nNo contacts\nOK, contacts but no collusion\nCollusion isn\xe2\x80\x99t a crime\n   \nHannity - w/in minutes -on whether Trump tried to fire Mueller:\nNever considered\nConsidered but didn\xe2\x80\x99t follow thru\nWhy shouldn\xe2\x80\x99t he fire him?\n  http://nymag.com/daily/intelligencer/2018/01/hannity-changes-tune-on-mueller-firing-almost-immediately.html\xc2\xa0\xe2\x80\xa6'
p610
S'4:21 PM - 26 Jan 2018'
p611
tp612
a(S'All the facts lead to HRC collusion with Russia, HRC and Clinton Foundation profiting from pay-to-play and nothing on Trump collusion. #ReleaseTheMemos'
p613
S'4:20 PM - 26 Jan 2018'
p614
tp615
a(S'Mueller has a better chance of shooting one of these from his Unicorn than proving any illegal Trump-Russia Collusion pic.twitter.com/meVqQWc2oC'
p616
S'4:19 PM - 26 Jan 2018'
p617
tp618
a(S"What are you. Covfefe's PR flunkie? So glad the states are going to be suing this fraud for his trickle down, UnConstitutional tax scam. F the Wall. Collusion is the mt. in trump tower w Russians. Obstruction is firing Comey over Russia. Fraud is money laundering thru trump inc. pic.twitter.com/F269KzLH0y"
p619
S'4:19 PM - 26 Jan 2018'
p620
tp621
a(S'Mueller is a scumbag insider who couldn\xe2\x80\x99t find a single shred of evidence of Trump Russia collusion so now he\xe2\x80\x99s looking to find ANYTHING on Trump  Time to start investigating the real Criminals @HillaryClinton & rogue FBI agents!!!pic.twitter.com/vLiDXJTdxK'
p622
S'4:15 PM - 26 Jan 2018'
p623
tp624
a(S'Sorry to have to tell you, but there is no Russia-Trump collusion. pic.twitter.com/tviJs8luas'
p625
S'4:13 PM - 26 Jan 2018'
p626
tp627
a(S"It's funny. The only collusion that has been proven is between @HillaryClinton, the @DNC and Russia through Steele. There is absolutely not one single shred of evidence that @realDonaldTrump colluded. So what if he did want to get rid of #MuellerSpecialCounsel...he didnt."
p628
S'4:10 PM - 26 Jan 2018'
p629
tp630
a(S"But they've nothing to hide.\n\nNo collusion.\n\nNo ties with Russia.\n\nBut they're afraid to just answer questions.\n\nNot dodgy at all. \n\nAll innocent people don't like answering investigators questions.\n\nOnly guilty people do that.\n\nBloody obvious, innit?"
p631
S'4:02 PM - 26 Jan 2018'
p632
tp633
a(S'"Title this one: When Big Government Meets Big Brother." #RapidReactions @ckchumleyhttp://ow.ly/l20m30i1aJx\xc2\xa0'
p634
S'4:15 PM - 26 Jan 2018'
p635
tp636
a(S'Source: Strzok Hadn\xe2\x80\x99t Seen Evidence Of Collusion After 10 Months On Russia Probe http://dailycaller.com/2018/01/26/source-strzok-hadnt-seen-evidence-of-collusion-after-10-months-on-russia-probe/?utm_source=site-share\xc2\xa0\xe2\x80\xa6 via @dailycaller'
p637
S'4:13 PM - 26 Jan 2018'
p638
tp639
a(S'The Framing of Donald Trump for Russia Collusion by the Coward FBI - http://investmentwatchblog.com/?p=757890\xc2\xa0'
p640
S'4:12 PM - 26 Jan 2018'
p641
tp642
a(S'@LouDobbs Has @AdamSchiffCA lost touch with reality? Now @TheDemocrats are saying #ReleaseTheMemo is a part of Russia collusion.'
p643
S'4:07 PM - 26 Jan 2018'
p644
tp645
a(S'@NewsHour Talk about the inferior FBI killing a hostage and how they cannot find collusion with Russia'
p646
S'4:05 PM - 26 Jan 2018'
p647
tp648
a(S'The entire Russia-Trump collusion narrative was idiotic from the outset... manufactured from whole cloth, without a bit of verification to this point. Historians will shake their heads when they look back on this one. The odds are that Dems and FBI agents will face the heat now.'
p649
S'4:04 PM - 26 Jan 2018'
p650
tp651
a(S'Absolutely RIDICULOUS! Republicans(Trump)-Rumor has it There was collusion = omg need 100 investigations. 1 year later no evidence = omg more interviews.\nDEMOCRATS(Clinton)-EVIDENCE of collusion=silence. 1 year later evidence of COLLUSION/CONSPIRACY with Russia, FBI & DOJ=silence https://twitter.com/JackPosobiec/status/957032720240185344\xc2\xa0\xe2\x80\xa6'
p652
S'4:03 PM - 26 Jan 2018'
p653
tp654
a(S'Common sense tells us who really should be under investigation for their collusion with Russia. https://fb.me/2g5EmZlRq\xc2\xa0'
p655
S'4:03 PM - 26 Jan 2018'
p656
tp657
a(S'So this is what is all about the Russia collusion Witch Hunt to eliminate my president to implement globalization to create chaos to advance your wealth and your agenda no no we got your number https://twitter.com/SBelle1950/status/956916550400921600\xc2\xa0\xe2\x80\xa6'
p658
S'4:00 PM - 26 Jan 2018'
p659
tp660
a.