(lp0
(S'Not collusion treason more likely aiding and abetting the enemy is and Russia is our enemy'
p1
S'4:58 PM - 22 Oct 2017'
p2
tp3
a(S'Russia collusion by HArC and Obama admin is real, but libtards and MSM dont care'
p4
S'4:56 PM - 22 Oct 2017'
p5
tp6
a(S'Breaking: Sen. Grassley Drops Bomb On Clintons Over Russia Nuclear Collusion https://www.patriots-united.com/breaking-sen-grassley-drops-bomb-clintons-russia-nuclear-collusion/\xc2\xa0\xe2\x80\xa6'
p7
S'4:55 PM - 22 Oct 2017'
p8
tp9
a(S"Good luck,  I think she got ahold of some bad Fake News and hasn't come out of it yet. Hopefully won't be long before she'll be forced to accept Hillary's Russia collusion/sale of uranium."
p10
S'4:55 PM - 22 Oct 2017'
p11
tp12
a(S'is nothing&Pentagon WILL guarentee presidency&know Russia collusion is a CIA coup,along w any1 else paying attention'
p13
S'4:52 PM - 22 Oct 2017'
p14
tp15
a(S'The left needed distraction from Hillary, Obama, Bill, Holder, Mueller, Rosenstein Comey collusion with Russia & selling our 20% of Uranium'
p16
S'4:48 PM - 22 Oct 2017'
p17
tp18
a(S"It always has been about the democrats collusion with Russia. Since communist started in USA mid to late 1800's."
p19
S'4:48 PM - 22 Oct 2017'
p20
tp21
a(S'@BobSMueller  Should RESIGN..He\xe2\x80\x99s NECK DEEP in RUSSIA COLLUSION!\n@POTUS @jeffsessionshttps://twitter.com/pinkbelgium/status/922101567599325185\xc2\xa0\xe2\x80\xa6'
p22
S'4:47 PM - 22 Oct 2017'
p23
tp24
a(S"Judge Jeannie an idoit. trying to deflect the Russia/Trump collusion. why did Russia work so hard to make sure Clinton didn't win, smh!"
p25
S'4:47 PM - 22 Oct 2017'
p26
tp27
a(S'Not allowed 2investigate &interrogate those responsible 4actual Russia collusion based on factual evidence. Must continue Trump witch hunt. pic.twitter.com/SPHXWPpM2t'
p28
S'4:46 PM - 22 Oct 2017'
p29
tp30
a(S'@realDonaldTrump @marklevinshow @TuckerCarlson @Steven_K_Bannon Russia collusion was a scam 4 special prosecutor 2 cover up uranium one!'
p31
S'4:45 PM - 22 Oct 2017'
p32
tp33
a(S"My favorite conspiracy theory is the one about the party that's historically colluded w/' Russia accusing a former party member of collusion"
p34
S'4:45 PM - 22 Oct 2017'
p35
tp36
a(S'dnc hacked their own emails to fabricate a trump/russia collusion..get with the times'
p37
S'4:45 PM - 22 Oct 2017'
p38
tp39
a(S'Lou Dobbs- Peter Schweizer Talk About The Obama-Clinton Russia Collusion https://youtu.be/OwJRGAyarDY\xc2\xa0  Time to put #CrookedHillary in Prison'
p40
S'4:44 PM - 22 Oct 2017'
p41
tp42
a(S"The Talk of POTUS collusion with Russia is in a sharp decline almost to a non issue at this point on the MSM fake news outlets. I believe the Mueller report will show the opposite of what they've been trying to prove all along."
p43
S'4:42 PM - 22 Oct 2017'
p44
tp45
a(S'The Russia collusion more every day is proving to be a Hillary collusion, and then inventing a conspiracy involving DJT. #Alinsky.'
p46
S'4:41 PM - 22 Oct 2017'
p47
tp48
a(S"You don't get it...the Trump Russia BS is to cover up this, actual Russia collusion"
p49
S'4:41 PM - 22 Oct 2017'
p50
tp51
a(S"AGAIN  there is no evidence of collusion except between Russia and the Clintons. I'm calling it a night. Think what you will. Time will tell"
p52
S'4:41 PM - 22 Oct 2017'
p53
tp54
a(S'Special Counsel Leading Trump-Russia Collusion Investigation Is Person Who Gave Russians Uranium. https://100percentfedup.com/cant-make-special-counsel-leading-trump-russia-collusion-investigation-person-gave-russians-uranium-direction-crooked-hillary/\xc2\xa0\xe2\x80\xa6 via @100percFEDUP'
p55
S'4:40 PM - 22 Oct 2017'
p56
tp57
a(S'I have to give you credit-you are being a good pawn to distract us from the corruption of your party-Hillary Russia Collusion & corruption!'
p58
S'4:39 PM - 22 Oct 2017'
p59
tp60
a(S'Main Stream Media has a major "Blind Spot" on Democrat/Russia collusion...that dates back over seven years ago.\nhttp://thehill.com/policy/national-security/355749-fbi-uncovered-russian-bribery-plot-before-obama-administration\xc2\xa0\xe2\x80\xa6'
p61
S'4:39 PM - 22 Oct 2017'
p62
tp63
a(S'AND take focus off real Russia/Clinton collusion. https://twitter.com/bigleague2020/status/922198408483495937\xc2\xa0\xe2\x80\xa6'
p64
S'4:39 PM - 22 Oct 2017'
p65
tp66
a(S'Fire muller now and bring charges against the real Russia collusion by obamas ruthless cowardly crew https://twitter.com/carolin17951107/status/922175190791897088\xc2\xa0\xe2\x80\xa6'
p67
S'4:39 PM - 22 Oct 2017'
p68
tp69
a(S'There is truth, however, in the Hillary-Russia Collusion. The media conveniently ignored it, however.'
p70
S'4:37 PM - 22 Oct 2017'
p71
tp72
a(S'Personal attacks on Trump? Must be Deflecting frm a Dem scandal. But which?:\n-Weinstein\n-Awan Bros\n-Clinton-Obama-Russia Collusion\n...'
p73
S'4:36 PM - 22 Oct 2017'
p74
tp75
a(S'Trump is using campaign donations to pay his personal legal fees on his collusion and treason with Russia. #TrumpRussia #TrumpTrain'
p76
S'4:35 PM - 22 Oct 2017'
p77
tp78
a(S'If the June 2016 meeting between Trump Jr., Manafort, Kushner and Russian ops was really just about the Magnitsky Act, then this Trump Administration action against Magnitsky advocate Browder looks a lot like collusion with Russia after all. https://twitter.com/Billbrowder/status/922177094129541121\xc2\xa0\xe2\x80\xa6'
p79
S'4:32 PM - 22 Oct 2017'
p80
tp81
a(S'U CAN\xe2\x80\x99T MAKE THIS UP- Special Counsel Leading Trump-Russia Collusion Invest. Is Person Who Gave Russians Uranium Undr Direc-Crooked Hillary'
p82
S'4:32 PM - 22 Oct 2017'
p83
tp84
a(S'No prove of Russia collusion. Lots of prove of Russia uranium deal though'
p85
S'4:30 PM - 22 Oct 2017'
p86
tp87
a(S'The REAL Russia Collusion story.'
p88
S'4:30 PM - 22 Oct 2017'
p89
tp90
a(S'Retweeted Charlie Kirk (@charliekirk11):\n\nThe media loved reporting on "Russia collusion" until they realize the... http://fb.me/7OAksNpw1\xc2\xa0'
p91
S'4:29 PM - 22 Oct 2017'
p92
tp93
a(S'He said she said he said. What about the Russia/Clinton Uranium collusion?'
p94
S'4:29 PM - 22 Oct 2017'
p95
tp96
a(S'Uranium1 took place in early 2009..seems that there is a possibility of collusion w/Russia in the 2008 elections to make it happen so soon'
p97
S'4:29 PM - 22 Oct 2017'
p98
tp99
a(S'2. I never said there was collusion. I said that Russia interfered as has been prooven by the intelligence agencies, what Cheeto ignores'
p100
S'4:27 PM - 22 Oct 2017'
p101
tp102
a(S'We need an independent counsel with subpeona power appointed to investigate the Obama/Clinton uranium Russia-collusion issue. https://twitter.com/bbusa617/status/921553463733116928\xc2\xa0\xe2\x80\xa6'
p103
S'4:27 PM - 22 Oct 2017'
p104
tp105
a(S'Why R U so mad about HRC, w/ supposed crimes? no proof!\nThe real story is #Trump lying & committing crimes as @potus & #Collusion w/ #Russia'
p106
S'4:26 PM - 22 Oct 2017'
p107
tp108
a(S'What did you do? Bet you did nothing as did so many.  Potus went and the Government did do something. By the way Russia Collusion/Clintons'
p109
S'4:26 PM - 22 Oct 2017'
p110
tp111
a(S'If #Trump is innocent of collusion w/Russia, there is still money laundering, obstruction of justice (Comey) & Emoluments violations.'
p112
S'4:25 PM - 22 Oct 2017'
p113
tp114
a(S'bob mueller needs to be investigated for his ties to Russia and his collusion with james comey to try and take down the POTUS out of revenge https://twitter.com/JayS2629/status/922134596224942081\xc2\xa0\xe2\x80\xa6'
p115
S'4:25 PM - 22 Oct 2017'
p116
tp117
a(S"So in your inexpert opinion everything to do with Trumputin's collusion with Russia is just a conspiracy theory? Poor sad you"
p118
S'4:25 PM - 22 Oct 2017'
p119
tp120
a(S'Especially considering the 100% proven collusion between the Trump admin and Russia on @BillBrowderhttps://twitter.com/amy_siskind/status/922216988549595136\xc2\xa0\xe2\x80\xa6'
p121
S'4:23 PM - 22 Oct 2017'
p122
tp123
a(S'Uranium1 took place in early 2009..seems that there is a possibility of collusion w/Russia in the 2008 elections to make it happen so soon'
p124
S'4:22 PM - 22 Oct 2017'
p125
tp126
a(S'Journalists push collusion narrative for a year, go silent b/c Russia paid #FusionGps that employs their friendshttp://thefederalist.com/2017/10/19/russia-obsessed-media-shocked-discover-facts-russia-stories-discredit-narrative/\xc2\xa0\xe2\x80\xa6'
p127
S'4:19 PM - 22 Oct 2017'
p128
tp129
a(S'@charliekirk11 says "Media loved reporting on "Russia collusion" until they realize only ones colluding w Russia were Bill & Hillary Clinton'
p130
S'4:19 PM - 22 Oct 2017'
p131
tp132
a(S'Exactly one does not mitigate the other. Where is the outrage over the Clinton/Russia collusion. Impale both of them if they\xe2\x80\x99re guilty.'
p133
S'4:18 PM - 22 Oct 2017'
p134
tp135
a(S"Bankruptcy sexual harassment habitual liar Russia collusion golfing on taxpayers dime stripper wife you're a disgrace to the White House"
p136
S'4:18 PM - 22 Oct 2017'
p137
tp138
a(S'YOU CAN\xe2\x80\x99T MAKE THIS UP: Special Counsel Leading Trump-Russia Collusion Investigation Is Person Who https://100percentfedup.com/cant-make-special-counsel-leading-trump-russia-collusion-investigation-person-gave-russians-uranium-direction-crooked-hillary/\xc2\xa0\xe2\x80\xa6 via @100percFEDUP'
p139
S'4:18 PM - 22 Oct 2017'
p140
tp141
a(S'Mueller is so biased, corrupt, & conflicted. He should be investigated, not investigating nonsense of Russia Collusion Fraud!'
p142
S'4:17 PM - 22 Oct 2017'
p143
tp144
a(S'@HeatherNauert Blood on your hands. Definitely collusion. Bill Browder\xe2\x80\x99s US visa revoked same day Putin issues arrest warrant #russia'
p145
S'4:17 PM - 22 Oct 2017'
p146
tp147
a(S"2. Russian collusion is working its way via Mueller investigation and Congress.  The meeting of Russia with Trump's son re adoption."
p148
S'4:16 PM - 22 Oct 2017'
p149
tp150
a(S'The man investigating President Trump for Russia collusion hoax colluded with Russia himself https://www.mediaite.com/columnists/in-case-you-missed-it-robert-mueller-was-fbi-director-during-the-russia-uranium-investigation/\xc2\xa0\xe2\x80\xa6'
p151
S'4:14 PM - 22 Oct 2017'
p152
tp153
a(S'This is a tough one. No way to figure it out really. Who among us doesn\xe2\x80\x99t have a blind spot on Russia, because of collusion to steal an election and @DarthPutinKGB having a pee pee tape and financial kompromathttps://twitter.com/natashabertrand/status/922136326471905280\xc2\xa0\xe2\x80\xa6'
p154
S'4:14 PM - 22 Oct 2017'
p155
tp156
a(S"And connected - @realDonaldTrump still hasn't fulfilled the legal requirement to impose sanctions on Russia.  Farce + possible collusion?"
p157
S'4:13 PM - 22 Oct 2017'
p158
tp159
a(S'Benghazi, CF pay to play, Uranium to Russia, 30,000 e-mails deleted, Fast & furious \n DNC suicide, murder, DNC media collusion, \n etc. pic.twitter.com/D0qUJO28em'
p160
S'4:12 PM - 22 Oct 2017'
p161
tp162
a(S"Political morass? My ass! U just can't find ANY Russo-Trump collusion! The only Russian meddling was the Uranium One scandal selling Russia"
p163
S'4:12 PM - 22 Oct 2017'
p164
tp165
a(S'Collusion to throw an election?  Colluding with Russia is not illegal?  How incredibly dumb are you?  Collusion in this case is TREASON.'
p166
S'4:12 PM - 22 Oct 2017'
p167
tp168
a(S"@HillaryClinton YOU'RE THE REAL RUSSIAN COLLUSION\n#WhatHappened YOU LOST AND TRIED TO SELL OUR COUNTRY TO RUSSIA"
p169
S'4:11 PM - 22 Oct 2017'
p170
tp171
a(S'I did an almost impossible thing to do for a Republican-got Gorsuch confirmed! Now collusion w/ Russia and Trump brought up again?'
p172
S'4:11 PM - 22 Oct 2017'
p173
tp174
a(S'Special Counsel Leading Trump-Russia Collusion Investigation Is Person Who Gave Russians Uranium Under Crook Hillary https://100percentfedup.com/cant-make-special-counsel-leading-trump-russia-collusion-investigation-person-gave-russians-uranium-direction-crooked-hillary/\xc2\xa0\xe2\x80\xa6'
p175
S'4:10 PM - 22 Oct 2017'
p176
tp177
a(S'What do you think Mueller and Company are doing?   They are as we speak destroying all traces/evidence of Clinton/Russia collusion\n@POTUShttps://twitter.com/DonaldJTrumpJr/status/922236888840331264\xc2\xa0\xe2\x80\xa6'
p178
S'4:09 PM - 22 Oct 2017'
p179
tp180
a(S'"The media loved reporting on \'Russia collusion\' until they realized the only ones colluding with Russia were Bill and Hillary Clinton!" https://twitter.com/charliekirk11/status/921925000990359553\xc2\xa0\xe2\x80\xa6'
p181
S'4:08 PM - 22 Oct 2017'
p182
tp183
a(S'Can I ask why u jump from collusion to treason? Still no evidence of Trump Russia collusion but even if there was, collusion is not illegal'
p184
S'4:08 PM - 22 Oct 2017'
p185
tp186
a(S'The Russia collusion is the next Win'
p187
S'4:07 PM - 22 Oct 2017'
p188
tp189
a(S'U have to commit a crime 1st to impeach, like pay-4-play, Benghazi, Uranium 1, trade 5 terrorists 4 traitor, Fast/Furious, Russia collusion https://twitter.com/Cernovich/status/922128645258330113\xc2\xa0\xe2\x80\xa6'
p190
S'4:07 PM - 22 Oct 2017'
p191
tp192
a(S"His argument falls flat as Russia's the 1 geo he's yet been able to ink significant deals in. Pisses him off yet weakens collusion narrative"
p193
S'4:07 PM - 22 Oct 2017'
p194
tp195
a(S'Another deflection by the First Family of Kleptocracy from the Russia meddling and collusion investigation.'
p196
S'4:06 PM - 22 Oct 2017'
p197
tp198
a(S"That's how long will take 2find DJTRussia collusion ad infinitum BUT Hrc,Mueller,BHO  Russia collusion right N front of us"
p199
S'4:06 PM - 22 Oct 2017'
p200
tp201
a(S"Russia hasn't done shit the cia/nsa have had trumps emails,texts etc for years if there was collusion this would be over already unlike HRC"
p202
S'4:04 PM - 22 Oct 2017'
p203
tp204
a(S"Old socialist strategy :blame your opponent for every thing you're guilty of:Russia collusion ,Facists,racists,intolerant & undemocratic"
p205
S'4:04 PM - 22 Oct 2017'
p206
tp207
a(S'He cheated Fake president Trump/Russia collusion impeach trump @realDonaldTrump'
p208
S'4:02 PM - 22 Oct 2017'
p209
tp210
a(S"Lindsey Graham says Trump 'has a blind spot on Russia' @LindseyGrahamSC Easy;#45 guilty collusion w/Russia #Resisthttp://www.businessinsider.com/lindsey-graham-trump-blind-spot-on-russia-2017-10\xc2\xa0\xe2\x80\xa6"
p211
S'4:02 PM - 22 Oct 2017'
p212
tp213
a(S'@DonaldJTrumpJr @FLOTUS @realDonaldTrump Definitely collusion. Bill Browder\xe2\x80\x99s US visa revoked same day Putin issues arrest warrant #russia'
p214
S'4:02 PM - 22 Oct 2017'
p215
tp216
a(S'Olliding with the Russian again and again and again. How can Russia ban someone and the USA revoked ur visa if it\xe2\x80\x99s not collusion.'
p217
S'4:02 PM - 22 Oct 2017'
p218
tp219
a(S'We are fighting against pure evil. Russia put their illegitimate asset DT into power w DT & Regimes Collusion & Coordination.  It\xe2\x80\x99s DT or US https://twitter.com/edanclay/status/922003150734798848\xc2\xa0\xe2\x80\xa6'
p220
S'4:01 PM - 22 Oct 2017'
p221
tp222
a(S'Then why aren\xe2\x80\x99t you testing the Clintons, Obama and Russia uranium collusion?  @realDonaldTrump tweeted so its newsworthy as u cover tweets'
p223
S'4:01 PM - 22 Oct 2017'
p224
tp225
a(S'9 months and not a whiff. Sounds like a made up investigation. The only real Russia collusion is Hillary and #UraniumOnehttps://twitter.com/jdavebrinkley/status/922232620620148737\xc2\xa0\xe2\x80\xa6'
p226
S'4:00 PM - 22 Oct 2017'
p227
tp228
a(S"Hey Mueller...THE URANIUM 1 Scandal is all about the crooked Obama Regime collusion with Russia. Let's have your report or are you involved?"
p229
S'3:59 PM - 22 Oct 2017'
p230
tp231
a(S'Yes...here is the REAL Russia Collusion!  Lieing d*** Democrats!  Here is one of the swamp creatures they have been trying to protect!  The truth always comes out!'
p232
S'3:58 PM - 22 Oct 2017'
p233
tp234
a(S'The media is shocked, shocked I tell you! Discovers facts that discredit Russia-Trump collusion fairytales: http://ift.tt/2l7wXye\xc2\xa0'
p235
S'3:57 PM - 22 Oct 2017'
p236
tp237
a(S"Mueller isn t investigating #Trump Russia Collusion He's covering his tracks & Clinton's tracks All a big Smoke Screen at Taxpayer expense "
p238
S'3:55 PM - 22 Oct 2017'
p239
tp240
a(S'FBI Covers Up Obama/Clinton Russia Uranium Collusion >>> Bribery Corruption \n\nhttp://thehill.com/policy/national-security/355749-fbi-uncovered-russian-bribery-plot-before-obama-administration\xc2\xa0\xe2\x80\xa6pic.twitter.com/46ScEIERK2'
p241
S'3:55 PM - 22 Oct 2017'
p242
tp243
a(S"@LindseyGrahamSC It's called Russia collusion. How about you do something about it https://twitter.com/natashabertrand/status/922136326471905280\xc2\xa0\xe2\x80\xa6"
p244
S'3:55 PM - 22 Oct 2017'
p245
tp246
a(S"Call your Senators and demand an inquiry into Trump's collusion with Russia on this. Taking away Browder's visa helps no one but Putin."
p247
S'3:54 PM - 22 Oct 2017'
p248
tp249
a(S'Wait, is the Pres of US accusing the FBI of collusion with Russia? What the what?! Why isn\xe2\x80\x99t this headline news? https://twitter.com/realdonaldtrump/status/920981920787386368\xc2\xa0\xe2\x80\xa6'
p250
S'3:53 PM - 22 Oct 2017'
p251
tp252
a(S'It\xe2\x80\x99s criminal.  The Clinton collusion and profiteering with Russia must be investigated and reported.'
p253
S'3:51 PM - 22 Oct 2017'
p254
tp255
a(S'Something very wrong about this group True Russia collusion https://www.wsj.com/articles/the-fusion-collusion-1508455434\xc2\xa0\xe2\x80\xa6'
p256
S'3:51 PM - 22 Oct 2017'
p257
tp258
a(S"@LindseyGrahamSC.  Trumps blind spot on Russia is collusion, Russian mafia. Just thought I'd help clear up any confusion."
p259
S'3:49 PM - 22 Oct 2017'
p260
tp261
a(S"#FollowthMoney It's not that difficult. #Treason #Collusion CFIUS lied 2Congress claiming Uranium was sold 2Candian Co. not Russia https://twitter.com/MichellePiper18/status/922073132139245568\xc2\xa0\xe2\x80\xa6"
p262
S'3:48 PM - 22 Oct 2017'
p263
tp264
a(S'No ma\xe2\x80\x99am. U brought up Russia collusion, to which u offered no proof. U brought up Russian hacking.'
p265
S'3:48 PM - 22 Oct 2017'
p266
tp267
a(S'We executed Ethel Rosenberg for Treason w Russia on much less evidence than we have on DT & Regime right now for Collusion & Coordination. https://twitter.com/mcfaul/status/922201327920279552\xc2\xa0\xe2\x80\xa6'
p268
S'3:48 PM - 22 Oct 2017'
p269
tp270
a(S'Be sure they are getting rid of all evidence against Hillary and her  Russia "Collusion".'
p271
S'3:47 PM - 22 Oct 2017'
p272
tp273
a(S'Now that the medias Gods are in the news about sum REAL Russia collusion - Barry + Hitlery \n U cannot find one peep outa #Fakenews #CNN  LOL'
p274
S'3:47 PM - 22 Oct 2017'
p275
tp276
a(S'#Swamp corruption is so deep  #Mueller is investigating @realDonaldTrump fake news Russia Collusion #MSM so silent I LOATHE their 1st betray'
p277
S'3:46 PM - 22 Oct 2017'
p278
tp279
a(S'RT RuthieRedSox: Anyone else curious what Mueller is actually doing, besides creating a fake Russia collusion stor\xe2\x80\xa6 https://twitter.com/i/web/status/922133219629260800\xc2\xa0\xe2\x80\xa6'
p280
S'3:46 PM - 22 Oct 2017'
p281
tp282
a(S'This whole Russia collusion mess reminds me of tjose infamous words: BE CAREFUL WHAT YOU WISH FOR...it really seems to be blowing up on DEMS'
p283
S'3:45 PM - 22 Oct 2017'
p284
tp285
a(S'If NO collusion Trump/Russia, can still "create documents" & make it work. https://twitter.com/loudobbs/status/922167111476228096\xc2\xa0\xe2\x80\xa6'
p286
S'3:45 PM - 22 Oct 2017'
p287
tp288
a(S'@CNN @cnni @cnnbrk @CNBC  Just in Russia and Clintons collusion NOT TRUMP. So what now? Lol lol lol lol that"s messed up. Hahahahahaha'
p289
S'3:44 PM - 22 Oct 2017'
p290
tp291
a(S'YOU CAN\xe2\x80\x99T MAKE THIS UP: Special Counsel Leading Trump-Russia Collusion Investigation Is Person Who Gave Russians... http://fb.me/6poHo3wpN\xc2\xa0'
p292
S'3:44 PM - 22 Oct 2017'
p293
tp294
a(S"Hillary needs to personally pay back Trump and his cabinet members lawyer fees they've had to pay for this bogus Trump/Russia collusion.."
p295
S'3:42 PM - 22 Oct 2017'
p296
tp297
a(S'NOT FAKE NEWS. It\xe2\x80\x99s collusion. Definitely collusion. \xe2\x80\x9cBill Browder\xe2\x80\x99s US visa revoked same day Putin issue arrest warrant\xe2\x80\x9d #russia #putin'
p298
S'3:39 PM - 22 Oct 2017'
p299
tp300
a(S"I'd say it's a little of both. Just look at how many ppl in Tr*mp's cabinet have had ties to Russia. Someone convinced them that, 'C'mon, collusion will be fun! You'll be rich!'"
p301
S'3:39 PM - 22 Oct 2017'
p302
tp303
a(S"Thn again, Kushner accrding to himslf, has dne nothng wrng! No collusion; no financial ties 2 Russia; no foreign gov't favors? Wht pressure?"
p304
S'3:39 PM - 22 Oct 2017'
p305
tp306
a(S"Democrats' Real, Pervasive Collusion With Russia Somehow Lost In Media's\nTHIS TOO IS ALGORITHMED ALT LEFT-"
p307
S'3:39 PM - 22 Oct 2017'
p308
tp309
a(S'Really?  How long have you idiots been on the Trump Russia collusion? Any evidence? NOPE. But we got plenty pointing toward the left. HA!!'
p310
S'3:39 PM - 22 Oct 2017'
p311
tp312
a(S'You want collusion?  Look into the Clintons selling uranium to Russia for "Clinton Foundation" cash.'
p313
S'3:38 PM - 22 Oct 2017'
p314
tp315
a(S'Mueller busy covering up #Clinton Russia Collusion which he played a big part'
p316
S'3:37 PM - 22 Oct 2017'
p317
tp318
a(S'Putin put this British critic on his hit list - then trump BANS him from the USA. \nFOLLOW THIS STORY. Pure #collusion w Russia #TrumpRussiahttps://twitter.com/billbrowder/status/922177094129541121\xc2\xa0\xe2\x80\xa6'
p319
S'3:36 PM - 22 Oct 2017'
p320
tp321
a(S"Really? That's what you got from this when the collusion between Dems And russia continues to build momemtim. Hahaha"
p322
S'3:35 PM - 22 Oct 2017'
p323
tp324
a(S'Actually, the nothing burger is the Trump.Russia collusion.  Even CNN had a producer admit that.'
p325
S'3:34 PM - 22 Oct 2017'
p326
tp327
a(S'@CNNnewsroom @realDonaldTrump  This just in we were wrong! RUSSIA COLLUSION WAS WITH BILL AND HILLARY. pic.twitter.com/3xq6BzgOLO'
p328
S'3:33 PM - 22 Oct 2017'
p329
tp330
a(S'That is truly sad and I pray for them. WHAT ABOUT RUSSIA COLLUSION AND  #URANIUMONE AND #TREASON.'
p331
S'3:32 PM - 22 Oct 2017'
p332
tp333
a(S'@LindseyGrahamSC @HouseGOP  Yep, collusion and probably treason witch you all seem to ignore.  Time to put country over party and your own involvement with Russia. We all know about it! https://twitter.com/tedlieu/status/922205474195357696\xc2\xa0\xe2\x80\xa6'
p334
S'3:32 PM - 22 Oct 2017'
p335
tp336
a(S'@CNNPolitics @realDonaldTrump @maddow Dumb Dumbs collusion Russia Russia and CLINTONS. How much money do you people get to distort the truth pic.twitter.com/KirprK8ZN5'
p337
S'3:32 PM - 22 Oct 2017'
p338
tp339
a(S"Gee you don't suppose he can't no evidence of collusion between trump and Russia now fbi investigating Hillary and Russia uranium deal"
p340
S'3:32 PM - 22 Oct 2017'
p341
tp342
a(S"Forget the media. HRC made choices to determine her destiny. Court date will soon come. Her Russia-Uranium 1 collusion story is gettin' HOT."
p343
S'3:32 PM - 22 Oct 2017'
p344
tp345
a(S'Is their any direct proof? I mean same question being asked on Russia collusion so I am open to investigation and know nothingburger'
p346
S'3:31 PM - 22 Oct 2017'
p347
tp348
a(S'The FBI has found that Russia gave $145 Million to the Clinton Foundation after Clintion gave Russia 10% of U.S. Uranium. Russian Collusion?'
p349
S'3:30 PM - 22 Oct 2017'
p350
tp351
a(S'Comey told you Trump was not under investigation for Russia collusion. Why did you lie? Hillary was: http://thehill.com/policy/national-security/355749-fbi-uncovered-russian-bribery-plot-before-obama-administration\xc2\xa0\xe2\x80\xa6'
p352
S'3:29 PM - 22 Oct 2017'
p353
tp354
a(S'It\xe2\x80\x99s definitely collusion. @realDonaldTrump #russia #putinhttps://twitter.com/billbrowder/status/922199750547509248\xc2\xa0\xe2\x80\xa6'
p355
S'3:29 PM - 22 Oct 2017'
p356
tp357
a(S"Trump's done nothing n look what he's having 2 put up w! But Sessions needs 2 get moving on Dem Russia collusion! Or b fired!"
p358
S'3:28 PM - 22 Oct 2017'
p359
tp360
a(S'SQUIRREL!!!! #RUSSIA #COLLUSION #TREASON'
p361
S'3:28 PM - 22 Oct 2017'
p362
tp363
a(S'The MSM rather report on a woman wearing bright clothing with bedazzled hats than REAL Clinton/Russia collusion.\n\nSAD and pathetic! pic.twitter.com/lahu0A7WZL'
p364
S'3:28 PM - 22 Oct 2017'
p365
tp366
a(S'This is very alarming. Forget about collusion with Russia during the election. The US regime is still colluding w/them. https://twitter.com/billbrowder/status/922226594361544706\xc2\xa0\xe2\x80\xa6'
p367
S'3:27 PM - 22 Oct 2017'
p368
tp369
a(S"It's about time Congress starts to investigate the real and only Russia collusion activity. https://twitter.com/joey_girardi/status/922213352008503296\xc2\xa0\xe2\x80\xa6"
p370
S'3:26 PM - 22 Oct 2017'
p371
tp372
a(S'The #MSM  ALL OVER @POTUS tweets !!! \n\nUNTIL : @POTUS tweets about Russia @HillaryClinton collusion than of course CRICKETS \n\ndumbasses '
p373
S'3:26 PM - 22 Oct 2017'
p374
tp375
a(S'Keep shooting at the Fake President Ms. Wilson @realDonaldTrump #Collusion #Russia'
p376
S'3:26 PM - 22 Oct 2017'
p377
tp378
a(S"If this isn't further evidence on the Trump administration collusion with Putin & Russia.  #TrumpIsATraitor #ManchurianPresident #Impeach45"
p379
S'3:24 PM - 22 Oct 2017'
p380
tp381
a(S"That's a really odd way to label collusion....  Lindsey Graham: Trump Administration Has a 'Blind Spot' on Russia http://a.msn.com/01/en-us/AAtRBhQ?ocid=st\xc2\xa0\xe2\x80\xa6"
p382
S'3:23 PM - 22 Oct 2017'
p383
tp384
a(S'There is no evidence of Clinton collusion with Russia. Just that the Republicans want to interview the informant (and if the Benghazi...'
p385
S'3:23 PM - 22 Oct 2017'
p386
tp387
a(S'Russia Collusion Investigation Is Person Who Gave RussiaUranium Under Direction Of Crooked Hillary https://100percentfedup.com/cant-make-special-counsel-leading-trump-russia-collusion-investigation-person-gave-russians-uranium-direction-crooked-hillary/\xc2\xa0\xe2\x80\xa6 via @100percFEDUP'
p388
S'3:23 PM - 22 Oct 2017'
p389
tp390
a(S'Mueller interested?  Russia, collusion, but not election or Trump.'
p391
S'3:21 PM - 22 Oct 2017'
p392
tp393
a(S'#ForTheRecord:\nNow The Trump-Russia Collusion Story Will Go Away. Media, Leftists & Trump-Haters Can Now Delete Their #FakeNews Stories #SADhttps://twitter.com/charliekirk11/status/921925000990359553\xc2\xa0\xe2\x80\xa6'
p394
S'3:21 PM - 22 Oct 2017'
p395
tp396
a(S'What about this Russia collusion? Lies. Ppl spin shit for their own agendas and truth is hidden. There are white and black supremacists.'
p397
S'3:21 PM - 22 Oct 2017'
p398
tp399
a(S'Hey listen, this Russia-collusion thing was long in the planning. pic.twitter.com/qdTAsMRKAT'
p400
S'3:18 PM - 22 Oct 2017'
p401
tp402
a(S'Why is @JonesDay allowed to represent/be paid by @POTUS @GOP + Putin/Russia + @Trump campaign for collusion w/Russia?\nAny conflict waivers?'
p403
S'3:18 PM - 22 Oct 2017'
p404
tp405
a(S"Then you have Lindsey Graham on MTP: I don't know why Trump won, I don't think anyone does.  Ha ha ha cheating, Russia, collusion . . ."
p406
S'3:18 PM - 22 Oct 2017'
p407
tp408
a(S'Exactly....  eye on the ball folks.  Russia. Collusion. Election tampering.'
p409
S'3:15 PM - 22 Oct 2017'
p410
tp411
a(S'He chose to be a SJW instead of a QB.  Teams took notice.  Sit this one out Shifty.  Go back to the Russia \xe2\x80\x9ccollusion\xe2\x80\x9d'
p412
S'3:15 PM - 22 Oct 2017'
p413
tp414
a(S"Can't wait. WE need a few answers to a lot of questions. Maybe the collusion is Mueller and Russia, not Trump."
p415
S'3:14 PM - 22 Oct 2017'
p416
tp417
a(S'You are painfully desperate to deflect the news spotlight from your collusion with Russia. Good luck with that. https://twitter.com/realdonaldtrump/status/921716470140325889\xc2\xa0\xe2\x80\xa6'
p418
S'3:13 PM - 22 Oct 2017'
p419
tp420
a(S"She'll get an apology about the same time they find proof of Pres Trumps Russia collusion"
p421
S'3:11 PM - 22 Oct 2017'
p422
tp423
a(S'Sorry,  but the ONLY Collusion w/Russia has been with the Democrats'
p424
S'3:09 PM - 22 Oct 2017'
p425
tp426
a(S"An indictment. They're waiting for Mueller/NY DA. Though thanks to the Daily Beast, collusion with Russia is out in the open now."
p427
S'3:09 PM - 22 Oct 2017'
p428
tp429
a(S'What century are you talking about? There\xe2\x80\x99s new information about Clinton\xe2\x80\x99s pay to play collusion with Russia. Read a newspaper b4 you tweet'
p430
S'3:08 PM - 22 Oct 2017'
p431
tp432
a(S'Don\xe2\x80\x99t Get Your Hopes Up: Why Trump\xe2\x80\x99s Connections to Russia Are So Hard to Detect, You\xe2\x80\x99d Need 14 Seconds on Google. So. Um. No Collusion.'
p433
S'3:05 PM - 22 Oct 2017'
p434
tp435
a(S'The real news about Russian collusion is bad news for #HillaryClinton. http://ow.ly/8C6M30g05TW\xc2\xa0 #fakenews #Russia'
p436
S'3:05 PM - 22 Oct 2017'
p437
tp438
a(S'there has been no evidence of collusion with Trump & Russia.\nthere has been evidence that Russia wanted chaos in American democracy.'
p439
S'3:05 PM - 22 Oct 2017'
p440
tp441
a(S'Based on what what?All the evidence points to Obama obstruction & Hillary collusion/corruption\nArrest Hillary/Obama before going for Russia!'
p442
S'3:04 PM - 22 Oct 2017'
p443
tp444
a(S'if he does then all the Clinton -Obama /Russia collusion will be exposed'
p445
S'3:03 PM - 22 Oct 2017'
p446
tp447
a(S"He was part if the Hillary & Obama collusion with Russia...yet he's trying to pin it on Trump"
p448
S'3:03 PM - 22 Oct 2017'
p449
tp450
a(S'Hillary, obama, uranium one and their collusion with Russia. LOL '
p451
S'3:02 PM - 22 Oct 2017'
p452
tp453
a(S'Maybe. How about reporting on real Russia collusion. http://thefederalist.com/2017/10/19/russia-obsessed-media-shocked-discover-facts-russia-stories-discredit-narrative/#.WezkTtsZ-oY.twitter\xc2\xa0\xe2\x80\xa6'
p454
S'3:01 PM - 22 Oct 2017'
p455
tp456
a(S'Trump-Russia Collusion Investigation Person Gave Russians Uranium Direction Of Hillary https://100percentfedup.com/cant-make-special-counsel-leading-trump-russia-collusion-investigation-person-gave-russians-uranium-direction-crooked-hillary/\xc2\xa0\xe2\x80\xa6 via @100percFEDUP'
p457
S'3:00 PM - 22 Oct 2017'
p458
tp459
a(S'you people are to PATHEIC that you STILL believe this BLOW HARD & all his lies, there was Russia collusion w/ Obama, Hillary & Mueller.'
p460
S'3:00 PM - 22 Oct 2017'
p461
tp462
a(S"It's outrageous. It's so plainly obvious that collusion with Russia before and after the election exists. Trump is a traitor 100%! Traitor https://twitter.com/preetbharara/status/922207698254315520\xc2\xa0\xe2\x80\xa6"
p463
S'2:59 PM - 22 Oct 2017'
p464
tp465
a(S'@SpeakerRyan Y is there no wasserman -shultz investigation, u can waste time on russia collusion but u will not after real treason!!!!!'
p466
S'2:59 PM - 22 Oct 2017'
p467
tp468
a(S'There are so many nasty \xe2\x80\x9cdeals\xe2\x80\x9d so a lot just goes unnoticed. I think that press must filter the noise and focus on Russia collusion.'
p469
S'2:58 PM - 22 Oct 2017'
p470
tp471
a(S'@HouseGOP tired of waiting for wasserman-schultz treason case to b started, what r u waiting on, u have time to waste on russia collusion!!!'
p472
S'2:57 PM - 22 Oct 2017'
p473
tp474
a(S"Yep! Now that the real culprits of Russia collusion is being exposed, they need to once again DISTRACT! They don't dare report the truth."
p475
S'2:56 PM - 22 Oct 2017'
p476
tp477
a(S'Funny how the media LOVED reporting on \xe2\x80\x9cRUSSIAN COLLUSION\xe2\x80\x9d until they found out that the only people colluding with Russia were the Clintons'
p478
S'2:49 PM - 22 Oct 2017'
p479
tp480
a(S'Is Russia collusion a conspiracy?'
p481
S'2:47 PM - 22 Oct 2017'
p482
tp483
a(S'The US in collusion w/Russia? Sounds familiar. https://twitter.com/billbrowder/status/922177094129541121\xc2\xa0\xe2\x80\xa6'
p484
S'2:47 PM - 22 Oct 2017'
p485
tp486
a(S"How about defaming the FREE Press?? How about lying?? How about collusion with Russia.. that's Treason.  Oh. Puerto Rico debacle. Enough?"
p487
S'2:45 PM - 22 Oct 2017'
p488
tp489
a(S'Why is muller still there after proof he wss in middle of uranium one treason collusion with russia and Clintons'
p490
S'2:45 PM - 22 Oct 2017'
p491
tp492
a(S'YOU CAN\xe2\x80\x99T MAKE THIS UP: Special Counsel Leading Trump-Russia Collusion Investigation Is ...........https://100percentfedup.com/cant-make-special-counsel-leading-trump-russia-collusion-investigation-person-gave-russians-uranium-direction-crooked-hillary/\xc2\xa0\xe2\x80\xa6 via @100percFEDUP'
p493
S'2:43 PM - 22 Oct 2017'
p494
tp495
a(S'Absolute collusion with Russia. Clintons mirror their own accusations.'
p496
S'2:43 PM - 22 Oct 2017'
p497
tp498
a(S"#Trump plans to help pay aides' legal costs to cover up #Russia  & #Kremlin collusion https://apple.news/AfeFftiDvQqqY4IyQ-oGHbA\xc2\xa0\xe2\x80\xa6"
p499
S'2:42 PM - 22 Oct 2017'
p500
tp501
a(S'Ghost Stories: Russia Spied On Hillary In 2008.\n\nFBI Cover-Up.\n\nTHIS IS The Russian Collusion Story.\n\n#MAGA'
p502
S'2:42 PM - 22 Oct 2017'
p503
tp504
a(S"Right. B/c that's the only way you understand it. Spoiler alert: THERE IS NO TRUMP-RUSSIA COLLUSION."
p505
S'2:41 PM - 22 Oct 2017'
p506
tp507
a(S'Pedogate Busts | Russia/Obama Nuclear Collusion | The CIA Sucks https://youtu.be/mMVX1iGgRac\xc2\xa0 via @YouTube'
p508
S'2:39 PM - 22 Oct 2017'
p509
tp510
a(S'She keeps covering herself! How many talk shows has she been on lately!  Too many! Looks like Russia collusion is backfiring!'
p511
S'2:38 PM - 22 Oct 2017'
p512
tp513
a(S'Uranium one uranium one uranium one uranium one\nThe real collusion with Russia'
p514
S'2:38 PM - 22 Oct 2017'
p515
tp516
a(S'Can\xe2\x80\x99t wait till truth comes out about your collusion with Russia n see u try to lie your way out of it all the way to jail! #LockHimUp'
p517
S'2:38 PM - 22 Oct 2017'
p518
tp519
a(S'Maybe @LindseyGrahamSC could ask Trump about his collusion with Russia next time they golf together.\nhttps://twitter.com/NatashaBertrand/status/922136326471905280\xc2\xa0\xe2\x80\xa6'
p520
S'2:38 PM - 22 Oct 2017'
p521
tp522
a(S"Here's who cheats.  Hillary Clinton getting $145 million in bribes from Russia, then creating Trump collusion lie: http://thehill.com/policy/national-security/355749-fbi-uncovered-russian-bribery-plot-before-obama-administration\xc2\xa0\xe2\x80\xa6"
p523
S'2:38 PM - 22 Oct 2017'
p524
tp525
a(S"Because who wouldn't take DJ seriously while he lies about collusion with Russia during campaign?"
p526
S'2:37 PM - 22 Oct 2017'
p527
tp528
a(S'The media loved reporting on "Russia collusion" until they realized the only ones colluding with Russia were Bill and Hillary Clinton!'
p529
S'2:36 PM - 22 Oct 2017'
p530
tp531
a(S"HRC gave Russia 20% of USA's uranium. Why isn't that the focus of  Mr. Mueller's Russian collusion  investigation?"
p532
S'2:36 PM - 22 Oct 2017'
p533
tp534
a(S'Lou Dobbs Tonight 10/18/17 Fox Business October 18, 2017 CLINTON-RUSSIA COLLUSION, TRUMP, NFL http://fb.me/8t92ELNZN\xc2\xa0'
p535
S'2:35 PM - 22 Oct 2017'
p536
tp537
a(S'Special Counsel Leading Trump-Russia Collusion Investigation Is Under Direction Of Crooked Hillary https://100percentfedup.com/cant-make-special-counsel-leading-trump-russia-collusion-investigation-person-gave-russians-uranium-direction-crooked-hillary/\xc2\xa0\xe2\x80\xa6 via @100percFEDUP'
p538
S'2:35 PM - 22 Oct 2017'
p539
tp540
a(S'Trump + Russia = COLLUSION!! https://twitter.com/tedlieu/status/922205474195357696\xc2\xa0\xe2\x80\xa6'
p541
S'2:34 PM - 22 Oct 2017'
p542
tp543
a(S'Weird, not seeing any comment on the Uranium One Russia scandal from the same people who created the Russian Election Collusion story'
p544
S'2:34 PM - 22 Oct 2017'
p545
tp546
a(S'Corrupt MSM creates fake stories about Trump and Russia while covering up actual collusion between Obama/Hillary and Russia. #UraniumOnepic.twitter.com/LocvIJLsrR'
p547
S'2:33 PM - 22 Oct 2017'
p548
tp549
a(S'YOU CAN\xe2\x80\x99T MAKE THIS UP: Special Counsel Leading Trump-Russia Collusion Investigation Is Person Who... http://ow.ly/V5pZ100Pyv3\xc2\xa0 @3lectric5heep'
p550
S'2:31 PM - 22 Oct 2017'
p551
tp552
a(S'PLEASE. Trump/Russia collusion. FAKE. Clinton/Russia. Truth now coming out. Almost one yr. NOTHING. YOU liberals are grasping at nothing '
p553
S'2:29 PM - 22 Oct 2017'
p554
tp555
a(S'Russia and Trump is a smoke screen put in place by the same folks that are hiding the real collusion with Hillary,Obama and tons of $$$$$'
p556
S'2:28 PM - 22 Oct 2017'
p557
tp558
a(S"Oberman is the only Lib left talking about Russia now that it's obvious that the Uranium One deal is the REAL Russian collusion cover up! "
p559
S'2:28 PM - 22 Oct 2017'
p560
tp561
a(S'Wrong. I call trump out for his buffoonery when it\xe2\x80\x99s warranted. There\xe2\x80\x99s been ZERO evidence re Trump/Russia collusion'
p562
S'2:27 PM - 22 Oct 2017'
p563
tp564
a(S'No you just used your collusion with Russia'
p565
S'2:27 PM - 22 Oct 2017'
p566
tp567
a(S'If they had anything on President Trump collusion with Russia whatsoever it would have already been pointed out and broadcasted to the world'
p568
S'2:25 PM - 22 Oct 2017'
p569
tp570
a(S'Can you imagine the hypocrisy if #CNN or #MSNBC talk about the Russia collusion story, but mention nothing about Uranium 1? #Gutfeldhttps://twitter.com/FoxNews/status/922211449069596672\xc2\xa0\xe2\x80\xa6'
p571
S'2:23 PM - 22 Oct 2017'
p572
tp573
a(S'Lou Dobbs Tonight 10/18/17 Fox Business October 18, 2017 CLINTON-RUSSIA COLLUSION, TRUMP, NFL https://buff.ly/2l431TJ\xc2\xa0'
p574
S'2:23 PM - 22 Oct 2017'
p575
tp576
a(S'One more Russia-Trump collusion https://twitter.com/billbrowder/status/922177094129541121\xc2\xa0\xe2\x80\xa6'
p577
S'2:22 PM - 22 Oct 2017'
p578
tp579
a(S'The media loved reporting on "#RussiaGate collusion" until they realize the only ones colluding with Russia were Bill and @HillaryClinton !https://twitter.com/charliekirk11/status/921925000990359553\xc2\xa0\xe2\x80\xa6'
p580
S'2:22 PM - 22 Oct 2017'
p581
tp582
a(S'Trump ally Stone denies collusion with Russia | Reuters https://goo.gl/3MHjS1\xc2\xa0'
p583
S'2:21 PM - 22 Oct 2017'
p584
tp585
a(S"To the left it's a wacky conspiracy theory meant to hide Trumps collusion with Russia. The MSM has ruined the minds of the left with lies."
p586
S'2:21 PM - 22 Oct 2017'
p587
tp588
a(S'@realDonaldTrump /Russia collusion was a diversion from the truth. THE REAL CRIME IS... #UraniumOneScandal #Russia #Putin & @ClintonFdn just ask these 2 criminals @HillaryClinton @BillClinton & the 3 (THAT WE KNOW OF) that covered their tracks @BarackObama @EricHolder @AGLynchhttps://twitter.com/Paintking/status/881018781883125760\xc2\xa0\xe2\x80\xa6'
p589
S'2:19 PM - 22 Oct 2017'
p590
tp591
a(S".@realDonaldTrump - IF NO COLLUSION, then WHY AREN'T sanctions passed by Congress & signed against RUSSIA IMPLEMENTED YET? Promise to PUTIN?"
p592
S'2:19 PM - 22 Oct 2017'
p593
tp594
a(S'There is no Trump/Russia collusion,  only an endless string of incredible coincidences.'
p595
S'2:19 PM - 22 Oct 2017'
p596
tp597
a(S'Lindsey Graham: The Trump administration has "a blind spot on Russia I still can\'t figure out"...................... It\'s called collusion.'
p598
S'2:17 PM - 22 Oct 2017'
p599
tp600
a(S"What if the media is right about Russia/Interference/Collusion? Are you ok w/ that? What if it's true? What would you say & do?"
p601
S'2:16 PM - 22 Oct 2017'
p602
tp603
a(S"Okay let's talk Russia collusion https://i.imgur.com/1naH3tZ.jpg\xc2\xa0"
p604
S'2:16 PM - 22 Oct 2017'
p605
tp606
a(S'So, would you call selling uranium to Russia collusion, or treason?'
p607
S'2:15 PM - 22 Oct 2017'
p608
tp609
a(S'Trump is Unfit to be President Lies Distraction Russia Taxes Corruption Collusion ACA Money Laundering a Failure of the American Soilders.'
p610
S'2:15 PM - 22 Oct 2017'
p611
tp612
a(S'@greggutfeld @KatTimpf "If you\'re concerned about Trump/Russia & not Clinton/Obama/Russian collusion then you\'re not concerned about Russia"'
p613
S'2:15 PM - 22 Oct 2017'
p614
tp615
a(S'Why did they sign off on the Uranium deal to our enemy knowing about all the bribery? A year into it & there is no Trump/Russia collusion .'
p616
S'2:14 PM - 22 Oct 2017'
p617
tp618
a(S'Can\xe2\x80\x99t wait for indictments to start coming down for the Obama admin for their part in this Russia uranium debacle. \nTHERE\xe2\x80\x99s your collusion!'
p619
S'2:14 PM - 22 Oct 2017'
p620
tp621
a(S'Trump refuses to punish Russia for Obama, Clinton, Democrat; Collusion, bribes and corruption?! Tsk.Tsk. Shame on him. https://twitter.com/AKADonaldTrump/status/922172812093280256\xc2\xa0\xe2\x80\xa6'
p622
S'2:13 PM - 22 Oct 2017'
p623
tp624
a(S"People Please remember to Vote. 2018 is very near. Remember Trump took your children's and Your HealthCare. Corruption Collusion Russia ."
p625
S'2:12 PM - 22 Oct 2017'
p626
tp627
a(S"@LindseyGrahamSC : Trump Administration Has A \xe2\x80\x98Blind Spot\xe2\x80\x99 When It Comes To Russia | It's Called Collusion http://talkingpointsmemo.com/livewire/graham-trump-administration-blind-spot-russia\xc2\xa0\xe2\x80\xa6 via @TPM"
p628
S'2:12 PM - 22 Oct 2017'
p629
tp630
a(S"@CNN To use the words of the Great Gazoo u dumb dumbs got it all wrong. Collusion is with Russia & Clintons. I'm laughing at u as will many!"
p631
S'2:11 PM - 22 Oct 2017'
p632
tp633
a(S'@HillaryClinton COLLUSION WITH RUSSIA.  Hillary=liar, traitor to America, and murderer.  She should be tried and hung by the neck till dead.'
p634
S'2:11 PM - 22 Oct 2017'
p635
tp636
a(S'n the only collusion with Russia is with the Clintons n #UraniumOneScandal during Obama regime'
p637
S'2:11 PM - 22 Oct 2017'
p638
tp639
a(S'Everyone stupefied by reason 4 Russia collusion conspiracy theory. JJ know! Power politics. After HRC win, prosecute Trump 4 what they did! pic.twitter.com/xae74Wdquc'
p640
S'2:11 PM - 22 Oct 2017'
p641
tp642
a(S'The real purpose is to prevent DOJ and FBI from investigating it. Trump is not in control of either because of "Russia collusion." https://twitter.com/BlissTabitha/status/922141622967582720\xc2\xa0\xe2\x80\xa6'
p643
S'2:09 PM - 22 Oct 2017'
p644
tp645
a(S'Only russia collusion was with Clinton and obama. It will come out. You hack'
p646
S'2:09 PM - 22 Oct 2017'
p647
tp648
a(S'John Podesta another one who should Be in Prison! For High Crimes & Treason over Uranium One sale of our Uranium to Russia/Hitlery Collusion https://twitter.com/bbusa617/status/922089441258299393\xc2\xa0\xe2\x80\xa6'
p649
S'2:09 PM - 22 Oct 2017'
p650
tp651
a(S'The liberal MSM are liars, otherwise they wld cover the real Russia collusion with the Clinton foundation #UraniumOneDeal'
p652
S'2:09 PM - 22 Oct 2017'
p653
tp654
a(S"It does look fishy just like Trump's collusion w Russia to beat Hillary looks fishy but that doesn't concern you right ?"
p655
S'2:08 PM - 22 Oct 2017'
p656
tp657
a(S"Will it be the same time we find out about the collusion with the Russians?  Can't wait.  Russia, Russia, Russia - lol"
p658
S'2:07 PM - 22 Oct 2017'
p659
tp660
a(S'Russia Collusion: \xe2\x80\x9cengaged in bribery, kickbacks, extortion and money laundering\xe2\x80\x9d https://twitter.com/sgrey88/status/922185808441946115\xc2\xa0\xe2\x80\xa6'
p661
S'2:07 PM - 22 Oct 2017'
p662
tp663
a(S'For 10 months the media has obsessively covered the FAKE Russia scandal \n\nNew documents show REAL Russia Clinton collusion: media silence! https://twitter.com/charliekirk11/status/922155473498931201\xc2\xa0\xe2\x80\xa6'
p664
S'2:05 PM - 22 Oct 2017'
p665
tp666
a(S"Russia collusion, attempt to screw millions out of healthcare, welfare gift to America's wealthiest Americans in form of tax breaks"
p667
S'2:05 PM - 22 Oct 2017'
p668
tp669
a(S"Like State Dept. pulling Browser's VISA? Collusion w/ Russia after they put out an arrest warrant for him. Where are the Russian sanctions?"
p670
S'2:05 PM - 22 Oct 2017'
p671
tp672
a(S'MUST READ!\xe2\x95\x91In Another Moronic Rant, Maxine Waters \xe2\x80\x98Guarantees\xe2\x80\x99 Trump-Russia Collusion https://hedgeaccordingly.com/2017/09/in-another-moronic-rant-maxine-waters-guarantees-trump-russia-collusion.html\xc2\xa0\xe2\x80\xa6 09/23/2017'
p673
S'2:05 PM - 22 Oct 2017'
p674
tp675
a(S"ALERT! Russia collusion exposed! Democrat's sold 20% US production to our mortal enemy, Russia."
p676
S'2:04 PM - 22 Oct 2017'
p677
tp678
a(S'When are they going to investigate the REAL Russia collusion- Uranium One?'
p679
S'2:04 PM - 22 Oct 2017'
p680
tp681
a(S'LOL!!\nThe REAL story is coming. No more nonsense\nThe Trump/Russia collusion fraud has been a sideshow\nObama/Clinton/Russia/Uranium coming...'
p682
S'2:04 PM - 22 Oct 2017'
p683
tp684
a(S'Twitter in league with Russia? Should Mueller investigate Twitter for collusion?'
p685
S'2:03 PM - 22 Oct 2017'
p686
tp687
a(S'How about the Russia collusion?! DT must have won that as yoy guys not talking anymore used to be BIG news..'
p688
S'2:02 PM - 22 Oct 2017'
p689
tp690
a(S"No , I don't support the Clinton's & their Russia collusion, sorry"
p691
S'2:02 PM - 22 Oct 2017'
p692
tp693
a(S'@FoxNews Mueller needs to resign as a investigator right now because his involvement with collusion, corruption with Russia/Uranium deal.'
p694
S'2:02 PM - 22 Oct 2017'
p695
tp696
a(S'Prosecute HRC & OBAMA & CRONIES for corruption, Collusion, & Treason!  GET Mueller OUT, STOP the nonsense- HRC / OBAMA R  real RUSSIA Story!'
p697
S'2:00 PM - 22 Oct 2017'
p698
tp699
a(S'Makes u wonder why GOP in Congress has been so timid in looking at Russia-Obama//Holder/Clinton Collusion https://twitter.com/SarahPalinUSA/status/922191093407539200\xc2\xa0\xe2\x80\xa6'
p700
S'1:58 PM - 22 Oct 2017'
p701
tp702
a(S'Why? Looking for good charity donation?\n\nRussia collusion is 100% Hillary & Obama\n#UraniumOneScandal . Why not seek their taxes? Criminals!!'
p703
S'1:56 PM - 22 Oct 2017'
p704
tp705
a(S'They know if they dig too deep...they will have more mud on their face..than they already do...wrong abt election, Russia/Trump collusion..'
p706
S'1:56 PM - 22 Oct 2017'
p707
tp708
a(S'Only one issue? Russia stealing a US presidential election is another. Trump sexually molesting women is another. Collusion with Russia, etc'
p709
S'1:55 PM - 22 Oct 2017'
p710
tp711
a(S'For as long as @cnnbrk @MSNBC @maddow remain silent on Clinton Collusion with Russia I will consider them complicit. http://nypost.com/2017/10/17/team-obamas-stunning-coverup-of-russian-crimes/amp/\xc2\xa0\xe2\x80\xa6'
p712
S'1:54 PM - 22 Oct 2017'
p713
tp714
a(S"Is that the best you got CNN?Why don't you talk about the collusion between Obama Clinton holder and Russia?Cover-ups will have consequences pic.twitter.com/5KmJAG8n4I"
p715
S'1:54 PM - 22 Oct 2017'
p716
tp717
a(S'@KeithOlbermann A hot tip for you Keith. The Senate Intel Committee has opened an investigation regarding Hillary/Obama Russia Collusion.'
p718
S'1:53 PM - 22 Oct 2017'
p719
tp720
a(S'Trump announced he will pay $430,000 legal fees for those of his "peeps" accused in Russia collusion, thus insuring they will all go to jail'
p721
S'1:48 PM - 22 Oct 2017'
p722
tp723
a(S'Has Mueller called him yet to testify about what he may have heard about Russia collusion in utero?'
p724
S'1:48 PM - 22 Oct 2017'
p725
tp726
a(S"Ur right Lou Muller's Crew need get out # Russia Fake all them are collusion  session &Wray need start nvestigation Grassley I hope push it https://twitter.com/LouDobbs/status/921828489132691457\xc2\xa0\xe2\x80\xa6"
p727
S'1:48 PM - 22 Oct 2017'
p728
tp729
a(S'RT charliekirk11: The media loved reporting on "Russia collusion" until they realize the only ones colluding with Russia were Bill and Hill\xe2\x80\xa6'
p730
S'1:46 PM - 22 Oct 2017'
p731
tp732
a(S'Baloney baloney baloney! The real Russian collusion is between Hillary, UraniumOne, and her foundation. Ha! The Russia flurry on Dems!'
p733
S'1:45 PM - 22 Oct 2017'
p734
tp735
a(S'@TrueFactsStated Claud, here\xe2\x80\x99s your collusion.  But muh Russia! https://twitter.com/kotuzak/status/922200501663313920\xc2\xa0\xe2\x80\xa6'
p736
S'1:43 PM - 22 Oct 2017'
p737
tp738
a(S'Senate Intelligence Committee still investigating possible collusion between Trump campaign and Russia http://ref.gl/CEs7uAVl\xc2\xa0'
p739
S'1:43 PM - 22 Oct 2017'
p740
tp741
a(S'Retweeted Charlie Kirk (@charliekirk11):\n\nThe media loved reporting on "Russia collusion" until they realize the... http://fb.me/3VexuS4Hm\xc2\xa0'
p742
S'1:43 PM - 22 Oct 2017'
p743
tp744
a(S'Evidence 594 for the Trump/Russia collusion case https://twitter.com/billbrowder/status/922199750547509248\xc2\xa0\xe2\x80\xa6'
p745
S'1:42 PM - 22 Oct 2017'
p746
tp747
a(S"ABC and NBC NOT REPORTING URANIUM DEAL SCANDAL. Pres. Trump's golf game, yes. Clinton kick-backs, Russia collusion, unreported millions? No."
p748
S'1:40 PM - 22 Oct 2017'
p749
tp750
a(S'Where can we donate to the defense fund for the innocent staffers caught in this maelstrom called the Russia collusion Hoax?? https://twitter.com/thehill/status/921829099416498186\xc2\xa0\xe2\x80\xa6'
p751
S'1:39 PM - 22 Oct 2017'
p752
tp753
a(S'11 months of investigation & not 1 bit of proof of collusion with Russia to sway the election. Bill and Hillary knew Russian\xe2\x80\x99s. You ok w t?'
p754
S'1:38 PM - 22 Oct 2017'
p755
tp756
a(S'vegas mass murders, korea, 4 dead in africa, vouchers for vets. collusion with russia, obama, obama'
p757
S'1:38 PM - 22 Oct 2017'
p758
tp759
a(S'Look @CNN Russia collusion for real https://twitter.com/bbusa617/status/922089441258299393\xc2\xa0\xe2\x80\xa6'
p760
S'1:38 PM - 22 Oct 2017'
p761
tp762
a(S'Sincerity of AG Sessions to look into: 0 Minutes! That\xe2\x80\x99s why! Sessions afraid to change narrative of Trump/Russia collusion. MSM will B mum https://twitter.com/prisonplanet/status/922178849936470016\xc2\xa0\xe2\x80\xa6'
p763
S'1:38 PM - 22 Oct 2017'
p764
tp765
a(S'i think russian collusion is only part of the mess. the top 1% sold our country to russia and anyone else willing to pay to play.'
p766
S'1:38 PM - 22 Oct 2017'
p767
tp768
a(S"Why won't anyone answer this question? Why won't they look at the collusion between Hillary and Russia? It must implicate a lot of people."
p769
S'1:36 PM - 22 Oct 2017'
p770
tp771
a(S"@realDonaldTrump if @jeffsessions doesn't release FBI informant to testify he has been compromised, and for the sake of some facsimile of integrity has to go, along with mueller, rosenstein, comey, blatant conflicts of interest, collusion of clinton machine & russia, dirty dirty"
p772
S'1:36 PM - 22 Oct 2017'
p773
tp774
a(S'Watch the MSM will go silent on the Trump-Russia collusion lie now. #UraniumOne is Russian collusion though.'
p775
S'1:35 PM - 22 Oct 2017'
p776
tp777
a(S'tRump has committed High Treason with his collusion with Foreign government Russia in elections manipulation and must be removed from office'
p778
S'1:34 PM - 22 Oct 2017'
p779
tp780
a(S'YepTell us! TELL US Stop the phony trump/russia collusion NOW #ClintonCoverup #ClintonCartel #TrumpsArmy #MAGAhttps://twitter.com/politixlive/status/921908939502923776\xc2\xa0\xe2\x80\xa6'
p781
S'1:32 PM - 22 Oct 2017'
p782
tp783
a(S"She would have sold our country to Russia! That's why Russia interfered to make her president! When she lost with Russia  collusion!"
p784
S'1:32 PM - 22 Oct 2017'
p785
tp786
a(S'The real Russian collusion... Obama Admin colluded with Russia on sale of U.S. Uranium; Click here for details: http://www.independentsentinel.com/bombshell-obama-admin-colluded-with-russia-on-sale-of-u-s-uranium-mine/\xc2\xa0\xe2\x80\xa6'
p787
S'1:31 PM - 22 Oct 2017'
p788
tp789
a(S'Tell me you understand that all investigations point to Democrat collusion with Russia, not Trump. How do you get reelected?'
p790
S'1:31 PM - 22 Oct 2017'
p791
tp792
a(S"huge story that MSM won't touch. needs to be investigated. this is the real Russia collusion story. where is the justice?"
p793
S'1:30 PM - 22 Oct 2017'
p794
tp795
a(S'Wonder how many people won\xe2\x80\x99t c democratic collusion with Russia because they only watch cnn, msnbc,cbs, abc, nbc read the times or wash post'
p796
S'1:29 PM - 22 Oct 2017'
p797
tp798
a(S'@realDonaldTrump \n\nThen, there is the stuff started before the WH. Collusion with Russia. Money laundering. Prostitution. Rape of children. https://twitter.com/proudresister/status/922178413632172032\xc2\xa0\xe2\x80\xa6'
p799
S'1:28 PM - 22 Oct 2017'
p800
tp801
a(S'The Russia narrative just backfired. MSM are taking a pause from it. I pray the American pple will see the real collusion. What a shame.'
p802
S'1:27 PM - 22 Oct 2017'
p803
tp804
a(S'You really have nothing to do with this. Only your hope it will take attn  from your collusion with Russia news'
p805
S'1:25 PM - 22 Oct 2017'
p806
tp807
a(S'Congress and a special counsel have been investigating for 10 months and have found zero evidence of collusion between Trump and Russia.'
p808
S'1:25 PM - 22 Oct 2017'
p809
tp810
a(S'Also, the Dems loved commenting on \xe2\x80\x9cRussia collusion\xe2\x80\x9d until .... https://twitter.com/charliekirk11/status/921925000990359553\xc2\xa0\xe2\x80\xa6'
p811
S'1:23 PM - 22 Oct 2017'
p812
tp813
a(S"Why did @Twitter give 280 characters to this nutjob? Treason? You must be referring to Trump's collusion with Russia."
p814
S'1:23 PM - 22 Oct 2017'
p815
tp816
a(S'Dude\xe2\x80\x99s gonna be in prison soon! Uranium One coverup? REAL Russia collusion?'
p817
S'1:22 PM - 22 Oct 2017'
p818
tp819
a(S'The collusion is real & it\xe2\x80\x99s not Trump & Russia its been the Clinton\xe2\x80\x99s / Media & the left at work. IRS needs to open this Pandora\xe2\x80\x99s box !'
p820
S'1:22 PM - 22 Oct 2017'
p821
tp822
a(S'going from a small thing like UraniumOne Canadian deal to full on collusion by Obama administration with Russia, accepting millions of'
p823
S'1:21 PM - 22 Oct 2017'
p824
tp825
a(S'The full 10/22/17 episode of Deep 6 the Deep State (Russia/Clinton collusion)\nhttps://www.youtube.com/watch?v=KiJPeYGNvic\xc2\xa0\xe2\x80\xa6'
p826
S'1:21 PM - 22 Oct 2017'
p827
tp828
a(S'So when is this witch hunt going to be shut down??  We know Mueller was involved in the Hillary-0bama-Russia-uranium-Holder collusion.'
p829
S'1:19 PM - 22 Oct 2017'
p830
tp831
a(S'@LindseyGrahamSC  Unforttunately @POTUS #Collusion part of the #Russia Problem - Refuse to Sannction Putin and Defends RussuaGate as a #Hoax'
p832
S'1:19 PM - 22 Oct 2017'
p833
tp834
a(S'The CRAP NEWS NETWORKS knew all along who was in collusion with Russia. They thought the voters were stupid. But backfired on them.'
p835
S'1:16 PM - 22 Oct 2017'
p836
tp837
a(S"CNN admitted there's no Russia trump collusion I can't believe people still believe that"
p838
S'1:14 PM - 22 Oct 2017'
p839
tp840
a(S'RealJamesWoodsRT charliekirk11: The media loved reporting on "Russia collusion" until they realize the only ones colluding with Russia were\xe2\x80\xa6'
p841
S'1:14 PM - 22 Oct 2017'
p842
tp843
a(S'@jefffillion @RiMartineau collusion Hilary, soros obama and Russia name it https://twitter.com/EversFam/status/922110945450528768\xc2\xa0\xe2\x80\xa6'
p844
S'1:13 PM - 22 Oct 2017'
p845
tp846
a(S"Hill Russia investigators: Committee still searching for 'any hint of collusion' http://ref.gl/O5MiC3HJ\xc2\xa0"
p847
S'1:13 PM - 22 Oct 2017'
p848
tp849
a(S'Now media is very quiet because it is Russia collusion back fired to their own people, Obama , Clinton and other democrats'
p850
S'1:13 PM - 22 Oct 2017'
p851
tp852
a(S'Kennedy was a Dem,  maybe Russia had a part with the CIA in setting it up. Would make putin/Trump collusion look even worse.'
p853
S'1:09 PM - 22 Oct 2017'
p854
tp855
a(S'So you are footing the legal bills for your staff to prevent them from testifying against you in the Russia collusion trials.'
p856
S'1:05 PM - 22 Oct 2017'
p857
tp858
a(S'#Collusion #Russia #impeach45 #ImpeachTrump #Impeachnow #Impeach #RussianCollusion @CNN @nbc @CBS @ABCpic.twitter.com/wXOfDNGPDB'
p859
S'1:02 PM - 22 Oct 2017'
p860
tp861
a(S'Mueller needs to be put in front of a special counsel... collusion/corruption Clinton/Russia/Uranium ! New story CNN !! Report it !'
p862
S'1:01 PM - 22 Oct 2017'
p863
tp864
a(S'this is impeachment-fake news. impeach for what? u must be specific. russia collusion (not even a crime) is fake news. nothing there. obstruction--nothing there either. dems reps n doj officials all think comey was not doing a good job. so whats the beef?'
p865
S'1:00 PM - 22 Oct 2017'
p866
tp867
a(S'And what facts are you referring to @leapie454? The same kind of facts like President Trump and the collusion with Russia. Liars & Losers!'
p868
S'12:57 PM - 22 Oct 2017'
p869
tp870
a(S'That was never proven! The Clintons have had more collusion with Russia than anybody! Hillary sold them our uranium!'
p871
S'12:56 PM - 22 Oct 2017'
p872
tp873
a(S'Voter suppression is just Russia collusion lol mystery with no facts...'
p874
S'12:55 PM - 22 Oct 2017'
p875
tp876
a(S'Is he a modern day Al Capone, a hidden Russian operative or just a traitor or part of the HRC Russia collusion, or a plain crook like HRC?'
p877
S'12:54 PM - 22 Oct 2017'
p878
tp879
a(S'@realDonaldTrump trying to cover his lies again just like his lies about Russia collusion! https://twitter.com/thehill/status/922152828663189504\xc2\xa0\xe2\x80\xa6'
p880
S'12:53 PM - 22 Oct 2017'
p881
tp882
a(S'A must read to get the true grit on Russia collusion allegations & how journalist are implicated among a trough of corrupt gov officials!'
p883
S'12:53 PM - 22 Oct 2017'
p884
tp885
a(S'And how much time did they spent on Trump/Russia collusion with no evidence? https://twitter.com/PrisonPlanet/status/922178849936470016\xc2\xa0\xe2\x80\xa6'
p886
S'12:50 PM - 22 Oct 2017'
p887
tp888
a(S'Now that the real Russia collusion w/Uranium 1 is out If Trump does not fire Rosenstein,Mueller&McCabe they will frame him w/Fake evidence!!'
p889
S'12:49 PM - 22 Oct 2017'
p890
tp891
a(S"Should be saying g that to the left they have never gotten over the loss and keep blaming Russia only collusion was the Clinton's a\n& Russia"
p892
S'12:49 PM - 22 Oct 2017'
p893
tp894
a(S'Haha it was really Hillary & co Russia collusion #LockHerUp'
p895
S'12:48 PM - 22 Oct 2017'
p896
tp897
a(S"What is telling is that Democrats are refusing to acknowlege the collusion of the BHO WH, Clinton's & Russia."
p898
S'12:47 PM - 22 Oct 2017'
p899
tp900
a(S"Congress is to busy chasing Trump/Russia ghosts when they should be looking into the real Russia collusion w/Clinton,Mueller&Obama's Uranium"
p901
S'12:47 PM - 22 Oct 2017'
p902
tp903
a(S'Should say MEDIA CENSORSHIP of the Russia Collusion Story https://twitter.com/HersheSquirt/status/922106704426356739\xc2\xa0\xe2\x80\xa6'
p904
S'12:47 PM - 22 Oct 2017'
p905
tp906
a(S'I call this the collusion of the delusion. All this with mueller investigating if Trump colluded with Russia was his way of covering up their colluding with Russia.'
p907
S'12:47 PM - 22 Oct 2017'
p908
tp909
a(S"Keep walking. Nothin to see here except that the GOP and Trump can't get anything done without help from Russia. Awkward. Collusion much ? https://twitter.com/4evernevertrump/status/919963780712251392\xc2\xa0\xe2\x80\xa6"
p910
S'12:46 PM - 22 Oct 2017'
p911
tp912
a(S'More evidence of collusion with Russia by Democrats. Democrat & CEO of Twitter, retweeted Russian troll farm accounts\n\n"Twitter CEO appears to have retweeted content from a Russia-backed account" http://www.washingtonexaminer.com/article/2638234\xc2\xa0 via @dcexaminer'
p913
S'12:46 PM - 22 Oct 2017'
p914
tp915
a(S"Charlie, you must be on Trump's payroll.  How can you let him get away with his collusion with Russia?  He never did get majority vote."
p916
S'12:46 PM - 22 Oct 2017'
p917
tp918
a(S'@GOP Paul Ryan & Mitch McConnell are obstructing the business of Congress deliberately. Involved in Trump/Russia collusion. Or Impeach?Proof https://twitter.com/ProudResister/status/922178413632172032\xc2\xa0\xe2\x80\xa6'
p919
S'12:45 PM - 22 Oct 2017'
p920
tp921
a(S'I think Clinton has the "Rubles" - to the tune of $145MM US for the sale of our Uranium to Russia. DJT? Not a penny. No proof of collusion.'
p922
S'12:45 PM - 22 Oct 2017'
p923
tp924
a(S'How cute some1 who still believes the Trump/Russian collusion tale. When the evidence for the Uranium1 deal shows proof of Hillary/Russia'
p925
S'12:43 PM - 22 Oct 2017'
p926
tp927
a(S'I am glad they are investigating. This is the Russia collusion!!!'
p928
S'12:43 PM - 22 Oct 2017'
p929
tp930
a(S'#Russia #ClintonFoundation #Collusion #BillClinton #HillaryClinton ...Secrets and Lies: Three Russian Stories http://www.americanthinker.com/articles/2017/10/secrets_and_lies_three_russian_stories.html#.Wez0DT8dGMc.twitter\xc2\xa0\xe2\x80\xa6'
p931
S'12:41 PM - 22 Oct 2017'
p932
tp933
a(S'While your at it investigate uranium one deal, Clinton Foundation and the Obama admins collusion with Russia.'
p934
S'12:40 PM - 22 Oct 2017'
p935
tp936
a(S'He can\xe2\x80\x99t. He\xe2\x80\x99s not smart enough, ignorant of what free press means, or in Putin\xe2\x80\x99s pocket. (Or all 3.) #FreePress #Collusion #Russia'
p937
S'12:40 PM - 22 Oct 2017'
p938
tp939
a(S"Agree!#FakeNewsMedia is covering up Clinton's Russia Collusion, w/ BO, Holder, Mueller, Podesta & Comey's knowledge, all got rich! Jail time https://twitter.com/MichellePiper18/status/922180499820417024\xc2\xa0\xe2\x80\xa6"
p940
S'12:38 PM - 22 Oct 2017'
p941
tp942
a(S"If you support the rule of law, why are you covering for Trump's collusion with Russia? pic.twitter.com/z1CNPISOTQ"
p943
S'12:38 PM - 22 Oct 2017'
p944
tp945
a(S"Oh, come on Senator Graham. It doesn't take a genius to figure it out. It's about collusion & Trump's debt making him Russia's pawn."
p946
S'12:37 PM - 22 Oct 2017'
p947
tp948
a(S'Like Sandusky:Second Mile & Clinton:Russia collusion #Uranium One #LockHerUp #FusionGPS #RussiaCollusion @seanhannity'
p949
S'12:36 PM - 22 Oct 2017'
p950
tp951
a(S"It's not Hillary who is under investigation for collusion with Russia but Trump."
p952
S'12:34 PM - 22 Oct 2017'
p953
tp954
a(S"Again, just like the Russian collusion right? How about uranium sale to Russia from your Democratic Party? It's seems to be gaining traction"
p955
S'12:34 PM - 22 Oct 2017'
p956
tp957
a(S'Jimmy Carter trashed the Clintons, Obama, the "Russia collusion scandal" and more. Even he\'s disgusted with Democrats these days.'
p958
S'12:33 PM - 22 Oct 2017'
p959
tp960
a(S'Mueller & Comey should be investigated for their cover up of Clinton Russian collusion & bribery with Russia!'
p961
S'12:32 PM - 22 Oct 2017'
p962
tp963
a(S"You can't believe #FoxNews or you. You are the worst president ever & will be impeached for your collusion with Russia. Orange is your color"
p964
S'12:32 PM - 22 Oct 2017'
p965
tp966
a(S'released to show history of dem and russia collusion.'
p967
S'12:32 PM - 22 Oct 2017'
p968
tp969
a(S'Same logic that MSM and democrats like you have been following for the last 9 mis for Russia collusion '
p970
S'12:31 PM - 22 Oct 2017'
p971
tp972
a(S'Even Carter knows the Trump/Russia collusion story is a crock of shit.'
p973
S'12:30 PM - 22 Oct 2017'
p974
tp975
a(S'You nuts! You people need to wake up! The only Russia collusion was with Hillary & Obama!!'
p976
S'12:29 PM - 22 Oct 2017'
p977
tp978
a(S'They assumed Hillary would win, then had to cook up the Russia!/Team Trump collusion story to cover their crimes. https://twitter.com/kelemencari/status/922175328042274820\xc2\xa0\xe2\x80\xa6'
p979
S'12:27 PM - 22 Oct 2017'
p980
tp981
a(S"Hey #FakeNews media, why don't you report anout REAL Russia collusion?\nhttp://nyp.st/2yvoBW4\xc2\xa0 via @nypost"
p982
S'12:24 PM - 22 Oct 2017'
p983
tp984
a(S'How Much Did Mueller and Rosenstein Know about Uranium One and Hillary/Russia Collusion? http://ow.ly/8uiq50eH9J9\xc2\xa0pic.twitter.com/jFDkIbb4Eh'
p985
S'12:24 PM - 22 Oct 2017'
p986
tp987
a(S'Obviously U prefer real rapist rathr than talker & traitor who sold American uranium 4/145 million bribery rathr than false Russia collusion'
p988
S'12:23 PM - 22 Oct 2017'
p989
tp990
a(S'@LindseyGrahamSC what\xe2\x80\x99s not 2 figure out? Collusion 4 Trump Tower in Russia, end of sanctions, end of  world leadership? All real time. https://twitter.com/vlazlo2020/status/922178968404594690\xc2\xa0\xe2\x80\xa6'
p991
S'12:23 PM - 22 Oct 2017'
p992
tp993
a(S'+-mueller wasting txpr $$$$ investigating #LIES abt Trump/Russia is a criminal in collusion story w Russia & Clintons- Y hasnt he ben fired? https://twitter.com/charliekirk11/status/921925000990359553\xc2\xa0\xe2\x80\xa6'
p994
S'12:22 PM - 22 Oct 2017'
p995
tp996
a(S"It's been almost a year! 0 proof. It's all been one huge corrupt distraction from the REAL Russia collusion story, URANIUM ONE!"
p997
S'12:22 PM - 22 Oct 2017'
p998
tp999
a(S'Crooked Hillary and Russia Collusion! pic.twitter.com/v29XD3ApYv'
p1000
S'12:22 PM - 22 Oct 2017'
p1001
tp1002
a(S'Also, if this uranium deal w/Russia posed such a national security threat under Obama, why  dismiss Trump/Russian collusion so easily?'
p1003
S'12:20 PM - 22 Oct 2017'
p1004
tp1005
a(S'Then again, Trump and his collusion with Russia is   Times worse, yet you look the other way'
p1006
S'12:19 PM - 22 Oct 2017'
p1007
tp1008
a(S'Oh, I do hope so!!! With his inditement soon to follow in the Obama-Clinton Russia Collusion ACTUAL "matter"? Plz say it is so. https://twitter.com/JacobAWohl/status/922129958222290944\xc2\xa0\xe2\x80\xa6'
p1009
S'12:15 PM - 22 Oct 2017'
p1010
tp1011
a(S'Just satire but why do dems still believe in Russia collusion when all evidence points left. Bait and switch much.'
p1012
S'12:14 PM - 22 Oct 2017'
p1013
tp1014
a(S"Hillary Told Five Blatant Lies About WikiLeaks\xe2\x80\x99  There is collusion with Russia and it's Hillary Clinton.https://www.inquisitr.com/opinion/4561151/julian-assange-on-twitter-hillary-clinton-just-told-five-blatant-lies-about-wikileaks/\xc2\xa0\xe2\x80\xa6"
p1015
S'12:14 PM - 22 Oct 2017'
p1016
tp1017
a(S'@GOP @realDonaldTrump 25th AMENDMENT NOW ABUSE OF POWER. TREASON TRASH TRUMP. COLLUSION WITH RUSSIA.CRAZY NARCISSIST.CRIMINAL ADMINISTRATION'
p1018
S'12:13 PM - 22 Oct 2017'
p1019
tp1020
a(S"Russia puts Browder on Interpol wanted list.\nTrump admin revokes Browder's visa.\nCoincidence or collusion?\nhttp://bit.ly/2gYWaqm\xc2\xa0"
p1021
S'12:13 PM - 22 Oct 2017'
p1022
tp1023
a(S'God bless our great president.  The Libby scum worked with Russia the entire time and used collusion as an excuse to stay away from them.'
p1024
S'12:12 PM - 22 Oct 2017'
p1025
tp1026
a(S'Russia-Obsessed Media Shocked To Discover Facts About Russia Stories http://thefederalist.com/2017/10/19/russia-obsessed-media-shocked-discover-facts-russia-stories-discredit-narrative/#.WeztQKHwUXe.twitter\xc2\xa0\xe2\x80\xa6 Dems is the real collusion with Russia.'
p1027
S'12:11 PM - 22 Oct 2017'
p1028
tp1029
a(S"No just proving that both sides can spread stupid stories. Just like Trump Russia collusion. Didn't happen"
p1030
S'12:09 PM - 22 Oct 2017'
p1031
tp1032
a(S'Clinton\'s & Obama OWN Russia collusion, they thought they could "Flip" it onto Trump,Backfire! Can\'t wait to see who paid for fake Dossier'
p1033
S'12:08 PM - 22 Oct 2017'
p1034
tp1035
a(S'Go after Clinton, Obama, Lynch, Holder, Mueller Russia collusion first. Arrest them all first'
p1036
S'12:04 PM - 22 Oct 2017'
p1037
tp1038
a(S'Lindsey, U are pretty dense but in this case, Trump\xe2\x80\x99s collusion with Russia is now obvious - which means U are lying. No blind spot, U know https://twitter.com/princessbravato/status/922171404023238656\xc2\xa0\xe2\x80\xa6'
p1039
S'12:04 PM - 22 Oct 2017'
p1040
tp1041
a(S"It's as if @POTUS Didn't spend much on FB ads because he KNEW Russia was spending on his behalf @jonfavs #Collusion"
p1042
S'12:04 PM - 22 Oct 2017'
p1043
tp1044
a(S'Oh yeah. I think they were trying to get eyes off of their Russia collusion. And so m much more https://twitter.com/beck_amikebeck/status/922159053345878017\xc2\xa0\xe2\x80\xa6'
p1045
S'12:01 PM - 22 Oct 2017'
p1046
tp1047
a(S'Bunch of fools to think that President Trump is going to be impeached .His impeachment will go as far as the phony Russia collusion NOWHERE!'
p1048
S'12:01 PM - 22 Oct 2017'
p1049
tp1050
a(S'You should be concerned about the Russia Collusion investigation @realDonaldTrump'
p1051
S'12:00 PM - 22 Oct 2017'
p1052
tp1053
a(S'Shut up- you don\xe2\x80\x99t know what you\xe2\x80\x99re talking about! Real Russia collusion on hillary'
p1054
S'12:00 PM - 22 Oct 2017'
p1055
tp1056
a(S"https://www.mediaite.com/columnists/in-case-you-missed-it-robert-mueller-was-fbi-director-during-the-russia-uranium-investigation/amp/\xc2\xa0\xe2\x80\xa6  That's right. The folks investigating Trump were involved in actual collusion & bribery with Russia.  @HillaryClinton @ClintonFdn #UraniumOne #Mueller #SundayFunday"
p1057
S'11:59 AM - 22 Oct 2017'
p1058
tp1059
a(S'DEMS wanted 2 distract from THEIR Russia Collusion early on by making fun of Romney & later putting Their Corruption on Trump! @CNN @FoxNewshttps://twitter.com/TheDemocrats/status/260497619862835201\xc2\xa0\xe2\x80\xa6'
p1060
S'11:59 AM - 22 Oct 2017'
p1061
tp1062
a(S'Where\'s news on the "REAL" Russia collusion between Obama Clinton holder Etc, that #CNN purposely covers up ? Cover-ups have consequences'
p1063
S'11:59 AM - 22 Oct 2017'
p1064
tp1065
a(S'It isa coming out that MUELLER was PART OF the Clinton/Obama/Russia collusion in 2009 & 2010. https://twitter.com/RealJamesWoods/status/922163204805087234\xc2\xa0\xe2\x80\xa6'
p1066
S'11:58 AM - 22 Oct 2017'
p1067
tp1068
a(S'#DONNYDAYCARE COLLUSION with Russia, supporting White supremacists, losing popular vote by 3M, guilty of sexual predation, constant LIEING.'
p1069
S'11:57 AM - 22 Oct 2017'
p1070
tp1071
a(S"You're not paying attention. There was no Trump-Russia collusion, but plenty of evidence Clinton inappropriate contactwRussia and payments!"
p1072
S'11:57 AM - 22 Oct 2017'
p1073
tp1074
a(S'Silence of the Scams ! The Media suddenly silent on Trump/Russia "collusion" ... ! We wonder why ... ! https://www.wsj.com/articles/silence-of-the-scams-1508534885\xc2\xa0\xe2\x80\xa6 via @WSJ'
p1075
S'11:57 AM - 22 Oct 2017'
p1076
tp1077
a(S'Try Try again! Fox ur collusion with trump to try and distract from Russia,  well only 30% r buying it! Move on now!'
p1078
S'11:54 AM - 22 Oct 2017'
p1079
tp1080
a(S'Any word on Russia collusion yet?'
p1081
S'11:53 AM - 22 Oct 2017'
p1082
tp1083
a(S'No traitor!  Did u see that wacky hat lady!  Howbowdat?  Russia is a witch hunt.  Collusion nope.  Gonna make Russia great again!!'
p1084
S'11:51 AM - 22 Oct 2017'
p1085
tp1086
a(S"How this isn't a huge conflict of interest is beyond me!! Then we find out about the real Russia collusion #UraniumOne"
p1087
S'11:49 AM - 22 Oct 2017'
p1088
tp1089
a(S"It's not about you, lady or anything you have to say. It's about Clintons, the Obama administration and their collusion with Russia."
p1090
S'11:48 AM - 22 Oct 2017'
p1091
tp1092
a(S'Methinks the whole Trump-Russia collusion is just a smokescreen to hide the skunks of the Klinton Mafia? https://twitter.com/RealJamesWoods/status/922160718924976128\xc2\xa0\xe2\x80\xa6'
p1093
S'11:48 AM - 22 Oct 2017'
p1094
tp1095
a(S'They really need to look into #UraniumOneScandal instead of Trump & Russia collusion!!!'
p1096
S'11:47 AM - 22 Oct 2017'
p1097
tp1098
a(S"GOP party collusion with Russia is helping a foreign gov't to cause war against the US. How do you sleep at night? pic.twitter.com/VXhqQDXoGj"
p1099
S'11:47 AM - 22 Oct 2017'
p1100
tp1101
a(S"And they're worried about collusion between Russia and Trump?\n\n https://www.judicialwatch.org/bulletins/state-department-approved-215-bill-clinton-speeches-controversial-consulting-deal-worth-48m-hillary-clintons-cos-copied-decisions/amp/\xc2\xa0\xe2\x80\xa6"
p1102
S'11:46 AM - 22 Oct 2017'
p1103
tp1104
a(S'real collusion Russia getting our uranium plus 10 spies from Russia where released.All for millions to Clinton investors and foundation'
p1105
S'11:46 AM - 22 Oct 2017'
p1106
tp1107
a(S'Bingo. \n(Unless Russia probe shows evidence of collusion) pic.twitter.com/mdTdBnZ5hc'
p1108
S'11:46 AM - 22 Oct 2017'
p1109
tp1110
a(S"I would like it if the very real Russia collusion led to a universal turn against bullshit 'money is speech' ideas."
p1111
S'11:45 AM - 22 Oct 2017'
p1112
tp1113
a(S'When is someone going to put a stop to this !!! Gone on too long with no proof of collusion with Russia. Mueller has exceeded boundaries'
p1114
S'11:39 AM - 22 Oct 2017'
p1115
tp1116
a(S'The truth always comes out. #Obama, #Clinton, #Democrats. #Collusion seems to be the #Left and #Russia. Cover up is falling apart.'
p1117
S'11:37 AM - 22 Oct 2017'
p1118
tp1119
a.