(lp0
(S'Trump Russia Collusion Collapsing @MsAvaArmstrong http://bit.ly/2zq3cPB\xc2\xa0 via @malcolmoutloud'
p1
S'3:57 PM - 11 Nov 2017'
p2
tp3
a(S'ASK HIM ABOUT THE RUSSIA SANCTIONS! Repubs have no moral center anymore. Weak on Russia? Collusion? Where did real repubs go'
p4
S'3:57 PM - 11 Nov 2017'
p5
tp6
a(S'It occasionally gets lost, but it has already been determined that Russia interfered in the election, regardless of collusion #trumprussia'
p7
S'3:56 PM - 11 Nov 2017'
p8
tp9
a(S'Once again you sucked up to daddy vlad! You are a traitor! You WILL go down for collusion...destroying our democracy, dividing our beautiful country! You know what, do us all a favor, move to Russia and stay there!\n#TrumpRussia\n#NotMyPresident\n#MuellerTime'
p10
S'3:56 PM - 11 Nov 2017'
p11
tp12
a(S"Putting Russia collusion debate aside, taking Putin's word at face value is astonishing."
p13
S'3:56 PM - 11 Nov 2017'
p14
tp15
a(S'#Trump doesnt give me any hope for a better America...If he is convicted pf collusion of any type with Russia, he shold be tried for Treason and if convicted #Executedpic.twitter.com/uOfOL5LU3a'
p16
S'3:56 PM - 11 Nov 2017'
p17
tp18
a(S'This is like MSM believe \nRussia/Trump Collusion...\nNo Proof....\nDENY Clinton/Russia Collusion\nWITH PROOF https://twitter.com/jasonkander/status/929401274101063680\xc2\xa0\xe2\x80\xa6'
p19
S'3:55 PM - 11 Nov 2017'
p20
tp21
a(S'No collusion, no Russia, no laws broken by POTUS, what else do they have to cover other than Dem/Lib shenanigans and explaining them away?'
p22
S'3:55 PM - 11 Nov 2017'
p23
tp24
a(S'2)Team Hillary & #DNC which she controlled actually paid for the "fake news" Russia dossier containing Russian propaganda that is the basis for the Russia-Trump collusion investigation by Robert Mueller! \n@LCActionorg'
p25
S'3:55 PM - 11 Nov 2017'
p26
tp27
a(S'#Treason #TrumpRussia #Putin #ResistTrump #RESISTANCE #Collusion #Russia #TrumpDossier #Trump #25thAmendment #DutyToWarn #MALIGNANTNARCISSIST #ImpeachTrump #VeteransDay #CIA #FBI #Mueller #MuellerTimepic.twitter.com/TbgdEeLuaK'
p28
S'3:52 PM - 11 Nov 2017'
p29
tp30
a(S'HOW TO HANDLE COLLUSION- SAY THIS-HILLARY AND RUSSIA TAMPERED WITH US ELECTION BY USING FAKE DOSSIER-THAT COSTS TRUMP VOTES, MARGIN WLD OF BEEN WIDER-LETS INVESTIGATE'
p31
S'3:52 PM - 11 Nov 2017'
p32
tp33
a(S"Russian collusion is retardation. Collusion isn t a crime + it didn't happen. The people who killed JFK are the ones talking abt Russia. + Hillary who sold them uranium"
p34
S'3:51 PM - 11 Nov 2017'
p35
tp36
a(S"It's also obvious that he believes the Russia/trump dossier was created by the Russians and is proof of democrat collusion."
p37
S'3:50 PM - 11 Nov 2017'
p38
tp39
a(S"@jaketapper impeachment mania-thats what speyer is abt. so is russia collusion (collusion is not even a crime) mania. n we also have unfit mania--total nonsense considering trump's hard work for free (donating salary) n good works for we the ppl. http://www.magapill.com/\xc2\xa0"
p40
S'3:48 PM - 11 Nov 2017'
p41
tp42
a(S'Poll: Vast majority of Trump voters say he should stay in office even if Russia collusion is proven  (79%)\nhttp://thehill.com/homenews/administration/357995-dem-pollster-vast-majority-of-trump-voters-say-he-should-stay-in\xc2\xa0\xe2\x80\xa6'
p43
S'3:48 PM - 11 Nov 2017'
p44
tp45
a(S'Even those so called "US intelligence" have admitted there was no hacking and no collusion between Trump and Russia... stop being a traitor and actually stand up for America...'
p46
S'3:47 PM - 11 Nov 2017'
p47
tp48
a(S'https://twitter.com/judgejeanine/status/924448091310211072\xc2\xa0\xe2\x80\xa6\n\nWe all know the real #Russia collusion by your corrupt buddies #Hillary #Obama #Comey #Mueller #McCabe #Rosenstein #Clapper etc\n\n#uraniumOne #CriminalDossier #IllegalLeaks'
p49
S'3:46 PM - 11 Nov 2017'
p50
tp51
a(S'COLLUSION RUSSIA AND HILLARY WITH FAKE DOSSIER COSTS TRUMP VOTES-MARGIN WOULD OF BEEN WIDER'
p52
S'3:46 PM - 11 Nov 2017'
p53
tp54
a(S'Maybe Russia did try to interfere, but the witch hunt is because of the Dumbocraps false claim of Russian collusion. Unless they correct their false claim and tell the truth. Clinton colluded with Russia and still lost!'
p55
S'3:43 PM - 11 Nov 2017'
p56
tp57
a(S'Russia Scandal Befalls Two Brothers: John and Tony Podesta https://nyti.ms/2hqLKD5\xc2\xa0\nThis is how the Democrats project their sins on others! All along blaming Trump 4 collusion w/russia when it was them all along.'
p58
S'3:43 PM - 11 Nov 2017'
p59
tp60
a(S'HOW TO HANDLE RUSSIA COLLUSION STORY- YES RUSSIA AND HILLARY TAMPERED WITH US ELECTION BY USING DOSSIRE THAT COST TRUMP VOTES. TRUMP WOULD OF HAD MORE'
p61
S'3:42 PM - 11 Nov 2017'
p62
tp63
a(S'That Agent Orange is being allowed to nominate judges while under investigation for suspicion of Collusion with Russia is beyond me, will someone in Congress please grow a set?  Remember in November 2018, R stands for Russia #VoteThemOuthttps://twitter.com/demwrite/status/929386434313650176\xc2\xa0\xe2\x80\xa6'
p64
S'3:42 PM - 11 Nov 2017'
p65
tp66
a(S"You Trump haters are a bunch'a imbeciles, the only collusion uncovered is between the Dems and Russia. Hillary's busier than a cat covering crap on a marble floor when it comes to Russia... Sessions has his say in this Tuesday... https://www.npr.org/2017/11/11/563049577/as-white-house-makes-nice-with-mueller-gop-allies-sharpen-knives-for-special-cou\xc2\xa0\xe2\x80\xa6"
p67
S'3:42 PM - 11 Nov 2017'
p68
tp69
a(S'WHY?  You dodged Vietnam FIVE times!  You and CREEPY @MooreSenate need to #resign and move to #Russia where you love to be close to #Putin #Traitor #treason #collusion!!!!!!  You are totally UNAMERICAN!!!'
p70
S'3:40 PM - 11 Nov 2017'
p71
tp72
a(S"@CIA I'd like to know WHY CIA Dir.Mike Pompeo refuses to look at the evidence coming out about Hillary and her collusion with Russia on the elections. WHERE is the transparency and INTEGRITY ????"
p73
S'3:39 PM - 11 Nov 2017'
p74
tp75
a(S'Senator @SenFeinstein, please follow @SethAbramson if you want to educate urself on Trump-Russia collusion. Surprised you have not seen evidence to that fact yet. If Trump is using ur words against Dems, that is not good.'
p76
S'3:39 PM - 11 Nov 2017'
p77
tp78
a(S'Believe Putin over your own CIA- treason Putin puppet- COLLUSION proved- you are a disgrace go back to Russia pic.twitter.com/hXTueYjGYy'
p79
S'3:39 PM - 11 Nov 2017'
p80
tp81
a(S"CNN spends a year blasting Russia for exposing DNC's emails and ducks ALL conversation about what was in those emails. (Primary election rigging, media collusion and sleazy tactics). They work for the DNC! pic.twitter.com/l4YREFTSC6"
p82
S'3:39 PM - 11 Nov 2017'
p83
tp84
a(S'Several US Senators who are Democrats have said there is zero supporting evidence of collusion by Russia and Trump Campaign. This is after 6+ months hunting by 2 committees in Congress & Special Prosecutor.'
p85
S'3:38 PM - 11 Nov 2017'
p86
tp87
a(S"impeachment mania-thats what its abt. so is russia collusion (collusion is not even a crime) mania. n we also have unfit mania--total nonsense considering trump's hard work for free (donating salary) n good works for we the ppl. http://www.magapill.com/\xc2\xa0"
p88
S'3:38 PM - 11 Nov 2017'
p89
tp90
a(S'My guess they know ALL about EVERYTHING regarding DNC rigging, so called hacking, Russia "collusion" and sooooo much more! pic.twitter.com/uGFWVt9t9s'
p91
S'3:38 PM - 11 Nov 2017'
p92
tp93
a(S'"Trump colluded with Russia because of money laundering. This is proven by his failure to impose sanctions due to Russia collusion. Therefore, Trump colluded with Russia because he colluded with Russia."\n\nVery circular reasoning.'
p94
S'3:37 PM - 11 Nov 2017'
p95
tp96
a(S"Talking of sanctions, aren't you supposed to be imposing the ones on your best mate Vlad Donnie? And you try and tell us all there is no collusion with Russia, Lmao :)"
p97
S'3:36 PM - 11 Nov 2017'
p98
tp99
a(S"If Putin recites a fact within his knowledge, it is unwise to reject it just because it came from Putin. Putin is not the sole source of Trump's belief about Russian collusion. Hillary sold uranium rights to Russia to line her own pockets. That's what I call collusion."
p100
S'3:35 PM - 11 Nov 2017'
p101
tp102
a(S'Podesta Group is Russia collusion.'
p103
S'3:35 PM - 11 Nov 2017'
p104
tp105
a(S'Russia was trying hard to break into both parties data banks. Fact is, dems were stupid for not taking note and protecting themselves. And, they knew about it at least a year before the election. #JustTheFacts It\'s not Trump "collusion". It\'s stupidity of dem party.'
p106
S'3:34 PM - 11 Nov 2017'
p107
tp108
a(S"Trump: there is no collusion\nGov't: Russia meddled\nTrump: I believe Putin\nMe: sounds like collusion"
p109
S'3:34 PM - 11 Nov 2017'
p110
tp111
a(S'Talk about a complete un-American for Trump to be dumb enough to believe Putin about the Election Meddling? How much "Collusion" are you doing with Russia Trump! pic.twitter.com/JRLqs71gjX'
p112
S'3:33 PM - 11 Nov 2017'
p113
tp114
a(S"How does someone believe Putin over our Govt. The choices he made to run certain govt department, all the smoke in the air about Russia collusion. I'm not saying DNC is great, they got shit I disagree with too"
p115
S'3:32 PM - 11 Nov 2017'
p116
tp117
a(S"This has been his position since the beginning. Not brand new. This fake Russia collusion with Trump is a big waste of time and tax-payer money. Impeachment will never happen. Why don't you cover new candidates for 2020?"
p118
S'3:31 PM - 11 Nov 2017'
p119
tp120
a(S"Trump is pretending he doesn't know collusion occurred, therefore he asked Putin. But evidence shows Trump team colluded to secure Russian interference. If Trump knows Russia interfered (since he was part of it), why are ppl acting like he believes Putin's denial?"
p121
S'3:30 PM - 11 Nov 2017'
p122
tp123
a(S'Liberals who are still TRYING to push the fake Russia collusion story are in for a shock when MSM is forced to talk about the REAL news. Like Hillary and Obama ARE REALLY THE ONES IN BED WITH RUSSIA.'
p124
S'3:30 PM - 11 Nov 2017'
p125
tp126
a(S'why dont Trump implement the Russian sanction law he signed? Why does trump believe Putin over American patriots concerning Russia?  there is your proof? open your eyes. Jr. admitted  meeting Russians 4 dirt on Clinton. that is collusion. u have evidence.'
p127
S'3:29 PM - 11 Nov 2017'
p128
tp129
a(S'That Donald Trump, who campaigned on \xe2\x80\x9cAmerica First,\xe2\x80\x9d publicity takes the word of Vladimir Putin over the word of the CIA, FBI, or NSA is itself evidence of collusion with Russia. https://twitter.com/joshtpm/status/929490462540525569\xc2\xa0\xe2\x80\xa6'
p130
S'3:28 PM - 11 Nov 2017'
p131
tp132
a(S"All you do is rhetoric. When the real collusion with Russia was the clintons and our Elite Congress. Your flight to destroy this country shows me the evil you possess in your heart. I'm sorry your parents didn't raise you correctly"
p133
S'3:28 PM - 11 Nov 2017'
p134
tp135
a(S"Man utel\xc3\xa4mnar nyheter som UraniumOne (Clinton/Russia-collusion) Hillary's fusion (om DNC's valsvindel),Binney's info.om att DNC var en l\xc3\xa4cka och inte ett hack!Allt detta med all den dokumentation,som saknas 100% fr\xc3\xa5n Trump/Russia p\xc3\xa5st\xc3\xa5endet!!"
p136
S'3:26 PM - 11 Nov 2017'
p137
tp138
a(S'Dude, you and that old sea hag QUEEFED the Russia Collusion conspiracy theory!!!! BTW - is your twitter password still 1-2-3-4-5?'
p139
S'3:23 PM - 11 Nov 2017'
p140
tp141
a(S'If the Trump/Russia collusion was fabricated for political reasons & that prevents dialogue between the two countries to resolve the Syrian crisis...then yes innocent civilians will die in Syria.'
p142
S'3:19 PM - 11 Nov 2017'
p143
tp144
a(S"He's trying to set up the defense that there couldn't be any collusion if russia didn't interfere in the first place."
p145
S'3:19 PM - 11 Nov 2017'
p146
tp147
a(S'A year of this Russia meddling nonsense and still zero proof. Pathetic! The only collusion with Russia was from Podesta and Clinton.'
p148
S'3:18 PM - 11 Nov 2017'
p149
tp150
a(S"That's an admission from @realDonaldTrump that he acted in collusion w/ Russia during his campaign. When you're POTUS, all your intelligence ingencies brief you on meddling, and you still insist on defending Putin, you're GUILTY OF TREASON."
p151
S'3:16 PM - 11 Nov 2017'
p152
tp153
a(S'#UraniumOneScandal The real collusion between Russia and the Democrats. Thanks Obama and Hillary!'
p154
S'3:15 PM - 11 Nov 2017'
p155
tp156
a(S'Ha-ha, Its another hoax, created by "Dems" after "Trump-Russia collusion", and the next job for Robert Mueller https://twitter.com/NolteNC/status/929126757969612800\xc2\xa0\xe2\x80\xa6'
p157
S'3:15 PM - 11 Nov 2017'
p158
tp159
a(S'Who here thinks Putin would ADMIT to meddling? Who here thinks Trump would ADMIT to collusion with Russia? Trump defending Putin is also a defense of his collusion.'
p160
S'3:14 PM - 11 Nov 2017'
p161
tp162
a(S'they\xe2\x80\x99ve already found that there was collusion with Russia pumpkin, whether he actually goes to jail is another story, someone will probably pardon him and his entire family but they\xe2\x80\x99re guilty'
p163
S'3:13 PM - 11 Nov 2017'
p164
tp165
a(S'What has happened to the proud #GOP. Support Russia, racism, KKK, corporate greed, pollution, collusion, pedophiles...'
p166
S'3:12 PM - 11 Nov 2017'
p167
tp168
a(S'As a Trump supporter. I believe they meddled along with other countries... Do I believe their meddling had any impact on the outcome of the election.. NO.. Do I believe the real Collusion with Russia is with Hillary... ABSOLUTELY'
p169
S'3:11 PM - 11 Nov 2017'
p170
tp171
a(S'Although I didnt like him as a person B4 the election. I triedgive 45 a chance. I REALLY DID, despite RUMORS Russia interfered. It wasnt until there was PROOF they WORKED ON HIS BEHALF that I was CONVINCED there was collusion. THEN ALL THE LIES... #IMPEACHprosecuteIMPRISON'
p172
S'3:11 PM - 11 Nov 2017'
p173
tp174
a(S"I've tried using this logic countless times when talking to a Trump hater.  The NSA knows what color underwear you put on this morning and yet they have no evidence of Trump/Russia collusion.  That alone should dispel the Trump insanity, but it doesn't. https://twitter.com/caitoz/status/929431755928494080\xc2\xa0\xe2\x80\xa6"
p175
S'3:11 PM - 11 Nov 2017'
p176
tp177
a(S'You beat me too?\n\nMaybe we need to direct an entire Trump train through this website, then launch a class action against Russia for unpaid services.\n\nMoscow will laugh at us, but Fraud News CNN would report on it for weeks as collusion evidence.'
p178
S'3:10 PM - 11 Nov 2017'
p179
tp180
a(S'Except 1/Don Junior didn\xe2\x80\x99t get any. 2/he didn\xe2\x80\x99t pay Russians for it. 3/you guys went apeshit over a  5 min meeting where nothing happened screaming that it was collusion. Hillary actually does something, actually pays Russia for Intel, and you yawn? #HillaryRussianClinton'
p181
S'3:10 PM - 11 Nov 2017'
p182
tp183
a(S'All I can conclude from trumps statement is that he is so guilty of collusion, he is hoping we are as STUPID as he is and believe a former spy fro Russia over our intelligent agencies.'
p184
S'3:09 PM - 11 Nov 2017'
p185
tp186
a(S"@realDonaldTrump Mueller is now going after Flynn over something that has nothing to do with the Russia Collusion so why can't Sessions stop this absurdity. He recused himself from the Russia Collusion NOT what Mueller is doing now. What good is Sessions? He can't do anything!!!"
p187
S'3:08 PM - 11 Nov 2017'
p188
tp189
a(S'Interactive Timeline: \nRussian \nCollusion \nTimeline\n\nEverything We Know About Russia and President Trump http://bit.ly/2zwghqo\xc2\xa0 via @BillMoyers'
p190
S'3:07 PM - 11 Nov 2017'
p191
tp192
a(S'Some of it has left the country. DNC/HRC/ paid for fake dossier produced by foreign national & RUSSIA & pushed by McCain! Uranium one legit deal, 145 million to CGI by Uranium 1 investors not legit! McCain is part of the collusion to get DT out if office! Nothing more.'
p193
S'3:06 PM - 11 Nov 2017'
p194
tp195
a(S'This whole Moore issue is ridiculous. Everyone knows you can\xe2\x80\x99t prove a negative. This relates to th Russia collusion charges as well. You can only prove what someone did not what they didn\xe2\x80\x99t do. That\xe2\x80\x99s law 101.'
p196
S'3:02 PM - 11 Nov 2017'
p197
tp198
a(S"As russia-gate investigation heats up, trump is trying to establish an alibi, in essence he can't be guilty of collusion (conspiracy) if there was no interference."
p199
S'3:01 PM - 11 Nov 2017'
p200
tp201
a(S'Do u want to focus on trump Russia collusion fantasy porn or do you want to acknowledge actual corruption? She propped up the DNC w/ the CF'
p202
S'3:00 PM - 11 Nov 2017'
p203
tp204
a(S"We know for sure that HE got hacked! My money is on the #AwanBrothers sold the DNC info to Russia and there's your whole collusion, conspiracy in a nutshell.... Ted being the nut."
p205
S'2:58 PM - 11 Nov 2017'
p206
tp207
a(S"My theory, Trump actively set out to be an American oligarch. It explains his insider crony picks, Russia collusion, trashing of our press and Intel. He wants to get paid and wants his friends to get paid and then he's gonna get out! That's it!"
p208
S'2:55 PM - 11 Nov 2017'
p209
tp210
a(S'Are you fucking kidding me? Hillary pays Russia to create fake intel for the purpose of taking down a political opponent in an election? I\xe2\x80\x99m sorry princess. But yes, Thats collusion! It is the very definition. She actively sought and engaged the help of a hostile foreign power'
p211
S'2:54 PM - 11 Nov 2017'
p212
tp213
a(S'In COLLUSION. Will attack Lebanon2start WW3 before economy implode& because ISRAEL craves the Lebani river 4fresh water,& because they will let America fight 4 them once Israel starts the fight-as usual. Lebanese Hezbollah kick Israeli butt before.Iran Russia Syria Iraq will help'
p214
S'2:54 PM - 11 Nov 2017'
p215
tp216
a(S"$5 says Trump will propose that since we have insulted Putin with accusations of collusion and election meddling that we do something nice for Russia to restore good relations. Something like\xe2\x80\xa6 oh, I don't know\xe2\x80\xa6just something random like ... lift the sanctions."
p217
S'2:53 PM - 11 Nov 2017'
p218
tp219
a(S'funny how everyone acts like "if true" is unacceptable here, while they still pretend like there\'s not enough evidence of collusion w/ Russia'
p220
S'2:53 PM - 11 Nov 2017'
p221
tp222
a(S'$150,000 total spent on internet advertisements promoting both candidates from Russia. Major major major collusion'
p223
S'2:52 PM - 11 Nov 2017'
p224
tp225
a(S'Trey Gowdy Latest on Hillary Clinton Russia Collusion and Robert Mueller... https://youtu.be/j5Q7l5ufH3Y\xc2\xa0 via @YouTube'
p226
S'2:51 PM - 11 Nov 2017'
p227
tp228
a(S"I appreciate that James Comey was trying to execute a valid investigation of the 2016 Russia-Trump collusion when Trump fired him. I respect that. But it doesn't change the fact that he single-handedly chose to release info that changed the dynamic of the election. Grave error."
p229
S'2:51 PM - 11 Nov 2017'
p230
tp231
a(S'Watching the BBC news. Completely twisting the manafort arrest and trump/russia collusion. Not one fact did they state! What a joke! Failed to mention Hillary selling 20% of the USA uranium to the Russians.... And comey rubber stamping it'
p232
S'2:51 PM - 11 Nov 2017'
p233
tp234
a(S'b-b-but drumpf and putin hacked the election. nah bitch look at Uranium One and the Fusion GPS and you\xe2\x80\x99ll find the real collusion. BTFO Russia conspiracy'
p235
S'2:51 PM - 11 Nov 2017'
p236
tp237
a(S'Trump is setting them up again, and they still fall for it everytime.  Get them talking about Russia and move the dialogue over to the dossier and the Democrats.  Democrats and media all lose their mind and lose again.  The only proven collusion is with the Democrats and Russians'
p238
S'2:49 PM - 11 Nov 2017'
p239
tp240
a(S'Degradation of #GOP began w/ McConnell normalizing lying to undermine Obama. Then came normalizing voter suppression, pussy grabbing, collusion w/ Russia and now pedophilia: In Christ we pray AMEN.'
p241
S'2:49 PM - 11 Nov 2017'
p242
tp243
a(S'Might I reminded you, the same people that are screaming RUSSIA COLLUSION also said Saddam Hussein had weapons of mass destruction; including MULLER. When there was NO WEAPONS and after they PUBLICLY HUNG him...OOPS WE WERE WRONG. Not one DEM was held accountable!'
p244
S'2:48 PM - 11 Nov 2017'
p245
tp246
a(S"It's amazing that over a year of investigating and the only collusion that has happened was Clinton-Russia #UrianiumOne #FusionGPS "
p247
S'2:48 PM - 11 Nov 2017'
p248
tp249
a(S'You are a TRAITOR and will be in prison in the near future. #ArrestPence #Russia #Collusion #Conspiracy #Mueller #Trump'
p250
S'2:47 PM - 11 Nov 2017'
p251
tp252
a(S'Oh boy! Libatards gonna cry Russia collusion and impeachment for Putin! Plus his stance on gays. The left has another lie to live by!'
p253
S'2:47 PM - 11 Nov 2017'
p254
tp255
a(S'@realDonaldTrumpOh crap, I forgot to congratulate you on your 1st anniversary on being elected and also being under federal investigation for #RUSSIA #OBSTRUCTIONOFJUSTICE #COLLUSION You should be so proud!! #LOSER'
p256
S'2:46 PM - 11 Nov 2017'
p257
tp258
a(S'Why aren\xe2\x80\x99t Facebook and Twitter being accused of collusion with russia'
p259
S'2:46 PM - 11 Nov 2017'
p260
tp261
a(S'Joel, which "polls suggest voters are more interested in policy issues than in impeaching the president or in pursuing allegations of collusion with Russia"? http://bit.ly/2zMRAq7\xc2\xa0 via  Joel @BreitbartNews'
p262
S'2:46 PM - 11 Nov 2017'
p263
tp264
a(S"For the love of all that is good and holy .@gop. it's my country you are selling out to RUSSIA. #TrumpRussia #TrumpRussiaCoverUp #Collusion\nDO SOMETHING. https://twitter.com/renato_mariotti/status/929406593925615619\xc2\xa0\xe2\x80\xa6"
p265
S'2:44 PM - 11 Nov 2017'
p266
tp267
a(S'Yes! Buy one IMPEACH TRUMP t-shirt and get a LOCK HER UP mousepad 50% off. Sponsored by the Mueller Dodgy Russia Collusion Investigations Commitee. Sale ends soon!'
p268
S'2:44 PM - 11 Nov 2017'
p269
tp270
a(S'@HQFOX the only Russia collusion that there is any evidence of is the dems and fusion gps. Maybe you should consider that before bringing in your biased pundits.'
p271
S'2:41 PM - 11 Nov 2017'
p272
tp273
a(S"Sore loser much?. It's been over at year and the only collusion that has come out is actually been between the DNC and Russia  But keep on drinking that kool-aid"
p274
S'2:37 PM - 11 Nov 2017'
p275
tp276
a(S'Sarah it\'s now proven that it was #HRC and the #Podestas that paid Russian officials for dirt on @POTUS and the #Clintons had corrupt dealings with Russia for #Uranium1 there STILL is NO evidence of Trump "Collusion" please stop believing @DNC #Propaganda'
p277
S'2:37 PM - 11 Nov 2017'
p278
tp279
a(S'Trump, his family, nor his administration are under investigation for collusion with Russia or obstruction. You should try real news over Dem propaganda.'
p280
S'2:36 PM - 11 Nov 2017'
p281
tp282
a(S"Since @realDonaldTrump won its the lefts strategy to delegitimize any republican by whatever means necessary. #Russia #Prostitutes #Collusion #SexualAssaults whatever it takes. And if you don't believe them you're racist/sexist etc. Roy Moore is just the next on the list."
p283
S'2:36 PM - 11 Nov 2017'
p284
tp285
a(S"Special Counsel Robert Mueller's investigation of possible collusion between President Donald Trump's campaign and Russia is being conducted in much more aggressive way than the scrutiny into Hillary Clinton's email server ever went,"
p286
S'2:34 PM - 11 Nov 2017'
p287
tp288
a(S"Since @realDonaldTrump hs been n office, our govt isn't manned properly, removed us frm #TTP, dropped us frm #ParisAgreement, & isolated us from rest of world. He & cabinet aligned w/#Russia. He allowed #China 2 b next world pwr - on & on...  #Collusion #TrumpRussia\n@NGrossman81https://twitter.com/NGrossman81/status/929336488441077761\xc2\xa0\xe2\x80\xa6"
p289
S'2:32 PM - 11 Nov 2017'
p290
tp291
a(S'WELL MEULLER STOP THE INVESTIGATING OF RUSSIA & TRUMP ....PUTIN TOLD TRUMP THAT HE DIDN\'T DO ANYTHING NOTHING AT ALL!  SO GIVE UP THE INVESTIGATION..PUTIN TOLD TRUMP THERE\'S "NO COLLUSION" https://twitter.com/CNN/status/929472532582977537\xc2\xa0\xe2\x80\xa6'
p292
S'2:29 PM - 11 Nov 2017'
p293
tp294
a(S'Mueller is a man of integrity, intelligence, principles and substance. He will get to the bottom of the Trump/Russia collusion and curruption and we will end this fiasco presidency'
p295
S'2:27 PM - 11 Nov 2017'
p296
tp297
a(S'Thought: Certainty that #Clinton_Russia_Uranium1 collusion true\nWhat if Russia agreed to hack election for Clinton (which #Obama strenuously denied at time)\nBut #Trumptrain won the day\nSo #Dems turned the tables & blamed Trump for their cheating\nExplain why #HRC not except result'
p298
S'2:25 PM - 11 Nov 2017'
p299
tp300
a(S"I think there's a confusion on this question n I need to clarify it - one question is about Russia/Putin collusion whith Trump campaign which only exist in a DERANGED MIND n the other one is the Russia meddling in our election thru the DNC files n Pc's 4 what reason?..Unknown"
p301
S'2:23 PM - 11 Nov 2017'
p302
tp303
a(S"That's not in question. We also know the Chinese (and 20 other nations) hacked the DNC servers too.\n\nFocus Ted... There's no collusion between Trump and Russia. There IS definitive collusion between the Clinton campaign and Russia AND Ukraine."
p304
S'2:23 PM - 11 Nov 2017'
p305
tp306
a(S'Hillary calls out Putin while Secretary of State.\n\n#Trump praises Putin before, during, and after the election.\n\n#GOP "We must investigate Hillary\'s collusion with Russia."'
p307
S'2:22 PM - 11 Nov 2017'
p308
tp309
a(S'Learn how to find the truth. Just because trump says it, or fox says it. Believe it or not, they don\xe2\x80\x99t always tell the truth. Sorry that your dear king is facing some serious consequences, for his collusion with Russia.pointing out others faults, don\xe2\x80\x99t make him innocent! He pays'
p310
S'2:21 PM - 11 Nov 2017'
p311
tp312
a(S'Naturally they will. Both R liar hacks and both should call @SenFeinstein who said on your show @CNNSotu last Sunday and before to @wolfblitzer that she hasn\xe2\x80\x99t seen any collusion between. @realDonaldTrump and Russia. You are fake news.'
p313
S'2:21 PM - 11 Nov 2017'
p314
tp315
a(S'To the Dems snd Trump Haters, if you were not in a room where you heard first hand, collusion between Russia and US plans or were not on a phone call, then why the hell are you insisting any of it happened?'
p316
S'2:20 PM - 11 Nov 2017'
p317
tp318
a(S'Im pretty sure she excepts them, but suspects MAJOR collusion with Russia...   No?'
p319
S'2:19 PM - 11 Nov 2017'
p320
tp321
a(S'Right here. No evidence of collusion. You should  donate a dollar for each time you said Russia.  Send those thousands to hurricane relief.'
p322
S'2:19 PM - 11 Nov 2017'
p323
tp324
a(S'Also completely and totally logical given the current POTUS. I never thought there was direct collusion when the Russia stuff started. Seems inescapable now'
p325
S'2:19 PM - 11 Nov 2017'
p326
tp327
a(S'Incredible, the party of communists is accusing @realDonaldTrump of collusion with Russia.\nThis is straight from Saul Alinsky\'s "Rules for Radicals":\n"The best way to hide your tracks and advance your agenda at the same time is to accuse your enemies of what you\'re guilty of".'
p328
S'2:17 PM - 11 Nov 2017'
p329
tp330
a(S'@realDonaldTrump@\nMichaelHayden@MSNBC\n@CNN WE HAVE BEST\nINTEL IN WORLD! APPROX. 17 AGENCIES SAY WITHOUT DOUBT, RUSSIA HACKED OUR\nPRES. ELECTION! SO,\nWHAT,S WITH TRUMP?!\nNOT JUST ABOUT VALID\nELECTION! COLLUSION.'
p331
S'2:17 PM - 11 Nov 2017'
p332
tp333
a(S'@realDonaldTrump @PEEPSPOLITICAL TARMAC PLOT > & LORETTA LYNCH > 413 P PROOF > CLIMAX COLLUSION SO DEEP STATE & FBI NEW ABOUT URANIUM RUSSIA DEAL & COULD ONLY COVER IT UP IF CLINTON WON 2016 > TARMAC WAS STAGING PLOT FBI & DOJ FAKE RUSSIA...  SESSION CAL>SPECIAL PROSECUTION 2017 https://twitter.com/peepspolitical/status/917798129801613312\xc2\xa0\xe2\x80\xa6'
p334
S'2:16 PM - 11 Nov 2017'
p335
tp336
a(S'Have you accepted that Hillary paid Russia for fake dossier to smear Trump and also her paying antifa facists $800,000 to riot and destroy businesses. When are you going to admit Russia collusion with Trump is false but true with Hillary!!!!!!!!'
p337
S'2:13 PM - 11 Nov 2017'
p338
tp339
a(S"I'm still eagerly awaiting any evidence relating to the Trump/Russia collusion narrative that was started over a year ago."
p340
S'2:12 PM - 11 Nov 2017'
p341
tp342
a(S'as this Mueller probe fails to find anything on Trump/Russia collusion, Mueller is following evidence over to the left.'
p343
S'2:09 PM - 11 Nov 2017'
p344
tp345
a(S"JW President Tom Fitton: 'I don't see any evidence of collusion' between Trump & Russia https://buff.ly/2zGYLjJ\xc2\xa0"
p346
S'2:08 PM - 11 Nov 2017'
p347
tp348
a(S'Are you trying to claim that the FBI was given access to analyze the "hacked" server? \n\nAre you saying that James Comey, during the Obama administration, perjured himself to Congress about this?\n\nWas there collusion w/Russia during Obama\'s term?\n\nhttps://www.cbsnews.com/news/fbi-director-comey-agency-requested-access-to-dnc-servers/\xc2\xa0\xe2\x80\xa6'
p349
S'2:06 PM - 11 Nov 2017'
p350
tp351
a(S'He has been & CIA JUST REPORTED "NO RUSSIAN COLLUSION" RUSSIA HAD ZERO AFFECT ON ELECTION RESULTS" Read it & WEEP  https://twitter.com/rxerezburgos/status/929367047007604741\xc2\xa0\xe2\x80\xa6'
p352
S'2:05 PM - 11 Nov 2017'
p353
tp354
a(S'Yes. And he finally put the Russia collusion behind us! Long live Russia! Long live USA!!! #MAGA'
p355
S'2:04 PM - 11 Nov 2017'
p356
tp357
a(S'They have made significant progress in the Trump-Russia Collusion Investigation since August. Arrests even. Go peddle your BS somewhere else.'
p358
S'2:04 PM - 11 Nov 2017'
p359
tp360
a(S'No evidence of collusion. There is however proof that the DNC colluded with Russia, don\xe2\x80\x99t hear much about it in the media eh?'
p361
S'2:04 PM - 11 Nov 2017'
p362
tp363
a(S'At the clip\xe2\x80\x99s very end - i think it\xe2\x80\x99s very unfortunately premature to say Nixon\xe2\x80\x99s \xe2\x80\x9868 collusion with Vietnam was much worse than DT\xe2\x80\x99s \xe2\x80\x9816 with Russia. We don\xe2\x80\x99t know how many lives will be lost as a result.'
p364
S'2:03 PM - 11 Nov 2017'
p365
tp366
a(S'@realDonaldTrump #VeteransDay #BoneSpurs #DraftDodger #WhichFootRightOrLeft #Collusion #Russia #TrumpPutin2020 #DamnTheMan \n...Running Out Of Hashtags...'
p367
S'2:01 PM - 11 Nov 2017'
p368
tp369
a(S'Im sure Mueller was simply curious about how much coffee @StephenMillerAL drinks? Papadopoulos was described as \xe2\x80\x9cthe coffee boy\xe2\x80\x9d by @MichaelRCaputo. Miller needs to clarify his caffeine consumption, because the only other possibility is collusion with Russia.'
p370
S'1:59 PM - 11 Nov 2017'
p371
tp372
a(S'There was no collusion between Donald Trump and Russia...Trump wanted a Russian Collusion investigation...there are over 20 sealed indictments right now...I guarantee those names are not who you are thinking about. Dems walked right into the trap.'
p373
S'1:59 PM - 11 Nov 2017'
p374
tp375
a(S'@tedlieu should be more concerned about the #Weinstein issues given the areas he represents.  Even @SenFeinstein said there\xe2\x80\x99s no evidence of Trump Russia collusion.  Let\xe2\x80\x99s look into #UraniumOne and #RussianDossier shall we Ted?https://twitter.com/tedlieu/status/929371865713319936\xc2\xa0\xe2\x80\xa6'
p376
S'1:58 PM - 11 Nov 2017'
p377
tp378
a(S'POTUS Trump & Russia Prez Putin Agree On Syria..(this is not collusion Dems)... DoG'
p379
S'1:56 PM - 11 Nov 2017'
p380
tp381
a(S"Just more evidence of collusion between Russia and Trump. He is outright promoting Putin's denials over US Intelligence agencies in a bid to undermine any prosecution of his inner circle. Never has a POTUS so publicly sided with a foreign adversary as this corrupt dirtbag has."
p382
S'1:56 PM - 11 Nov 2017'
p383
tp384
a(S'Trump requested emails.\nHe asked.\nIn cahoots with Russia.\nThe word is in Cahoots!\nNot Collusion.\nYou know when in Cahoots when Bankers are protected not the depositor.\nThe populace of US are customers of banks.'
p385
S'1:54 PM - 11 Nov 2017'
p386
tp387
a(S'They\xe2\x80\x99ll be in the US still. I mean, they don\xe2\x80\x99t want to Russia collusion stories I suppose '
p388
S'1:53 PM - 11 Nov 2017'
p389
tp390
a(S'MAJOR UPDATE on the REAL Russia / Collusion Story ...!!! http://fb.me/3CtHImkNj\xc2\xa0'
p391
S'1:53 PM - 11 Nov 2017'
p392
tp393
a(S"Surely THIS proves collusion with Russia in the election, right guys?! RIGHT?!\n\nlmao journalism is such a joke these days. It's incredibly sad."
p394
S'1:53 PM - 11 Nov 2017'
p395
tp396
a(S'You mean the "classified information" that originated from a DNC commissioned firm called Crowd Strike that is the ONLY "evidence" outside of the also debunked pee dossier that links Trump to Russia? None of which BTW suggests collusion to "hack" the election. https://twitter.com/tedlieu/status/929371865713319936\xc2\xa0\xe2\x80\xa6'
p397
S'1:50 PM - 11 Nov 2017'
p398
tp399
a(S'If she really cared so much about Putin she would be throwing up all day long from #Clinton collusion & lying #dems #Russia slander campaign'
p400
S'1:48 PM - 11 Nov 2017'
p401
tp402
a(S'Agree no body is above questioning and should be held accountable, but we have more documented proof of collusion (legal term or not) with Russia being tied to Democrats than Republicans.'
p403
S'1:48 PM - 11 Nov 2017'
p404
tp405
a(S'4 out of 17 intl agencies directly investigating Russian collusion. Daniel Coats, Director of National Intelligence, said "NO DISSENT inside U.S. intel agencies about the conclusion that Russia used hacking and fake news to interfere in the 2016 presidential election"'
p406
S'1:48 PM - 11 Nov 2017'
p407
tp408
a(S"@GOP @HouseGOP @SenateGOP @SpeakerRyan @SenateMajLdr you enable this. Trump has sold out to Russia. He won't even implement the Russian sanctions. He is not even trying to hide his collusion. America will remember 2018! Trump will be impeached when Democrats take house and senate https://twitter.com/JustADCohen/status/929367356689862656\xc2\xa0\xe2\x80\xa6"
p409
S'1:47 PM - 11 Nov 2017'
p410
tp411
a(S'A Tangled Putin Scheme--Andrew McCarthy:"For all the talk about \'Trump collusion with Russia,\'the Kremlin hoped to undermine the United States government regardless of which party won. Wittingly or not,Fusion GPS helped the Putin regime play both sides"! http://tinyurl.com/ycda55h9\xc2\xa0pic.twitter.com/ZrrL8puCbh'
p412
S'1:45 PM - 11 Nov 2017'
p413
tp414
a(S"Funny how you are willing to ignore Obama's statement to Russia Pres.We were told then they were our friends despite the cold war & nukes pointed at each other BUT it all changed when HRC lost the election for a collusion that didn't happen. Starting a war over HRC are you insane"
p415
S'1:44 PM - 11 Nov 2017'
p416
tp417
a(S'Deepstae is so desperate to hide the real Russia collusion they will do or say anything .They are after all partners to help Anti American corporations to over throw @POTUShttps://twitter.com/DineshDSouza/status/929305181296185345\xc2\xa0\xe2\x80\xa6'
p418
S'1:43 PM - 11 Nov 2017'
p419
tp420
a(S'\xd0\x9c\xd0\xbe\xd0\xbb\xd0\xbe\xd0\xb4\xd0\xb5\xd1\x86! \nWill Trump/Russia collusion be Pursuance proof of concept?'
p421
S'1:43 PM - 11 Nov 2017'
p422
tp423
a(S'B\xc3\x93MB\xc5\xa0H\xc4\x9aLL! Tucker Carlson REVEALS the True Story Behind The REAL RUSSIA COLLUSION STORY is with the DEMS!'
p424
S'1:43 PM - 11 Nov 2017'
p425
tp426
a(S'He seems to b putting America first.  We now know real Russia collusion is with podestas, Clinton\xe2\x80\x99s, obama... time to pay attention to the truth... or of course stay in fantasy land where trump is the boogie man like you\xe2\x80\x99re wanted to think'
p427
S'1:42 PM - 11 Nov 2017'
p428
tp429
a(S'Caught In Russia Collusion Fishing Nets..Two Big To Hook, Democrat Leaders John and Tony Podesta..Bigger Fish Still tick-tick-tick==>Hillary'
p430
S'1:42 PM - 11 Nov 2017'
p431
tp432
a(S'I believe @realDonaldTrump coordinated with Russia on the statement that he doesn\xe2\x80\x99t believe US intelligence services that Russian hacked USA in order to deflect and create doubt on American findings and Russian collusion'
p433
S'1:41 PM - 11 Nov 2017'
p434
tp435
a(S'Let Me Ask You One Question Ted, Should Trump Spend Valuable Time Harping Over Russia Collusion With Putin, Calling Him A Liar, Or Concentrate On Discussing With Putin A Plan To Defuse A Possible Nuclear War With NK, That Is Obviously Scaring The Daylights Of You & The Rest Of Us'
p436
S'1:41 PM - 11 Nov 2017'
p437
tp438
a(S"@BarrettBrown_ has just tweeted he's going on RT to talk about significant collusion between Russia & Trump. He's must have some evidence that the 17 US intelligence agencies missed."
p439
S'1:40 PM - 11 Nov 2017'
p440
tp441
a(S"I challenge you to produce the collusion with Russia evidence....now that's a challenge you guys would be called hero's for succeeding!"
p442
S'1:40 PM - 11 Nov 2017'
p443
tp444
a(S'On this sacred Veterans Day Trump defends Putin and denies America\'s proof of Russia involvement in our elections. \n\n"COLLUSION" "COLLUSION" "COLLUSION" "COLLUSION" "COLLUSION" "COLLUSION" "COLLUSION" "COLLUSION" "COLLUSION" "COLLUSION" "COLLUSION"  him up pic.twitter.com/EXcYQiqG0o'
p445
S'1:39 PM - 11 Nov 2017'
p446
tp447
a(S'Do you know who is \xe2\x80\x98very insulted\xe2\x80\x99 by a witch hunt that\xe2\x80\x99s lasted a year with no evidence on Trump, Schiff? The American voters. We\xe2\x80\x99ve had to endure lies and smears to our president while you ignore real evidence of Clinton Russia collusion. https://twitter.com/repadamschiff/status/929355576668286977\xc2\xa0\xe2\x80\xa6'
p448
S'1:37 PM - 11 Nov 2017'
p449
tp450
a(S'Oh no,  more collusion between Trump and Russia. Just waiting for the inevitable secret recordings to be published. https://twitter.com/V_of_Europe/status/929314517263241217\xc2\xa0\xe2\x80\xa6'
p451
S'1:36 PM - 11 Nov 2017'
p452
tp453
a(S'When the President of the United States is personally dictating false statements for press regarding his son\xe2\x80\x99s efforts to collude w/ the Russians whilst under active investigation into Russia collusion? Not hard to see that leading to facts for an obstruction of justice charge.'
p454
S'1:36 PM - 11 Nov 2017'
p455
tp456
a(S"You're incorrect on both. Donald Jr himself released emails admitting collusion between the campaign & Russia. There is quite a lot of more evidence as well.\nRE Uranium1, Hillary d/n &couldn't make that decision-9 person panel+other committees gatekeeping. False conspiracy theory"
p457
S'1:35 PM - 11 Nov 2017'
p458
tp459
a(S"Convenient MSM talking points while U ignore real *Russia collusion w/\n\nuranium1\n\nclinton foundation *Russia donations \n\nBill Clinton's *Russia speaking fees \n\nPodesta Group emails regarding *Russia \n\nObama whispers to Putin/*Russia \n\n*Russia reset \n#GFY u libtarded zombies"
p460
S'1:34 PM - 11 Nov 2017'
p461
tp462
a(S'0 evidence of Russia-Trump collusion'
p463
S'1:34 PM - 11 Nov 2017'
p464
tp465
a(S'\'#Clinton lawyer kept #Russia dossier project closely held\' \n\nSo now nobody #Hillary #DNC #Podesta #TheDog knew of it\nbut some obscure "insider"  \nHowever they spin,#RussiaDossier is a fraud used to perpetuate what is now a Russia-#Trump #collusion #hoaxhttp://wapo.st/2zdwHnN?tid=ss_tw-bottom&utm_term=.5cf002a0c553\xc2\xa0\xe2\x80\xa6'
p466
S'1:30 PM - 11 Nov 2017'
p467
tp468
a(S"If @realDonaldTrump wants people to think there was no collusion with Russia, a good first step would be to stop being Putin's bitch. https://twitter.com/erinburnett/status/929328632123854848\xc2\xa0\xe2\x80\xa6"
p469
S'1:29 PM - 11 Nov 2017'
p470
tp471
a(S"Vladamir Putin Just Confirmed What We've All Been Thinking!! http://redstatewatcher.com/article.asp?id=104735\xc2\xa0\xe2\x80\xa6 @POTUS SHOWING GREAT LEADERSHIP. MOVE ON. RUSSIA/TRUMP COLLUSION A MYTH"
p472
S'1:29 PM - 11 Nov 2017'
p473
tp474
a(S"Brilliant insight, Dr Brent. Crying wolf, liberal hysteria on 'russia collusion' full of innuendo and speculation, zero votes changed, over-reliance by the left on disinfo alphabet soup agencies WHO EXIST TO LIE. Theatrical Ted played his whole hand. 7 years left!"
p475
S'1:26 PM - 11 Nov 2017'
p476
tp477
a(S'I know what you mean. I\xe2\x80\x99m choosing to believe he acted way he did re HRC because he knew real story was Trump/Russia collusion & needed to show the IC investigate fully and is beyond party politics. Nobody can accuse him of concealing information re HRC now. Timing was awful tho!'
p478
S'1:26 PM - 11 Nov 2017'
p479
tp480
a(S"The only Russian collusion that's been answered, is Hillary selling our Uranium 2 Russia.  Have your constituents even heard about it?  Mueller uncovered Manafort Russian connection, but it dated back to 2010.  Same time Podesta Group acted as lobby 4 Russia & Hillary as seller. https://twitter.com/MaddowBlog/status/925899492024516608\xc2\xa0\xe2\x80\xa6"
p481
S'1:25 PM - 11 Nov 2017'
p482
tp483
a(S'Sexual abuse,pedophiles,Russia collusion,corruption,lying to the public for votes,killing babies are what the Dems are about. They abuse USA'
p484
S'1:25 PM - 11 Nov 2017'
p485
tp486
a(S"It is their way of protecting their own actions. It's exactly the same thing with the Russia fake news.\nThey are guilty of Russian collusion, so they tried to outflank by making fake accusations against the very people who will hold them accountable for their crimes."
p487
S'1:25 PM - 11 Nov 2017'
p488
tp489
a(S"I know right. A Canadian company having to get approval from 9 member committee and a state energy commission to sell nonweapons-grade uranium company to Russia. Uranium they can't move equates to collusion 1)"
p490
S'1:24 PM - 11 Nov 2017'
p491
tp492
a(S"I wonder how much $$ Trump got from Putin's Oligarchs for all this financial collusion with Russia. He is up to his chin in Russian dealings as well as the rest of his criminal administration. Nunes being the latest to be outed. No surprise there. https://twitter.com/DDevareaux/status/929458741128425472\xc2\xa0\xe2\x80\xa6"
p493
S'1:24 PM - 11 Nov 2017'
p494
tp495
a(S"Sally, one yr into 'investigation' & still NO Trump/Russia 'collusion.  But Hillary & Uranium one----that's another story. pic.twitter.com/AbgoK0687I"
p496
S'1:22 PM - 11 Nov 2017'
p497
tp498
a(S'Well he did say he would have \xe2\x80\x9cmore flexibility\xe2\x80\x9d to do a deal with Russia after his election. Sounds like collusion'
p499
S'1:22 PM - 11 Nov 2017'
p500
tp501
a(S'Any way you can you push Russia  still no proof of collusion but you keep carping on the apparent b.s.'
p502
S'1:21 PM - 11 Nov 2017'
p503
tp504
a(S"@TedLieu You know DNC servers weren't hacked! Seth Rich gave the info to Wikileaks & was murdered for doing do. Only collusion over election was by Clinton camp & Russia. We also know CIA & FBI were involved! https://twitter.com/PoliticalShort/status/929433327454502912\xc2\xa0\xe2\x80\xa6"
p505
S'1:21 PM - 11 Nov 2017'
p506
tp507
a(S"Well, gee, if Putin says so then I guess it's settled.... This attitude is just another factor that points to Trump's collusion with Russia. Clearly, Trump is guilty of something."
p508
S'1:21 PM - 11 Nov 2017'
p509
tp510
a(S'"Putin"\n\nDemocrat/MSM deception:\n1. Commission faux Dossier vs @realDonaldTrump\n2. Rely on it as pretext for FISA warrants\n3. Use info as basis for Russia collusion & Sp. Pros\n\n@cnn @msnbc @pbs @ap @abc @politico @thehill @NBC @CBS @AOL @YAHOO @USATODAY @realDonaldTrump @FoxNewspic.twitter.com/yF7acqS2ir'
p511
S'1:20 PM - 11 Nov 2017'
p512
tp513
a(S'Obviously a never-trumper with an agenda. The only "collusion" with Russia was Obama and Clinton selling uranium to Russia. The election wasn\'t HACKED by Russia it was the DHS. All this was reported already. His name was SETH RICH.'
p514
S'1:19 PM - 11 Nov 2017'
p515
tp516
a(S'As Gov\xe2\x80\x99t Fails to Prove Russia Collusion, Twitter Admits to Actual Election Censorship\xe2\x80\x94Media Silence http://thefreethoughtproject.com/twitter-admits-mass-censorship-podestaemails-dncleaks/?KC7\xc2\xa0\xe2\x80\xa6pic.twitter.com/HVvYBEiKad'
p517
S'1:18 PM - 11 Nov 2017'
p518
tp519
a(S"Trump says there was no collusion. OK. Fine. That's not the same thing as Russia not having tried to interfere."
p520
S'1:17 PM - 11 Nov 2017'
p521
tp522
a(S"What jail time is about to mount up the only reason we're looking into Russia and Trump collusion is a fake dossier fabricated by HRC now there was a separation when Obama was elected but not the alt right these people you call alt right range all over the Spectrum"
p523
S'1:16 PM - 11 Nov 2017'
p524
tp525
a(S'>Russia dossier investigators suspect reporters were paid to spread collusion claims (WashTimes)\nhttps://archive.fo/mxsNV\xc2\xa0'
p526
S'1:16 PM - 11 Nov 2017'
p527
tp528
a(S'4 out of 17 intelligence agencies directly investigating Russian collusion. Daniel Coats, Director of National Intelligence, said "no dissent inside U.S. intel agencies about the conclusion that Russia used hacking and fake news to interfere in the 2016 presidential election"'
p529
S'1:16 PM - 11 Nov 2017'
p530
tp531
a(S"Trump insists there was no collusion with Russia during the election yet doesn't seem to understand that even without collusion, it's still very possible (if not probable) that Russia attempted to interfere. I wonder why."
p532
S'1:15 PM - 11 Nov 2017'
p533
tp534
a(S'Hey @SallyQYates read article #PresidentTrump said, "Every time he sees me he says, \'I didn\'t do that,\' and I really believe that when he tells me that he means it." That\'s a far cry from saying he believes he didn\'t do it. BTW only collusion w/ Russia came from Hillary & the DNC https://twitter.com/SallyQYates/status/929403087864942592\xc2\xa0\xe2\x80\xa6'
p535
S'1:15 PM - 11 Nov 2017'
p536
tp537
a(S"So libs are still complaining about Russia and are butthurt that there hasn't been any evidence of collusion. #MAGA. Keep bitching. Repubs love you. \nWe almost took Virginia from you. Hahahahahaa"
p538
S'1:15 PM - 11 Nov 2017'
p539
tp540
a(S"I've agreed to go on Sputnik on Monday to argue the case for significant Trump/Russia collusion. Incidentally, here's how my first appearance on Russia Today ended in 2010 https://youtu.be/1gbBZe478xE?t=347\xc2\xa0\xe2\x80\xa6"
p541
S'1:15 PM - 11 Nov 2017'
p542
tp543
a(S'@RealMikePompeo seems to be far afield of "Russia Collusion"  the American people are getting tired of these games we stand with OUR Pres he won'
p544
S'1:13 PM - 11 Nov 2017'
p545
tp546
a(S"Well you haven't found any collusion with Russia yet so either Trump is a mastermind or there is none. And if there is what is the law that has been broken"
p547
S'1:11 PM - 11 Nov 2017'
p548
tp549
a(S'@RealMikePompeo We voted for Trump NOT because Russia told us too, the real collusion was with MSM 24/7 Clinton was going to win in landlside'
p550
S'1:09 PM - 11 Nov 2017'
p551
tp552
a(S"OK, now that we have that narrowed down let's move on to the Hillary, Podesta, Russia collusion situation. Or do we prefer to wait for indictments?"
p553
S'1:08 PM - 11 Nov 2017'
p554
tp555
a(S"There are exactly two reasons for this. 1, there is in fact collusion between Trump & Russia. 2, his fragile ego can't admit he didn't win on merit and thus is willing to lie. Both concepts are terrifying!!"
p556
S'1:07 PM - 11 Nov 2017'
p557
tp558
a(S'However to your words why Trump is being investigated well where did it start maybe some media Outlets got word of trump collusion with Russia now where would that have started wait a second there has now been revealed a dossier of how Trump came to be known with the Russians'
p559
S'1:05 PM - 11 Nov 2017'
p560
tp561
a(S'Russia collusion was a lie. Get over it Libs. Your people are the source and they are the criminals! https://twitter.com/sahouraxo/status/929423586326142976\xc2\xa0\xe2\x80\xa6'
p562
S'1:04 PM - 11 Nov 2017'
p563
tp564
a(S'Even the Republican controlled Congress didn\xe2\x80\x99t feel comfortable with Trump/Russia. If there\xe2\x80\x99s absolutely nothing to Trump/Russian collusion or fake news as Trump might argue why did Congress feel the need to do this. https://www.vox.com/policy-and-politics/2017/7/28/16055630/congress-trump-russia-sanctions-veto\xc2\xa0\xe2\x80\xa6'
p565
S'1:04 PM - 11 Nov 2017'
p566
tp567
a(S'@realDonaldTrump:Political solution to Syria has NOTHING to do with YOUR collusion w/ Russia to undermine our DEMOCRACY & electoral process! https://twitter.com/SafetyPinDaily/status/929453684743987200\xc2\xa0\xe2\x80\xa6'
p568
S'1:04 PM - 11 Nov 2017'
p569
tp570
a(S'Take a look at facts: More than a yr has past, not a single bit of "Russia" collusion has been reported from Spc Council or Congressional investigations. It\'s a "Witch Hunt", the trator here is a disloyal Sally Yates. FBI is proven corrupt, "why not" some of our Intel Agents? pic.twitter.com/KLZWnG3eL4'
p571
S'1:04 PM - 11 Nov 2017'
p572
tp573
a(S' BIG NEWS: \n\nPodesta brothers are in hot water, may face indictment over REAL collusion with Russia. \n\nTick tock... \n\nhttps://www.infowars.com/report-podesta-law-firm-to-shut-down-amid-incoming-mueller-indictment/\xc2\xa0\xe2\x80\xa6'
p574
S'1:00 PM - 11 Nov 2017'
p575
tp576
a(S'the same manafort looks at podesta while getting dossier meant as propaganda in so-called "Trump-Russia collusion" https://twitter.com/TheDailyEdge/status/929117915248545792\xc2\xa0\xe2\x80\xa6'
p577
S'12:59 PM - 11 Nov 2017'
p578
tp579
a(S" Let's put a stop to the #RussiaGate BS which was fabricated by #HillaryClinton in order to:\n\n1/ Explain her loss to angry Big Donors who were promised huge ROIs.\n2/ Cover-up her own collusion with #Russia: #Pay2Play Treason.\n3/ Hide  her #ElectionFraud.https://twitter.com/saneprogressive/status/912801271572287488\xc2\xa0\xe2\x80\xa6"
p580
S'12:59 PM - 11 Nov 2017'
p581
tp582
a(S'FBI lip readers are glad this guy is not part of #Russia Collusion Investigation. pic.twitter.com/WekWGbz3Qj'
p583
S'12:58 PM - 11 Nov 2017'
p584
tp585
a(S'I love how this baseless investigation into Trump/Russia collusion is backfiring on Dems. Wonder what Muellers going to do when this Witch Hunt circless back to his own traitorous crimes. This is a massive conflict of interest & the Dem party will be in ruins when Justice is had! https://twitter.com/infowars/status/929438837922828289\xc2\xa0\xe2\x80\xa6'
p586
S'12:56 PM - 11 Nov 2017'
p587
tp588
a(S'@realDonaldTrump believes #Putin over 17 American intelligence agencies that know @realDonaldTrump and the #MoneyLaundering @GOP #Collusion with #Russia\n#peepeetape #RussiaGate #childmolester #TreasonWeasels #TreasonousTrumppic.twitter.com/osKzDTglDQ'
p589
S'12:51 PM - 11 Nov 2017'
p590
tp591
a(S'False. It helped him because it distracted mainstream news  pathetic Trump-enabling @NYT & other Trump-enabling media from his collusion with Russia to win.'
p592
S'12:50 PM - 11 Nov 2017'
p593
tp594
a(S'This looks big joke. America President is playing his own type of game with Russia President. This is height of corruption & collusion.'
p595
S'12:49 PM - 11 Nov 2017'
p596
tp597
a(S"These ppl are Morons. They voted for Hillary that should tell u enough.Collusion isn't a crime the Msm never tells you that either. The crime was Hillary buying fake info from Russia. Collusion only a crime if it goes against our country. Only Dems colluded."
p598
S'12:49 PM - 11 Nov 2017'
p599
tp600
a(S'Another HACK but instead of witch hunting Russia collusion & trashing @realDonaldTrump why not ONE DAY DO RIGHT THING & honor our vets!!https://twitter.com/acosta/status/929295102421319681\xc2\xa0\xe2\x80\xa6'
p601
S'12:48 PM - 11 Nov 2017'
p602
tp603
a(S'Pathetic how you still believe the "Russia collusion" tin foil hat conspiracy. Coo coo'
p604
S'12:47 PM - 11 Nov 2017'
p605
tp606
a(S'Well the real collusion was shown to be between clintons, obama admin and russia, but yall democrats dont like to talk about it or show it in the news'
p607
S'12:46 PM - 11 Nov 2017'
p608
tp609
a(S'"Jane, you magnificently ignorant slut", \nWe all know Russia hacked.\nThe point is NO COLLUSION. https://twitter.com/PoliticalShort/status/929433327454502912\xc2\xa0\xe2\x80\xa6'
p610
S'12:45 PM - 11 Nov 2017'
p611
tp612
a(S'Thread connects dots to obvious treason re: Trump collusion w/ Russia via Papadopoulos https://twitter.com/sethabramson/status/929340259074301953\xc2\xa0\xe2\x80\xa6'
p613
S'12:45 PM - 11 Nov 2017'
p614
tp615
a(S'Trump is calling the Trump/Russia collusion investigation by Mueller a "hit job", and he is saying that it is "getting in the way"...Trump is trying to shut this investigation down. #ObstructionOfJustice'
p616
S'12:44 PM - 11 Nov 2017'
p617
tp618
a(S"It's so obvious that the Russia collusion was a HRC planted distraction on purpose, I just can't believe how much mileage she got out of it with no proof whatsoever."
p619
S'12:39 PM - 11 Nov 2017'
p620
tp621
a(S'Refer them to Placeboing\'s video entitled "trump russia possible collusion"'
p622
S'12:39 PM - 11 Nov 2017'
p623
tp624
a(S'Ask yourself: if Mueller is taking the time to go after @PodestaGroup on FARA, not often prosecuted, if ANY Trump associates part of Russia collusion are safe?'
p625
S'12:38 PM - 11 Nov 2017'
p626
tp627
a(S'There was no collusion with Russia; but there was collusion with the dem and sadly the Republican Party!!'
p628
S'12:36 PM - 11 Nov 2017'
p629
tp630
a(S'Good morning trump troll. Don\xe2\x80\x99t forget Russia meddled in our election and your diaper wearing golfer boy is being investigated by 3 congressional committees and a FBI special for collusion and obstruction as we speak have a great effing day! https://twitter.com/michaelrcaputo/status/793659126157021184\xc2\xa0\xe2\x80\xa6'
p631
S'12:35 PM - 11 Nov 2017'
p632
tp633
a(S"The reason Muller is there is because Trump fired Comey for investigating Flynn's collusion with Russia. Muller will dig up the truth"
p634
S'12:33 PM - 11 Nov 2017'
p635
tp636
a(S'https://twitter.com/jskielb3/status/929383475551055873\xc2\xa0\xe2\x80\xa6\n\nHere Bill. Read this article about the Clinton Crime family and all their Russian friends. Anyone pushing Trump Russia collusion story is foolish.'
p637
S'12:31 PM - 11 Nov 2017'
p638
tp639
a(S'Dem will use this good news as collusion w Russia. Even if the DNC paid Russia for fake dossier to rig election.'
p640
S'12:31 PM - 11 Nov 2017'
p641
tp642
a(S'So, tell me how the uranium deal was against the law, and how Clinton was guilty of anything. And when and if you do, in a speculative way, let us do the same to @realDonaldTrump collusion with Russia. Then we shall see which is egregious.'
p643
S'12:30 PM - 11 Nov 2017'
p644
tp645
a(S'Collusion summary: Now pretty clear that Russia was courting both campaigns with oppo dirt in exchange for Magnitsky Act repeal. But in the end, they only ended up helping one. #RussiaGate'
p646
S'12:30 PM - 11 Nov 2017'
p647
tp648
a(S'@CNN @NBCNews @abcnews @CBSNews @MSNBC @SkyNews @BBCNews @USAGSessions \n\nHere\xe2\x80\x99s where the Russia collusion started. \nUnlike CNN this is the truth.\n\nhttps://www.facebook.com/prageru/videos/1771245919837898/\xc2\xa0\xe2\x80\xa6'
p649
S'12:29 PM - 11 Nov 2017'
p650
tp651
a(S'PRECISELY !\nSame WaPo that attacked & LIED about Trump-Russia Collusion released this story !\nWHO is paying WaPo & HOW much are they paying for these LIES ?\nNEVER forget that WaPo, CNN, & NY Slimes ALL worked to defeat Trump &if it took LIES, then so be it ! Is sorros paying them'
p652
S'12:29 PM - 11 Nov 2017'
p653
tp654
a(S'Pedophiles are not worth our lives even talking about when the problem can be solved so quickly he does not deserve any kind of press or TV plugs or talking points anymore we got more important things to think about like Russia collusion and a self-serving lying billionaire'
p655
S'12:28 PM - 11 Nov 2017'
p656
tp657
a(S'#TrumpRussia The more he says the more guilty he is with collusion with communist Russia'
p658
S'12:27 PM - 11 Nov 2017'
p659
tp660
a(S'I\xe2\x80\x99m actually part of the educated people who believe in facts and proof, and so far I have seen nothing that shows collusion between President Trump and Russia, however I have seen quite a bit about the Clintons and Obamas'
p661
S'12:27 PM - 11 Nov 2017'
p662
tp663
a(S'What\xe2\x80\x99s with all the lib-bots in the comments? They should know by now that the Russia collusion story is a bullshit story created by the democrats because they\xe2\x80\x99ve been crybabies about Trump being president and the truth getting out about Hillary and her Russian collusion!'
p664
S'12:27 PM - 11 Nov 2017'
p665
tp666
a(S'Hilarious #FakeCNN Panelist #Russians Think Trump Is Their Political Prisoner#Russia used #DNC in Collusion https://apple.news/ACmKbjVU2SDifO36HpTLuOw\xc2\xa0\xe2\x80\xa6'
p667
S'12:26 PM - 11 Nov 2017'
p668
tp669
a(S"I don't know if there was any actual collusion but Russia clearly tried to interfere. Why does Trump have such a hard-on for Putin? #notMAGAhttps://twitter.com/acosta/status/929295815255846912\xc2\xa0\xe2\x80\xa6"
p670
S'12:26 PM - 11 Nov 2017'
p671
tp672
a(S'@realDonaldTrump@\nMUELLER@CNN@RNC\n@CIA WHY AREN,T REPUB OUTRAGED AT\nTRUMP,S CONTINUED\nCOLLUSION WITH PUTIN!WHY AREN,T AMERICANS?! SANCTIONS AGAINST\nRUSSIA! TRUMP WON,T\nIMPLEMENT! MEDIA,\nDO TIMELINE, TRUMP,\nPUTIN! OBVIOUS!'
p673
S'12:26 PM - 11 Nov 2017'
p674
tp675
a(S'4 out of 17 US intel agencies directly investigating Russian collusion. Daniel Coats, Director of National Intelligence, said "NO DISSENT inside U.S. intel agencies about the conclusion that Russia used hacking and fake news to interfere in the 2016 presidential election"'
p676
S'12:24 PM - 11 Nov 2017'
p677
tp678
a(S'What if it turns out after all this that Trump literally cannot read and the ultimate defense against collusion with Russia is that Trump was in no way involved because he was physically unable to read the correspondence. I mean there is precedent for an illiterate president.'
p679
S'12:23 PM - 11 Nov 2017'
p680
tp681
a(S'Molly McKew a Trump Russia collusion "expert" is a DC lobbyist who worked for the Podesta Group!!! https://www.reddit.com/r/The_Donald/comments/7caifm/molly_mckew_a_trump_russia_collusion_expert_is_a/\xc2\xa0\xe2\x80\xa6'
p682
S'12:23 PM - 11 Nov 2017'
p683
tp684
a(S"@carolecadwalla Trump called Russia collusion 'artificial Democratic and leftie hit job' that 'gets in the way' of international diplomacy."
p685
S'12:23 PM - 11 Nov 2017'
p686
tp687
a(S"Then why Trump/Russia collusion story still matters? It's over anyways."
p688
S'12:20 PM - 11 Nov 2017'
p689
tp690
a(S'Why is Congress not putting a stop or at least limit score to Russia collusion? https://allenwestrepublic.com/its-not-russian-influence-but-it-might-be-almost-as-bad/\xc2\xa0\xe2\x80\xa6'
p691
S'12:18 PM - 11 Nov 2017'
p692
tp693
a(S"Good to see the whole Russia - Trump debacle is all cleared up as Putin says he wasn't involved and Trump believes him. No collusion there then!"
p694
S'12:17 PM - 11 Nov 2017'
p695
tp696
a(S'4 out of 17 intel agencies directly investigating Russian collusion. Daniel Coats, Director of National Intelligence, said "NO DISSENT inside U.S. intel agencies about the conclusion that Russia used hacking and fake news to interfere in the 2016 presidential election" '
p697
S'12:13 PM - 11 Nov 2017'
p698
tp699
a(S'That awkward moment for Liberals when there are more evidence of Hillary & Obama colluding with Russians and pocketed $145M from Putin but still accusing Trump of Russia collusion  They have no Shame !'
p700
S'12:13 PM - 11 Nov 2017'
p701
tp702
a(S"Is it Russian Collusion week already? Would be nice to have some other smear to debunk, that one is done. Didn't you get the Memo, it was not @POTUS but the failed campaign that colluded with Russia. pic.twitter.com/yc3bJ6EdtP"
p703
S'12:12 PM - 11 Nov 2017'
p704
tp705
a(S'Can someone tell why Mueller is still running Russia investigation? The evidence shows clearly that HRC had Russian collusion!'
p706
S'12:10 PM - 11 Nov 2017'
p707
tp708
a(S"If you allow yourself to see, you'll realize that the upper echelon of our intelligence agencies are highly compromised and corrupt.  They do not have US best interest in mind.  Trump-Russia collusion is a hoax -- Hillary-Russia collusion is very real."
p709
S'12:10 PM - 11 Nov 2017'
p710
tp711
a(S'N9. The answer is no. Sexual assault, check. Pedophelia, check. Collusion with Russia, check. Tax cuts for the rich, check. No health care for millions, check. Covering for perjury, check. Packing the courts with judges that have no trial experience,  check.'
p712
S'12:08 PM - 11 Nov 2017'
p713
tp714
a(S'Collusion between Trump and Russia. Or him and other little girls/boys.  Hmm https://twitter.com/kylegriffin1/status/929098434321231874\xc2\xa0\xe2\x80\xa6'
p715
S'12:07 PM - 11 Nov 2017'
p716
tp717
a(S'I hate to say this but Trump is right. Putin had zero to do with Hillary having the lousiest campaign in electoral history. There is zero evidence of "collusion" or even that Russia hacked the DNC. Only wide-eyed, breathless speculation.'
p718
S'12:06 PM - 11 Nov 2017'
p719
tp720
a(S'The reason Clinton did not win was because she could not connect with ordinary voters in swing states of Penn, OH & Fla.\n\nTo blame it on Russia collusion is actually insulting to all of us who voted for Trump.'
p721
S'12:06 PM - 11 Nov 2017'
p722
tp723
a(S'Sounds like the Russia collusion lie the dems keep telling loudly & frequently'
p724
S'12:03 PM - 11 Nov 2017'
p725
tp726
a(S'Garbage false choice take. Lets lay off the russian collusion unless you throw in uranium one, the podestas lobbying for russia, hrc paying russian agents for the \xe2\x80\x98dossier\xe2\x80\x99.'
p727
S'12:01 PM - 11 Nov 2017'
p728
tp729
a(S'Dems are the ones who miscalculated Ams intelligence when they rejected HRC. Only line crossed was DNC collusion w Russia thru FusionGPS'
p730
S'12:01 PM - 11 Nov 2017'
p731
tp732
a(S'Seems she was an agent trying to get to a Trump aide - anyone. Not surprising, but also points to no collusion, as Russia was trying to find access to Trump\nhttps://twitter.com/ak_mack/status/929431401845452800\xc2\xa0\xe2\x80\xa6'
p733
S'12:00 PM - 11 Nov 2017'
p734
tp735
a(S"Just remember..the dems and RINOS screaming the loudest..shout out for what they're guilty of...look at russia/Trump COLLUSION, racism,sexism,all isms..dems are guilty..we need more info on dirty dems"
p736
S'12:00 PM - 11 Nov 2017'
p737
tp738
a(S'Dems have hollowed out state dept.  State dept is working at half staff because Dems refuse 2 approve nominees, then blame President.  This is the truth about lying Dems.  Hillary sells uranium 2 Russia, blames Russian collusion on Pres Trump.  Vote obstructionist out, unite us ! https://twitter.com/RepAdamSchiff/status/928289436722520064\xc2\xa0\xe2\x80\xa6'
p739
S'11:59 AM - 11 Nov 2017'
p740
tp741
a(S'Seems she was an agent trying to get to a Trump aide - anyone. Not surprising, but also points to no collusion, as Russia was trying to find access to Trump\nhttps://twitter.com/ak_mack/status/929431401845452800\xc2\xa0\xe2\x80\xa6'
p742
S'11:59 AM - 11 Nov 2017'
p743
tp744
a(S'The Hill? You must be joking. That like telling a liberal to listen to Rush Limgaugh. BTW have you heard him lately? He is spot on. He says and I agree." Funny how the liberal accuse the right of what they are doing"  as in collusion with Russia.'
p745
S'11:59 AM - 11 Nov 2017'
p746
tp747
a(S'Did President @realDonaldTrump offer Putin 20% of America\xe2\x80\x99s Uranium stock? \nNope. \nDid he offer Putin \xe2\x80\x9cFlexibility\xe2\x80\x9d during a conversation caught on a hot mic? Nope. \nWill the #FakeNews MSM EVER care to cover the real collusion between Democrats & Russia? \nSadly... NOPE.'
p748
S'11:58 AM - 11 Nov 2017'
p749
tp750
a(S'#LOL it was the #Pedo #Podesta brothers the whole time -- #Collusion with #Russia. #Dems Project their flaws onto others. https://www.nytimes.com/2017/11/10/us/politics/john-tony-podesta-mueller-russia-investigation.html\xc2\xa0\xe2\x80\xa6'
p751
S'11:57 AM - 11 Nov 2017'
p752
tp753
a(S'Heres with collusion with Russia looks like pic.twitter.com/J9o3XdVmhH'
p754
S'11:55 AM - 11 Nov 2017'
p755
tp756
a(S"That's that then LoL!  Trump once again in Collusion with Russia,what happened to the Russian sanctions? Collusion Treason?. Peace Resistance together against Trump and his conspirators "
p757
S'11:55 AM - 11 Nov 2017'
p758
tp759
a(S'ummm, \n\nA) Trump claims everyone EXCEPT Putin is lying about Russia collusion in US election\n\nB) Trump claims he asked Putin and was told it never happened\n\nC) the KREMLIN says Trump never asked Putin\n\nEven the KREMLIN is calling Trump a liar\n\nthat must make (R)\xe2\x80\x99s very proud https://twitter.com/thehill/status/929381464990474240\xc2\xa0\xe2\x80\xa6'
p760
S'11:54 AM - 11 Nov 2017'
p761
tp762
a(S'One problem dipshit, there was collusion between HRC and Russia thru Uranium One.  NONE between Trump and Russia.  THAT is the difference.  Russia did NOT make millions vote for DJT!  B4 elec, O & many others said it cld'
p763
S'11:54 AM - 11 Nov 2017'
p764
tp765
a(S"Of course Trump believes Putin's lies about inteference in our elections. He demands we believe all his lies about collusion, coordination, and conspiracy to help Russia do exactly that. #TrumpRussia"
p766
S'11:54 AM - 11 Nov 2017'
p767
tp768
a(S'Yeah well Sally Yates you are part of the political hacks who supported the obviously fake dossier used to spread lie about Russia interfering in our election w/ #PresidentTrump. Only collusion w/ Putin came from Hillary selling 20% of our uranium to him for moola! https://twitter.com/SallyQYates/status/929403087864942592\xc2\xa0\xe2\x80\xa6'
p769
S'11:54 AM - 11 Nov 2017'
p770
tp771
a(S"Probe into Trump-Russia collusion 'to announce first charge on Monday' http://www.independent.co.uk/news/world/americas/us-politics/robert-mueller-russia-donald-trump-probe-indictment-announce-monday-latest-a8025251.html\xc2\xa0\xe2\x80\xa6"
p772
S'11:52 AM - 11 Nov 2017'
p773
tp774
a(S'And...what would that be, after a year of investigating? Right...whatever is nothing. \n\nYet we have evidence of Hillary destroying subpoenaed emails, Comey dismissing charges months b4 investigation complete, Bill/Lynch meeting, Uranium one, fake dossier, russia collusion 1/2'
p775
S'11:48 AM - 11 Nov 2017'
p776
tp777
a(S'I don\'t think Trump was kidding when he said "people will die" because of Te Russia investigation! Yes, witnesses and many involved &/or who have knowledge on Trump/Russia collusion!'
p778
S'11:48 AM - 11 Nov 2017'
p779
tp780
a(S'If BO,CIA, NSC,FBI,DOJ believe Russia meedled, what did they do to stop it? None.\nThey would not say anything if HRC had won. They only said Russian collusion because DJT won. The only collusion and meddle were the above agencies and HRC/DNC'
p781
S'11:47 AM - 11 Nov 2017'
p782
tp783
a(S'Republicans: I dont care about Russia sanctions or Russia collusion because Bill actually had a staff member that wanted to blow himThose darn "Patriots" and their priorities! https://twitter.com/mikeslammer1/status/929385913410453504\xc2\xa0\xe2\x80\xa6'
p784
S'11:47 AM - 11 Nov 2017'
p785
tp786
a(S"A not-so-veiled response to @realDonaldTrump's pathetic denial of Russia's hacking of the 2016 election, Y/Y?\n\n#RussiaGate #PutinsPuppet #Collusion https://twitter.com/Comey/status/929372249227919360\xc2\xa0\xe2\x80\xa6"
p787
S'11:46 AM - 11 Nov 2017'
p788
tp789
a(S'#Russia | #FARA #Manafort | #UraniumOne #ClintonEmails | #FBImWithHer #Mueller\nAC_McCarthy: The Trump Collusion Case Is Not Getting the Clinton Emails Treatment\nhttp://www.nationalreview.com/article/453659/mueller-paul-manafort-investigation-hardball-tactics\xc2\xa0\xe2\x80\xa6\n| #tcot #PJNET'
p790
S'11:45 AM - 11 Nov 2017'
p791
tp792
a(S"So, is there 'proof' or is this just another version on 'Russia collusion' with nothing behind it?  If BJ Billy can assault women with the blessing of NOW et al what's the problem with Moore?"
p793
S'11:45 AM - 11 Nov 2017'
p794
tp795
a(S"Russia-Trump campaign collusion an 'open' issue: U.S. Senate panel chiefs\nhttps://www.reuters.com/article/us-usa-trump-russia-senate-collusion/russia-trump-campaign-collusion-an-open-issue-u-s-senate-panel-chiefs-idUSKBN1C92G3\xc2\xa0\xe2\x80\xa6"
p796
S'11:44 AM - 11 Nov 2017'
p797
tp798
a(S'#Treason #TrumpRussia #Putin #ResistTrump #RESISTANCE #Collusion #Russia #TrumpDossier #Trump #25thAmendment #DutyToWarn #MALIGNANTNARCISSIST #ImpeachTrump #VeteransDay #CIA #FBI #Mueller #MuellerTimepic.twitter.com/BiIJxGZ3Un'
p799
S'11:43 AM - 11 Nov 2017'
p800
tp801
a(S"My senior policy advisor Stephen Miller is under investigation for possible collusion with Russia. Don't even know the guy! He's just the coffee-run guy, & isn't even very good at that! I call him Steve Bannon's girlfriend! Lock him up!"
p802
S'11:41 AM - 11 Nov 2017'
p803
tp804
a(S"The reality is that john q public knows that the HRC campaign, DOJ, FBI created & paid for the dossier blaming POTUS collusion with Russia.  The bottom line is....it wasn't @POTUS which is all that matters.https://twitter.com/LaughinHart/status/929431273633992705\xc2\xa0\xe2\x80\xa6"
p805
S'11:40 AM - 11 Nov 2017'
p806
tp807
a(S'We are not alone. We have Russia. #Collusion #RedTiesMatter #Manafort #oligarchs #Complicit'
p808
S'11:40 AM - 11 Nov 2017'
p809
tp810
a(S'@realDonaldTrump wants to go back to the good ole days. This is what America thought of Russia and still does. Collusion is the least of your worries Traidor Trump. pic.twitter.com/wx3UjkBDlb'
p811
S'11:39 AM - 11 Nov 2017'
p812
tp813
a(S'Of course, Putin helped him to get into WH, whereas FBI opened an investigation of collusion with Russia!'
p814
S'11:38 AM - 11 Nov 2017'
p815
tp816
a(S'OMG u win,you found an opinion piece from 9 months ago, lol, the CIA directly refuted trump after he said Putin was cool today, today, not 9 months ago Donald jr collusion email, session lying to Congress, Flynn fired and POTUS saying he directly comey over Russia'
p817
S'11:37 AM - 11 Nov 2017'
p818
tp819
a(S"We know Russia interfered with our 2016 election. djt knows it, but because of his own collusion, he can't publicly admit it without admitting to his own complicity. Why hasn't the #RussiaSanctions been implemented?"
p820
S'11:37 AM - 11 Nov 2017'
p821
tp822
a(S'Trump just went on a rant , siding with Putin against our 17 American Intelligence agencies who confirmed Russia interfered in our election. Collusion- of course it is. Money laundering? Close to being evidenced.'
p823
S'11:35 AM - 11 Nov 2017'
p824
tp825
a(S'Russia Russia Russia collusion=@HillaryClintonpic.twitter.com/QH1szrGhZj'
p826
S'11:35 AM - 11 Nov 2017'
p827
tp828
a(S'So far, every little contact has been a dead end.  Hopefully, Mueller will soon see that there was no collusion, and drop the whole probe (except for, maybe, a few financial crimes unrelated to Russia, Trump or the campaign).'
p829
S'11:33 AM - 11 Nov 2017'
p830
tp831
a(S"Obama bush and Clinton's had sanctions on Russia trump uplift IT. Lock him up Mueller Russian collusion pic.twitter.com/9Czj1F8Ycb"
p832
S'11:31 AM - 11 Nov 2017'
p833
tp834
a(S'Trump called U.S. intel leaders \xe2\x80\x9cpolitical hacks\xe2\x80\x9d for their conclusion that Russia interfered in the 2016 election and slammed the investigations into Russian collusion as a "Democratic hit job."\n\nWouldn\xe2\x80\x99t the @POTUS have access to proof if this was a fact?http://hill.cm/VSleMOJ\xc2\xa0'
p835
S'11:30 AM - 11 Nov 2017'
p836
tp837
a(S"Ok folks, we had fun with all the US election/Russia/Collusion tweets - but now someone's been genuinely hurt. pic.twitter.com/XgXwWFFOfr"
p838
S'11:28 AM - 11 Nov 2017'
p839
tp840
a(S'#CIA #Director stands by #Russia interference! @POTUS @RealDonaldTrump you believe #Putin? Lock him up! #Collusion! http://fb.me/1KiLWAlW8\xc2\xa0'
p841
S'11:24 AM - 11 Nov 2017'
p842
tp843
a(S'Is collusion with Russia to win the election on that list?'
p844
S'11:22 AM - 11 Nov 2017'
p845
tp846
a(S'I actually heard @abcnews mention that POTUS spoke with Putin and then go off and retell the LIE about Russia collusion. Even using  the lie about 17 intel agencies say. \n\nFake News never sleeps.  Still not a mention of Uranium One, Dossier or the Awan Bros.'
p847
S'11:21 AM - 11 Nov 2017'
p848
tp849
a(S'.@washingtonpost  They are in the fake Opposition research business since Democrat Russia collusion failed.  http://www.breitbart.com/big-government/2017/11/11/multiple-standing-ovations-for-judge-roy-moore-as-he-hammers-washington-post-smears-at-veterans-day-event/\xc2\xa0\xe2\x80\xa6'
p850
S'11:20 AM - 11 Nov 2017'
p851
tp852
a(S"Lol! NEWSFLASH COLLUSION IS NOT A CRIME UNLESS MONEY TRADES HANDS! Omg, it did, HILLARY PAID RUSSIA FOR FAKE DOSSIER! I'm going to so enjoy all your #FakeNews obsessions while @realDonaldTrump is making America Great Again! #Winning"
p853
S'11:20 AM - 11 Nov 2017'
p854
tp855
a(S'CNN spends 30 seconds on the liberal hypocrisy and hours of #FakeNews Russia collusion.'
p856
S'11:20 AM - 11 Nov 2017'
p857
tp858
a(S"Not a fan just stating facts. Who should Trump believe. The media that lies and says that the intelligence agencies says there's collusion or the guy in charge that says there isn't. Wikileaks's repeatedly states that Russia is not their source. #bestpresidentever"
p859
S'11:20 AM - 11 Nov 2017'
p860
tp861
a(S'The fact is only crimes he committed were lying about the ones predating and laundering. No Russia collusion in any way. What I said was true. Rather than letting CNN or NBC teach you maybe you should go learn the facts. You are such a rude childish person.'
p862
S'11:19 AM - 11 Nov 2017'
p863
tp864
a(S"It would be easier if we asked a show of hands, for who in Trump administration isn't involved in Russia Collusion!! #saveamerica #Muelleriscominghttps://twitter.com/JuddLegum/status/929423306394161152\xc2\xa0\xe2\x80\xa6"
p865
S'11:18 AM - 11 Nov 2017'
p866
tp867
a(S'And yet we had Clinton blaming Russia for her election loss, then evidence she lied, then a still ongoing investigation for Trump collusion, while HRC involved in giving 20% of our uranium to Russia, to then rattle chains of war. Putin the only sane voice.'
p868
S'11:16 AM - 11 Nov 2017'
p869
tp870
a(S'#Treason #TrumpRussia #Putin #ResistTrump #RESISTANCE #Collusion #Russia #TrumpDossier #Trump #25thAmendment #DutyToWarn #MALIGNANTNARCISSIST #ImpeachTrump #VeteransDay #CIA #FBI #Mueller #MuellerTimepic.twitter.com/8CcjUGed9r'
p871
S'11:15 AM - 11 Nov 2017'
p872
tp873
a(S'Collusion will kill Democracy & lives.\nTrump believes Putin on Russia meddling, says Mueller may cost lives https://www.theguardian.com/world/2017/nov/11/putin-and-trump-want-political-solution-to-syria-conflict-kremlin-says?CMP=Share_iOSApp_Other\xc2\xa0\xe2\x80\xa6'
p874
S'11:12 AM - 11 Nov 2017'
p875
tp876
a(S'So @realDonaldTrump sided with Putin instead of the U.S. intelligence agencies. Bc there\xe2\x80\x99s no collusion, right? #Russia #resist'
p877
S'11:12 AM - 11 Nov 2017'
p878
tp879
a(S"Hacking and collusion are two different topics, though they may be related. Russia could have hacked the DNC (and RNC) but not colluded with Trump's campaign. American intelligence says Russia hacked, I'll take their word over the KGB."
p880
S'11:11 AM - 11 Nov 2017'
p881
tp882
a(S"Thanks compost. oh and by the way we're still waiting for proof of Trump's collusion with Russia"
p883
S'11:09 AM - 11 Nov 2017'
p884
tp885
a(S'Carefu what you wish for.  So far all the exposed collusion is with Russia and the Democrats! Email dumps exposed Democrat cheating,  classified docs, prejudices,  etc...bring more!'
p886
S'11:09 AM - 11 Nov 2017'
p887
tp888
a(S'BREXIT, TRUMP, RUSSIA: THE WHOLE STORY\n  https://www.byline.com/column/67/article/1936\xc2\xa0\xe2\x80\xa6 #Brexit #Trump #Russia #collusion'
p889
S'11:09 AM - 11 Nov 2017'
p890
tp891
a(S'#Trump is putting our country at risk.  #collusionRussia https://twitter.com/tedlieu/status/929371865713319936\xc2\xa0\xe2\x80\xa6'
p892
S'11:08 AM - 11 Nov 2017'
p893
tp894
a(S'There is a lot of proof that Russia interfered with election. The question is the Trump administration\xe2\x80\x99s role and/or collusion. Suppose the investigation will tell us if there is proof or not.'
p895
S'11:08 AM - 11 Nov 2017'
p896
tp897
a(S"Now they says it's over? Now that it comes out where the real collusion came from their has deen collusion between the Democrats #FakeNewsMedia #Hollywoodperverts #Antifa #BLM #IllegalAliens #Islam #Russia & #Elite this whole time from what I understand"
p898
S'11:08 AM - 11 Nov 2017'
p899
tp900
a(S"@AdamSchiffCA @realDonaldTrump Adam you are one of the corrupt Dems that lie about Trump. You know full well Russia did not hack our election. You know it was your party that set up Russia, then started the lies about the collusion. You and your party are disgusting. EVIL SOB'S!!"
p901
S'11:07 AM - 11 Nov 2017'
p902
tp903
a(S"Twitter, facebook and google become propaganda arms for putin's revenge, the collusion of trump campaign with Russia, the use of Russian bots in brexit for some reason: the man in the photo with may is connected to Mifsud, Papadopoulos,s putin contact."
p904
S'11:06 AM - 11 Nov 2017'
p905
tp906
a(S'Got to love the double standard coming from @RepMattGaetz and the rest of the @GOP and @realDonaldTrump . collusion with Russia Bad as long as its the @TheDemocrats doing it but the @GOP is allowed to collude with Russia and steal an election.  #Impeach45 #electDems'
p907
S'11:05 AM - 11 Nov 2017'
p908
tp909
a(S"Doesn't address the Russia collusion meme but whatever. I'm sure you'll love this.  pic.twitter.com/GBzdDQFVsf"
p910
S'11:05 AM - 11 Nov 2017'
p911
tp912
a(S"Gregg Jarrett: Still no evidence of Trump-Russia 'collusion' - but Hillary is a different matter http://fxn.ws/2zj7bxn\xc2\xa0 #FoxNews"
p913
S'11:04 AM - 11 Nov 2017'
p914
tp915
a(S"Even if we entertain the infinitesimal probability that drumpf knew nothing about the collusion between his campaign and Russia he has acted as if he were guilty from the day 1:with his 'move on' comments..to active denial&demonizing of investigator/ion #impeach #RussiaGatepic.twitter.com/mF5PEooF7y"
p916
S'11:03 AM - 11 Nov 2017'
p917
tp918
a(S'No. A fig leaf for POTUS collusion with #Russia and US defeat. #Syria'
p919
S'11:01 AM - 11 Nov 2017'
p920
tp921
a(S'Do you believe that the Trump campaign colluded with Russia and Putin in the 2016 presidential election? #Trump #Russia #Putin #Collusion #DonaldTrump #hacking #WhiteHouse #TrumpRussia #TrumpRussiaCollusion #TrumpRussiaConspiracy #TrumpRussiaCollusionConfirmed '
p922
S'11:01 AM - 11 Nov 2017'
p923
tp924
a(S'America check it out body language is a dead giveaway former FBI director Mueller and his team is watching Donald Trump for all the meeting he has with Vladimir Putin of Russia definitely guilty of collusion'
p925
S'11:00 AM - 11 Nov 2017'
p926
tp927
a(S'#potus45 @DavidCornDC @realDonaldTrump #gop #Collusion #Russia #Putinpic.twitter.com/G4wcdX5xOh'
p928
S'11:00 AM - 11 Nov 2017'
p929
tp930
a(S'Collusion is to mild a word. Conspiracy. He conspired with Russia.'
p931
S'10:58 AM - 11 Nov 2017'
p932
tp933
a(S"Why isn't the DOJ CHARGING Muller &  Comey with Obstruction of JUSTICE Muller was the Head of FBI WHEN URANIUM ONE WENT THROUGH AND HE BROUGHT A SAMPLE TO Russia! There's UR COLLUSION!"
p934
S'10:56 AM - 11 Nov 2017'
p935
tp936
a(S'Where is the proof after 1 yr. Feinstein said there is none. Only collusion was HRC selling our uranium to Russia.'
p937
S'10:54 AM - 11 Nov 2017'
p938
tp939
a(S'Well... after a year of \xe2\x80\x9cinvestigation\xe2\x80\x9d we found out that Hillary Clinton meddled in both sides of the election, did the most with Russia & every mainstream media \xe2\x80\x9cRussia collusion\xe2\x80\x9d story has collapsed as a complete fabrication. https://twitter.com/i/moments/929324479267901440\xc2\xa0\xe2\x80\xa6'
p940
S'10:51 AM - 11 Nov 2017'
p941
tp942
a(S'Trump\xe2\x80\x99s gone from Trump/Russia is a hoax to it might have happened but no collusion and now back to it never happened. This Traitor needs to rot in jail broke and alone.'
p943
S'10:51 AM - 11 Nov 2017'
p944
tp945
a(S'We need collusion with Russia to remove Islam from the county pic.twitter.com/uHB5UT0MiW'
p946
S'10:49 AM - 11 Nov 2017'
p947
tp948
a(S"This is why the Democrats are pushing the Russia collusion with President Trump because they are afraid Putin will reveal the truth about Russian Collusion with Hillary FBI CIA DOJ and the Democratic Party. They can't afford the truth coming out."
p949
S'10:49 AM - 11 Nov 2017'
p950
tp951
a(S'Really? Every president takes a salary, Trump\xe2\x80\x99s not! Hillary & Obama made a lot of money on Uranium One deal! That was collusion with Russia! Your comments are false....'
p952
S'10:48 AM - 11 Nov 2017'
p953
tp954
a(S"Hope This Doesn't Turn Into Another Russia Collusion! A Waste Of Time & Money! https://twitter.com/ElderLansing/status/929342536803606529\xc2\xa0\xe2\x80\xa6"
p955
S'10:48 AM - 11 Nov 2017'
p956
tp957
a(S"No Evidence Yet...Hope This Doesn't Turn Into Another Russia Collusion! A Waste Of Time & Money!"
p958
S'10:47 AM - 11 Nov 2017'
p959
tp960
a(S'"Liberals" don\'t hate Russia or Russians. They want Russian collusion prosecuted. \n#RussiaTrump'
p961
S'10:47 AM - 11 Nov 2017'
p962
tp963
a(S'Proof of alleged collusion in my opinion. Trump Jr email from Goldstein "This is obviously very high level and sensitive information but is part of Russia and its government\'s support for Mr. Trump"'
p964
S'10:46 AM - 11 Nov 2017'
p965
tp966
a(S"This is why the Democrats are pushing the Russia collusion with President Trump scam because they don't want him talking with Putin because they are afraid Putin will reveal the truth about Collusion with Hillary FBI CIA DOJ and the Democratic Party."
p967
S'10:46 AM - 11 Nov 2017'
p968
tp969
a(S'If not for Wikileaks & maybe Russia we would not know what POS Dems & media collusion ever existed, lies by all of Obama administration!'
p970
S'10:45 AM - 11 Nov 2017'
p971
tp972
a(S'It\xe2\x80\x99s incredible Trump doesn\xe2\x80\x99t have shame and is taking the Russia issue personally. Media and Dems are also to blame because they only talk up collusion. It\xe2\x80\x99s bigger than collusion, media people. No doubt Trump gets pissed for all his defects!!'
p973
S'10:45 AM - 11 Nov 2017'
p974
tp975
a(S"Getting desperate @realDonaldTrump? People are dying in Puerto Rico and you don't give a damn! Blood is on your hands. And if people die because of your collusion with Russia that is on your hands too! https://twitter.com/JuddLegum/status/929383661719388161\xc2\xa0\xe2\x80\xa6"
p976
S'10:45 AM - 11 Nov 2017'
p977
tp978
a(S'Or maybe @HillaryClinton paid for the the russia collusion story the same way @realDonaldTrump paid for the art of the deal.'
p979
S'10:44 AM - 11 Nov 2017'
p980
tp981
a(S'RT gerfingerpoken2: How Much Did Mueller and Rosenstein Know about Uranium One and Hillary/Russia Collusion? http://ow.ly/8uiq50eH9J9\xc2\xa0  \xe2\x80\xa6'
p982
S'10:44 AM - 11 Nov 2017'
p983
tp984
a(S'Jim...Funny..Obama and Hillary and their side where the ones in bed with Russia..but keep pushing the BS collusion thing..just sad'
p985
S'10:43 AM - 11 Nov 2017'
p986
tp987
a(S"I'm the smartest. I have the best memory. Putin's a good guy. Comey is a nut job. There's no Trump-Russia collusion. I didn't pee on Obama's old bed with Russian women"
p988
S'10:43 AM - 11 Nov 2017'
p989
tp990
a(S'Who made you the judge and jury to determine Comey did nothing wrong? We need transparent investigation of Comey, Lynch, Obama. If there was Trump collusion with Russia, where is any evidence after 1 year? There is none!'
p991
S'10:41 AM - 11 Nov 2017'
p992
tp993
a(S'@POTUS Challenge Putin to get the bottom of the whole Russia Collusion Scandal! Arrest Natalia Veselnitskaya the Russian Lawyer & her democrat links! Arrest Russians involved in Richard Steele Dossier. Investigate who paid for Russian Social Media Propaganda Campaign? https://twitter.com/67tiger3/status/929414912819871744\xc2\xa0\xe2\x80\xa6'
p994
S'10:40 AM - 11 Nov 2017'
p995
tp996
a(S'There Remains No Evidence Of Trump-Russia Collusion via @forbeshttp://www.forbes.com/sites/paulroderickgregory/2017/05/23/there-remains-no-evidence-of-trump-russia-collusion/#37d0f1e3242c\xc2\xa0\xe2\x80\xa6'
p997
S'10:39 AM - 11 Nov 2017'
p998
tp999
a(S'Yes there was collusion w Russia to Meddle in election but it was Hilllay and the DNC who colluded w Russia NOT @realDonaldTrump !!!pic.twitter.com/OW91hwSpaq'
p1000
S'10:39 AM - 11 Nov 2017'
p1001
tp1002
a(S'So true! All these liberals caught molesting and raping women in Hollywood and in music and like magic an accuser pops up out of nowhere in the woods to accuse a likely GOP winner in Alabama. Kind of like @realDonaldTrump and the BS Russia collusion nonsense'
p1003
S'10:39 AM - 11 Nov 2017'
p1004
tp1005
a(S'Or should we, the American people, through either impeachment or the 25th amendment, fire @realDonaldTrump? #traitor #Collusion #russia #dossier'
p1006
S'10:39 AM - 11 Nov 2017'
p1007
tp1008
a(S'Makes you wonder if the collusion with Russia has a much larger objective than the election. This is a hostile take over of our values and reality. Normalizing Putin is Normalizing our worst enemy and greatest threat.'
p1009
S'10:39 AM - 11 Nov 2017'
p1010
tp1011
a(S"What bs, the only proof of collusion was caught on a hot mic and that wasn't #45!!!! What a numb skull to bring up Russia."
p1012
S'10:39 AM - 11 Nov 2017'
p1013
tp1014
a(S"They also don't give a shit about DNC corruption or collusion with Russia. Or Comeys perjury."
p1015
S'10:38 AM - 11 Nov 2017'
p1016
tp1017
a(S"It has already been proven that Russia did meddle.  The investigation is whether there was collusion.  Don't you get it?"
p1018
S'10:38 AM - 11 Nov 2017'
p1019
tp1020
a(S"LOL as long as the President who's administration is under FBI investigation for collusion with Russia says they had nothing to do with it, we have to believe him, right? I mean, it's not like he has a history of lying or anything... O, wait... https://twitter.com/i/moments/929324479267901440\xc2\xa0\xe2\x80\xa6"
p1021
S'10:37 AM - 11 Nov 2017'
p1022
tp1023
a(S'Awwwwwww when its trumps second cousins wifes friend brother in laws pizza delivery boys mail man says russia probably used pokemon go to influence the election its COLLUSION COLLUSION!!!!!! ITS PROOF!!!! Donna brazil.....oh she lyin like a mothafucka'
p1024
S'10:37 AM - 11 Nov 2017'
p1025
tp1026
a(S'The only collusion with Russia. Was with the last Administration. I support President Trump.'
p1027
S'10:37 AM - 11 Nov 2017'
p1028
tp1029
a(S'Russian trolls are desperately trying to convince me Trump is innocent of collusion with Russia. I must be wrong then.'
p1030
S'10:37 AM - 11 Nov 2017'
p1031
tp1032
a(S"OK. If Alabama can do this fine. Let's get started on organizing the re-do of our Presidential election. There was much lying, collusion, influencing from Russia. This is America. Not how we do things. Time ro fix it."
p1033
S'10:36 AM - 11 Nov 2017'
p1034
tp1035
a(S'3. Russia collusion - 3+ members of Trump campaign formally indicted (not including meeting)'
p1036
S'10:36 AM - 11 Nov 2017'
p1037
tp1038
a(S'Actually Maher it does because it proves what democrats will say & do to win elections! Sanders got campaign money, built a 3rd home & still supported corrupt Hillary! Collusion is Hilary, Obama & Uranium One deal with Russia!'
p1039
S'10:36 AM - 11 Nov 2017'
p1040
tp1041
a(S'WELL NO SHIT...THIS WAS BROUGHT UP BUT THE GOP JUST IGNORES IT!  HE SOLD US TO RUSSIA AND THE GOP DOES NOTHING! PROOF OF COLLUSION AND THEY TURN ON PRES OBAMA AND SEC. CLINTON!  THEY ALL NEED TO GET OUT OF WH..AND BE PUT IN PRISON OR BETTER YET SEND THEM ALL TO RUSSIA! https://twitter.com/flwrpwr1969/status/929284874720202752\xc2\xa0\xe2\x80\xa6'
p1042
S'10:36 AM - 11 Nov 2017'
p1043
tp1044
a(S'This is good. \n\nBut Mike Pompeo also met with a conspiracy theorist regarding Russia collusion at the behest of Trump soooo... https://twitter.com/mitchellreports/status/929403762363559937\xc2\xa0\xe2\x80\xa6'
p1045
S'10:34 AM - 11 Nov 2017'
p1046
tp1047
a(S'FBI under Obama DOJ buried evidence of collusion between Clintons and Russia.'
p1048
S'10:34 AM - 11 Nov 2017'
p1049
tp1050
a(S"Remember when a hand picked group in the IC told 17 agencies to agree with them about a really far fetched Russia collusion narrative and we found out later it wasn't really 17. https://twitter.com/normative/status/929070575879950336\xc2\xa0\xe2\x80\xa6"
p1051
S'10:33 AM - 11 Nov 2017'
p1052
tp1053
a(S'https://youtu.be/l_-TQLoR3Rs\xc2\xa0 Tucker Carlson, on Manafort/Podesta/Clinton/Russia; the real Russian collusion.'
p1054
S'10:33 AM - 11 Nov 2017'
p1055
tp1056
a(S"How's that Russia collusion narrative coming?"
p1057
S'10:32 AM - 11 Nov 2017'
p1058
tp1059
a(S'Oh good. The despot that the country did not elect is now threatening to kill people if the other 2 branches of government keep investigating his collusion with Russia to get "elected". https://twitter.com/thinkprogress/status/929415950180511745\xc2\xa0\xe2\x80\xa6'
p1060
S'10:32 AM - 11 Nov 2017'
p1061
tp1062
a(S'Erm, the article claimed the anti-Trump dossier was never used in the campaign. The hell it wasn\'t. While not revealed until later, it was basis for all of the Trump-Russia "collusion" nonsense. Never mind the fact that it was used to obtain FISA warrants.'
p1063
S'10:31 AM - 11 Nov 2017'
p1064
tp1065
a(S'Or protecting child trafficker (Laura Silsby), stealing $ from Haiti, Spirit cooking, Seth Rich murder, the body count, Uranium One, Saudi Arabia, DNC collisions, real Russia collusion, protecting pedophiles...\n\nNot defending Moore, but clear double standard.'
p1066
S'10:31 AM - 11 Nov 2017'
p1067
tp1068
a.