(lp0
(S'For Republicans collusion with Russia is not a deal-breaker. They may have redefined what being a patriot is'
p1
S'3:58 PM - 6 Nov 2017'
p2
tp3
a(S'Tony Podesta Caught in Russia-Collusion Web, Threatens Fox News with Lawsuit to Squelch The Report\nhttp://snip.ly/qkhxn\xc2\xa0'
p4
S'3:57 PM - 6 Nov 2017'
p5
tp6
a(S'Lmao his son meeting with some nobody who happens to be Russian is evidence of collusion with the highest echelons of Russia? Seems contrary'
p7
S'3:53 PM - 6 Nov 2017'
p8
tp9
a(S"Impeachment talk grows as more is learned about #Trump's collusion with Russia.\n @CNNPoliticshttp://cnn.it/2j5dmhu\xc2\xa0"
p10
S'3:53 PM - 6 Nov 2017'
p11
tp12
a(S"no. her lawyer hooked up with an ex British agent--living in britain who digs up dirt professionally. that isn't collusion WITH russia. https://twitter.com/drf30/status/927683744420507648\xc2\xa0\xe2\x80\xa6"
p13
S'3:51 PM - 6 Nov 2017'
p14
tp15
a(S"So is there anything left that DOESN'T point to Trump-Russia collusion???\n\nhttps://www.washingtonpost.com/politics/at-least-nine-people-in-trumps-orbit-had-contact-with-russians-during-campaign-and-transition/2017/11/05/07c9993c-bf4c-11e7-959c-fe2b598d8c00_story.html\xc2\xa0\xe2\x80\xa6"
p16
S'3:50 PM - 6 Nov 2017'
p17
tp18
a(S"Of course most of the correspondents were speaking of Hillary and Obama's RUSSIA COLLUSION!"
p19
S'3:49 PM - 6 Nov 2017'
p20
tp21
a(S'Collusion is not a crime.  I am focused. How about selling Russia 20 percent of us uranium reserves?'
p22
S'3:48 PM - 6 Nov 2017'
p23
tp24
a(S'Chris Matthews has to be the only idiot who just ied for 20 mind straight about Trum/Russia collusion'
p25
S'3:48 PM - 6 Nov 2017'
p26
tp27
a(S'This collusion goes beyond #Russia'
p28
S'3:46 PM - 6 Nov 2017'
p29
tp30
a(S'Sorry, I don\xe2\x80\x99t read FAKE news from @realDonaldTrump\xe2\x80\x99s propaganda machine. Can we discuss collusion between Russia & the Trump campaign?'
p31
S'3:46 PM - 6 Nov 2017'
p32
tp33
a(S'Mueller is using his position to protect his own lawyers who were involved in the Hillary Russia collusion themselves'
p34
S'3:45 PM - 6 Nov 2017'
p35
tp36
a(S'Trump /Russia collusion treason. https://twitter.com/funder/status/927678392039768064\xc2\xa0\xe2\x80\xa6'
p37
S'3:44 PM - 6 Nov 2017'
p38
tp39
a(S'Collusion- Hillary/DNC funneling $millions to Russia & spy for dossier\nCollision- Hillary running into Brazile and getting debate questions.'
p40
S'3:42 PM - 6 Nov 2017'
p41
tp42
a(S"Publishers Weekly Vintage to Release 'Collusion,' A New Book on Trump-Russia Controversy Publishers Weekly Harding\xe2\x80\xa6 https://goo.gl/fb/e3N66S\xc2\xa0"
p43
S'3:41 PM - 6 Nov 2017'
p44
tp45
a(S"You would know ALL about milking a country.  You've been doing it for almost a year! #Loser #Russia #Treason #Collusion #MuellerIsComing"
p46
S'3:41 PM - 6 Nov 2017'
p47
tp48
a(S"What Russian Collusion? Credibility Started With Crowd Size. Trump's White House Has Continuously LIED About Most Things Russia."
p49
S'3:41 PM - 6 Nov 2017'
p50
tp51
a(S'I think HRC knew 100% about the Democrats collusion with Russia during uranium 1 deal and her campaign'
p52
S'3:41 PM - 6 Nov 2017'
p53
tp54
a(S'Democrats never stick to the facts. Ever. You were going to vote in a liar that sold Uranium to Russia. Collusion only on your side .'
p55
S'3:39 PM - 6 Nov 2017'
p56
tp57
a(S'Not!  POTUS owes this country his resignation for all the collusion with Russia he and his cronies have done. Wake up!'
p58
S'3:39 PM - 6 Nov 2017'
p59
tp60
a(S'How much freedom and economic opportunity are within reach in Prison? #Russia #Collusion #Adoption'
p61
S'3:39 PM - 6 Nov 2017'
p62
tp63
a(S'Then stop being ignorant about the man u support. You\xe2\x80\x99re a woman. Shame on u for ignoring his sexual assaults, lies, & collusion w/Russia.'
p64
S'3:38 PM - 6 Nov 2017'
p65
tp66
a(S'Republicans don\xe2\x80\x99t care about collusion with Russia because they prefer a white nation autocracy. They prefer Putin to Obama.'
p67
S'3:37 PM - 6 Nov 2017'
p68
tp69
a(S"how about if Mueller doesn't have real hard evidence about collusion and used manafort money laundering as leverage to flip regarding russia"
p70
S'3:35 PM - 6 Nov 2017'
p71
tp72
a(S'Indictments had zero to do with russian pretend collusion the REAL RUSSIA STORY lies with The Crooked Clinton campaign call it as it is'
p73
S'3:34 PM - 6 Nov 2017'
p74
tp75
a(S'So what? How does this tie Trump to this phony collusion crap? Flynn is in hot water for Turkey, not Russia.'
p76
S'3:34 PM - 6 Nov 2017'
p77
tp78
a(S'I think he is holding major evidence of Russia DMC/Clinton collusion and will put them to death for treason'
p79
S'3:34 PM - 6 Nov 2017'
p80
tp81
a(S"Mueller's involvement in the uranium one deal compromises his ability to be neutral in the Russia collusion investigation. Must Resign."
p82
S'3:34 PM - 6 Nov 2017'
p83
tp84
a(S'I unfollowed. How many retweet requests can one guy pump out in a day?  How does that bring us any closer to Trump Russia collusion?'
p85
S'3:33 PM - 6 Nov 2017'
p86
tp87
a(S"@BretBaier I thought this special council was about Russia collusion? It's going off the rails! Where the hell are common sense Republicans?"
p88
S'3:32 PM - 6 Nov 2017'
p89
tp90
a(S'#SessionsColluded #SessionsConspired #TrumpRussia #Trump #Russia #Conspiracy #Collusion #Perjury #Guilty #JailSessionsNowpic.twitter.com/29Fjj4KZpO'
p91
S'3:32 PM - 6 Nov 2017'
p92
tp93
a(S'COLLUSION? HAVE IT HERE: - /power-deals-link-russia-to-clintons/ - #MAGAhttps://twitter.com/mitchellvii/status/927660252690042880\xc2\xa0\xe2\x80\xa6'
p94
S'3:31 PM - 6 Nov 2017'
p95
tp96
a(S'Seriously CNN...still going on about Trump/Russia collusion BWAHAHAHA'
p97
S'3:29 PM - 6 Nov 2017'
p98
tp99
a(S'The Collusion News Network (CNN) works for Russia? https://twitter.com/thebradfordfile/status/927652164964618241\xc2\xa0\xe2\x80\xa6'
p100
S'3:28 PM - 6 Nov 2017'
p101
tp102
a(S'The democrats are going to woe the day they screamed Russia and Collusion, Hillary and the old FBI chiefs will get prosecuted. https://twitter.com/DineshDSouza/status/927617812738256896\xc2\xa0\xe2\x80\xa6'
p103
S'3:27 PM - 6 Nov 2017'
p104
tp105
a(S"There is nothing fabricated about the Trump Russia collusion, and I'm afraid you've fallen for a lot of propaganda if you believe the rest."
p106
S'3:24 PM - 6 Nov 2017'
p107
tp108
a(S'Possible collusion with Russia is bad. But influence from Saudi Arabia is a way bigger future issue. Telling that so few care'
p109
S'3:24 PM - 6 Nov 2017'
p110
tp111
a(S'So,since russian collusion has been proven to between Russia and Clinton, you got nothing better to do with you time? Get a new new hobby.'
p112
S'3:23 PM - 6 Nov 2017'
p113
tp114
a(S'Sounds like there are some representatives working for Putin like Trump/Russia collusion @RepAndyBiggsAZhttps://twitter.com/loves10s/status/926572279013588992\xc2\xa0\xe2\x80\xa6'
p115
S'3:21 PM - 6 Nov 2017'
p116
tp117
a(S'Even Dianne Feinstein says no proof of "collusion," whatever that is, although certainly not a crime. Russia\'s a big, important, country.'
p118
S'3:21 PM - 6 Nov 2017'
p119
tp120
a(S"think they have evidence on Uranuim-One unlike Trump's collusion with Russia..."
p121
S'3:21 PM - 6 Nov 2017'
p122
tp123
a(S'\xe2\x80\x98DO SOMETHING!\xe2\x80\x99: Panicky Trump Tweets about \xe2\x80\x98phony Trump/Russia collusion\xe2\x80\x99 as Monday arrests loom http://fb.me/HjY5iwRf\xc2\xa0'
p124
S'3:18 PM - 6 Nov 2017'
p125
tp126
a(S'Really? 9 people associated with your campaign would ministration with contact with Russia?Oh, and no collusion in.  Drain the WH swamp!'
p127
S'3:18 PM - 6 Nov 2017'
p128
tp129
a(S'You mean like offshore accounts to avoid taxes..or collusion with Russia to deprive us all of our voice, some sanity, and a little decorum?!'
p130
S'3:16 PM - 6 Nov 2017'
p131
tp132
a(S'Holy fuck man give it up on this Russia collusion bullshit.  There is nothing there.'
p133
S'3:15 PM - 6 Nov 2017'
p134
tp135
a(S'So what do you have to hide with the Trump/AndyBiggs/Russia collusion? Connection corruption'
p136
S'3:15 PM - 6 Nov 2017'
p137
tp138
a(S'Go there - stay. Get a real fkn tan. #Masshole #Resign #Russia #Collusion'
p139
S'3:13 PM - 6 Nov 2017'
p140
tp141
a(S'About Donald Trump?\nI\xe2\x80\x99m not buying it, americans are not stupid, all this blame Russia when the Israeli collusion is MASSIVE in USA ..?'
p142
S'3:10 PM - 6 Nov 2017'
p143
tp144
a(S'Satire DOA: Team Hillary names Donna Brazile as part of massive Russia collusion cabal\nhttp://michellemalkin.com/2017/11/05/satire-doa-team-hillary-names-donna-brazile-as-part-of-massive-russia-collusion-cabal/\xc2\xa0\xe2\x80\xa6'
p145
S'3:10 PM - 6 Nov 2017'
p146
tp147
a(S'Carter Page on collusion with Russia https://youtu.be/2Rxpi-pUBEE\xc2\xa0 via @YouTube'
p148
S'3:07 PM - 6 Nov 2017'
p149
tp150
a(S'I look forward to Trump blaming his mental illness for his collusion with Russia.'
p151
S'3:04 PM - 6 Nov 2017'
p152
tp153
a(S"Be something if BuzzFeed  find out collusion Hillary/Russia and found out that Russia didn't hack the DNC. http://foreignpolicy.com/2017/11/06/dnc-subpoenaed-in-dossier-lawsuit-steele-trump-russia/\xc2\xa0\xe2\x80\xa6"
p154
S'3:02 PM - 6 Nov 2017'
p155
tp156
a(S'Mueller opposed to investigating any collusion between Clintons w-FBI Russia ISIS - the entire Obama REGIME!'
p157
S'3:01 PM - 6 Nov 2017'
p158
tp159
a(S"Hillary getting 145 million from Russia is cool tho, right? No collusion there, like, at all HAHA Keep dancing LOL Lefty's ya gotta love 'em"
p160
S'2:58 PM - 6 Nov 2017'
p161
tp162
a(S'Well, he ran a lot of his campaign on the \xe2\x80\x9cemails\xe2\x80\x9d weakness, and it looks like those emails were supplied by Russia. That\xe2\x80\x99s collusion.'
p163
S'2:58 PM - 6 Nov 2017'
p164
tp165
a(S'Because it\xe2\x80\x99s a witch hunt. Ben Shapiro gives a good argument as to why there isn\xe2\x80\x99t any evidence of Trump Russia collusion.'
p166
S'2:57 PM - 6 Nov 2017'
p167
tp168
a(S'He is going to get you out of your Russia collusion?'
p169
S'2:57 PM - 6 Nov 2017'
p170
tp171
a(S'Keep digging \xe2\x80\x94dumb dumb DEMS.. \n\nKEEP digging \xe2\x80\x94you\xe2\x80\x99re going to convict yourselves!!\n\nTHE REAL RUSSIA COLLUSION http://amp.dailycaller.com/2017/11/03/fusion-gps-and-house-intel-committee-renew-battle-over-bank-records/\xc2\xa0\xe2\x80\xa6'
p172
S'2:57 PM - 6 Nov 2017'
p173
tp174
a(S"I can't believe you're trying to turn a summer vacation from a typical Greek young adult into Russia collusion and conspiracy. Lmao"
p175
S'2:56 PM - 6 Nov 2017'
p176
tp177
a(S'A year now,still NO facts with any Trump- Russia collusion.116 page indictment not one mention of Trump.Democrats look more foolish everyday'
p178
S'2:53 PM - 6 Nov 2017'
p179
tp180
a(S'If Mueller was hired 2 investigate Russian Collusion then he has to investigate Hillary Clinton & her Russia Collusion accusations as well.'
p181
S'2:52 PM - 6 Nov 2017'
p182
tp183
a(S"Like I said before the Russia collusion story is completely made up it's for people like you that cannot accept the outcome of the election"
p184
S'2:51 PM - 6 Nov 2017'
p185
tp186
a(S'Sean Hannity tick tocking again right now on his radio show (about Clinton collusion with Russia).\n"I know for a fact a lot is coming"'
p187
S'2:50 PM - 6 Nov 2017'
p188
tp189
a(S'One of Mueller\xe2\x80\x99s Targets Spilled It All; Admitted Collusion between Russia and Trump http://fb.me/1Rfy5vxFt\xc2\xa0'
p190
S'2:49 PM - 6 Nov 2017'
p191
tp192
a(S'Guardian journalist book on #TrumpRussia: \xe2\x80\x9cCollusion: Meetings, Dirty Money, and How Russia Helped Donald Trump Win\xe2\x80\x9d\nhttps://www.washingtonpost.com/entertainment/books/guardian-journalist-has-book-coming-on-trump-and-russia/2017/11/06/209533ea-c2f3-11e7-9922-4151f5ca6168_story.html\xc2\xa0\xe2\x80\xa6'
p193
S'2:46 PM - 6 Nov 2017'
p194
tp195
a(S'BREAKING: Incriminating New #Putin-#Trump Timeline Indicates #Collusion http://ir.net/news/politics/128147/breaking-incriminating-new-putin-trump-timeline-indicates-collusion/\xc2\xa0\xe2\x80\xa6\n@realDonaldTrump #Russia #Impeach'
p196
S'2:45 PM - 6 Nov 2017'
p197
tp198
a(S"It's all about special favors for supporters and money invested in his campaign. And, Russia. It's about that too. #Russia #Collusion https://twitter.com/TheRealNews/status/927603089410011141\xc2\xa0\xe2\x80\xa6"
p199
S'2:42 PM - 6 Nov 2017'
p200
tp201
a(S"Psychic Me: Before the Russia inquiry closes, Kushner's collusion in the virtual coup in Saudi Arabia (extending Trump and Kushner deals) will come out, and they'll try to spin it as pro-business diplomacy."
p202
S'2:42 PM - 6 Nov 2017'
p203
tp204
a(S'Russia concerns? No one is concerned about Trump-Russia collusion except the people brainwashed by CNN https://twitter.com/cnn/status/927642568418086913\xc2\xa0\xe2\x80\xa6'
p205
S'2:38 PM - 6 Nov 2017'
p206
tp207
a(S'LMAO.. The only collusion was with Crooked Killary and the Evil empire Russia..'
p208
S'2:37 PM - 6 Nov 2017'
p209
tp210
a(S'Arrest Don Jr for collusion with Russia!!!'
p211
S'2:36 PM - 6 Nov 2017'
p212
tp213
a(S"@CNN I AGREE. THE HILLARY/DNC DOSSIER WAS COLLUSION WITH RUSSIA! ALSO, DON'T FORGET THE DNC/HILLARY COLLUSION WITH UKRAINE TOO!! JAIL TIME!!"
p214
S'2:36 PM - 6 Nov 2017'
p215
tp216
a(S'Team Hillary http://michellemalkin.com/2017/11/05/satire-doa-team-hillary-names-donna-brazile-as-part-of-massive-russia-collusion-cabal/\xc2\xa0\xe2\x80\xa6 names Brazile as part of massive Russia collusion cabal #ccot #dems #gop #resist #tcot #tlot #uniteblue'
p217
S'2:35 PM - 6 Nov 2017'
p218
tp219
a(S'@realDonaldTrump  rhetoric strong? No, moron, it is dangerous. You are begging for war so your collusion with Russia will go away.'
p220
S'2:35 PM - 6 Nov 2017'
p221
tp222
a(S"It's seriously been proven that Russia has been meddling in our politics, whether it's collusion or not is irrelevant. Its still an issue"
p223
S'2:35 PM - 6 Nov 2017'
p224
tp225
a(S"But that didn't figure in the collusion of trump & Russia."
p226
S'2:34 PM - 6 Nov 2017'
p227
tp228
a(S"Publishers Weekly Vintage to Release 'Collusion,' A New Book on Trump-Russia Controversy Publishers Weekly Harding\xe2\x80\xa6 https://goo.gl/fb/mV7Y5b\xc2\xa0"
p229
S'2:33 PM - 6 Nov 2017'
p230
tp231
a(S'Yet still no proof of any Trump/Russia collusion! None!'
p232
S'2:31 PM - 6 Nov 2017'
p233
tp234
a(S'DAY 463 of investigation of Trump-Russia collusion. STILL NO EVIDENCE! https://twitter.com/michellepiper18/status/927649858135166976\xc2\xa0\xe2\x80\xa6'
p235
S'2:31 PM - 6 Nov 2017'
p236
tp237
a(S'COLLUSION : Trump Jr. Hinted at Review of Anti-Russia Law, Moscow Lawyer Says https://www.bloomberg.com/politics/articles/2017-11-06/trump-jr-said-anti-russia-law-may-be-reviewed-moscow-lawyer-says\xc2\xa0\xe2\x80\xa6'
p238
S'2:31 PM - 6 Nov 2017'
p239
tp240
a(S"The fact that you aren't ranting and raving about Russia suggests you have an alternate agenda that doesn't involve getting criminals out of power.  Why is Russian collusion ok with you?"
p241
S'2:28 PM - 6 Nov 2017'
p242
tp243
a(S'Hey democrats remember this line & yet you\xe2\x80\x99re jumping up & down about a collusion between the @POTUS & Russia! Guess it\xe2\x80\x99s ok 4 ur side!'
p244
S'2:27 PM - 6 Nov 2017'
p245
tp246
a(S"Surveillance led 2 unmasking which led 2 Russia collusion investigation which was supposed 2 lead 2 Trump's impeachment. Poisoned fruit."
p247
S'2:27 PM - 6 Nov 2017'
p248
tp249
a(S'this is continuing impeachment mania, unfit mania, n russia collusion (collusion is not even a crime)-fake news. to date, there is no evidence of any wrongdoing by trump. just speculations n smoke. nothing more. what we need is a special counsel to investigate hillary.'
p250
S'2:27 PM - 6 Nov 2017'
p251
tp252
a(S"Kellyanne has Mueller called you in to discuss collusion of you, Peter Smith and Flynn yet? Don't worry- He will. Russia won election not U!"
p253
S'2:25 PM - 6 Nov 2017'
p254
tp255
a(S'Have U noticed mueller is not finding anything he was hired to find.collusion with Russia by Trump camp. He is going after finance deals B4'
p256
S'2:24 PM - 6 Nov 2017'
p257
tp258
a(S'Russia dossier investigators suspect reporters were paid to spread collusion claims    https://www.washingtontimes.com/news/2017/nov/5/journalist-pay-questioned-in-russian-dossier-court/\xc2\xa0\xe2\x80\xa6'
p259
S'2:22 PM - 6 Nov 2017'
p260
tp261
a(S'President Trump is doing outstanding on this trip so back to Russia Russia Russia. Clinton = Russian Collusion.'
p262
S'2:21 PM - 6 Nov 2017'
p263
tp264
a(S'Facebook, Twitter drop \xe2\x80\x98bombshell\xe2\x80\x99 on Trump-Russia \xe2\x80\x98collusion\xe2\x80\x99 http://fb.me/AMXC2xQY\xc2\xa0'
p265
S'2:21 PM - 6 Nov 2017'
p266
tp267
a(S'"We can reasonably conclude that #Farage  and those around him are assets of the Kremlin" https://www.byline.com/column/67/article/1929\xc2\xa0\xe2\x80\xa6 #Trump #Russia #Collusion'
p268
S'2:21 PM - 6 Nov 2017'
p269
tp270
a(S"Well, well what do we have here? Say it isn't so. #FakeNews allegedly helped spread the #Russia Collusion Story. \nhttp://www.zerohedge.com/news/2017-11-06/intel-committee-demands-fusion-gps-bank-records-suspects-journalists-paid-spread-rus\xc2\xa0\xe2\x80\xa6"
p271
S'2:19 PM - 6 Nov 2017'
p272
tp273
a(S'http://greatamericandaily.com/youll-never-guess-who-mueller-is-using-to-try-to-take-down-trump/\xc2\xa0\xe2\x80\xa6 Do you think that Papadopoulos is lying about collusion w/Russia? Of course, there were no evidence ever presented!'
p274
S'2:18 PM - 6 Nov 2017'
p275
tp276
a(S"Is Feinstein the only democrat in the Senate who isn't buying into the Trump/Russia collusion fantasy. http://fb.me/6SiChaC7W\xc2\xa0"
p277
S'2:15 PM - 6 Nov 2017'
p278
tp279
a(S'after almost a YEAR oflistening to Trump deny links to Russia, NO COLLUSION ....\n\nThe PARADISE PAPERS come out... http://fb.me/2EWhJgIoQ\xc2\xa0'
p280
S'2:14 PM - 6 Nov 2017'
p281
tp282
a(S"Of course none of Mueller's indictments relate to Russian collusion. Colluding w/ Russia isn't illegal unless you paid for it like Hillary."
p283
S'2:13 PM - 6 Nov 2017'
p284
tp285
a(S'FollowMoney Trump/Russia Collusion. \n#IndependentCommission\n#InvestagateTrumpRussiaties And All allies \nConstitutional Laws demand Answershttps://twitter.com/DenbrotS/status/927372841049133056\xc2\xa0\xe2\x80\xa6'
p286
S'2:12 PM - 6 Nov 2017'
p287
tp288
a(S"See how SLEAZILY Nancy snuck word 'interim' to diminish Donna's credibility.  Then the Russia collusion investigation is Waste Of Time Too?"
p289
S'2:11 PM - 6 Nov 2017'
p290
tp291
a(S"The people want to know Clinton ties to the Russians regarding uranium and everything else! They've had more collusion w/ Russia than Trump"
p292
S'2:10 PM - 6 Nov 2017'
p293
tp294
a(S"@realDonaldTrump who are you kidding?  Your campaign's collusion with Russia is the biggest story. Deflecting won't save you. https://twitter.com/realDonaldTrump/status/926481563214376961\xc2\xa0\xe2\x80\xa6"
p295
S'2:08 PM - 6 Nov 2017'
p296
tp297
a(S'Aha! Proof of collusion!'
p298
S'2:07 PM - 6 Nov 2017'
p299
tp300
a(S'If the DNC accused GOP of Russian collusion then YES, the DNC was colluding with Russia. https://twitter.com/bartmckinley/status/927656347881140224\xc2\xa0\xe2\x80\xa6'
p301
S'2:06 PM - 6 Nov 2017'
p302
tp303
a(S'With Donna Brazile book, Democratic collusion with Russia, HRC , Wasserman-Schultz, Elizabeth Warren, rigging election is their only hope'
p304
S'2:06 PM - 6 Nov 2017'
p305
tp306
a(S"#Trump team's collusion with #Russia was in full swing during last year's presidential campaign. No way to deny it. https://twitter.com/ajplus/status/927657309043507200\xc2\xa0\xe2\x80\xa6"
p307
S'2:05 PM - 6 Nov 2017'
p308
tp309
a(S'Beetle juice, Beetle juice, BEETLE JUICE. keep repeating Russia collusion...Julie... and maybe it will become true. '
p310
S'2:05 PM - 6 Nov 2017'
p311
tp312
a(S'Zzzzz... Russia collusion is coming outta ur side @EdKrassen .'
p313
S'2:04 PM - 6 Nov 2017'
p314
tp315
a(S'Why is @POTUS meeting with Putin in Vietnam when Russia interfered in elections AND Trump is under investigation for collusion? https://twitter.com/aramroston/status/927654788635901952\xc2\xa0\xe2\x80\xa6'
p316
S'2:04 PM - 6 Nov 2017'
p317
tp318
a(S"RT sxdoc: Sen. Feinstein: No Evidence Trump Campaign Received 'Dirt' on Clinton; Clinton is Real Russia Collusion http://sumo.ly/IF8K\xc2\xa0"
p319
S'2:03 PM - 6 Nov 2017'
p320
tp321
a(S"22nd Century News. Well there's still no Russia/Trump collusion & Democrats haven't won the presidency in 100 years! https://townhall.com/tipsheet/leahbarkoukis/2017/11/06/democrats-wont-be-happy-with-what-dianne-feinstein-just-said-about-the-russia-investigation-n2405379\xc2\xa0\xe2\x80\xa6"
p322
S'2:01 PM - 6 Nov 2017'
p323
tp324
a(S'Oh is that what Putin instructed you to say. Russia + trump = Collusion'
p325
S'2:01 PM - 6 Nov 2017'
p326
tp327
a(S'#SourceOfTheDance\nCounterprogramming the world...\nBad meetings! Dates, celebrations, accidental collusion with Russia...'
p328
S'2:01 PM - 6 Nov 2017'
p329
tp330
a(S"Dianne Feinstein said YESTERDAY that there isn't any proof of any kind or nature that supports the Russia/Trump Collusion Hoax."
p331
S'2:00 PM - 6 Nov 2017'
p332
tp333
a(S'"They don\'t agree with my opinion"\n\n"BOT!BOT!BOT!! RUSSIA! COLLUSION!"'
p334
S'1:59 PM - 6 Nov 2017'
p335
tp336
a(S'@seanhannity @JGilliam_SEAL I believe that the attitude in all of this dossier collusion Russia BS is that the Democrats are accusing their'
p337
S'1:57 PM - 6 Nov 2017'
p338
tp339
a(S"#Russia didn't change people's vote. I was Hill or Bern. Hill and Donna Brazier collusion made me go @realDonaldTrump @cnn, millions like me"
p340
S'1:57 PM - 6 Nov 2017'
p341
tp342
a(S'That was proven fake news, just like all of the Russia Trump collusion BS is.'
p343
S'1:56 PM - 6 Nov 2017'
p344
tp345
a(S'Oh yes another poll from the network is 24/7 Russia collusion. How many more committees or special prosecutors will make you happy?'
p346
S'1:54 PM - 6 Nov 2017'
p347
tp348
a(S'Like the fake Russia collusion stuff, the Left will use ANY story they can against Trump - true or not. Pathological, blind hatred.'
p349
S'1:54 PM - 6 Nov 2017'
p350
tp351
a(S'More like "I see Russian bots & trolls" \n#RussianBot #Russia #Bot #russiantrolls #socialmedia #Collusion #Treasonpic.twitter.com/1Dsy13YUnH'
p352
S'1:54 PM - 6 Nov 2017'
p353
tp354
a(S'We assume they mean the part the Democrats played in Russia collusion.'
p355
S'1:53 PM - 6 Nov 2017'
p356
tp357
a(S'Therefore, Clintons, Obamas, NDC, & Russia CONNECTION. Maxine, here is your Russian Collusion & you knew it  https://twitter.com/RealJamesWoods/status/927650274881298432\xc2\xa0\xe2\x80\xa6'
p358
S'1:53 PM - 6 Nov 2017'
p359
tp360
a(S'Almost everyone in the WH has ties to Russia. Never happened in history. Trumpturds say "so what? No big deal. Prove collusion!" Been proven'
p361
S'1:53 PM - 6 Nov 2017'
p362
tp363
a(S'Russia lawyer: Trump Jr. suggested sanctions law could be re-examined if Trump won http://thehill.com/blogs/blog-briefing-room/news/358920-russia-lawyer-trump-jr-suggested-sanctions-law-could-be-re#.WgDZRfxoafw.twitter\xc2\xa0\xe2\x80\xa6\nBUT NO COLLUSION, right? ROTFLMAO'
p364
S'1:52 PM - 6 Nov 2017'
p365
tp366
a(S"When it comes to #Russia collusion, con man #Trump says they're looking for the \xe2\x80\x9cwrong person.\xe2\x80\x9d Who, his aliases \xe2\x80\x9cJohn Miller/Barron\xe2\x80\x9d...?"
p367
S'1:52 PM - 6 Nov 2017'
p368
tp369
a(S'DNC party of Corruption Greed Degenerates pedophiles KKK hypocrites RUSSIA collusion ISIS'
p370
S'1:51 PM - 6 Nov 2017'
p371
tp372
a(S'Russia actively worked to influence the election of 2016.  That is a fact.  And Russia and Trump sought to help each other. COLLUSION.'
p373
S'1:48 PM - 6 Nov 2017'
p374
tp375
a(S'THAT SMELL OF COLLUSION WHEN JR. MAKES DEALS WITH RUSSIA. https://twitter.com/dcexaminer/status/927653336077295622\xc2\xa0\xe2\x80\xa6'
p376
S'1:48 PM - 6 Nov 2017'
p377
tp378
a(S'As \xe2\x80\x98Russia Collusion\xe2\x80\x99 points more and more to Hillary, CNN and NBC struggle to keep it about \xe2\x80\x98anything\xe2\x80\x99 Trump. Really quite laughable!'
p379
S'1:46 PM - 6 Nov 2017'
p380
tp381
a(S"Gregg Jarrett: Still no evidence of Trump-Russia 'collusion' - but Hillary is a different matter http://fxn.ws/2zj7bxn\xc2\xa0 #FoxNews lies"
p382
S'1:45 PM - 6 Nov 2017'
p383
tp384
a(S'@realDonaldTrump   WhAts ur part in Russia collusion ??? pic.twitter.com/OXHmDL8JjO'
p385
S'1:44 PM - 6 Nov 2017'
p386
tp387
a(S'@CNN @jaketapper If not #FakeNews , why poll ? re: Russia collusion "believe is a serious matter"? I think it\'s total BS, but still serious.'
p388
S'1:44 PM - 6 Nov 2017'
p389
tp390
a(S'Always has been ONLY 1 collusion with Russia - Killary Clinton https://twitter.com/junogsp5/status/926986283754377216\xc2\xa0\xe2\x80\xa6'
p391
S'1:44 PM - 6 Nov 2017'
p392
tp393
a(S'Vintage to Release \xe2\x80\x98Collusion,\xe2\x80\x99 A New Book on Trump-Russia Controversy https://www.publishersweekly.com/pw/by-topic/industry-news/promotionalss/article/75310-vintage-to-release-collusion-a-new-book-on-trump-russia-controversy.html\xc2\xa0\xe2\x80\xa6 via @publisherswkly'
p394
S'1:43 PM - 6 Nov 2017'
p395
tp396
a(S"Or Rachel Madow's Glenn Beck style 6 degrees of separation Russia collusion reporting."
p397
S'1:43 PM - 6 Nov 2017'
p398
tp399
a(S'7. Focus on & share real news. Silencing, disinformation, distraction are methods of cyberwar. #ImpeachTrump for #Collusion w/#Russia.'
p400
S'1:41 PM - 6 Nov 2017'
p401
tp402
a(S'Only #Democrats could actually shrink the distance from #Russia to America. And they complained about Sarah Palin....#Collusion #FusionGPShttps://twitter.com/davidsirota/status/927028822456668160\xc2\xa0\xe2\x80\xa6'
p403
S'1:40 PM - 6 Nov 2017'
p404
tp405
a(S'@DNC @TheDemocrats How is the Trump/Russia collusion fallacy working out for you?'
p406
S'1:36 PM - 6 Nov 2017'
p407
tp408
a(S'Forget collusion. Was Russia giving instructions on who to hire? http://fb.me/7pUdarg27\xc2\xa0'
p409
S'1:36 PM - 6 Nov 2017'
p410
tp411
a(S'What more proof de we need to realize @realDonaldTrump and entire admin/staff are compromised via collusion with Russia? Many @GOP too, IMO.'
p412
S'1:35 PM - 6 Nov 2017'
p413
tp414
a(S'Senate Intelligence Committee Russia Probe @CSPANVL //www.c-span.org/video/?435050-1/senate-russia-probe-expanded-looking-possible-collusion'
p415
S'1:34 PM - 6 Nov 2017'
p416
tp417
a(S"Poor CNN, they can't find any connection for Trump and Russia collusion. #pushingtheenvelope"
p418
S'1:34 PM - 6 Nov 2017'
p419
tp420
a(S'Hey #MuellerInvestigation all roads to #Russia & #Collusion go through the @PodestaGroup #DoYourJob #WakeUpMueller pic.twitter.com/7Z2mq5aYGd'
p421
S'1:33 PM - 6 Nov 2017'
p422
tp423
a(S"There was collusion between Hillary and Russia. That still wasn't a crime. Her taking bribes for the U1 deal was a crime."
p424
S'1:33 PM - 6 Nov 2017'
p425
tp426
a(S'MSNBC of course is still talking about the Trump-Russia \xe2\x80\x9ccollusion\xe2\x80\x9d.'
p427
S'1:31 PM - 6 Nov 2017'
p428
tp429
a(S'RUSSIA COLLUSION IS A SUBLIME TOPIC FOR CHARLATANS BUT IS COMPLETELY MISSING.THE BLUFF OF THE CENTURY.'
p430
S'1:28 PM - 6 Nov 2017'
p431
tp432
a(S'The only collusion that took place in last years election was between the Clintons and russia. Oh yeah, Israel too. Even julian assange came out and said that trump was clean.'
p433
S'1:28 PM - 6 Nov 2017'
p434
tp435
a(S"The article says that Democrats used a British spy. Britain is America's closest ally. Do you think it's the same as Trump-Russia collusion?"
p436
S'1:27 PM - 6 Nov 2017'
p437
tp438
a(S'https://amp.cnn.com/cnn/2017/03/29/politics/russia-investigation-cast-of-characters/index.html\xc2\xa0\xe2\x80\xa6 Russia,Trump,Flynn, Manafort,GATES, AND PAPAXOPOULOS *(ASSOCIATION)* = RUSSIA COLLUSION.Not fakenew.'
p439
S'1:26 PM - 6 Nov 2017'
p440
tp441
a(S'This story has debunked countless times. Collusion was between Obama, DNC, Hillary & Russia.'
p442
S'1:25 PM - 6 Nov 2017'
p443
tp444
a(S"There's no proof of @realDonaldTrump & Russia collusion. Done. Now delete your account!"
p445
S'1:24 PM - 6 Nov 2017'
p446
tp447
a(S'ADMITTED RUSSIAN COLLUSION:SALE OF 20% USA URANIUM TO RUSSIA,TONY PODESTA, DNC CLINTON ADMITTED $9M PAY TO RUSSIA FOR FAKE SALACIOUS DOSSIER'
p448
S'1:24 PM - 6 Nov 2017'
p449
tp450
a(S'nothing like the never ending trump-russia collusion conspiracy that media and other idiots push every day though...right?'
p451
S'1:23 PM - 6 Nov 2017'
p452
tp453
a(S'Trump is Unfit to be President Lies Distraction Russia Taxes Corruption ACA Obstruction of Justice Collusion Flynn Page Mannafort Money '
p454
S'1:23 PM - 6 Nov 2017'
p455
tp456
a(S"Publishers Weekly Vintage to Release 'Collusion,' A New Book on Trump-Russia Controversy Publishers Weekly Harding\xe2\x80\xa6 https://goo.gl/fb/hpgAFa\xc2\xa0"
p457
S'1:23 PM - 6 Nov 2017'
p458
tp459
a(S'No new concerns about Russian collusion except collusion between Hillary, DNC and Russia. Nothing still ties to Pres Trump but keep spinning all u want Clinton news network i mean CNN'
p460
S'1:23 PM - 6 Nov 2017'
p461
tp462
a(S"Publishers Weekly Vintage to Release 'Collusion,' A New Book on Trump-Russia Controversy Publishers Weekly Harding\xe2\x80\xa6 https://goo.gl/fb/8q6HCP\xc2\xa0"
p463
S'1:23 PM - 6 Nov 2017'
p464
tp465
a(S'The plot thickens...\nRussia dossier investigators suspect that reporters were paid to spread collusion claims - http://go.shr.lc/2zgpHWT\xc2\xa0 - @washtimes\nWho would doubt it!  We know they are all part of the MSM/DNC Globalist Complex'
p466
S'1:22 PM - 6 Nov 2017'
p467
tp468
a(S'REAL RUSSIAN COLLUSION: SALE OF 20% USA URANIUM TO RUSSIA, TONY PODESTA, DNC CLINTON ADMITTED $9M PAY TO RUSSIA FOR FAKE SALACIOUS DOSSIER'
p469
S'1:22 PM - 6 Nov 2017'
p470
tp471
a(S'That and all the other dem corruption coming out vs fake Russia collusion theory'
p472
S'1:20 PM - 6 Nov 2017'
p473
tp474
a(S"Ironic you're calling me a conspiracy theorist, especially after the same excuse was used on people criticizing Hillary for her Russian Collusion before the Hillary-Russia UraniumOne facts came to light."
p475
S'1:18 PM - 6 Nov 2017'
p476
tp477
a(S'FBI allowed shooter to buy a firearm. What good is a BG check if FBI clears a disqualified buyer? Instead, FBI is chasing fake Russia collusion'
p478
S'1:18 PM - 6 Nov 2017'
p479
tp480
a(S'No indictments on collusion with Russia as it relates to president Trump or Republicans. Your statement is false as well as speculative.'
p481
S'1:16 PM - 6 Nov 2017'
p482
tp483
a(S'Huge news coming within the next week or two regarding Fusion GPS. Proving collusion with Russia and Hillary, journalists involved'
p484
S'1:16 PM - 6 Nov 2017'
p485
tp486
a(S'Russia dirty dossier investigators: Reporters were paid to spread collusion claims https://pamelageller.com/2017/11/press-paid-publish-russian-dossier.html\xc2\xa0\xe2\x80\xa6'
p487
S'1:13 PM - 6 Nov 2017'
p488
tp489
a(S"Sen. Feinstein: No Evidence Trump Campaign Received 'Dirt' on Clinton; Clinton is Real Russia Collusion http://sumo.ly/IF8K\xc2\xa0"
p490
S'1:09 PM - 6 Nov 2017'
p491
tp492
a(S"Why hasn't Tony Podesta been charged yet? Russia collusion means any & all ties including Dems! Mueller is showing he's biased! #FireMueller"
p493
S'1:07 PM - 6 Nov 2017'
p494
tp495
a(S'And in over a year there has never been ANY Trump collusion w the Russians. The Russia theory is old..change the record Dems you got Nada  pic.twitter.com/hUJthezS8o'
p496
S'1:05 PM - 6 Nov 2017'
p497
tp498
a(S"House Intelligence chairman: 'No evidence of collusion' between Trump camp, Russia http://thehill.com/policy/national-security/324685-nunes-says-hes-seen-no-evidence-of-collusion-between-trump-camp-and\xc2\xa0\xe2\x80\xa6"
p499
S'1:04 PM - 6 Nov 2017'
p500
tp501
a(S'#Treason #Collusion #Russia #Russpublican #MuellerTime #IndictmentMonday #FakePresident'
p502
S'1:03 PM - 6 Nov 2017'
p503
tp504
a(S"It's been a year. Yet you have no evidence that proves beyond a reasonable doubt that there was collusion with Russia. Only a bias."
p505
S'1:01 PM - 6 Nov 2017'
p506
tp507
a(S'Do you Want there to be Trump campaign collusion with Russia? What does that mean? #PaT'
p508
S'1:00 PM - 6 Nov 2017'
p509
tp510
a(S'LIVE COVERAGE\n\nRussia collusion investigation\n\n#CNNFakeNews\n#MSNFakeNews\n#MuellerInvestigationpic.twitter.com/rT0Md1SwYF'
p511
S'12:57 PM - 6 Nov 2017'
p512
tp513
a(S'what is more troubling is you as Republican senator is only interested in Trump collusion with Russia.'
p514
S'12:56 PM - 6 Nov 2017'
p515
tp516
a(S'@SpeakerRyan Mueller Comey Lynch  Obama were all involved with uranium one and the collusion with Russia with Hillary that sir is a conflict'
p517
S'12:56 PM - 6 Nov 2017'
p518
tp519
a(S"@SpeakerRyan you sir are a disgrace you're allowing a fake investigation to go on when you know there was no Trump collusion with Russia"
p520
S'12:55 PM - 6 Nov 2017'
p521
tp522
a(S"Like Anyone With Cogent Brain couldn't surmise that themselves..THE CROOKED MEDIA Couldn't Get Trump/ Russia Collusion ..{Sen. Diane Feinstein Told Jake Tapper 11/05 BIG NOTHING.. So Take Aim at his Cabinet....Anyone Surprised? By the Way Collusion Is Not ILLEGAL!!"
p523
S'12:53 PM - 6 Nov 2017'
p524
tp525
a(S'Seriously, you bet me $20 that there was *no collusion* with Russia on the Trump campaign 3 days before Papadopoulos guilty plea came out... pic.twitter.com/G1YhwBceyt'
p526
S'12:52 PM - 6 Nov 2017'
p527
tp528
a(S'Stop hiding behind innuendo and a hoped for Trump Russia collusion. Investigate Russia they clearly did things we should understand better.'
p529
S'12:51 PM - 6 Nov 2017'
p530
tp531
a(S"Russia-Trump campaign collusion an 'open' issue: Senate panel chiefs | R https://goo.gl/cC6Xr2\xc2\xa0"
p532
S'12:50 PM - 6 Nov 2017'
p533
tp534
a(S'We expected that DENY DENY DENY DEBUNKED DEBUNKED DEBUNKED Trump/Russia Collusion Trump/Russia Collusion Wyl they protect Evil herself, HRC'
p535
S'12:50 PM - 6 Nov 2017'
p536
tp537
a(S"@SecretaryRoss is knee deep in shit! He's Literally in business w/Putin's son n law!\nMore lies, more ties frm trump admn.W/Russia #collusion https://twitter.com/BBCBusiness/status/927585347093098497\xc2\xa0\xe2\x80\xa6"
p538
S'12:47 PM - 6 Nov 2017'
p539
tp540
a(S'Nothing new except Clinton Scandals. Never ceases to amaze me how democrats still buy into Russia/Collusion https://twitter.com/anncostanza1/status/927519419709960192\xc2\xa0\xe2\x80\xa6'
p541
S'12:46 PM - 6 Nov 2017'
p542
tp543
a(S'His on air comments alone are collusion when you consider Russia did as he asked N more. If I tell you to punch someone than you do it...'
p544
S'12:45 PM - 6 Nov 2017'
p545
tp546
a(S'Omg u solved it. One more scoop and her whole administration is going down for Russia collusion.'
p547
S'12:45 PM - 6 Nov 2017'
p548
tp549
a(S'Uh... so let me understand... Trump is innocent of collusion with Russia because he lied about it so that makes it legal?'
p550
S'12:44 PM - 6 Nov 2017'
p551
tp552
a(S'Liberal democrats are so out of it!  Rigging the election, Criminal DNC, deadly visa lottery by Schumer! Uranium Russia collusion! Etc !'
p553
S'12:43 PM - 6 Nov 2017'
p554
tp555
a(S'Agreed. Russia just took a huge steaming  on #Dotardjr.#Collusion'
p556
S'12:39 PM - 6 Nov 2017'
p557
tp558
a(S"Trump campaign's collusion with Russia is now proven. Where is the impeachment?\nhttp://www.cnn.com/2017/11/02/politics/jeff-sessions-congress-russia-trump-campaign/index.html\xc2\xa0\xe2\x80\xa6"
p559
S'12:37 PM - 6 Nov 2017'
p560
tp561
a(S'CULTURE OF COLLUSION: Tony Podesta Lobbied For Russia\xe2\x80\x99s \xe2\x80\x98Uranium One\xe2\x80\x99 And Did Not File As A Fo\xe2\x80\xa6 https://pjmedia.com/instapundit/280179/\xc2\xa0\xe2\x80\xa6'
p562
S'12:35 PM - 6 Nov 2017'
p563
tp564
a(S'Hahaha we GOP have been saying that u should for almost a yr. U kept up discussions & now its come back to bite u just like Russia collusion u tried to paint against Trump now coming out Hillary & DNC were ones colluding. The chickens are coming home to roost DNC!'
p565
S'12:35 PM - 6 Nov 2017'
p566
tp567
a(S'yeah.. just as crazy as russia collusion?'
p568
S'12:32 PM - 6 Nov 2017'
p569
tp570
a(S'#Russia collusion is a cancer in our societies http://ow.ly/kjrw30fIcR1\xc2\xa0pic.twitter.com/AbSkoX7lwx'
p571
S'12:30 PM - 6 Nov 2017'
p572
tp573
a(S'No intel official has claimed collusion between Russia & Jill, cuz no such collusion happened. Stop spreading baseless social media rumors.'
p574
S'12:30 PM - 6 Nov 2017'
p575
tp576
a(S"Mueller had more collusion and contact with Russia in the Uranium one deal then any of Trump's people but he's the prosecutor what's wrong"
p577
S'12:27 PM - 6 Nov 2017'
p578
tp579
a(S'WHO was Chief at #FBI at the time? Oh, yeah! He`s investigating Trump "#COLLUSION" with Russia https://twitter.com/masspolitica/status/927602805992501248\xc2\xa0\xe2\x80\xa6'
p580
S'12:26 PM - 6 Nov 2017'
p581
tp582
a(S'Russia tells Trump Jr we have information that will hurt Clinton let meet Jr says back I love it they meet this is collusion & both confess'
p583
S'12:25 PM - 6 Nov 2017'
p584
tp585
a(S'Ummm-- What steps is CNN taking to repair ITS credibility crisis?? Why ignoring Russia Russia Russia HILLARY Collusion & Bribery?? NO 2 Standards in the Law!!'
p586
S'12:25 PM - 6 Nov 2017'
p587
tp588
a(S"There you go...thats why Graham doesn't want them digging about HRC and Russia collusion bc we will find the dirt on him"
p589
S'12:23 PM - 6 Nov 2017'
p590
tp591
a(S'That would require #FakenewsCNN to move to Russia. What about their collusion story then? https://twitter.com/alicenmary/status/927517926143549441\xc2\xa0\xe2\x80\xa6'
p592
S'12:22 PM - 6 Nov 2017'
p593
tp594
a(S'@HouseGOP @senateGOP @SpeakerRyan @SenateMajLdr @DavidCornDC @RepMaxineWaters @EleanorNorton plz - justice  #Russia #Collusion #Democracypic.twitter.com/LLYZwUBjk5'
p595
S'12:21 PM - 6 Nov 2017'
p596
tp597
a(S'Cohen, working with Squire Patton Boggs, & a former Trump Org lawyer, drawn into Russia collusion investigation. https://www.politico.com/tipsheets/politico-influence/2017/09/15/former-trump-lawyer-still-working-with-squire-patton-boggs-222315\xc2\xa0\xe2\x80\xa6'
p598
S'12:17 PM - 6 Nov 2017'
p599
tp600
a(S"Publishers Weekly Vintage to Release 'Collusion,' A New Book on Trump-Russia Controversy Publishers Weekly Harding\xe2\x80\xa6 https://goo.gl/fb/vnPqHJ\xc2\xa0"
p601
S'12:16 PM - 6 Nov 2017'
p602
tp603
a(S"I believe that's what you call collusion with Russia."
p604
S'12:15 PM - 6 Nov 2017'
p605
tp606
a(S'The Democrats are involved with fusion GPS and Uranium one the Dems colluded with Russia. Northam has no plan to stop Dem collusion.'
p607
S'12:14 PM - 6 Nov 2017'
p608
tp609
a(S'Absent Russia\xe2\x80\x99s abundant messages spread across the Internet, Hillary Clinton would likely be in the Oval Office. #RussiaGate #Collusion https://twitter.com/rawstory/status/927616641067900928\xc2\xa0\xe2\x80\xa6'
p610
S'12:11 PM - 6 Nov 2017'
p611
tp612
a(S'White privilege is running out of time collusion with Russia is treason'
p613
S'12:11 PM - 6 Nov 2017'
p614
tp615
a(S"Warner: Senate's Russia Probe Continues Outside the Headlines http://a.msn.com/01/en-us/AAutctk?ocid=stNunes\xc2\xa0\xe2\x80\xa6 involved in Russian collusion I have no doubt!"
p616
S'12:10 PM - 6 Nov 2017'
p617
tp618
a(S'Or maybe selling uranium to the Russians while Obama and even Mueller was head of FBI do you see collusion yet. But it wasnt weapon grade. Stupid liberals say this. What business have we of selling uranium to Russia period especially when they had sanction on them.'
p619
S'12:08 PM - 6 Nov 2017'
p620
tp621
a(S"Tell me, again, why 'collusion' is NOT illegal...Trump Jr. Hinted at Review of Anti-Russia Law, Moscow Lawyer Says http://a.msn.com/01/en-us/AAuvF91?ocid=st\xc2\xa0\xe2\x80\xa6"
p622
S'12:06 PM - 6 Nov 2017'
p623
tp624
a(S'Satire DOA: Team Hillary names Donna Brazile as part of massive Russia collusion cabal\nhttp://michellemalkin.com/2017/11/05/satire-doa-team-hillary-names-donna-brazile-as-part-of-massive-russia-collusion-cabal/\xc2\xa0\xe2\x80\xa6'
p625
S'12:06 PM - 6 Nov 2017'
p626
tp627
a(S'That woman is expressing that many of us do NOT believe in murder, white supremacy, female & religious oppression, collusion w/Russia, etc..'
p628
S'12:05 PM - 6 Nov 2017'
p629
tp630
a(S'Yet DEMS scream Russia collusion bet Russia & @realDonaldTrump .  MSM continue 2 ignore REAL collusion.  Reason Americans dont trust MSM. https://twitter.com/JudicialWatch/status/927610284931534849\xc2\xa0\xe2\x80\xa6'
p631
S'12:04 PM - 6 Nov 2017'
p632
tp633
a(S"If Muller's honest, democrats will find out that the Clinton's and democrats are in collusion with Russia"
p634
S'12:03 PM - 6 Nov 2017'
p635
tp636
a(S'Trump Jr. Hinted at Review of Anti-Russia Law to  Lawyer Veselnitskaya in exchange for HRC dirt\nCOLLUSION\n#Maddow https://www.bloomberg.com/news/articles/2017-11-06/trump-jr-said-anti-russia-law-may-be-reviewed-moscow-lawyer-says\xc2\xa0\xe2\x80\xa6'
p637
S'12:01 PM - 6 Nov 2017'
p638
tp639
a(S"And i can't wait, after Jared & Junior are indicted for their collusion with Russia like Manafort that'll just about do it?"
p640
S'12:00 PM - 6 Nov 2017'
p641
tp642
a(S'Tony Podesta Caught in Russia-Collusion Web, Threatens Fox News with Lawsuit to Squelch The Report https://needtoknow.news/2017/11/tony-podesta-caught-russia-collusion-web-threatens-fox-news-lawsuit-squelch-report/\xc2\xa0\xe2\x80\xa6'
p643
S'11:59 AM - 6 Nov 2017'
p644
tp645
a(S"It's too bad democrats had to make up a Trump/Russia collusion story. It's coming back to haunt them. #Guiltyhttps://twitter.com/NHRAMom/status/927626280505405440\xc2\xa0\xe2\x80\xa6"
p646
S'11:59 AM - 6 Nov 2017'
p647
tp648
a(S"None are about collusion with Russia. Just preparing you in case you're a snowflake "
p649
S'11:58 AM - 6 Nov 2017'
p650
tp651
a(S'They were too busy discussing Trump/Russia collusion and the arrests and guilty pleas of your campaign team. Tick Tock...'
p652
S'11:53 AM - 6 Nov 2017'
p653
tp654
a(S'So Trump Jr promised to review sanctions with Russia if they got into power in exchange for Clinton dirt ? But no collusion right ? pic.twitter.com/xa2l9qnRVx'
p655
S'11:49 AM - 6 Nov 2017'
p656
tp657
a(S'Russia collusion.'
p658
S'11:48 AM - 6 Nov 2017'
p659
tp660
a(S"Where have you been @RepMaxineWaters ? Surely you've heard the news.. Trump/Russia collusion dead. Russia/Clinton/Obama the real collusion."
p661
S'11:47 AM - 6 Nov 2017'
p662
tp663
a(S"Like the left are trying to do by insisting on Trump collusion with Russia when it was Hillary all along? Name the crime, let's investigate"
p664
S'11:43 AM - 6 Nov 2017'
p665
tp666
a(S'Flood of info on Russia troll factories & use of SM may be an effort to divert attn fr psbl collusion: @john_sipher\nhttps://www.justsecurity.org/46663/public-lesson-russian-strategic-deception-its-hear/\xc2\xa0\xe2\x80\xa6'
p667
S'11:43 AM - 6 Nov 2017'
p668
tp669
a(S'Russia dossier investigators suspect reporters were paid to spread collusion claims https://www.washingtontimes.com/news/2017/nov/5/journalist-pay-questioned-in-russian-dossier-court/\xc2\xa0\xe2\x80\xa6 via @washtimes'
p670
S'11:43 AM - 6 Nov 2017'
p671
tp672
a(S"Oh #WilburRoss why'd you hide ties to #Russia if there is nothing wrong with them? #WilburMustGo #corruption #russia #collusion #impeachhttps://twitter.com/donnydidntdoit/status/927620929148145669\xc2\xa0\xe2\x80\xa6"
p673
S'11:39 AM - 6 Nov 2017'
p674
tp675
a(S"Did they know you were a crooked #PovertyPimp that's only passed 3 bills in 27 years, faked Russia collusion & supports Antifa terrorism? pic.twitter.com/Y2GPA0uA9k"
p676
S'11:32 AM - 6 Nov 2017'
p677
tp678
a(S'No it doesn\xe2\x80\x99t.  Haha.  Looks like several Dems and FBI people and even Mueller may all go up with all of this stuff with Russia collusion'
p679
S'11:32 AM - 6 Nov 2017'
p680
tp681
a(S"For collusion with Russia about them tampering with the 2016 election? No? Then how can the criminal Mueller's indictment even be filed?"
p682
S'11:26 AM - 6 Nov 2017'
p683
tp684
a(S'@realDonaldTrump @PressSec So, Donny Jr offered to help remove sanctions if Russia provided Hillary dirt. Collusion and treason. JAIL Don Jr'
p685
S'11:22 AM - 6 Nov 2017'
p686
tp687
a(S'Poll: Vast majority of Trump voters say he should stay in office even if Russia collusion is proven http://fb.me/1G9gbO4y8\xc2\xa0'
p688
S'11:21 AM - 6 Nov 2017'
p689
tp690
a(S'Guardian journalist has book coming on Trump and Russia http://wapo.st/2zzQ7mS?tid=ss_tw-amp\xc2\xa0\xe2\x80\xa6 #Collusion @lukeharding1968 @VintageAnchor @SLANYC'
p691
S'11:20 AM - 6 Nov 2017'
p692
tp693
a(S'Former DOJ Spokesperson Suggests Jeff Sessions Is Complicit in Russia Collusion @alternethttp://www.alternet.org/news-amp-politics/former-doj-spokesperson-suggests-jeff-sessions-complicit-russia-collusion\xc2\xa0\xe2\x80\xa6'
p694
S'11:20 AM - 6 Nov 2017'
p695
tp696
a(S'Fox will even embrace Oprah muffin stories, instead of reporting on Trump Russia Collusion!'
p697
S'11:18 AM - 6 Nov 2017'
p698
tp699
a(S"I would love to be a fly on the wall in the CrapNewsNetwork's meetings over this turn of events - it's going to be hard for them to make it into a Trump-Russia collusion thingy. \n\nThey will need to hire someone more creative than the people they already have.\n\n https://twitter.com/CNN/status/926609424717942784\xc2\xa0\xe2\x80\xa6"
p700
S'11:18 AM - 6 Nov 2017'
p701
tp702
a(S'Difference between MSM & Fox News. I get the real story a year before the libturds do. CNN is still promising Trump/Russia Collusion. Haha'
p703
S'11:17 AM - 6 Nov 2017'
p704
tp705
a(S"It's your crooked champion that smells like fishy corruption these days, old Granny Maxine, the DNC funded the Russia collusion hoax. pic.twitter.com/1xuGgRDPvO"
p706
S'11:14 AM - 6 Nov 2017'
p707
tp708
a(S"found out over the past year about collusion/contact between russia and higher-ups on trump's side"
p709
S'11:11 AM - 6 Nov 2017'
p710
tp711
a(S'Russia dirty dossier investigators: Reporters were paid to spread collusion claims https://pamelageller.com/2017/11/press-paid-publish-russian-dossier.html/\xc2\xa0\xe2\x80\xa6 via @pamelageller'
p712
S'11:10 AM - 6 Nov 2017'
p713
tp714
a(S"RT if you think the @gop should stop getting in the way of Muller investigation of Trump & Trump's administration's collusion with Russia."
p715
S'11:10 AM - 6 Nov 2017'
p716
tp717
a(S'@realDonaldTrump Trump, worlds 1st illegitimate POTUS, liar, cheat (ask his three wives) fraud & much more, Scandals Russia Collusion, JAIL'
p718
S'11:10 AM - 6 Nov 2017'
p719
tp720
a(S'CULTURE OF COLLUSION: Tony Podesta Lobbied For Russia\xe2\x80\x99s \xe2\x80\x98Uranium One\xe2\x80\x99 And Did Not File As A Fo\xe2\x80\xa6 https://pjmedia.com/instapundit/280179/\xc2\xa0\xe2\x80\xa6'
p721
S'11:09 AM - 6 Nov 2017'
p722
tp723
a(S'Collusion or tit-for-tat?\nTrump Jr. Hinted at Review of Anti-Russia Law, Moscow Lawyer Says https://www.bloomberg.com/politics/articles/2017-11-06/trump-jr-said-anti-russia-law-may-be-reviewed-moscow-lawyer-says\xc2\xa0\xe2\x80\xa6'
p724
S'11:06 AM - 6 Nov 2017'
p725
tp726
a(S"Absolutely Devastating New Report Implicates CNN In 'Fake News' Russia Collusion Story - Media ... - https://www.therussophile.org/absolutely-devastating-new-report-implicates-cnn-in-fake-news-russia-collusion-story-media-fails-in-attempts-to-cover-up-their-lead-role-in-creati.html/\xc2\xa0\xe2\x80\xa6pic.twitter.com/h9wIPbiJX6"
p727
S'11:06 AM - 6 Nov 2017'
p728
tp729
a(S'BOOM! Can\xe2\x80\x99t wait. We need anything and everything to distract from this Trump Russia Money Laundering Manafort Flynn Collusion nonsense. #MAGA'
p730
S'11:04 AM - 6 Nov 2017'
p731
tp732
a(S'@realDonaldTrump When will you implement the approved SANCTIONS AGAINST RUSSIA for interference in election? Is this proof of collusion?'
p733
S'11:03 AM - 6 Nov 2017'
p734
tp735
a(S'@CNN YOU ARE FAKE NEWS!!! Report things that are true, ie- Russia-Clinton-Obama-Rice-etc...COLLUSION!!!! #FakeNewshttps://twitter.com/jamesokeefeiii/status/927586240345583616\xc2\xa0\xe2\x80\xa6'
p736
S'11:01 AM - 6 Nov 2017'
p737
tp738
a(S'@RepMattGaetz THE ONLY COLLUSION IS RUSSIA&CLINTON,MCCAIN,OBAMA,COMEY,BRENNAN,CLAPPER,MUELLER,ROSENSTEIN,MCCABE,ECT!THEY COLLUDED W/RUSSIA!'
p739
S'11:01 AM - 6 Nov 2017'
p740
tp741
a(S'five months into the Russia collusion investigation, Mueller has indicted three people with one of them turning witness for the prosecution'
p742
S'10:59 AM - 6 Nov 2017'
p743
tp744
a(S'Russia dossier investigators suspect reporters were paid to spread collusion claims http://www.washingtontimes.com/news/2017/nov/5/journalist-pay-questioned-in-russian-dossier-court/\xc2\xa0\xe2\x80\xa6 via @washtimes'
p745
S'10:58 AM - 6 Nov 2017'
p746
tp747
a(S'"The hill" how can you say Russia supported Trump when they were in collusion with the Democratic party and Clinton and Obama.\nWho writes4 U'
p748
S'10:58 AM - 6 Nov 2017'
p749
tp750
a(S'What has Russia gained from supposed collusion? \nWhat did he get?'
p751
S'10:57 AM - 6 Nov 2017'
p752
tp753
a(S'REAL RUSSIAN COLLUSION: SALE OF 20% USA URANIUM TO RUSSIA, TONY PODESTA, DNC CLINTON ADMITTED $9M PAY TO RUSSIA FOR FAKE SALACIOUS DOSSIER'
p754
S'10:51 AM - 6 Nov 2017'
p755
tp756
a(S"Tick Tock tick tock HANNITY GOT BIG NEWS! NOTHING'S HAPPENING EXCEPT TRUMP RUSSIA COLLUSION GETTING CLOSER TO PROVEN. \nNBD, tick tock."
p757
S'10:49 AM - 6 Nov 2017'
p758
tp759
a(S'Dianne Feinstein Says She Still Hasn\xe2\x80\x99t Seen Evidence Of Russia/T Collusion'
p760
S'10:48 AM - 6 Nov 2017'
p761
tp762
a(S'Collusion with Russia wasnt Trump but reports Mark took 6 million from the Russians. It is true, what they blame the right for, they do.'
p763
S'10:44 AM - 6 Nov 2017'
p764
tp765
a(S"FBI has acted with dishonor since cowering to Obama, Jarrett collusion with Iran, Russia to undermine USA Nat'l Security. All for politics."
p766
S'10:42 AM - 6 Nov 2017'
p767
tp768
a(S'Do you think Ryan could be a pathological liar and treasonous collaborator, as he is immune to facts & concern for collusion w/Russia https://twitter.com/timkaine/status/927606297599635456\xc2\xa0\xe2\x80\xa6'
p769
S'10:42 AM - 6 Nov 2017'
p770
tp771
a(S"Anderson Cooper ENDS Trump's Lies On The Russia Collusion With A Magnifi... https://youtu.be/9m-x9S_KZY0\xc2\xa0 via @YouTube"
p772
S'10:42 AM - 6 Nov 2017'
p773
tp774
a(S'We heard Mark took 6 million dollars from Russia. collusion with the enemy.'
p775
S'10:42 AM - 6 Nov 2017'
p776
tp777
a(S'Vintage to Release \xe2\x80\x98Collusion,\xe2\x80\x99 A New Book on Trump-Russia Controversy https://www.publishersweekly.com/pw/by-topic/industry-news/promotionalss/article/75310-vintage-to-release-collusion-a-new-book-on-trump-russia-controversy.html\xc2\xa0\xe2\x80\xa6 via @publisherswkly'
p778
S'10:41 AM - 6 Nov 2017'
p779
tp780
a(S'Don Jr really dragging down his father with his clear collusion w/ Russia.  What a shame.'
p781
S'10:41 AM - 6 Nov 2017'
p782
tp783
a(S'All this Trump Russia collusion impeachment talk sounds Fishy to me...\nhttp://www.foxnews.com/entertainment/2017/11/06/anti-trump-media-makes-up-fake-story-about-overfeeding-fish-at-japanese-koi-pond.html\xc2\xa0\xe2\x80\xa6'
p784
S'10:39 AM - 6 Nov 2017'
p785
tp786
a(S'"more damning"as if there is ever a "damning" account by her or anyone,they only want to keep this Russia collusion myth on'
p787
S'10:39 AM - 6 Nov 2017'
p788
tp789
a(S'After Urine 1, Collusion with Russia will be well defined, Sugar Tits.\n\n#MuellerTime #Dossier  pic.twitter.com/nXXU072dQr'
p790
S'10:38 AM - 6 Nov 2017'
p791
tp792
a(S'#Politics Russia dossier investigators suspect reporters were paid to spread collusion claims http://dlvr.it/PzXsbb\xc2\xa0 #TCOT'
p793
S'10:38 AM - 6 Nov 2017'
p794
tp795
a(S'Indicted for causes other than collusion of Russia with Trump.  Zero evidence against our POTUS.'
p796
S'10:36 AM - 6 Nov 2017'
p797
tp798
a(S'@realDonaldTrump   So no collusion with Russia?  Hmmmm.  Hey Pres, do you feel the preverbial noose tighting around ur fat neck?'
p799
S'10:35 AM - 6 Nov 2017'
p800
tp801
a(S'After Uranium 1, we all need to redefine, Collusion with Russia, sweetie'
p802
S'10:34 AM - 6 Nov 2017'
p803
tp804
a(S'Stick to covering up your collusion with Russia, sonny. What do you know about hard-working?'
p805
S'10:33 AM - 6 Nov 2017'
p806
tp807
a(S'More mysterious collaboration with Russia, cover up? Collusion seems empirically self-evident. Can Americans tolerate treason? Trump et al?'
p808
S'10:33 AM - 6 Nov 2017'
p809
tp810
a(S"A strong military also needs a strong space program. Obama gutted our manned program in favor of Russia's and China's. Was that collusion?"
p811
S'10:32 AM - 6 Nov 2017'
p812
tp813
a(S"Americans r not interested n shiny objects we r waiting 4 the MORON-N-CHIEF 2 b arrested 4 Russia collusion so stay tuned it's MUELLER TIME"
p814
S'10:30 AM - 6 Nov 2017'
p815
tp816
a(S'Funniest thing ever:\n\n#Hillary says Trump Russia Collusion.\n\n#Mueller investigates.\n\n#Podesta bros implicated\n\n#Hillary and crew going down'
p817
S'10:29 AM - 6 Nov 2017'
p818
tp819
a(S'at least there is NO COLLUSION with DNC and RUSSIA like with your campaign!#loserpotus'
p820
S'10:26 AM - 6 Nov 2017'
p821
tp822
a(S'Can Mueller Investigate Russia Collusion When He Participated In It? pic.twitter.com/nVNgB9oPHi'
p823
S'10:25 AM - 6 Nov 2017'
p824
tp825
a(S'A nation can survive its fools but it cannot survive treason from within. By the way, collusion is also called conspiracy and Russia is not our friend. pic.twitter.com/1e0jSewSsk'
p826
S'10:22 AM - 6 Nov 2017'
p827
tp828
a(S"Between Trump's collusion with Russia and the DNC rigging\nAmericans demand the election be declared invalid and a new special election pic.twitter.com/gNKnkvF419"
p829
S'10:21 AM - 6 Nov 2017'
p830
tp831
a(S'Russia collusion= HRC and the dem gangbangers. They sold out America and their souls. Chickens comin home to roost.'
p832
S'10:20 AM - 6 Nov 2017'
p833
tp834
a(S'I have one in my timeline posting that pic of Stein in Russia too as evidence of her collusion w/Putin. Stupid people!'
p835
S'10:19 AM - 6 Nov 2017'
p836
tp837
a(S'He @realDonaldTrump could see "Russia[ns] from h[is] backyard" but NO collusion among this #ProPutin #TeamRussia following '
p838
S'10:15 AM - 6 Nov 2017'
p839
tp840
a(S'Is that another one of your lies or are you talking about the Russia Collusion cover up?'
p841
S'10:15 AM - 6 Nov 2017'
p842
tp843
a(S'@SarahHuckabee @realDonaldTrump @DonaldJTrumpJr NO COLLUSION HERE! NOTHING TO SEE! I HAVE NO BUSINESS WITH RUSSIA! https://apple.news/AlI0IBp3fTw2Jll3dtmDPjA\xc2\xa0\xe2\x80\xa6'
p844
S'10:14 AM - 6 Nov 2017'
p845
tp846
a(S'POTUS\xe2\x80\x9dif Mueller goes through w/this investigation fairly,he\xe2\x80\x99ll be [cleared] on charges of collusion with Russia.  https://www.christiannewsalerts.com/trump-issues-shock-mueller-message/\xc2\xa0\xe2\x80\xa6'
p847
S'10:13 AM - 6 Nov 2017'
p848
tp849
a(S'Critics call it an effort to divert attention from investigation of possible collusion btwn Trump campaign & Russia http://gpbnews.org/post/alternative-russia-scandal\xc2\xa0\xe2\x80\xa6'
p850
S'10:12 AM - 6 Nov 2017'
p851
tp852
a(S"Still no collusion or conspiracy.  Maddow is hung up on Russia.  Can't wait for years.  MSNBC so emotional.great actors"
p853
S'10:11 AM - 6 Nov 2017'
p854
tp855
a(S'the only 100% proven russia collusion weve seen is the #FakeDossier 9M paid by hillarys DNC to russia, liberals living in the bubble'
p856
S'10:11 AM - 6 Nov 2017'
p857
tp858
a(S'What does this have to do with Trump and Russia collusion, which doesn\xe2\x80\x99t even exist?'
p859
S'10:10 AM - 6 Nov 2017'
p860
tp861
a(S'Tony Podesta Caught in Russia-Collusion Web, Threatens Fox News with Lawsuit to Squelch The Report - https://needtoknow.news/2017/11/tony-podesta-caught-russia-collusion-web-threatens-fox-news-lawsuit-squelch-report/\xc2\xa0\xe2\x80\xa6'
p862
S'10:01 AM - 6 Nov 2017'
p863
tp864
a(S"This doesn't mean that @RealDonaldTrump committed collusion with Russia during 2016 election & Ross has no say in the company only $$ in it. https://twitter.com/An0nKn0wledge/status/927596076248559616\xc2\xa0\xe2\x80\xa6"
p865
S'10:00 AM - 6 Nov 2017'
p866
tp867
a(S'So now CNN Taking Her Word after she has been banned from our country. WHERE IS DONNA BRAZILE story HRC Collusion with Russia'
p868
S'10:00 AM - 6 Nov 2017'
p869
tp870
a(S'Stop the nonsense. Russia collusion story abt donald trump jr has been proved false!'
p871
S'9:59 AM - 6 Nov 2017'
p872
tp873
a(S'The GOP is normalizing collusion w/Russia to the extent I have to wonder if this is our future. Deplorables think it is no big deal'
p874
S'9:56 AM - 6 Nov 2017'
p875
tp876
a(S'WAPO NEVER MENTIONS HRC REAL COLLUSION CONNECTIONS TO RUSSIA: SALE OF 20% URANIUM TO RUSSIA; PAYING FOR RUSSIANFAKE SALACIOUS DOSSIER'
p877
S'9:55 AM - 6 Nov 2017'
p878
tp879
a(S'Keep grasping at http://straws.You\xc2\xa0 want collusion with Russia look in ur own party and Clinton sweetheart!'
p880
S'9:53 AM - 6 Nov 2017'
p881
tp882
a(S'This is what collusion with Russia looks like follow the money pic.twitter.com/dyzfq9H8Gz'
p883
S'9:49 AM - 6 Nov 2017'
p884
tp885
a(S'#RUSSIA #COLLUSION #COVERUPhttps://twitter.com/SethAbramson/status/927174696470061057\xc2\xa0\xe2\x80\xa6'
p886
S'9:48 AM - 6 Nov 2017'
p887
tp888
a(S'No way I will vote left, russia collusion, money laundering, election rigging, FBI not investigating, Menendez, uranium one. No way ever'
p889
S'9:47 AM - 6 Nov 2017'
p890
tp891
a(S'Not to mention Obama hiding Russia Clinton collusion, Obamas FBI clearing her before the investigation, Menendez, DWS no way'
p892
S'9:46 AM - 6 Nov 2017'
p893
tp894
a(S'How come with all new info no investigations known HC DNC Podesta Emails Uranium 1\xe2\x80\xa6But still stuck on Trump/Russia collusion 4how long'
p895
S'9:43 AM - 6 Nov 2017'
p896
tp897
a(S'Sen. Dianne Feinstein Admits They\xe2\x80\x99ve Found No Evidence Of Collusion Between The Trump Campaign And Russia https://www.chicksonright.com/2017/11/06/sen-dianne-feinstein-admits-theyve-found-no-evidence-collusion-trump-campaign-russia/\xc2\xa0\xe2\x80\xa6'
p898
S'9:43 AM - 6 Nov 2017'
p899
tp900
a(S'It was Russia and collusion and Comey. She got more votes than the fraud in the WH.'
p901
S'9:42 AM - 6 Nov 2017'
p902
tp903
a(S'@FoxNews \nI think every single 1 of your on-air talent, should be interviewed by Mueller, to see what u all know abt. Trump/Russia collusion'
p904
S'9:41 AM - 6 Nov 2017'
p905
tp906
a(S'Refuses to implement sanctions against Russia, either is guilty of collusion or is the worst better in the history of the Presidency...'
p907
S'9:39 AM - 6 Nov 2017'
p908
tp909
a(S'This is bizarre. You want Russia collusion. Follow the money trail from Hillary, to the DNC, to Fusion GPS, to Russia.'
p910
S'9:39 AM - 6 Nov 2017'
p911
tp912
a(S'CULTURE OF COLLUSION: Tony Podesta Lobbied For Russia\xe2\x80\x99s \xe2\x80\x98Uranium One\xe2\x80\x99 And Did Not File As A Fo\xe2\x80\xa6 https://pjmedia.com/instapundit/280179/\xc2\xa0\xe2\x80\xa6'
p913
S'9:39 AM - 6 Nov 2017'
p914
tp915
a(S'Trump Jr. Hinted at Review of Anti-Russia Law, Moscow Lawyer Says #collusion #TrumpRussia DeplorableJrhttps://www.bloomberg.com/politics/articles/2017-11-06/trump-jr-said-anti-russia-law-may-be-reviewed-moscow-lawyer-says\xc2\xa0\xe2\x80\xa6'
p916
S'9:37 AM - 6 Nov 2017'
p917
tp918
a(S"Breitbart?! So you're a racist & willfully impeding the Russia probe Mueller proving massive corruption & collusion by Trump's people/family"
p919
S'9:37 AM - 6 Nov 2017'
p920
tp921
a(S'Satire DOA: Team Hillary names Donna Brazile as part of massive Russia collusion cabal http://michellemalkin.com/2017/11/05/satire-doa-team-hillary-names-donna-brazile-as-part-of-massive-russia-collusion-cabal/\xc2\xa0\xe2\x80\xa6 via @michellemalkin'
p922
S'9:36 AM - 6 Nov 2017'
p923
tp924
a(S'No tax bill first\nThen URANIUM ONE investigation\nHillary collusion with Russia\nHillary collusion with DNC\nThen how those papers'
p925
S'9:33 AM - 6 Nov 2017'
p926
tp927
a(S'Vintage to Release \xe2\x80\x98Collusion,\xe2\x80\x99 A New Book on Trump-Russia Controversy https://lnkd.in/f8KS4Pz\xc2\xa0'
p928
S'9:33 AM - 6 Nov 2017'
p929
tp930
a(S'Massively important,forget about Nuclear war,collusion with Russia or his behaviour as a sex predator,someone has made up stuff about fish !'
p931
S'9:32 AM - 6 Nov 2017'
p932
tp933
a(S'LOL No diversion needed. Trump and Russia COLLUSION is the biggest story ever. LOCK HIM UP!'
p934
S'9:31 AM - 6 Nov 2017'
p935
tp936
a(S"The only problem the democrats have with Russia is Donald's collusion with them against us"
p937
S'9:30 AM - 6 Nov 2017'
p938
tp939
a(S'For what failing to file a form or reporting error? Nothing to do with Russia collusion all about Mueller Dem Donor Posse #witchhunt #DOJFBIPoliticitization we must pray @jeffsessions resigns soon neither Dems or GOP see anything hopeful there perfect example of "Peter Principal"'
p940
S'9:29 AM - 6 Nov 2017'
p941
tp942
a(S'Russia dossier investigators suspect reporters were paid to spread collusion claims\n#russiagate #russia #dossierhttp://www.washingtontimes.com/news/2017/nov/5/journalist-pay-questioned-in-russian-dossier-court/\xc2\xa0\xe2\x80\xa6'
p943
S'9:26 AM - 6 Nov 2017'
p944
tp945
a(S'COLLUSION!\n\xe2\x80\x98If we come to power\xe2\x80\x99: Donald Trump Jr. suggested he would overturn anti-Russia law, Russian lawyer says https://www.rawstory.com/?p=1156231\xc2\xa0'
p946
S'9:24 AM - 6 Nov 2017'
p947
tp948
a(S"Buyaaaaah!!! Evidence of collusion w/ Russia made public by Russian Lawyer V'skaya! https://twitter.com/otumfo/status/927586539269390336\xc2\xa0\xe2\x80\xa6"
p949
S'9:23 AM - 6 Nov 2017'
p950
tp951
a(S'Liberals Are Everything They Say We Are   https://townhall.com/columnists/derekhunter/2017/11/05/liberals-are-everything-they-say-we-are-n2404962\xc2\xa0\xe2\x80\xa6 #liberal #liberals #hypocrisy #collusion #russia #hillaryclinton #democrat'
p952
S'9:21 AM - 6 Nov 2017'
p953
tp954
a(S'@CNN Still waiting tweet about there is or never was a Trump/Russia Collusion..... \nI know, it\xe2\x80\x99s a hard pill for you to swallow. '
p955
S'9:21 AM - 6 Nov 2017'
p956
tp957
a(S'Not Russia Trump collusion but with BHO his administration Hillary and DNC.  Poor lost soul, liberal socialist democrats'
p958
S'9:15 AM - 6 Nov 2017'
p959
tp960
a(S"ICYMI: After @PaulManafort 's Indictment, @realDonaldTrump Claims No #Russia Collusion by @shanevanderhart https://caffeinatedthoughts.com/2017/10/manafort-indictment-trump-claims-no-russia-collusion/\xc2\xa0\xe2\x80\xa6pic.twitter.com/w7dULvccwL"
p961
S'9:15 AM - 6 Nov 2017'
p962
tp963
a(S"Two things I know: \n1) We don't have a guns issue.\n2) No collusion with Russia."
p964
S'9:14 AM - 6 Nov 2017'
p965
tp966
a(S'Let\xe2\x80\x99s investigate Clintons, Podesta and Obama/Russia now that a decade old tax \xe2\x80\x9cmatter\xe2\x80\x9d w/Manfort has been found and no Trump Collusion.'
p967
S'9:12 AM - 6 Nov 2017'
p968
tp969
a(S'Tony Podesta Caught in Russia-Collusion Web, Threatens Fox News with Lawsuit to Squelch The Report\n\nhttps://needtoknow.news/2017/11/tony-podesta-caught-russia-collusion-web-threatens-fox-news-lawsuit-squelch-report/\xc2\xa0\xe2\x80\xa6'
p970
S'9:11 AM - 6 Nov 2017'
p971
tp972
a(S"Facts have proven Clinton's have many ties to Russia, no evidence of Trump collusion whatsoever https://twitter.com/jprush2112r/status/927565789007417345\xc2\xa0\xe2\x80\xa6"
p973
S'9:11 AM - 6 Nov 2017'
p974
tp975
a(S'Collusion Russia KKK -Something made President Trump try and murder these fish-We need a special prosecutor '
p976
S'9:08 AM - 6 Nov 2017'
p977
tp978
a(S"No collusion. Donald Trump Jr. Told Russian Lawyer 'If We Come to Power' an Anti-Russia Law Would Be Reconsidered.  https://apple.news/AlI0IBp3fTw2Jll3dtmDPjA\xc2\xa0\xe2\x80\xa6"
p979
S'9:07 AM - 6 Nov 2017'
p980
tp981
a(S"Waiting waiting waiting. Keep them syncopates waiting RUSSIA COLLUSION !! Move 'em on, head 'em up\nHead 'em up, move 'em on\nRussia collusion"
p982
S'9:07 AM - 6 Nov 2017'
p983
tp984
a(S'A joke is the best evidence you got?  We got more evidence of DNC collusion and corruption in last week then year of russia/trump stuff'
p985
S'9:06 AM - 6 Nov 2017'
p986
tp987
a(S'Sen. Feinstein admits there is no evidence of Trump-Russia campaign collusion: http://ift.tt/2hLi6FR\xc2\xa0'
p988
S'9:04 AM - 6 Nov 2017'
p989
tp990
a(S'Russia dossier investigators suspect reporters were paid to spread collusion claims http://www.washingtontimes.com/news/2017/nov/5/journalist-pay-questioned-in-russian-dossier-court/\xc2\xa0\xe2\x80\xa6 via @washtimes'
p991
S'9:03 AM - 6 Nov 2017'
p992
tp993
a(S'Journalists may have been paid to spread Russia-Dossier-Collusion Story.\n#MSM #VeryFakeNewshttps://twitter.com/cmrose999/status/927581438723182592\xc2\xa0\xe2\x80\xa6'
p994
S'9:02 AM - 6 Nov 2017'
p995
tp996
a(S'Better to ask who in #Trump administration IS NOT on Russia payroll!  Corruption, collusion run deep in #TrumpRussia even into @GOP coverup!https://twitter.com/jamesgutierrez/status/927580193488850944\xc2\xa0\xe2\x80\xa6'
p997
S'9:02 AM - 6 Nov 2017'
p998
tp999
a(S'@DonaldJTrumpJr THE RUSSIA COLLUSION STORM JUST HIT THE FAN BUCKLE UP AND LAWYER UP THE RUSSIA LAWYER IS TALKING I HOPE TO SEE YOU IN JAIL'
p1000
S'9:00 AM - 6 Nov 2017'
p1001
tp1002
a(S'Why does foreign collusion not include collusion with Israel eg Priti Patel etc? Or collusion with Saudi Arabia? Why is Russia so so bad?'
p1003
S'8:58 AM - 6 Nov 2017'
p1004
tp1005
a(S'@marcorubio why aren\xe2\x80\x99t you pressing to indict Obama admin and Hillary for collusion and ssling uranium to Russia #DoYourJob'
p1006
S'8:57 AM - 6 Nov 2017'
p1007
tp1008
a(S'@realDonaldTrump collusion with our enemy Russia Putin who is a well-known human Rights Violator, tortures & murders innocent people! \nUnbelievable that Trump maintains personal & financial relationship with Putin https://twitter.com/rolandsmartin/status/927577913523949568\xc2\xa0\xe2\x80\xa6'
p1009
S'8:55 AM - 6 Nov 2017'
p1010
tp1011
a(S'RT @thehill: Carl Bernstein: Trump-Russia collusion would be "worse than Watergate" http://hill.cm/bbi8GUn\xc2\xa0'
p1012
S'8:55 AM - 6 Nov 2017'
p1013
tp1014
a(S'#MAGA people won\xe2\x80\x99t be able to admit they were duped but hopefully they can draw a line between this and all Trump #Russia #collusion news.'
p1015
S'8:52 AM - 6 Nov 2017'
p1016
tp1017
a(S'Mass shootings, paradise papers, russia collusion, and Orange comrades inability to STFU. News these days blows. Happy Monday everyone.'
p1018
S'8:49 AM - 6 Nov 2017'
p1019
tp1020
a(S'"is Trump smart enough to be evil?"   is basically the only real Russia collusion question remaining'
p1021
S'8:46 AM - 6 Nov 2017'
p1022
tp1023
a(S"18 U.S. Code \xc2\xa7 227 is one thing #dotard is guilty of and that doesn't even touch Russia collusion #impeach45 #ImpeachTrump #ImpeachTrumpNow"
p1024
S'8:46 AM - 6 Nov 2017'
p1025
tp1026
a(S'Russia dirty dossier investigators: Reporters were paid to spread collusion claims - Geller Report https://paper.li/deanmeek/1334063265?read=https%3A%2F%2Fpamelageller.com%2F2017%2F11%2Fpress-paid-publish-russian-dossier.html%2F\xc2\xa0\xe2\x80\xa6'
p1027
S'8:43 AM - 6 Nov 2017'
p1028
tp1029
a(S'But he wants to start a war, that is his end game. It takes the focus off the Trump Russia collusion conspiracy that he is guilty of.'
p1030
S'8:41 AM - 6 Nov 2017'
p1031
tp1032
a(S'Since the election you have done nothing but downplay trumps role with Russia, it may not mean collusion but it sure is shady'
p1033
S'8:41 AM - 6 Nov 2017'
p1034
tp1035
a(S'#1-health-care #2-environment #3-respect for women#4-bigotry#5-collusion w/russia#6-ignoring emolluments...'
p1036
S'8:40 AM - 6 Nov 2017'
p1037
tp1038
a(S"#promocave Book News Update: Vintage to Release 'Collusion,' A New Book on Trump-Russia Controversy http://bit.ly/2hKEhMk\xc2\xa0 #books"
p1039
S'8:40 AM - 6 Nov 2017'
p1040
tp1041
a(S'10 MONTHS LATER AND NO EVIDENCE OF ANY TRUMP-RUSSIA COLLUSION...THESE IDIOTS COULDNT RUN A GIRL SCOUT COOKIE DRIVE-IDIOTS! https://twitter.com/thomas1774paine/status/927553681511329793\xc2\xa0\xe2\x80\xa6'
p1042
S'8:38 AM - 6 Nov 2017'
p1043
tp1044
a(S'Stay away from real news . Stick to fake collusion in Russia'
p1045
S'8:34 AM - 6 Nov 2017'
p1046
tp1047
a(S'Trump Collusion with Russia has not withstood scrutiny, and yet here we are. This is hypocrisy at its finest.'
p1048
S'8:34 AM - 6 Nov 2017'
p1049
tp1050
a(S"And? He over-exaggerated everything. He has a big mouth. That doesn't equate to collusion with Russia"
p1051
S'8:33 AM - 6 Nov 2017'
p1052
tp1053
a(S'Flynn is next, Then Jared and Donald Jr, Session and last but not least #45. Russia Collusion!!! That\xe2\x80\x99s how America will become Great again'
p1054
S'8:29 AM - 6 Nov 2017'
p1055
tp1056
a(S'Vintage to Release \xe2\x80\x98Collusion,\xe2\x80\x99 A New Book on Trump-Russia Controversy https://www.publishersweekly.com/pw/by-topic/industry-news/promotionalss/article/75310-vintage-to-release-collusion-a-new-book-on-trump-russia-controversy.html\xc2\xa0\xe2\x80\xa6 via @publisherswkly'
p1057
S'8:28 AM - 6 Nov 2017'
p1058
tp1059
a(S"Where's the S Prosecutor and investigation of Uranium One, Clinton/ Dem corruption- collusion with Russia? Crickets from Sessions"
p1060
S'8:28 AM - 6 Nov 2017'
p1061
tp1062
a(S'Proof of Trump Collusion/Treason: Russia lawyer: Trump Jr. suggested sanctions law could be re-examined if Trump won http://thehill.com/blogs/blog-briefing-room/news/358920-russia-lawyer-trump-jr-suggested-sanctions-law-could-be-re#.WgCNWSk6juw.twitter\xc2\xa0\xe2\x80\xa6'
p1063
S'8:27 AM - 6 Nov 2017'
p1064
tp1065
a(S'Tony Podesta resigns from Podesta Group as investigators close in on Clinton-Russia collusion http://wp.me/p99CYd-Kz\xc2\xa0'
p1066
S'8:25 AM - 6 Nov 2017'
p1067
tp1068
a(S"WHAT ABOUT? WHAT ABOUT?  How about Ross's connection being suspicious, in the context of broader, documented collusion with Russia?"
p1069
S'8:24 AM - 6 Nov 2017'
p1070
tp1071
a(S'Sarah Sanders nice try, but y\xe2\x80\x99all are not going to make these 4 years because there\xe2\x80\x99s Russia Collusion with #45, just a matter of time.'
p1072
S'8:23 AM - 6 Nov 2017'
p1073
tp1074
a(S'This is much bigger&more serious than collusion.Russia funded Facebook & Twitter investments thru Kushner associate https://www.theguardian.com/news/2017/nov/05/russia-funded-facebook-twitter-investments-kushner-associate?CMP=share_btn_tw\xc2\xa0\xe2\x80\xa6'
p1075
S'8:21 AM - 6 Nov 2017'
p1076
tp1077
a(S'@CNN Russia collusion? Only you, Hollywood, and the DNC care. Please please change the record.'
p1078
S'8:21 AM - 6 Nov 2017'
p1079
tp1080
a(S'If #Hillary and #BarryO sold uranium to Russia, is #Mueller investigating them for indictments on Russia collusion?  #HamSandwich'
p1081
S'8:20 AM - 6 Nov 2017'
p1082
tp1083
a(S'@realDonaldTrump \nYou are crooked & corrupt \n& collusion with Russia  \nYou family & Admin need to Resign or be impeached! \nWe want our country back https://twitter.com/patriciameeha17/status/927359313601015808\xc2\xa0\xe2\x80\xa6'
p1084
S'8:19 AM - 6 Nov 2017'
p1085
tp1086
a(S"Stop looking back! Let both Clintons go! Look ahead! But yes, please do look back at Trump's alleged Russia collusion. #MixedSignals"
p1087
S'8:19 AM - 6 Nov 2017'
p1088
tp1089
a(S'Trump Jr Hinted at collusion=full blown liberal snowstorm. \n\nHillary ACTUALLY colluding with Russia=\xe2\x80\x9copposition research\xe2\x80\x9d\n\n#MondayMotivation'
p1090
S'8:17 AM - 6 Nov 2017'
p1091
tp1092
a(S"They are all connected2 Russia. MikeFlynn is gonna get everyone he's gonna burn down the house that the gop built. Corrupt collusion greed https://twitter.com/jeff_harsha/status/927265987690356736\xc2\xa0\xe2\x80\xa6"
p1093
S'8:13 AM - 6 Nov 2017'
p1094
tp1095
a(S'WH: \xe2\x80\x98If There Was Any Collusion With Russia, It Was Between the DNC and the Clintons\xe2\x80\x99 http://tinyurl.com/ya82dyar\xc2\xa0'
p1096
S'8:11 AM - 6 Nov 2017'
p1097
tp1098
a(S'HINTED! LOL  The real Russian collusion... Obama Admin colluded with  Russia on sale of U.S. Uranium  http://www.independentsentinel.com/bombshell-obama-admin-colluded-with-russia-on-sale-of-u-s-uranium-mine/\xc2\xa0\xe2\x80\xa6'
p1099
S'8:11 AM - 6 Nov 2017'
p1100
tp1101
a.