(lp0
(S'Dear Trump Supporters,\n"Collusion" isn\'t an actual crime, so stop trying to say Hillary "colluded".  "Conspiracy Against the U.S." is a crime and that\'s what Trump did when he "colluded" with Russia to interfere with our election!'
p1
S'2:24 PM - 16 Nov 2017'
p2
tp3
a(S"Probably the left media's biggest pot shot next to fake Russia collusion on ABC World News. All because hes... http://fb.me/AKZFwMES\xc2\xa0"
p4
S'3:59 PM - 16 Nov 2017'
p5
tp6
a(S'@NYMag I am looking forward the second CD that will include all my favorites:\nMuller Got Me\nCollusion\nImpeachment \n#Trump #Russia #ImpeachTrumphttps://twitter.com/nymag/status/931305766035836928\xc2\xa0\xe2\x80\xa6'
p7
S'3:57 PM - 16 Nov 2017'
p8
tp9
a(S"keep putting all your eggs in the Russia collusion basket. Meanwhile Trump will keep working, your greatest fear. after the tax bill is passed, people won't even hear you. words matter? No, actions speak louder than words, especially empty words"
p10
S'3:56 PM - 16 Nov 2017'
p11
tp12
a(S'COLLUSION! Paper Trail Discovered Linking The Clinton\xe2\x80\x99s to $2.85 Million From Russia http://www.libertyonenews.com/collusion-paper-trail-discovered-linking-the-clintons-to-2-85-million-from-russia/\xc2\xa0\xe2\x80\xa6'
p13
S'3:52 PM - 16 Nov 2017'
p14
tp15
a(S'Mueller Investigation Into Trump \xe2\x80\x93 Russia Collusion Is \xe2\x80\x98Fair\xe2\x80\x99 According To Voters http://crwd.fr/2zKdv0V\xc2\xa0'
p16
S'3:49 PM - 16 Nov 2017'
p17
tp18
a(S'That\xe2\x80\x99s because these are their babies. And then today to see it\xe2\x80\x99s still completely out of control, the Democrats pushing for impeachment pushing for Russia collusion pushing for everything In the extreme'
p19
S'3:48 PM - 16 Nov 2017'
p20
tp21
a(S'The investigation into Trump and his alleged collusion with Russia just took a dramatic turn. http://fb.me/2qqzrG8nF\xc2\xa0'
p22
S'3:47 PM - 16 Nov 2017'
p23
tp24
a(S'Of course, Franken has been outspoken on Sessions and other GOP issues, Trump-Russia collusion. very suspicious.'
p25
S'3:44 PM - 16 Nov 2017'
p26
tp27
a(S'Hillary Explains Why We Can\xe2\x80\x99t Investigate Her Seeming Russia Collusion https://www.independentsentinel.com/hillary-explains-why-we-cant-investigate-her-seeming-russia-collusion/\xc2\xa0\xe2\x80\xa6'
p28
S'3:44 PM - 16 Nov 2017'
p29
tp30
a(S'The Democrats and in particular Hillary, Obama, Lynch and Comey... NEED to be investigated for Russian collusion, fraud, manipulation, and in fact dozens of other felony statutes.  Its time to deport you folks... back to either Mexico, or Russia where you belong.'
p31
S'3:43 PM - 16 Nov 2017'
p32
tp33
a(S'COLLUSION: Jared Kushner failed to disclose emails sent to Trump team about WikiLeaks and Russia. http://google.com/newsstand/s/CBIwt4msljo\xc2\xa0\xe2\x80\xa6'
p34
S'3:43 PM - 16 Nov 2017'
p35
tp36
a(S'@realDonaldTrump is taking the path of demage limitation for no one other than himself.  He has been boasting about his self imagined achievements during the Asia trip. Little he knows that the Russia collusion is going to come & bite him whatever happens'
p37
S'3:42 PM - 16 Nov 2017'
p38
tp39
a(S'This info need to be tweeted and retweeted until everyone in the world knows about the trump admin\xe2\x80\x99s complicity and collusion with Russia and the subversion of the democratic US republic to the will of Putin. https://twitter.com/juliadavisnews/status/930844265038610432\xc2\xa0\xe2\x80\xa6'
p40
S'3:40 PM - 16 Nov 2017'
p41
tp42
a(S"DOUBLE STANDARDS HILLARY: U (DNC) can try 2 frame the President of collusion w/Russia; but u walk on water & investi'ng u is abusive? F off!"
p43
S'3:36 PM - 16 Nov 2017'
p44
tp45
a(S'What about those Russian sanctions you have yet to enforce? #HoldTrumpAccountableFor his very real collusion with Russia and Putin!'
p46
S'3:36 PM - 16 Nov 2017'
p47
tp48
a(S'Leftist narrative on Moore, many other issues is falling apart there is no Russia/Trump Collusion......They are sad, sad and sad. Only corruption and lies....'
p49
S'3:36 PM - 16 Nov 2017'
p50
tp51
a(S'encouraging hunters to kill animals nearing extinction is destroying ... not unlike being an accomplice to a crime ... collusion with Russia should be enough for every American to want him out of office pic.twitter.com/vo5XYiGn0B'
p52
S'3:34 PM - 16 Nov 2017'
p53
tp54
a(S'Report: Steele\'s Dossier On Trump/Russia Collusion "Up To 90% Accurate" http://fb.me/4kY1fo0ip\xc2\xa0'
p55
S'3:30 PM - 16 Nov 2017'
p56
tp57
a(S'Jared Kushner Busted For Failing To Produce Smoking Gun Emails Of Russia Collusion via @politicususahttp://www.politicususa.com/2017/11/16/jared-kushner-busted-failing-produce-emails-show-trump-camp-touch.html\xc2\xa0\xe2\x80\xa6'
p58
S'3:28 PM - 16 Nov 2017'
p59
tp60
a(S'Retweeted CSM (@usacsmret):\n\nHillary Explains Why We Can\xe2\x80\x99t Investigate Her Seeming Russia Collusion... http://fb.me/1OZkdBC5J\xc2\xa0'
p61
S'3:48 PM - 16 Nov 2017'
p62
tp63
a(S'I just can\xe2\x80\x99t tell if he is in with the Russia collusion.. or actually taking an honest approach to investigating. Seems like a little bit of both.'
p64
S'3:24 PM - 16 Nov 2017'
p65
tp66
a(S"I appreciate how you think it's conspiratorial to think the dnc docs were leaked, not hacked.  Yet it's perfectly reasonable to think Russia directed hacking against DNC in collusion with a US campaign."
p67
S'3:22 PM - 16 Nov 2017'
p68
tp69
a(S"I do not.  Once a special counsel is chosen, you will see the real Russia collusion.  Look, I don't think Trump is a great man.  But I do think he has the intentions of making our country the economic power it once was.  He is not a career politician, and that's why I voted for"
p70
S'3:21 PM - 16 Nov 2017'
p71
tp72
a(S'This is why we must #HoldTrumpAccountableFor for his collusion with Russia! https://twitter.com/senjohnmccain/status/931296384283590656\xc2\xa0\xe2\x80\xa6'
p73
S'3:20 PM - 16 Nov 2017'
p74
tp75
a(S'This is what is "going down with the ship" looks and sounds like. \nPoll: Vast majority of Trump voters say he should stay in office even if Russia collusion is proven http://thehill.com/homenews/administration/357995-dem-pollster-vast-majority-of-trump-voters-say-he-should-stay-in?platform=hootsuite\xc2\xa0\xe2\x80\xa6'
p76
S'3:17 PM - 16 Nov 2017'
p77
tp78
a(S"Incomplete? You obviously omitted this on purpose.  Are you trying to avoid prison by omitting this since it's looking like obvious collusion with Russia.  You are in BIG trouble @jaredkushner."
p79
S'3:15 PM - 16 Nov 2017'
p80
tp81
a(S'Rep. Schiff puts end to question of Trump Russia collusion http://www.msnbc.com/rachel-maddow/watch/rep-schiff-puts-end-to-question-of-trump-russia-collusion-1086684227924\xc2\xa0\xe2\x80\xa6 via @msnbc'
p82
S'3:13 PM - 16 Nov 2017'
p83
tp84
a(S"So @IvankaTrump seems U approve of @WhiteHouse staff, ur father @POTUS (for now) w/his spectacular family values stripping people's #healthcare, family separation via immigrant deportation, proven collusion w/ #Russia #pussygrabs and molestation. You have family values?\n\n#Mueller pic.twitter.com/fPGKo4kuDJ"
p85
S'3:11 PM - 16 Nov 2017'
p86
tp87
a(S'The arrogance.\n\nPlanting evidence and faking Trump Russia collusion was abuse of power by your old boss. What would be the upside\n\nOh ya, cover up your dual crime sprees. https://twitter.com/JoeFreedomLove/status/931289525447401479\xc2\xa0\xe2\x80\xa6'
p88
S'3:11 PM - 16 Nov 2017'
p89
tp90
a(S'Evidence of Trump-Russia Collusion Already Exists, Watergate Prosecutors Say - http://www.newsrepublic.net/detail/06684F078310100001_us?pid=24&referrer=200620&showall=1&mcc=310\xc2\xa0\xe2\x80\xa6'
p91
S'3:09 PM - 16 Nov 2017'
p92
tp93
a(S'He thinks he\'s getting pardoned. "Jared Kushner Busted For Failing To Produce Smoking Gun Emails Of Russia Collusion"  http://www.politicususa.com/2017/11/16/jared-kushner-busted-failing-produce-emails-show-trump-camp-touch.html\xc2\xa0\xe2\x80\xa6'
p94
S'3:04 PM - 16 Nov 2017'
p95
tp96
a(S'Theirs more proof on al franken then trump collusion with Russia  lol '
p97
S'3:01 PM - 16 Nov 2017'
p98
tp99
a(S'Harridan #Hillary Explains Why We Can\xe2\x80\x99t Investigate Her Seeming Russia Collusion\nhttp://bit.ly/2zGwfOx\xc2\xa0 #UniteBlue #Democrats #MAGA #GOP #TCOT #PJNETpic.twitter.com/hlonQ5ccd0'
p100
S'2:58 PM - 16 Nov 2017'
p101
tp102
a(S'PROOF of Hillary in collusion with Russia. You have NO proof. But Mueller does on the Trump clan. Na na na na, Na na na na, hey, hey, hey...\nADIOS!'
p103
S'2:56 PM - 16 Nov 2017'
p104
tp105
a(S'FREE eBooks Book Reviews #8: Collusion: Secret Meetings, Dirty Money, and How Russia Helped Donald Trump Win - https://1ebooks.com/books/8-collusion-secret-meetings-dirty-money-and-how-russia-helped-donald-trump-win/\xc2\xa0\xe2\x80\xa6pic.twitter.com/yswCxg758F'
p106
S'2:56 PM - 16 Nov 2017'
p107
tp108
a(S'Kushner Busted For Failing To Produce Smoking Gun Emails Of Russia Collusion #MuellerInvestigationhttp://www.politicususa.com/2017/11/16/jared-kushner-busted-failing-produce-emails-show-trump-camp-touch.html\xc2\xa0\xe2\x80\xa6'
p109
S'2:54 PM - 16 Nov 2017'
p110
tp111
a(S'-OF AFGHANISTAN OR IRAQ SO HOW THE HELL IS TRUMP GOING TO FULFILL YOUR SECULAR ILLUSION/DESIRE FOR AN ALL GERMAN WORLD AND APPEASE YOUR GUILT OF YOUR RACE MURDERING 6 MILLION OF GOD\'S PRECIOUS ISRAELITES???????\nPS COLLUSION BETWEEN TRUMP-"MEISTER" AND RUSSIA IS PROVABLE.'
p112
S'2:53 PM - 16 Nov 2017'
p113
tp114
a(S'Joy Reid Tries to Attack Trump on Russia Collusion But Fails MISERABLY http://truthfeednews.com/joy-reid-tries-to-attack-trump-on-russia-collusion-but-fails-miserably/\xc2\xa0\xe2\x80\xa6 via @truthfeednews'
p115
S'2:53 PM - 16 Nov 2017'
p116
tp117
a(S'Less than the leaks coming from @realDonaldTrump investigation on Russia Collusion! #PlugTheLeak #MAGA #DrainTheWashingtonPipeline'
p118
S'2:52 PM - 16 Nov 2017'
p119
tp120
a(S"It becomes more and more apparent that Jared Kushner may be the cornerstone of @potus Russia collusion. Why do Ivanka and him still have security clearance? Nepotism may be Trump's downfall. https://twitter.com/tedlieu/status/931261817392840704\xc2\xa0\xe2\x80\xa6"
p121
S'2:51 PM - 16 Nov 2017'
p122
tp123
a(S'Jared Kushner failed to disclose emails sent to Trump team about #WikiLeaks and #Russia - the guardian #Collusion https://apple.news/ADjmxVTBpMOmZsANwle6yHA\xc2\xa0\xe2\x80\xa6'
p124
S'2:50 PM - 16 Nov 2017'
p125
tp126
a(S'DNC party of Corruption Greed Degenerates pedophiles KKK hypocrites RUSSIA collusion ISIS'
p127
S'2:47 PM - 16 Nov 2017'
p128
tp129
a(S"@USAGSessions AG Sessions, when 1st Appointed as AG, I was excited; BUT, you're a BIG Disappointment! You're Allowing Crime in GOVERNMENT to run rampant. Russia Collusion? Hillary & Obama are GUILTY, Why no investigation?"
p130
S'2:47 PM - 16 Nov 2017'
p131
tp132
a(S"Yes well Russia collusion has been proven debunked but you guys don't stop. And for the record she has done many things that deserve to have her locked up."
p133
S'2:47 PM - 16 Nov 2017'
p134
tp135
a(S'COLLUSION WITH RUSSIA =TRAITOR TO AMERICA =TREASON =A BUNCH ON THE HILL. ARREST THESE TREASONOUS , TRAITORS TO AMERICA NOW !!!! TRAITORS ARE NOT AMERICANS'
p136
S'2:46 PM - 16 Nov 2017'
p137
tp138
a(S'Special Treatment: #HillaryClinton says investigating her for #UraniumOne #Russia collusion is "abuse of power" http://ow.ly/blDO30gD5KR\xc2\xa0'
p139
S'2:45 PM - 16 Nov 2017'
p140
tp141
a(S'Liberal Hypocriptes  DNC party of Corruption Greed Degenerates pedophiles KKK hypocrites RUSSIA collusion ISIS'
p142
S'2:44 PM - 16 Nov 2017'
p143
tp144
a(S"You're not very bright if you think the Russia collusion is connected to Prez Trump.That bitch Hillary sold the security of US citizens! She(& 9 others) allowed 20% of US uranium to be sold to Russia! She received $145MILLION into her piggy bank. Aka:the Clinton Foundation!  https://twitter.com/thelast_try/status/931289447819292672\xc2\xa0\xe2\x80\xa6"
p145
S'2:43 PM - 16 Nov 2017'
p146
tp147
a(S'How Trump walked into Putin\xe2\x80\x99s web https://www.theguardian.com/news/2017/nov/15/how-trump-walked-into-putins-web-luke?CMP=share_btn_tw\xc2\xa0\xe2\x80\xa6 #Trump #Russia #Putin #Collusion #Wikileaks #Brexit'
p148
S'2:42 PM - 16 Nov 2017'
p149
tp150
a(S"You didn't answer Eric's question and do you think Mueller is looking for ANYTHING he could possibly find to nail DJT to a wall? The only collusion found has been with Dems and Russia, so the investigation should have concluded. Wonder why it hasn't? Any thoughts Randie?"
p151
S'2:41 PM - 16 Nov 2017'
p152
tp153
a(S'Republicans are focused on trying to get ObamaCare failing and a monster tax cut for their donors so they have campaign $$ & keep their seats in 2018. A little collusion-Russia this-that-conflicts of interests, etc need to take a back seat to taking away health Ins, SS & Medicare'
p154
S'2:40 PM - 16 Nov 2017'
p155
tp156
a(S"He's a scrapper you will not take him down easy. May just pull more votes on that alone. What a mess! Reminds me of Mother Russia Collusion !"
p157
S'2:38 PM - 16 Nov 2017'
p158
tp159
a(S'"The administration is falling apart, Sessions is being torn to shreds in hearings, everyone is being caught with collusion to Russia, and-"\n\n*slurp slurp* "Trump!" *slurp* "Winning!" *gag* "It\'s like a salty Cheeto!"\n\nI hate me sometimes'
p160
S'2:37 PM - 16 Nov 2017'
p161
tp162
a(S'Hillary Explains Why We Can\xe2\x80\x99t Investigate Her Seeming Russia Collusion http://www.independentsentinel.com/hillary-explains-why-we-cant-investigate-her-seeming-russia-collusion/\xc2\xa0\xe2\x80\xa6 Hillary has too many non-functioning brain cells.'
p163
S'2:35 PM - 16 Nov 2017'
p164
tp165
a(S'10 months and no proof of collusion with Russians except for Hillary selling 20 percent of our country\xe2\x80\x99s uranium assets and suddenly invited to Russia to give 15 minute speeches for 600 mil a pop and a generous donation by the owner of the Russian company of 160 mil to foundation'
p166
S'2:30 PM - 16 Nov 2017'
p167
tp168
a(S'If trump were paid 12 millions dollars to an israeli mossad agent to get dirt on hilary from Russian sources, would that will be Ok with #CNN or #Muller ?\nThis is pure collusion \n\nFor One side it ok to get dirt from Russia & to the other side it isn\xe2\x80\x99t?\n\nMADNESS \n\n#maga #FoxNews'
p169
S'2:26 PM - 16 Nov 2017'
p170
tp171
a(S"Let's not even count the millions spent on Russia collusion Delusion! https://twitter.com/ToscaAusten/status/931286045848752128\xc2\xa0\xe2\x80\xa6"
p172
S'2:25 PM - 16 Nov 2017'
p173
tp174
a(S'How many years do you think you will get for collusion with Russia?'
p175
S'2:24 PM - 16 Nov 2017'
p176
tp177
a(S'Here, let me make your day right here: Trump, Russia, Possible Collusion (REMIX) https://youtu.be/lw2BVI9OhC4\xc2\xa0 @realDonaldTrump #HillaryClinton #TrumpRussia'
p178
S'2:24 PM - 16 Nov 2017'
p179
tp180
a(S'@SethAbramson (h/t DM): Sessions Revealed Under Oath That Papadopoulos Offered to NEGOTIATE with Russia, not Just Set a Meeting: https://www.c-span.org/video/?c4692316/raskinsessionsrussia\xc2\xa0\xe2\x80\xa6\n\n(This confirms claims\xe2\x80\x94made here and elsewhere\xe2\x80\x94that Team Trump collusion focused on secret sanctions negotiations with Russia.)'
p181
S'2:23 PM - 16 Nov 2017'
p182
tp183
a(S'DNC party of Corruption Greed Degenerates pedophiles KKK hypocrites RUSSIA collusion ISIS'
p184
S'2:18 PM - 16 Nov 2017'
p185
tp186
a(S'Well Hope Mueller caught Jeff Sessions admit Collusion with Russia.  No wonder why NO SANCTIONS have been inforced!'
p187
S'2:17 PM - 16 Nov 2017'
p188
tp189
a(S'Jared Kushner Busted For Failing To Produce Smoking Gun Emails Of Russia Collusion http://ift.tt/2hEVR7M\xc2\xa0'
p190
S'2:17 PM - 16 Nov 2017'
p191
tp192
a(S'Hope Hicks has "served\xc2\xa0as a key witness to many of President Donald Trump\xe2\x80\x99s fiascos and controversies\xe2\x80\x94especially when it comes to the allegations" of collusion (conspiracy) with Russia. #kremlingatehttp://www.newsweek.com/mueller-trump-hicks-713318?amp=1\xc2\xa0\xe2\x80\xa6'
p193
S'2:16 PM - 16 Nov 2017'
p194
tp195
a(S'THE EX-SPY BEHIND THE TRUMP-RUSSIA DOSSIER LEFT A CLUE FOR MUELLER\nChristopher Steele told a reporter that one real-estate deal might be key to understanding the collusion case.\n\nhttps://www.vanityfair.com/news/2017/11/christopher-steele-robert-mueller-trump-russia-dossier?mbid=nl_CH_5a0dc781206b756de7931258&CNDID=24404548&spMailingID=12376014&spUserID=MTk2NzA2ODA1MDU5S0&spJobID=1281540201&spReportId=MTI4MTU0MDIwMQS2\xc2\xa0\xe2\x80\xa6https://twitter.com/gdegaston/status/931284241576427520\xc2\xa0\xe2\x80\xa6'
p196
S'2:15 PM - 16 Nov 2017'
p197
tp198
a(S"OK, the Democrats who own the Democratic party hate him. Because he's with the 99% and they're with the 1%. You know, they're the same people who are pushing the Russia collusion fake news thing."
p199
S'2:12 PM - 16 Nov 2017'
p200
tp201
a(S'Dems: Russia Collusion\nTrump: I have nothing to hide.\nRepubs: Uranium One\nHillary: "abuse of power", "unfairly, fraudulently investigated" https://twitter.com/willbarrett_1/status/931279480240271360\xc2\xa0\xe2\x80\xa6'
p202
S'2:12 PM - 16 Nov 2017'
p203
tp204
a(S'Jared Kushner Busted For Failing To Produce Smoking Gun Emails Of Russia Collusion via @politicususa http://www.politicususa.com/2017/11/16/jared-kushner-busted-failing-produce-emails-show-trump-camp-touch.html\xc2\xa0\xe2\x80\xa6 #p2 #ctl'
p205
S'2:10 PM - 16 Nov 2017'
p206
tp207
a(S'Well, so far we\xe2\x80\x99ve established you\xe2\x80\x99re a fan of both sexual assault and collusion with Russia. Wanna defend Roy Moore while you\xe2\x80\x99re at it?'
p208
S'2:10 PM - 16 Nov 2017'
p209
tp210
a(S'Mueller is lazer focused on Russia Collusion so,it leaves the rest of us free to multitask our concerns and rage over everything else.I just wish Mueller was moving faster than he alrwady is.'
p211
S'2:08 PM - 16 Nov 2017'
p212
tp213
a(S'#HOLDTRUMPACCOUNTABLEFOR\n-NEPOTISM\n-EMOLLUMENTS\n-SEXUALPREFATION\n-BEING AN EFFING MORON\n-COLLUSION WITH RUSSIA\n-TAX EVASION\n-CORRUPT ADMINISTRATION\n-HIS OWN FRAUD AND CORRUPTION\n-HABITUAL LIAR'
p214
S'2:06 PM - 16 Nov 2017'
p215
tp216
a(S"As with the claims, and the brains, of Farage and his imbecile followers, Trump's claims of Clinton-Russia Uranium collusion are a real empty barrel...no surprises there!  \nhttp://www.forbes.com/sites/jamesconca/2017/10/27/claims-of-clinton-russia-uranium-scandal-are-a-real-empty-barrel/#5104d0a07b55\xc2\xa0\xe2\x80\xa6"
p217
S'2:03 PM - 16 Nov 2017'
p218
tp219
a(S'Where is any evidence or proof? I can call Tammy Pearce a child molester and rapist, does that make you one They been investigating "Russia collusion" for so many months and all they charged is couple of the ppl on totally unrelated charges.'
p220
S'2:02 PM - 16 Nov 2017'
p221
tp222
a(S'YUP I smell collusion\n\nUranium One was authorized to work in the US by Trump\xe2\x80\x99s US Ambassador to Russia Jon Huntsman when he was Governor of Utah in 2008'
p223
S'2:02 PM - 16 Nov 2017'
p224
tp225
a(S'I think we need a SC to investigate Schiffty, he was told by Comey in Jan there was no Trump/Russia collusion and he\xe2\x80\x99s been lying about it ever since what a POS  https://twitter.com/sunrise51052/status/931266777190825984\xc2\xa0\xe2\x80\xa6'
p226
S'2:01 PM - 16 Nov 2017'
p227
tp228
a(S'Top Trump/Russia collusion crushes (no order):@selectedwisdom, @RepAdamSchiff , @AshaRangappa_, @NatashaBertrand , @renato_mariotti , @sarahannsays Thanks for always crushing it.'
p229
S'2:01 PM - 16 Nov 2017'
p230
tp231
a(S'This really needs to be looked in to I smell collusion \n\nUranium One was authorized to work in the US by Trump\xe2\x80\x99s US Ambassador to Russia Jon Huntsman when he was Governor of Utah in 2008'
p232
S'2:01 PM - 16 Nov 2017'
p233
tp234
a(S'Hillary Explains Why We Can\xe2\x80\x99t Investigate Her Seeming Russia Collusion http://www.independentsentinel.com/hillary-explains-why-we-cant-investigate-her-seeming-russia-collusion/\xc2\xa0\xe2\x80\xa6pic.twitter.com/7OsToKeXiW'
p235
S'1:59 PM - 16 Nov 2017'
p236
tp237
a(S"Both were awful candidates, I mean let's presume that the Russia collusion is true, in that case both of them massively harmed democracy in the US since she rigged the primaries."
p238
S'1:57 PM - 16 Nov 2017'
p239
tp240
a(S'Yep, that\xe2\x80\x99s what all those Trump campaign/family members were talking to Russia about: Hot Dems collusion goss. '
p241
S'1:54 PM - 16 Nov 2017'
p242
tp243
a(S"No it hasn't been debunked. Let's investigate and see where the facts lead. Amazes me how intense the scrutiny is on Trump which there's a  total lack of curiosity about Hillary's Russia collusion."
p244
S'1:54 PM - 16 Nov 2017'
p245
tp246
a(S'Retweeted Jared Yates Sexton (@JYSexton):\n\nThe bigger question is who in the Trump Campaign wasn\xe2\x80\x99t involved in collusion with Russia.'
p247
S'1:54 PM - 16 Nov 2017'
p248
tp249
a(S"@realDonaldTrump 'FIRST, IT WAS TRUMP RUSSIA COLLUSION-THERE IS NO EVIDENCE TO BACK THAT UP=BUT, THERE IS EVIDENCE AGAINST THE DEMOCRATS & HILLARY RUSSIA COLLUSION. 2ND= AL FRANKEN ATTACKING TRUMP= NOW, IT LOOKS LIKE HE MIGHT HAVE 2 STEP DOWN BECAUSE OF SEXUAL ASSAULT.  (KARMA) pic.twitter.com/aOSEydWr08"
p250
S'1:52 PM - 16 Nov 2017'
p251
tp252
a(S'My guess is he knows more about a lot of things, Lord knows how many reflect badly on him. I believe he\xe2\x80\x99s spent the last year covering up Obama/Hillary misdeeds, under cover of looking for non-existent Trump collusion with Russia. Time will tell if I\xe2\x80\x99m wrong.'
p253
S'1:51 PM - 16 Nov 2017'
p254
tp255
a(S'BREAKING NEWS (h/t DM): Sessions Revealed Under Oath That Papadopoulos Offered to NEGOTIATE with Russia, not Just Set a Meeting: https://www.c-span.org/video/?c4692316/raskinsessionsrussia\xc2\xa0\xe2\x80\xa6\n\n(This confirms claims\xe2\x80\x94made here and elsewhere\xe2\x80\x94that Team Trump collusion focused on secret sanctions\xe2\x80\xa6 pic.twitter.com/v75ArhxeDM'
p256
S'1:51 PM - 16 Nov 2017'
p257
tp258
a(S"haha ... debunking the fabricated uranium story has you Trumptard liars really upset doesn't it?  Meanwhile Trump collusion with Russia is still a fact."
p259
S'1:51 PM - 16 Nov 2017'
p260
tp261
a(S'More Trump/Russia collusion https://twitter.com/thehill/status/931249290755833857\xc2\xa0\xe2\x80\xa6'
p262
S'1:49 PM - 16 Nov 2017'
p263
tp264
a(S"You read the Steele dossier; you know of Trump's collusion with Russia, you know the 2016 election was rigged. Check the madness: Vote No on this mockery of #GOPTax bill. The American people deserve a better government than we now have. @SenJohnMcCainhttps://twitter.com/thedailyedge/status/931261625578983425\xc2\xa0\xe2\x80\xa6"
p265
S'1:49 PM - 16 Nov 2017'
p266
tp267
a(S"It's believable. The unbelievable part is that the Obama administration and our former agency heads are not being investigated for Russia collusion, but Trump is."
p268
S'1:48 PM - 16 Nov 2017'
p269
tp270
a(S'Sessions has access to More Evidence than me& the Evidence I have  seen over the past few years on Demos Blows any "Russia Collusion" BS out of the Water. Sessions himself ADMITTED Mueller is Precedent. Yet Sessions tells Congress Mueller is Justified but no "Factual Basis" 4Hill'
p271
S'1:47 PM - 16 Nov 2017'
p272
tp273
a(S'All well known before the vote. As was his racism, hatred of what men and collusion with Russia.'
p274
S'1:45 PM - 16 Nov 2017'
p275
tp276
a(S"If you don't see who Trump and Moore are, then you are so biased you are willfully blind.\n\nREAD the accounts of the women. Investigate the evidence. Same with Russia collusion. If you aren't seeing it, it is because you haven't taken the time to weigh the evidence."
p277
S'1:44 PM - 16 Nov 2017'
p278
tp279
a(S"And Russia collusion  is just allegations too.... with about as much evidence... but I bet u think trump is guilty.... so.... if u do, that's #hypocrisy"
p280
S'1:44 PM - 16 Nov 2017'
p281
tp282
a(S'#Russia #Collusion #Sessions #Papadopouloshttps://twitter.com/SethAbramson/status/931273196187287552\xc2\xa0\xe2\x80\xa6'
p283
S'1:43 PM - 16 Nov 2017'
p284
tp285
a(S"Russia. Russia. Russia. Oh libtards, get some new news.  Is Russian Money Funding Trump's Defense Against Collusion Charges? http://n.mynews.ly/!EB.HUfdz\xc2\xa0 via @NewsRepublic"
p286
S'1:43 PM - 16 Nov 2017'
p287
tp288
a(S'There is no Trump collusion with Russia so get over it. But there is 145 million deposited into the Clinton Foundation. Pay to play'
p289
S'1:43 PM - 16 Nov 2017'
p290
tp291
a(S'The Ex-Spy Behind the Trump-Russia Dossier Left a Clue for Mueller Christopher Steele told a reporter that one real-estate deal might be key to understanding the collusion case https://www.vanityfair.com/news/2017/11/christopher-steele-robert-mueller-trump-russia-dossier\xc2\xa0\xe2\x80\xa6'
p292
S'1:43 PM - 16 Nov 2017'
p293
tp294
a(S"Bad Franken joke not=to Roger Stone's collusion with Russia"
p295
S'1:42 PM - 16 Nov 2017'
p296
tp297
a(S'What more evidence of Trump-Russia collusion do you need? \n\n#TrumpRussiaConspiracy\n#TrumpRussiaCollusionhttp://www.chicagotribune.com/news/opinion/commentary/ct-trump-russia-collusion-wikileaks-20171114-story.html\xc2\xa0\xe2\x80\xa6'
p298
S'1:41 PM - 16 Nov 2017'
p299
tp300
a(S"It's not you. Dems as a group, or as individuals,  do nothing but project their crimes onto others. ALWAYS, what they accuse others of, they are doing. Russia collusion,  for example..."
p301
S'1:38 PM - 16 Nov 2017'
p302
tp303
a(S'#RUSSIA #COLLUSION #COVERUPhttps://twitter.com/SethAbramson/status/931273729556041728\xc2\xa0\xe2\x80\xa6'
p304
S'1:37 PM - 16 Nov 2017'
p305
tp306
a(S'#RUSSIA #COLLUSION #COVERUP \nAG Sessions, part of the Trump Reich OFFICIAL POLICY to lie to citizens always about everything, lost track of his lies and denials, and revealed one step in the deliberate collusion to have Russia affect our election on behalf of Trump. https://twitter.com/SethAbramson/status/931273196187287552\xc2\xa0\xe2\x80\xa6'
p307
S'1:37 PM - 16 Nov 2017'
p308
tp309
a(S"Christopher Steele says multiple investigations should prove that his dossier on Donald Trump's connections to Russia is 70% to 90% correct. http://www.washingtontimes.com/news/2017/nov/16/christopher-steele-former-british-spy-behind-trump/\xc2\xa0\xe2\x80\xa6 #Collusion pic.twitter.com/6Ytyv5MXnH"
p310
S'1:34 PM - 16 Nov 2017'
p311
tp312
a(S'Hey @HillaryClinton but paying to fabricate #Fake Trump/Russia collusion to use to investigate your opponent in the presidential election is the work of someone who loves democracy? https://twitter.com/Juliet777777/status/931272494039777280\xc2\xa0\xe2\x80\xa6'
p313
S'1:32 PM - 16 Nov 2017'
p314
tp315
a(S"!She belongs in Jail..RACE BAITER maybe she is one of the indictments...misuse of funds..on Husband's bank connections..misuse of funds for daughter...AND RUSSIAN TIES! COLLUSION? She has her retirement $ tied to Russia! SHE IS DIRTY. https://twitter.com/RightWingAngel/status/930890416412610566\xc2\xa0\xe2\x80\xa6"
p316
S'1:31 PM - 16 Nov 2017'
p317
tp318
a(S'BREAKING NEWS (h/t DM): Sessions Revealed Under Oath That Papadopoulos Offered to NEGOTIATE with Russia, not Just Set a Meeting: https://www.c-span.org/video/?c4692316/raskinsessionsrussia\xc2\xa0\xe2\x80\xa6\n\n(This confirms claims\xe2\x80\x94made here and elsewhere\xe2\x80\x94that Team Trump collusion focused on secret sanctions negotiations with Russia.) pic.twitter.com/H379eADLTX'
p319
S'1:30 PM - 16 Nov 2017'
p320
tp321
a(S"Why don't you and your old man do the right thing and 'fess up to your collusion with Russia? Traitors. #MuellerIsComingForYou"
p322
S'1:29 PM - 16 Nov 2017'
p323
tp324
a(S'#FakeNews CNN did this a while back; odd how Collusion with Russia only approved when #msm does it?https://twitter.com/tankmanbrad/status/817285698994642944\xc2\xa0\xe2\x80\xa6'
p325
S'1:28 PM - 16 Nov 2017'
p326
tp327
a(S'If he supports tax cuts for the rich,collusion with russia and white supremacy,the #gop would break laws to get him into office.https://twitter.com/jeremynewberger/status/930977856410341376\xc2\xa0\xe2\x80\xa6'
p328
S'1:27 PM - 16 Nov 2017'
p329
tp330
a(S'Except there is actual proof of bribes, kickbacks and money laundering.  There was in fact a deal that HRC approved that benefited her foundation.  Bill Clinton was paid $500,000 for a speech by Russia.  RT spent 1/5 of that on ads and you say collusion...'
p331
S'1:25 PM - 16 Nov 2017'
p332
tp333
a(S'White House: @realDonaldTrump "firmly believes" there was collusion between Russia, Democrats - just doesn\'t want to bring it up with Putin. pic.twitter.com/wU6DmLNjRP'
p334
S'1:22 PM - 16 Nov 2017'
p335
tp336
a(S"Is the investigation of alleged collusion between POTUS & Russia a politicization of the election system? Did Donald endanger our Nation's safety for a $145M? Has he ever assassinated a witness and made it look like a suicide?"
p337
S'1:20 PM - 16 Nov 2017'
p338
tp339
a(S'This ones Easy, Russia can control Assad so therefore You must of Discussed it with Russian President Putin, during your trip. Among other things you spoke of.#COLLUSION https://twitter.com/realDonaldTrump/status/931223807037263873\xc2\xa0\xe2\x80\xa6'
p340
S'1:19 PM - 16 Nov 2017'
p341
tp342
a(S'Amused by the stumping of Press Secretary when questioned if POTUS takes Putin at face value he didn\xe2\x80\x99t meddle... why push collusion story of Dems and Russia? #GOPlogic #hypocrisy #AxisofEvil'
p343
S'1:14 PM - 16 Nov 2017'
p344
tp345
a(S'Stop with the distraction. Keep the eyes on the Russia collusion investigation, people. pic.twitter.com/uYo9HNApLv'
p346
S'1:13 PM - 16 Nov 2017'
p347
tp348
a(S"Sorry but I think you're brainwashed  & unpatriotic if you can't acknowledge Trumps collusion w Russia while also being skeptical of Hillary."
p349
S'1:10 PM - 16 Nov 2017'
p350
tp351
a(S'Bruh, everyone knows there\xe2\x80\x99s was collusion between Trump and Russia. Why are people surprised that details continue to surface?'
p352
S'1:10 PM - 16 Nov 2017'
p353
tp354
a(S'Silly question probably, but if Trump thinks there was Democrat "collusion" with Russia...why is he still defending Putin? I know. I know. Dumb question.'
p355
S'1:09 PM - 16 Nov 2017'
p356
tp357
a(S"@POTUS So now we're encouraging idiots like your son, Donald Jr to pay to slay helpless and endangered elephants just to distract from Russia.  It's more and more obvious that collusion happened.  Can't wait for 2018 and the big impeachment party. Just what a LOSER like you gets"
p358
S'1:09 PM - 16 Nov 2017'
p359
tp360
a(S'Meanwhile.....Mueller just filed sealed charges against SEVEN new defendants in is investigation of Trumps collusion with Russia!'
p361
S'1:09 PM - 16 Nov 2017'
p362
tp363
a(S'Yeah there\xe2\x80\x99s a picture! Can\xe2\x80\x99t deny that! Also saw for 20 yrs Dems support Clintons as Bill raped women & HRC called them desperate! Saw Dems pay for Fusion, Obama getting FISA based on fake dossier!Saw collusion Bill getting $500k speech in Russia uranium deal $145m to HRC!! We c'
p364
S'1:08 PM - 16 Nov 2017'
p365
tp366
a(S"The Russian collusion is Trumps. Don't dismiss that fiasco. As for hillary, almost certainly primary election fraud and perhaps Russia. That's up in the air."
p367
S'1:07 PM - 16 Nov 2017'
p368
tp369
a(S'SHS made me laugh out loud, president definitely believes their was Russian collusion in the election between the democrats and russia!!! Bwaahahahaha'
p370
S'1:06 PM - 16 Nov 2017'
p371
tp372
a(S'Author of the Trump-Russia Dossier Left a Clue for Mueller. One real-estate deal might be key to the collusion case https://apple.news/AG1-b-3tuTYufKwpmdvgjag\xc2\xa0\xe2\x80\xa6'
p373
S'1:05 PM - 16 Nov 2017'
p374
tp375
a(S'There was collusion alright - between Donald Trump & Russia\nPutin owns Donald Trump\n#PutinsPuppet\n#TrumpTraitor\n#TrumpRussiaConspiracy\n@realDonaldTrump @POTUS @IvankaTrump @DonaldJTrumpJr @PRyan @SenateMajLdr @GOP'
p376
S'1:05 PM - 16 Nov 2017'
p377
tp378
a(S'I think Jared should have had his security clearance removed when it became common knowledge that he wanted to set up a back channel w the Russians in the Russian embassy!!! I mean....who recommends such a thing? Someone that is in collusion w Russia trying to circumvent USA IC!'
p379
S'1:05 PM - 16 Nov 2017'
p380
tp381
a(S'Clintons obama mueller and all others who signed off on this or benefitted from the collusion with Russia need to be held accountable https://twitter.com/judgejeanine/status/931254531954020358\xc2\xa0\xe2\x80\xa6'
p382
S'1:03 PM - 16 Nov 2017'
p383
tp384
a(S"@realDonaldTrunp killing helpless and endangered elephants won't distract us from Russia collusion, Just shows what an ass you are. Sad! Bigly Sad!"
p385
S'1:02 PM - 16 Nov 2017'
p386
tp387
a(S"The important thing to remember is that the Trump-Russia collusion was CONSENSUAL, so it's fine."
p388
S'1:02 PM - 16 Nov 2017'
p389
tp390
a(S'Corrupt lying sick Hillary is NEXT! What are you afraid of Hillary? You seem a bit nervous there granny.. #RuleOfLaw #UraniumOne #LockHerUP! #Russia Collusion Clinton Foundation prosecute the Clintons!'
p391
S'1:01 PM - 16 Nov 2017'
p392
tp393
a(S'this is the Russia collusion they have been looking for. Will be superstitious if it is not investigated of a cover up https://twitter.com/FoxNews/status/931119660552011777\xc2\xa0\xe2\x80\xa6'
p394
S'1:01 PM - 16 Nov 2017'
p395
tp396
a(S'@GOPoversight stop wasting our tax money investing conspiracy just because @POTUS son\xe2\x80\x99s collusion with Russia.'
p397
S'12:59 PM - 16 Nov 2017'
p398
tp399
a(S"You keep changing the subject.  1st from meddling to collusion, & now from debating what's true to debating how truth is used.  Russia meddled in the election.  We have no evidence, not a single shred, to support the notion that it was someone else. HRC didnt steal her own emails"
p400
S'12:53 PM - 16 Nov 2017'
p401
tp402
a(S'What more evidence of Trump-Russia collusion do you need?: opinion  -\n Jennifer Rubin - https://www.thestar.com/news/world/2017/11/14/what-more-evidence-of-trump-russia-collusion-do-you-need-opinion.html\xc2\xa0\xe2\x80\xa6 via @torontostar'
p403
S'12:47 PM - 16 Nov 2017'
p404
tp405
a(S'"The Russian Backdoor Overture" is a decent name for a spy novel. http://uk.businessinsider.com/jared-kushner-emails-russia-backdoor-feinstein-grassley-2017-11?r=US&IR=T\xc2\xa0\xe2\x80\xa6 \xe2\x80\xa2 #Conspiracy \xe2\x80\xa2 #Collusion \xe2\x80\xa2 #RussiaGate \xe2\x80\xa2 #Russia \xe2\x80\xa2 #Putin \xe2\x80\xa2 #Trump \xe2\x80\xa2 #Kushner \xe2\x80\xa2'
p406
S'12:47 PM - 16 Nov 2017'
p407
tp408
a(S'Commentary: What more evidence of Trump-Russia collusion do you need? - Jennifer Rubin - \nhttp://www.chicagotribune.com/news/opinion/commentary/ct-trump-russia-collusion-wikileaks-20171114-story.html\xc2\xa0\xe2\x80\xa6'
p409
S'12:42 PM - 16 Nov 2017'
p410
tp411
a(S'It is long past time to #HoldTrumpAccountableFor\npussygrabbing\nlying\ncollusion with Russia\nRICO\nWitness intimidation/tampering\nmore lying'
p412
S'12:41 PM - 16 Nov 2017'
p413
tp414
a(S'So-called Trump-Russia collusion, evidence of which they have NOT been able to find in over a YEAR of searching, is NOT a crime. Otherwise Obama would be jail for colluding with the Israeli Likud Party against Netanyahu.\n\nBut we got LOTS of evidence on Dems Colluding with Russia! pic.twitter.com/zJWvPM5acH'
p415
S'12:40 PM - 16 Nov 2017'
p416
tp417
a(S'1. James Comey wasn\'t fired because he was investigating President Trump\'s "collusion" with Russia. President Trump fired him because Comey didn\'t charge Hillary Clinton after a very clear obstruction of justice when she deleted over 30,000 emails. Comey wasn\'t fit to serve.'
p418
S'12:38 PM - 16 Nov 2017'
p419
tp420
a(S'@SenateMajLdr Good for calling to investigate Franken. Now about Russia collusion and Trump\xe2\x80\x99s sexual predation...where\xe2\x80\x99s YOUR investigation?'
p421
S'12:38 PM - 16 Nov 2017'
p422
tp423
a(S'This is the real Russian collusion- The Clintons were bribed to send 20% of our Uranium by a devious route to Russia!'
p424
S'12:37 PM - 16 Nov 2017'
p425
tp426
a(S"And if you think they're all involved, I don't know what to say. The collusion was between the Trump campaign and Russia. There's no credible evidence linking Sanders or Stein to Putin."
p427
S'12:35 PM - 16 Nov 2017'
p428
tp429
a(S"Lol Imagine still not believing Trump Russia collusion is real!  holy shit. Yeah, everton don't get relegated either, absolutely not concerned on that front. Nice try deflecting from your heroically stupid statement though."
p430
S'12:34 PM - 16 Nov 2017'
p431
tp432
a(S"O.K. I'm calling it. We're in the middle of yet another coup attempt. Russia collusion failed. Now they'll try to get Trump out for sexual assault. 1/ \n\nhttp://www.cnn.com/2017/11/16/politics/george-h-w-bush-accuser-1992/index.html\xc2\xa0\xe2\x80\xa6"
p433
S'12:32 PM - 16 Nov 2017'
p434
tp435
a(S'The bigger question is who in the Trump Campaign wasn\xe2\x80\x99t involved in collusion with Russia.'
p436
S'12:27 PM - 16 Nov 2017'
p437
tp438
a(S'when is Obama going to bring his sealed documents out for people to http://see.You\xc2\xa0 hate the president is the only reason your doing this.He pays 33 percent in taxes.Clinton selling uranium to Russia thats collusion.We hope to see you step down'
p439
S'12:26 PM - 16 Nov 2017'
p440
tp441
a(S"Lol another liberal who still believes in the trump Russia collusion. It's already been a year and the FBI still hasn't found any evidence. But I'll let you enjoy your nothing burger."
p442
S'12:26 PM - 16 Nov 2017'
p443
tp444
a(S'we wanted to investigate Russia collusion , well here it is , plus investigate the e-mails , Benghazi, and sever https://twitter.com/FoxNews/status/931146330508005376\xc2\xa0\xe2\x80\xa6'
p445
S'12:26 PM - 16 Nov 2017'
p446
tp447
a(S'No @HillaryClinton @POTUS is trying to keep another campaign promise \njustice for \nBENGAZI \nYour many lies\n        Email server\n        Classified emails\n         BENGAZI video\nYour corrupt foundation \nYour collusion with Russia \nAND SO ON........... https://twitter.com/newsweek/status/931154949341401088\xc2\xa0\xe2\x80\xa6'
p448
S'12:25 PM - 16 Nov 2017'
p449
tp450
a(S"It's time for @HillaryClinton and @johnpodesta to answer for their crimes including collusion with Russia. The entire time @CNN knew it was her but continued to try to influence the election against Trump so the emails never saw the light of day. Judgement is coming for her.https://twitter.com/JudicialWatch/status/931254490514231297\xc2\xa0\xe2\x80\xa6"
p451
S'12:20 PM - 16 Nov 2017'
p452
tp453
a(S'Seriously? I thought Russia was like Evil Incarnate. The losing party is prosecuting the winning party now vis a vis the fake dossier which led to the current investigation. With no evidence of collusion.'
p454
S'12:18 PM - 16 Nov 2017'
p455
tp456
a(S'RUSSIA collusion , seems she is a little worried https://twitter.com/FoxNews/status/931170846932074497\xc2\xa0\xe2\x80\xa6'
p457
S'12:14 PM - 16 Nov 2017'
p458
tp459
a(S'Kinda like you clowns on Hillary Russia collusion. Not a word. Amazing you could call Trump@out in that. Hypocrites.'
p460
S'12:11 PM - 16 Nov 2017'
p461
tp462
a(S"Between Trump's crime family's collusion with Russia & the DNC rigging\nAmericans demand the election be declared invalid & a new special election! \n@GOP has committed political suicide by backing a corrupt traitorous madman\nTime the flush the @GOP & Trump!pic.twitter.com/0sUaouXSJg"
p463
S'12:07 PM - 16 Nov 2017'
p464
tp465
a(S'Your so sure of that? But Trump collusion with Russia is true right? We have all seen more proof of Hillary crimes then Trumps collusion.'
p466
S'12:04 PM - 16 Nov 2017'
p467
tp468
a(S"It's called Statute of limitations my friend. This is just a way for the #Demoroids to try and take down an honest man. Kind of like the special counsel led by Crooked Mueller that has found Zero in Russia collusion. Some Losers like the one who bought the Dem party. HilLary dog."
p469
S'12:02 PM - 16 Nov 2017'
p470
tp471
a(S'"Time in the barrel"? Sound familiar? Anyone who thinks that Roger Stone isn\'t right smack in the middle of the trump/russia collusion scandal needs a check up from the neck up.  It\'s what Stone said about Podesta before WikiLeaks happened. https://twitter.com/StoneColdTruth/status/931042351459504128\xc2\xa0\xe2\x80\xa6'
p472
S'12:02 PM - 16 Nov 2017'
p473
tp474
a(S'It so funny how the left is so accepting when its one of their own. Just like collusion Russia by the Clinton campaign. They say that was just opposition research. Don Jr. has a meeting with a lawyer, gets nothing from it, according to the left he should be arrested. HYPOCRITES!!'
p475
S'12:00 PM - 16 Nov 2017'
p476
tp477
a(S"Go back to feuding with pedophiles in Alabama. While normally all this should have attention, it's obvious he's just targeting Dem senators today. If Mitch wants an investigation, there's a probe into Russia collusion that's digging up a lot"
p478
S'11:59 AM - 16 Nov 2017'
p479
tp480
a(S'There was no Russia/Trump collusion, the investigations by Mueller are going elsewhere.   Wait and see.'
p481
S'11:55 AM - 16 Nov 2017'
p482
tp483
a(S'If Trump was guilty of anything he would be lynched for it. Just like the Russia collusion, there is nothing there. So all u seals, keep flapping ur fins. Another #NothingBurger'
p484
S'11:54 AM - 16 Nov 2017'
p485
tp486
a(S"You can't rebut the actual reporting, so you're telling us we shouldn't report on Trump-Russia collusion because of how the news might effect people in Russia?"
p487
S'11:47 AM - 16 Nov 2017'
p488
tp489
a(S'$$$$$$$$$ We need more investigations says BIG GOVERNMENT ~~~~~ all done with our money.  Taxpayers money. Remember that as they call for investigation after investigation, which includes Trump/Russia collusion which has been going for almost a year. OUR '
p490
S'11:47 AM - 16 Nov 2017'
p491
tp492
a(S"Cool, Glenn, but are we supposed to stop reporting our president's collusion with Russia because we are worried about how Russians might perceive it?"
p493
S'11:46 AM - 16 Nov 2017'
p494
tp495
a(S'Dems r calling 4 an investigation on Al Franken? Waste more of our money? Hell no! Make him step down! And stop the investigation of Russia collusion, by switching it to uranium one! Get Mueller and Franken out! \n#AlFranken'
p496
S'11:44 AM - 16 Nov 2017'
p497
tp498
a(S"The Clinton-Russia collusion story is a desperate ploy to distract from Trump-Russia. Here's why it won't work. http://theprosp.ec/2j11bPs\xc2\xa0 via @ElizaRules"
p499
S'11:43 AM - 16 Nov 2017'
p500
tp501
a(S'Does @CNN @CNNPolitics have a clock4 a response2 an Epidemic of Grabbing of P*ssy from GOPutin-Bannon-dotard,The Self Admitted Serial Sexual Abuser, Harasser & Rapist & Pedophileaccusers were forced2 drop charges 12/16 on his successful collusion w/Russia 2Steal the WH?'
p502
S'11:41 AM - 16 Nov 2017'
p503
tp504
a(S'The dems have been looking for collusion for at least 8 months and gave up because the only collusion with Russia is Hillary'
p505
S'11:40 AM - 16 Nov 2017'
p506
tp507
a(S'FREE eBooks Book Reviews #2: Collusion: Secret Meetings, Dirty Money, and How Russia Helped Donald Trump Win - https://1ebooks.com/books/2-collusion-secret-meetings-dirty-money-and-how-russia-helped-donald-trump-win/\xc2\xa0\xe2\x80\xa6pic.twitter.com/FA75zw0AWz'
p508
S'11:36 AM - 16 Nov 2017'
p509
tp510
a(S'Ex-MI6 spy who compiled Trump-Russia collusion dossier says it\xe2\x80\x99s \xe2\x80\x9870 to 90% accurate\xe2\x80\x99 https://www.rt.com/uk/410020-mi6-spy-trump-dossier/#.Wg3oe-owv84.twitter\xc2\xa0\xe2\x80\xa6'
p511
S'11:35 AM - 16 Nov 2017'
p512
tp513
a(S'CNN will find a way to spin the Al Franken story as some kind of Russia collusion with Trump. They are always in meltdown mode ever since Trump beat their boss Hillary.'
p514
S'11:35 AM - 16 Nov 2017'
p515
tp516
a(S'Wondering why Democrats are still talking collusion - when even Muller has moved past that... Interesting. You realize those charged are not charged with anything involving russia right? LMAO.'
p517
S'11:35 AM - 16 Nov 2017'
p518
tp519
a(S'Political & Hollywood careers derailed by sexual accusers, YET ADMITTED SEXUAL ABUSER IS IN WH (check out cringing girl below). He violates emoluments, obstructs justice and is mired in obvious collusion w/Russia. Apparently, Constitution means nothing. pic.twitter.com/Rxezkjn8m3'
p520
S'11:31 AM - 16 Nov 2017'
p521
tp522
a(S"I'm starting to see a pattern:\nLiberals accused Trump of Russian collusion when in fact They are discovered to be the ones Colluding with Russia. Liberals accused Judge Roy Moore of Sexual Misconduct when in fact, they are discovered, yet again to be guilty of that themselves!"
p523
S'11:30 AM - 16 Nov 2017'
p524
tp525
a(S'Kindle prodotti del momento: #6: Collusion (versione italiana): Come la Russia https://goo.gl/d9byih\xc2\xa0 #italia #libro'
p526
S'11:30 AM - 16 Nov 2017'
p527
tp528
a(S'The @DNC started all this with the russia collusion. Now the race to the bottom begins. The winner will be which side has less demons in the closet. Going to to be an amazing time to live. pic.twitter.com/twkRmTTdWQ'
p529
S'11:30 AM - 16 Nov 2017'
p530
tp531
a(S'Then was the "threshold" to do special counsel on Trump/Russia collusion met? There is sooo much evidence against Hillary & Obama, none against Trump. Scratching head????? https://twitter.com/bgood12345/status/930943987082514432\xc2\xa0\xe2\x80\xa6'
p532
S'11:28 AM - 16 Nov 2017'
p533
tp534
a(S'Would that be like the dems collusion with Russia. Oh, I forgot fake news left that out!'
p535
S'11:26 AM - 16 Nov 2017'
p536
tp537
a(S"Conclusions? There is more evidence everyday that Russian collusion took place. I mean the conclusions train left the station months ago - ya know when every single agency said Russia meddled in our elections. Now the question is: how many folks on Trump's campaign participated."
p538
S'11:26 AM - 16 Nov 2017'
p539
tp540
a(S"When will @TheDemocrats learn it's not polite to point and talk about people? Every time they point out, and jump on a @gop it comes back on them 2 fold. #Collusion #Russia #CORRUPTION #UraniumOne #assault #ethics #Fraud #Antifa Good @realDonaldTrump #TrumpTrain #TrumpArmy @POTUS"
p541
S'11:25 AM - 16 Nov 2017'
p542
tp543
a(S'"The Ex-Spy Behind the Trump-Russia Dossier Left a Clue for #Mueller:\nChristopher Steele told a reporter that one real-estate deal might be key to understanding the collusion case."\n\n#TrumpSoho\n#PalmBeachEstate\n#MissUniverse\n#RussiaProbe\n#TrumpRussiahttps://www.vanityfair.com/news/2017/11/christopher-steele-robert-mueller-trump-russia-dossier\xc2\xa0\xe2\x80\xa6'
p544
S'11:25 AM - 16 Nov 2017'
p545
tp546
a(S'Trump dossier, Russia collusion allegations, & Mueller appointment were politicized. What goes around comes around.  What\xe2\x80\x99s happening now is the karma for Hillary\xe2\x80\x99s corruptions. The House of Cards is crumbling down!'
p547
S'11:22 AM - 16 Nov 2017'
p548
tp549
a(S"I read posts from your home page so please explain why Maxine Waters and Dianne Feinstein both said there's no evidence of collusion between the Trump campaign and Russia. Those are YOUR people telling you they've got nothing. Are you calling them liars?"
p550
S'11:22 AM - 16 Nov 2017'
p551
tp552
a(S'Just like the Clintons the whole party is crumbling. A party that rapes murders, molests kids steals landers money. The screams Trump Russia collusion which where all lies and now the truth is out and it was them always them amd now they will be gone thank god. Wothless and weak.'
p553
S'11:18 AM - 16 Nov 2017'
p554
tp555
a(S'If the standard for appointing a special counsel into Hilly\'s, Obama\'s, et.al. misdeeds is based on hard evidence and not "say so", according to Att. Gen. Sessions, how in the hell was appointing Mueller so damn easy? Absolutely no shred of evidence of Trump/Russia collusion.'
p556
S'11:17 AM - 16 Nov 2017'
p557
tp558
a(S'If only we had known about Trumps collusion with Russia before his squeaker election in 2016. Spare me the faux outrage. All sex offenders need justice. Including the President of the United States.'
p559
S'11:13 AM - 16 Nov 2017'
p560
tp561
a(S'It seems that the whole damn republican party are in collusion and collaboration with Russia, to destroy American democracy'
p562
S'11:13 AM - 16 Nov 2017'
p563
tp564
a(S"How about Russia collusion...you're going to JAIL!"
p565
S'11:10 AM - 16 Nov 2017'
p566
tp567
a(S'Evidence of Trump-Russia collusion already exists, Watergate prosecutors say\n http://www.newsweek.com/trump-russia-collusion-watergate-jared-kushner-emails-data-cambridge-analytica-710084\xc2\xa0\xe2\x80\xa6'
p568
S'11:05 AM - 16 Nov 2017'
p569
tp570
a(S'Stone and Russia! Collusion!! Against Al Franken!!!!!'
p571
S'11:03 AM - 16 Nov 2017'
p572
tp573
a(S"For one thing Hillary isn't crooked and that's been proven.  @realDonaldTrump is the crooked and corrupt one which is being proven at an alarming rate on a daily basis!! The Russia collusion isn't a lie and that's being proven every day.  He's going out in handcuffs!!  pic.twitter.com/3OrfDTuvdl"
p574
S'10:56 AM - 16 Nov 2017'
p575
tp576
a(S'Trump Administration most corrupt in US history. Money laundering, collusion with Russia to in fluency Presidential election and control US and financial gains by the elites of US & Russia. Sexual allegations, nepotism, lies, mob connections and the list goes on #ImpeachTrump'
p577
S'10:56 AM - 16 Nov 2017'
p578
tp579
a(S'DNC party of Corruption Greed Degenerates pedophiles KKK hypocrites RUSSIA collusion ISIS'
p580
S'10:55 AM - 16 Nov 2017'
p581
tp582
a(S"Sexual assault wasn't a concern.  Racism wasn't a concern.  Collusion with Russia wasn't a concern.  Insulting vets and their families wasn't a concern.  Pushing us to the brink of nuclear war wasn't a concern. But, don't you go hunting innocent animals!!!!! https://twitter.com/kev1nrab/status/931228597196537856\xc2\xa0\xe2\x80\xa6"
p583
S'10:55 AM - 16 Nov 2017'
p584
tp585
a(S"She's so guilty of pay for play Corruption Greed Degenerates pedophiles KKK hypocrites RUSSIA collusion ISIS"
p586
S'10:55 AM - 16 Nov 2017'
p587
tp588
a(S"@realDonaldTrump That's because Donald Trump Sr. knew about the Wikileaks release of Podesta's emails -- that's because Wikileaks and Russia did what he asked them to do -- that's called collusion ..."
p589
S'10:54 AM - 16 Nov 2017'
p590
tp591
a(S'https://youtu.be/7a8rv5bn4-I\xc2\xa0\nWho has collusion with Russia?'
p592
S'10:54 AM - 16 Nov 2017'
p593
tp594
a(S'The whole Russia/collusion lie is falling apart. The American people are smarter than this. Crooked Hillary is the one that might go to jail'
p595
S'10:52 AM - 16 Nov 2017'
p596
tp597
a(S'This up In man needs to be locked up for previous crimes of collusion with Russia https://twitter.com/JoyAnnReid/status/931164865904902145\xc2\xa0\xe2\x80\xa6'
p598
S'10:50 AM - 16 Nov 2017'
p599
tp600
a(S'AAAAAAAA AMO VER JEFF SESSIONS SER PISADO TEVE COLLUSION COM A RUSSIA SIM KIRIDO AAAAAA https://twitter.com/nowthisnews/status/930999631097470976\xc2\xa0\xe2\x80\xa6'
p601
S'10:49 AM - 16 Nov 2017'
p602
tp603
a(S"Fair enough! But if you could please find a tape of trump saying those things that would be great. But you can't disagree that she sold Uranium to Russia. That is a fact and that is collusion with Russia. Just give trump a chance and you will see too. He's smarter than you think"
p604
S'10:47 AM - 16 Nov 2017'
p605
tp606
a(S'This is one of the REAL issues driving the trump/Russia collusion and a multitude of other issues and actions as well. They want to melt the ice to gain shipping channels worth trillions and oil worth billions. Russia owns almost all access to the Arctic. https://twitter.com/kylegriffin1/status/931177581990305792\xc2\xa0\xe2\x80\xa6'
p607
S'10:45 AM - 16 Nov 2017'
p608
tp609
a(S"Why aren't you being investigated for collusion with Russia to influence our election you went to the Russians for something to smear trump"
p610
S'10:43 AM - 16 Nov 2017'
p611
tp612
a(S"When there's an investigation of a Demokkkrat its politicalization. It's coming right at you and Demokkkrats Mueller is going to uncover it. Manafort>PodestaBros>Russia>Hillary>Foundation> COLLUSION"
p613
S'10:41 AM - 16 Nov 2017'
p614
tp615
a(S'"COLLUSION:  Secret Meetings, Dirty Money, and How Russia Helped Donald Trump Win" http://fb.me/2mn3LjFXr\xc2\xa0'
p616
S'10:41 AM - 16 Nov 2017'
p617
tp618
a(S'Oh, I get it. I guess she means it\'s a "distraction" from the all-important "Trump Collusion w/Russia" investigation which has turned up absolutely nothing'
p619
S'10:38 AM - 16 Nov 2017'
p620
tp621
a(S'DNC party of Corruption Greed Degenerates pedophiles KKK hypocrites RUSSIA collusion ISIS'
p622
S'10:37 AM - 16 Nov 2017'
p623
tp624
a(S'We need answers on actual sitting members in the government. Trump/Russia collusion and Sexual Assault in Congress.'
p625
S'10:37 AM - 16 Nov 2017'
p626
tp627
a(S'"Evidence Of Trump-Russia Collusion Already Exists, Watergate Prosecutors Say" - http://www.newsweek.com/trump-russia-collusion-watergate-jared-kushner-emails-data-cambridge-analytica-710084\xc2\xa0\xe2\x80\xa6'
p628
S'10:34 AM - 16 Nov 2017'
p629
tp630
a(S'this is the RUSSIA collusion they are looking for https://twitter.com/FoxNews/status/931146330508005376\xc2\xa0\xe2\x80\xa6'
p631
S'10:32 AM - 16 Nov 2017'
p632
tp633
a(S'want to see an investigation into electoral college members for collusion with Russia'
p634
S'10:31 AM - 16 Nov 2017'
p635
tp636
a(S"He's definitely assuming they will treat him much more differently, kind of like many did with 'Russia collusion'. I just like the fact that Shapiro is Republican and says write someone in, instead of Moore down in Alabama, knowing it means defeat. When you make a stance like.."
p637
S'10:30 AM - 16 Nov 2017'
p638
tp639
a(S'only 5?  what about collusion with Russia to fix the election?'
p640
S'10:29 AM - 16 Nov 2017'
p641
tp642
a(S'What you don\xe2\x80\x99t understand is that you\xe2\x80\x99re wrong. Where do you get Russia collusion? You don\xe2\x80\x99t, it\xe2\x80\x99s been fed to you and you ate it. No collusion here especially after asking for the tax returns the left is crazy about seeing. Should be praising him for trying to obtain them'
p643
S'10:26 AM - 16 Nov 2017'
p644
tp645
a(S'Corruption < molestation < rape < RUSSIA COLLUSION'
p646
S'10:22 AM - 16 Nov 2017'
p647
tp648
a(S"As if this whole Russia collusion w/ Trump thing ISN'T an abuse of power  https://twitter.com/porrello_dana/status/931217967307743234\xc2\xa0\xe2\x80\xa6"
p649
S'10:21 AM - 16 Nov 2017'
p650
tp651
a(S"BC speech & $ in Russia all legal, no laws broke. Trump & co. broke many laws in collusion w/ Russia. You can continue in denial. But it's simple."
p652
S'10:21 AM - 16 Nov 2017'
p653
tp654
a(S'Hey GOP why don\xe2\x80\x99t you have the President step down for his collusion with Russia, saying white supremacy is fine people, he is the number one predator, where is his tax returns, he praises dictator, and he lies and deflect but hey he fits right in w/ GOP.'
p655
S'10:19 AM - 16 Nov 2017'
p656
tp657
a(S"BC was legal. Trump real collusion w/ Russia illegal. Too bad you don't get it. Someday maybe you will. But it is that simple."
p658
S'10:18 AM - 16 Nov 2017'
p659
tp660
a(S'Disgusting pig need to RESIGN!  You send no different than Weinstein Polanski etc.. POS  DNC party of Corruption Greed Degenerates pedophiles KKK hypocrites RUSSIA collusion ISIS'
p661
S'10:17 AM - 16 Nov 2017'
p662
tp663
a(S'Russia+Trump+wikileaks=COLLUSION'
p664
S'10:16 AM - 16 Nov 2017'
p665
tp666
a(S'Except when it comes to being played or relied upon by Russia and Vladimir Putin, as well as his domestic allies. #Anonymous #AntiSec #OpPhobosGone #PhobosGate #PhobosGrunt #Starkiller88 #TheResistance #Resist #GeeksResist #TrumpRussia #collusion #conspiracy'
p667
S'10:15 AM - 16 Nov 2017'
p668
tp669
a(S"How many people or even Democrat leaders have to say they're is no Russia collusion with Trump campaign. Old and irrelevant"
p670
S'10:14 AM - 16 Nov 2017'
p671
tp672
a(S'Russia  - Clinton Collusion\nPuerto Rico - Demoncrats murdered hispanics to attempt to embarrass Trump.\n\nShame on you.'
p673
S'10:11 AM - 16 Nov 2017'
p674
tp675
a(S'@POTUS re Dems & McConnel vrs Judge Moore, look @ the extreme length & lies in Fake Trump Dissier they went to,  to discredit & implicate you in Russia Collusion. The Big Lie, by D;Souza has exposed th truth of the Left who McConnell seems to prefer. Note how he supported Obama.'
p676
S'10:11 AM - 16 Nov 2017'
p677
tp678
a(S'This whole sexual harassment hysteria is just another destraction. Keep your eye on the ball. Trump-Russia collusion. pic.twitter.com/kU426stSyf'
p679
S'10:08 AM - 16 Nov 2017'
p680
tp681
a(S'Blum \xe2\x80\x93 All Signs Point to Russia Collusion Coming from Hillary, Not Trump http://truthfeednews.com/blum-all-signs-point-to-russia-collusion-coming-from-hillary-not-trump/\xc2\xa0\xe2\x80\xa6 via @truthfeednews'
p682
S'10:07 AM - 16 Nov 2017'
p683
tp684
a(S'There was 0 evidence, just like Trump Russia collusion 0 evidence....'
p685
S'10:06 AM - 16 Nov 2017'
p686
tp687
a(S'The Left is always projecting: when they accuse the right of Russia collusion, it\xe2\x80\x99s b/c they are guilty themselves. When they accuse the right of sexual abuse, it\xe2\x80\x99s because they are steeped in it up to their pencil necks. The same holds true for their shrieking about racism ...'
p688
S'10:06 AM - 16 Nov 2017'
p689
tp690
a(S"What's worse? Al Franken is a groping dick, Al Franken being an unfunny groping dick, or the fact his unfunny groping dickishness doesn't dismiss Trump's collusion with Russia?"
p691
S'10:04 AM - 16 Nov 2017'
p692
tp693
a(S'THIS IS RUSSIA COLLUSION !!!! They better investagate or the people will never trust them, including FBI https://twitter.com/FoxNews/status/931168134576427008\xc2\xa0\xe2\x80\xa6'
p694
S'10:04 AM - 16 Nov 2017'
p695
tp696
a(S"No, I'm saying it because DNC investigations into Trump- Russia collision turned up evidence of DNC-Ukraime collusion.  And the Uranium One issue as well."
p697
S'10:03 AM - 16 Nov 2017'
p698
tp699
a(S"Sorry Bryce STILL calling #TheResistance crazy conspiracists.  Nothing has changed except the real Russia collusion going on with Clinton's not Trump is starting to surface.  Hillary sold out America while Bill was putting cigars inside a 21 year old intern. Sad"
p700
S'10:02 AM - 16 Nov 2017'
p701
tp702
a(S'1) The only thing unraveling is the MSM Trump/Russia collusion fantasy. Shrillary ADMITS buying a fake Trump dossier from Russia...'
p703
S'9:59 AM - 16 Nov 2017'
p704
tp705
a(S'LOL an investigation.... ROFLMAO.... another Government investigation..... LOL,... maybe we can get great results like the Benghazi investigation... unreal.... or this Russia collusion investigation....'
p706
S'9:58 AM - 16 Nov 2017'
p707
tp708
a(S'Masses expecting Trump team indictments for Russia collusion will revolt. The cracks leak and drip before the dam breaks'
p709
S'9:58 AM - 16 Nov 2017'
p710
tp711
a(S"Moore needs to go to Effen Prison along with trump, and his demon spawn children, and anyone else who worked With Russia to Hack HILLARY & THE DNC. I don't understand how this Russian collusion is ok with folks. Even if you hate the DNC, Russia hacked a High level Politician.--"
p712
S'9:56 AM - 16 Nov 2017'
p713
tp714
a(S'You would think their continued idolatry of Bill Clinton might jar their memory over what constitutes real Impeachment, but the Russia collusion must be blighting their frail memories.'
p715
S'9:50 AM - 16 Nov 2017'
p716
tp717
a(S"All Russia collusion was from Hillary.  Fake dossier, etc. Don't you libtards watch anything besides #fakenews?"
p718
S'9:46 AM - 16 Nov 2017'
p719
tp720
a(S'So what about the special counsel that was formed to investigate Trump over this stupid Russia collusion??'
p721
S'9:43 AM - 16 Nov 2017'
p722
tp723
a(S'makes sense that the Hillary camp paid Russia for the fake dossier then accuses Trump of collusion.'
p724
S'9:42 AM - 16 Nov 2017'
p725
tp726
a(S"Nine agencies approved the deal. No evidence that donations to Clinton Foundation influenced anything. Move on and stop deflecting away from your president's criminal collusion with Russia to steal the election, THAT should concern ALL Americans."
p727
S'9:41 AM - 16 Nov 2017'
p728
tp729
a(S'Russia tells Trump Jr we have information that will hurt Clinton lets meet Jr says back I love it they meet this is collusion & both confess.'
p730
S'9:37 AM - 16 Nov 2017'
p731
tp732
a(S'How does the gravity of this incident compare to collusion with Russia during an election fir the highest office in America?\nhttp://www.reuters.com/article/us-usa-clinton-informant-exclusive/exclusive-secret-witness-in-senate-clinton-probe-is-ex-lobbyist-for-russian-firm-idUSKBN1DG1SB\xc2\xa0\xe2\x80\xa6'
p733
S'9:37 AM - 16 Nov 2017'
p734
tp735
a(S'Here\xe2\x80\x99s what real US-Russian collusion looks like - https://jonrappoport.wordpress.com/2017/11/15/heres-what-real-us-russian-collusion-looks-like/\xc2\xa0\xe2\x80\xa6 #russia #UraniumOneDeal #Clintons #USA'
p736
S'9:36 AM - 16 Nov 2017'
p737
tp738
a(S'I disagree with Hillary. Especially how the democrats have not stopped with their insane pursuit for a charge against President Trump on Collusion with Russia because Hillary lost elections.  The truth must come out!'
p739
S'9:35 AM - 16 Nov 2017'
p740
tp741
a(S"This now adds the motive for collusion with Russia that the Mueller investigation needs. Trump can't exist without Russian money. The $600 million is gross total sales before any business expenses, any taxes, any profit sharing with investors. The Trump family is penniless."
p742
S'9:32 AM - 16 Nov 2017'
p743
tp744
a(S'I missed  you said Trump. He maybe tried for Russia collusion, espionage or whatever first, but I hope some day those women he attacked get justice too.'
p745
S'9:32 AM - 16 Nov 2017'
p746
tp747
a(S'The Dems always try and get one up on Republicans. Always has a boomerang effect.\n\nRussia Collusion \nRacism \nSexual Assault'
p748
S'9:25 AM - 16 Nov 2017'
p749
tp750
a(S'NEW\n\nThe Ex-Spy Behind the Trump-Russia Dossier LEFT A CLUE FOR #Mueller\n\nChristopher Steele told a reporter that ONE REAL-ESTATE deal might be key to understanding the collusion case.\n\nSale of a Palm Beach estate (SoHo development; Miss Universe pageant)\n\nhttps://www.vanityfair.com/news/2017/11/christopher-steele-robert-mueller-trump-russia-dossier\xc2\xa0\xe2\x80\xa6'
p751
S'9:21 AM - 16 Nov 2017'
p752
tp753
a(S'When we talk about collusion with the Russians we must not forget the Koch Bros. who made their fortunes in Russia drilling oil, and would certainly like to do more!'
p754
S'9:21 AM - 16 Nov 2017'
p755
tp756
a(S'"The left is in fear of a probe into Russia collusion in the Trump campaign" is what the article says.\n\nDid you read it? The left would absolutely love it, THAT\'S WHAT they\'ve ALREADY BEEN PROBING FOR.'
p757
S'9:20 AM - 16 Nov 2017'
p758
tp759
a(S'I will be sad to lose him in the Russia collusion fight. He was an important voice. However, if he\'s guilty he should go. Republicans can lick their chops but they have no moral ground to comment so STFU. "Al Franken"'
p760
S'9:16 AM - 16 Nov 2017'
p761
tp762
a(S'what ya got to hide @adamschiff you sure wanted special prosecutor for russia collusion'
p763
S'9:16 AM - 16 Nov 2017'
p764
tp765
a(S"she has sweatshops in Asia, ignores her father's predatory behavior, abets collusion w/Russia & participates in it's cover up, has no idea what it really means to be a working mother, benefits from the corruption rampant in her father's admin. etc. This statement is meaningless"
p766
S'9:16 AM - 16 Nov 2017'
p767
tp768
a(S"Yeah, when they say HILLARY is 'corrupt', you KNOW its because theyre part of the TRUMP/RUSSIA COLLUSION, or they... http://fb.me/1GaRaS6T1\xc2\xa0"
p769
S'9:15 AM - 16 Nov 2017'
p770
tp771
a(S'Smart but proof of collusion between fussion gps, Clinton campaign, and Russia https://twitter.com/politicalshort/status/930267913583394816\xc2\xa0\xe2\x80\xa6'
p772
S'9:13 AM - 16 Nov 2017'
p773
tp774
a(S'Next Friday at 6pm on MSNBC keep an eye out for @LWalshNHL and I in the mock trial for the arguments surrounding Trump\xe2\x80\x99s administration and campaign alleged collusion with Russia'
p775
S'9:13 AM - 16 Nov 2017'
p776
tp777
a(S'Your talking about Hillaryus, right? All evidence points to her and her "people". False dossiers, illegal unmasking, trading U.S uranium to Russia for "speaking fees", election tampering and illegally spending campaign money, her collusion with Russia to discredit Trump. &, &, &'
p778
S'9:11 AM - 16 Nov 2017'
p779
tp780
a(S'DNC party of Corruption Greed Degenerates pedophiles KKK hypocrites RUSSIA collusion ISIS @SenAlFrank STEP DOWN!'
p781
S'9:09 AM - 16 Nov 2017'
p782
tp783
a(S'If Uranium One is a distraction, with documents, what is the stupid Russia election collusion thing, with somebody dreaming it up to explain being a flop?'
p784
S'9:09 AM - 16 Nov 2017'
p785
tp786
a(S'fear mongering-mania. we have impeachment mania, russia collusion mania, unfit mania, n all other mania, n all we have r just smoke n speculations. election is over, pls get over it.'
p787
S'9:09 AM - 16 Nov 2017'
p788
tp789
a(S'Collusion: Secret Meetings, Dirty Money, and How Russia Helped Donald Trump W.. https://www.amazon.com/dp/B0779JY2LB/ref=cm_sw_r_tw_dp_x_RwCdAb79CCYQ7\xc2\xa0\xe2\x80\xa6 via @amazonpic.twitter.com/sCUBoRe9Br'
p790
S'9:09 AM - 16 Nov 2017'
p791
tp792
a(S'#ThursdayThoughts #TCOT #RussianCollusion  \n\nThe collusion is in both parties and involves the usual RINO suspects \n\nEmail from Hillary\xe2\x80\x99s Basement Proves GOP Turncoats McCain, Corker Colluded with Clinton on Russia Nuclear Deal\nhttp://truepundit.com/unclassified-hillary-basement-email-proves-mccain-corker-colluded-with-sec-of-state-clinton-on-russia/\xc2\xa0\xe2\x80\xa6pic.twitter.com/KUGAxJ0Dni'
p793
S'9:00 AM - 16 Nov 2017'
p794
tp795
a(S'The real dictators are investigating Russia trump collusion... https://twitter.com/POLITICSandFUN/status/931115734196989952\xc2\xa0\xe2\x80\xa6'
p796
S'8:59 AM - 16 Nov 2017'
p797
tp798
a(S"@realDonaldTrump Your charges don't add up to good reasons to spend taxpayer money on yet another Hillary-hating special counsel -- your reasons are personal -- Trump wants to jail his political opponents like Hillary to cover up collusion with Russia -- you're just his lapdog"
p799
S'8:59 AM - 16 Nov 2017'
p800
tp801
a(S"They no longer have literally anything Solid to use. It's like collusion with Russia. pic.twitter.com/qCB7LdfZkE"
p802
S'8:57 AM - 16 Nov 2017'
p803
tp804
a(S"Ok I've been admittedly really skeptical of the Russia collusion shit but this is fucking sus https://reut.rs/2hvktMr\xc2\xa0"
p805
S'8:56 AM - 16 Nov 2017'
p806
tp807
a(S'Lol! That\xe2\x80\x99s your argument?!! Obama & Lynch knew way before anyone that Russia was trying to interfere and they did NOTHING about it! They held the power to do something about it, not Trump! Even Dems say they have NOT seen any Trump/RUSSIA Collusion, just last week.'
p808
S'8:52 AM - 16 Nov 2017'
p809
tp810
a(S'Coming tomorrow, the story of Christopher Steele, Trump and Putin. Gonna be a barn burner. @lukeharding1968 @guardian\nCollusion: Secret Meetings, Dirty Money, and How Russia Helped Donald Trump W... https://www.amazon.com/dp/B0776YZF4P/ref=cm_sw_r_tw_dp_x_SbCdAbPPXH36S\xc2\xa0\xe2\x80\xa6'
p811
S'8:47 AM - 16 Nov 2017'
p812
tp813
a(S'yet @HillaryClinton was the one calling for a special investigation against Trump for COLLUSION with RUSSIA.... hahahahahaha... such hypocrisy from that woman and her party of clowns. pic.twitter.com/Z3Ow65JuNx'
p814
S'8:46 AM - 16 Nov 2017'
p815
tp816
a(S'Absurd that crooked Mueller is investigating Trump/Russia collusion!'
p817
S'8:46 AM - 16 Nov 2017'
p818
tp819
a(S'Russia collusion trick didn\xe2\x80\x99t work. Obstruction of justice trick didn\xe2\x80\x99t work. Now it\xe2\x80\x99s sexual accusations trick. It worked against Clinton in the 1990\xe2\x80\x99s. So they will try it on Trump.'
p820
S'8:45 AM - 16 Nov 2017'
p821
tp822
a(S'We\'ve seen, in the unscripted words of Don Lemon, a "nothing-burger" that led to more evidence of Democrat collusion w/Russia thru Uranium One than anything.'
p823
S'8:45 AM - 16 Nov 2017'
p824
tp825
a(S'My only question is how was the threshold for the Russia collusion special counsel M\xc3\xbceller met? https://twitter.com/bgood12345/status/930943987082514432\xc2\xa0\xe2\x80\xa6'
p826
S'8:45 AM - 16 Nov 2017'
p827
tp828
a(S'There is no legal term for collusion but Jr was working with Wikileaks and they are getting info from Russia. But ok live in your sad little bubble of lies. That\xe2\x80\x99s fine don\xe2\x80\x99t say no one told you so.'
p829
S'8:44 AM - 16 Nov 2017'
p830
tp831
a(S'The mere "appearance" of alleged collusion between the Trump admin and Russia was all they needed to convene a special counsel \n\nIt\'s time a special counsel is convened following the FBI funded "Trump Dossier"\n\n#ThursdayThoughts\n#Change4Change\n#tcot\npic.twitter.com/9APWKt2gNa'
p832
S'8:44 AM - 16 Nov 2017'
p833
tp834
a(S'Trump\'s corruption? What corruption? Where\'s the evidence? Even crazy Maxine Waters running around screaming "impeach" admits there\'s no evidence. Even Hillary in her book covers herself & doesn\'t confirm Russia collusion by Trump pic.twitter.com/H0bk1XhlsK'
p835
S'8:38 AM - 16 Nov 2017'
p836
tp837
a(S'I don\'t know why @realDonaldTrump keeps reffering to Dems  as "collusion" etc., He has conspired with RUSSIA/and comitted TREASON....#TRUMP do you really think 75% of Americans are So STUPID as to buy your BS?...including 70% of Countries think you are F**ked!https://twitter.com/ThePlumLineGS/status/931128910963793921\xc2\xa0\xe2\x80\xa6'
p838
S'8:37 AM - 16 Nov 2017'
p839
tp840
a(S'Oh Yea I keep forgetting Libs have AMAZING Memory Lapses when they get BUSTED... Next I guess the PR machine will scream Collusion & Russia in the same sentence and all will be forgiven... pic.twitter.com/HUzxsI7wJ1'
p841
S'8:37 AM - 16 Nov 2017'
p842
tp843
a(S'please share with me the reasons you have to be proud of Trump and ashamed of Obama. I would like to help you set the record straight. Notice you mentioned how much you love our troops and country. If true. Have you been watching what\xe2\x80\x99s going on in Russia collusion investigation?'
p844
S'8:33 AM - 16 Nov 2017'
p845
tp846
a(S'..There\xe2\x80\x99s a disconnect here.\nOn one hand, \nFusion GPS appears to be 1 of the only primary sources used to generate @realDonaldTrump -Russia-@wikileaks collusion allegation in the first place....'
p847
S'8:33 AM - 16 Nov 2017'
p848
tp849
a(S'Mueller Investigation Into Trump \xe2\x80\x93 Russia Collusion Is \xe2\x80\x98Fair\xe2\x80\x99 According To Voters http://inquisitr.to/shjcSFw\xc2\xa0'
p850
S'8:32 AM - 16 Nov 2017'
p851
tp852
a(S'Hypocrite and go-p - two words that go together like russia and collusion, moore and pedophilia, 1% tax break and 99% screwed, ... https://twitter.com/Phylter52/status/931193689245921284\xc2\xa0\xe2\x80\xa6'
p853
S'8:28 AM - 16 Nov 2017'
p854
tp855
a(S'Amazing how the Left goes brain dead when proof of DNC using Russia to dig up dirt on Trump surfaces. Collusion? U betcha, so shut ur trap'
p856
S'8:25 AM - 16 Nov 2017'
p857
tp858
a(S'Step down! You are caught red handed!! Liberals try to defend this?? DNC party of Corruption Greed Degenerates pedophiles KKK hypocrites RUSSIA collusion ISIS'
p859
S'8:23 AM - 16 Nov 2017'
p860
tp861
a(S'Pervy Franken!!  Liberalism is a mental disorder. DNC Party of Corruption Greed Degenerates pedophiles KKK hypocrites RUSSIA collusion'
p862
S'8:21 AM - 16 Nov 2017'
p863
tp864
a(S'Not anxiety~reality. Look 2 ur Dems many laws broken, yet nobody is in jail. sell some more yellow cake 9 2 Russia. Russian collusion is resting right in the laps of the very Democrats you call leaders. Hillary\xe2\x80\x99s biggest contributor \xe2\x80\x9cweinstein\xe2\x80\x9d hmmmm on that'
p865
S'8:19 AM - 16 Nov 2017'
p866
tp867
a(S'..It sure makes the Trump Jr. mtg look like "a setup"\n to create the appearance of Russian collusion by none other than \n                      Fusion GPS \nwhich was  being paid to publish the dossier asserting Trump-Russia collusion...'
p868
S'8:18 AM - 16 Nov 2017'
p869
tp870
a(S'How We Can Be Certain That Mueller Won\xe2\x80\x99t Prove Trump-Russia Collusion? ... http://www.thefringenews.com/how-we-can-be-certain-that-mueller-wont-prove-trump-russia-collusion/\xc2\xa0\xe2\x80\xa6'
p871
S'8:12 AM - 16 Nov 2017'
p872
tp873
a(S'All with 0 evidence, just like Trump Russia collusion 0 evidence...'
p874
S'8:12 AM - 16 Nov 2017'
p875
tp876
a(S'So, let\xe2\x80\x99s get this straight.\n The Democratic National Committee (DNC) & the Hillary Clinton campaign \nhired, via law firm Perkins Coie, Fusion GPS to fund the Christopher Steele dossier that alleged Trump-Russia collusion in the 2016 election to put the DNC emails on Wikileaks...'
p877
S'8:11 AM - 16 Nov 2017'
p878
tp879
a(S"FACTS: Mueller was appointed 7 months ago to investigate the Trump-Russia collusion issue. He's already started issuing results (indictments of Trump Administration officials) based on his findings. \n\nAnd 1 year of investigation is nothing. It took 2 1/2 years to nail Nixon."
p880
S'8:11 AM - 16 Nov 2017'
p881
tp882
a(S'Syrian/Russian collusion in violating sanctions #fsisac #russia http://ow.ly/LqWG30gC1BQ\xc2\xa0'
p883
S'8:10 AM - 16 Nov 2017'
p884
tp885
a(S'"Is this the truth? Did the truth set this man free? Whisle-blower comes forward... Ex MI6 compiled Trump-Russia collusion dossier says it\'s 70 to 90% accurate."  https://www.rt.com/uk/410020-mi6-spy-trump-dossier/\xc2\xa0\xe2\x80\xa6'
p886
S'8:03 AM - 16 Nov 2017'
p887
tp888
a(S"What? The dude that tried to instigate conversation with Russia and was shut down as he should have by the campaign. Hillary actually paid the Russians for the fake Dossier. There's the real collusion of the Dems delusion."
p889
S'7:59 AM - 16 Nov 2017'
p890
tp891
a(S'Let me guess... Schiff was one of the loudest voices crying for an independent council to investigate the Trump-Russia collusion.'
p892
S'7:55 AM - 16 Nov 2017'
p893
tp894
a(S'Tony Podesta May Be Mueller\xe2\x80\x99s Next Big Target http://dailycaller.com/2017/11/16/tony-podesta-may-be-muellers-next-big-target/?utm_source=site-share\xc2\xa0\xe2\x80\xa6 BOTH PODESTAs PAID BY RUSSIA - JOHN with Joule Stock - WHY NOT INVESTIGATIONS OF DEMS & Russia, the real collusion was there'
p895
S'7:54 AM - 16 Nov 2017'
p896
tp897
a(S'Still waiting for Clinton to criticize the Mueller investigation into Trump & Russia "collusion"...http://www.foxnews.com/politics/2017/11/16/clinton-calls-uranium-one-story-distraction-warns-dictatorship.html\xc2\xa0\xe2\x80\xa6 #hypocrite'
p898
S'7:52 AM - 16 Nov 2017'
p899
tp900
a(S'@TGowdySC @jeffsessions From our perspective(the people) apply the same standard for spec council to U1 used in Russia collusion appt.'
p901
S'7:52 AM - 16 Nov 2017'
p902
tp903
a(S"Hillary's daddy Putin as well.  If there was any collusion with Russia, Hillary would be included.  Russian bots on FB put out more stuff referencing Hillary than Trump as an example.  You all are delusional."
p904
S'7:51 AM - 16 Nov 2017'
p905
tp906
a(S"She's SO guilty of what she accuses others of.  Hillary, can you say special council for russia/Trump collusion for phony dossier?"
p907
S'7:49 AM - 16 Nov 2017'
p908
tp909
a(S"@WayneRoot  how that for adding to the 'Russia' collusion ? https://twitter.com/BusterUSMC/status/931186074101022721\xc2\xa0\xe2\x80\xa6"
p910
S'7:47 AM - 16 Nov 2017'
p911
tp912
a(S"If by current tide you are referring to Wall Street at record numbers, then correct you are sir but if you're referring to Russia collusion with zero evidence against 45 then it's time to Move On. Uranium one is the real collusion #lockherup"
p913
S'7:44 AM - 16 Nov 2017'
p914
tp915
a(S'I\'m not sure what you mean about Wikileaks, either... The idea that Wikileaks was releasing Podesta\'s emails was advertised as Russian collusion, and "evidence" that Russia hacked the DNC (even though the DNC kept the FBI from examining the server).'
p916
S'7:43 AM - 16 Nov 2017'
p917
tp918
a(S'1. Sexism\n2. Racism\n3. Incompetence\n4. Denying climate change\n5. Collusion with Russia to get elected in the first place (Character count)'
p919
S'7:43 AM - 16 Nov 2017'
p920
tp921
a(S'Because theres 0 evidence just like Russia Trump collusion 0 evidence..'
p922
S'7:43 AM - 16 Nov 2017'
p923
tp924
a(S'OH Hillary--The DEM are now opposed to a special Counsel lol..Not oppose to a Witch Hunt Russia --Trump collusion. https://twitter.com/FoxNews/status/931168134576427008\xc2\xa0\xe2\x80\xa6'
p925
S'7:42 AM - 16 Nov 2017'
p926
tp927
a(S"Hillary says it's a dictatorship if a special council be appointed under fraudulent claims against her...sound familiar Hillary? Russia/Trump collusion/special council on phony dossier..accusations made is what she's guilty of"
p928
S'7:41 AM - 16 Nov 2017'
p929
tp930
a(S'State Run Media dba Fox News has no other choice but to fill airtime leftover by not covering Trump Jr\xe2\x80\x99s Wikileaks collusion, Ross\xe2\x80\x99s ties to Russia, Trump stroking Putin, tax cut bill that is actually a repeal of ACA.'
p931
S'7:41 AM - 16 Nov 2017'
p932
tp933
a(S"Since you like editing I'll correct you. There is no collusion with Russian and P.Trump, they were based on the fake dossier, Hillary paid Fusion for. Hillary & Russia connections are something to be concerned about."
p934
S'7:39 AM - 16 Nov 2017'
p935
tp936
a(S'Collusion: Secret Meetings, Dirty Money, and How Russia Helped Donald Trump Win Kindle Edition\nby Luke Harding  (Author) https://goo.gl/3udv2M\xc2\xa0'
p937
S'7:39 AM - 16 Nov 2017'
p938
tp939
a(S'Spending 100 times more space on drinking water than looking into dnc Russia collusion. Smh.'
p940
S'7:37 AM - 16 Nov 2017'
p941
tp942
a(S'he is saying.. @jeffsessions that he has not had contact with russians.  Someone should ask him about Eastern European Russian former states instead of "russia".  His word game on collusion and the word "russia" is old.'
p943
S'7:36 AM - 16 Nov 2017'
p944
tp945
a(S'#MSNBC In July, 2017, Rep. Steve King issued a threat to Democrats. If they didn\'t stop talking about Trump/Russia collusion, Republicans "would have no choice than to further investigate the Clintons."'
p946
S'7:34 AM - 16 Nov 2017'
p947
tp948
a(S'Nothing unites a group of people faster than giving them a common enemy - Trump has done a fantastic job of this. Look--->>> hillary hillary hillary.  Meanwhile - Russia collusion, arrests, sexual assault, tax cuts for wealthy and corporations, guns, guns, love those guns. ...etc'
p949
S'7:33 AM - 16 Nov 2017'
p950
tp951
a(S'A special counsel is investigating your campaign\xe2\x80\x99s collusion with Russia. We\xe2\x80\x99ll see what happens!'
p952
S'7:32 AM - 16 Nov 2017'
p953
tp954
a(S'YES WE DO I smell collusion\n \nUranium One was authorized to work in the US by Trump\xe2\x80\x99s US Ambassador to Russia Jon Huntsman when he was Governor of Utah in 2008'
p955
S'7:30 AM - 16 Nov 2017'
p956
tp957
a(S'This piece sounds like it was written by an unhinged Democrat too infatuated with his "Russia collusion" fabrication.'
p958
S'7:27 AM - 16 Nov 2017'
p959
tp960
a(S"Mark Cuban shoots down entire 'Trump-Russia collusion' theory http://dmlnews.com/mark-cuban-shoots-entire-trump-russia-collusion-theory/\xc2\xa0\xe2\x80\xa6"
p961
S'7:27 AM - 16 Nov 2017'
p962
tp963
a(S'#HoldTrumpAccountableFor Collusion with Russia and dividing our country to achieve his OWN agenda... @realDonaldTrump SAD!'
p964
S'7:26 AM - 16 Nov 2017'
p965
tp966
a(S'Trying to distract U.S. from RUSSIA COLLUSION?\nREPUBS = \n\nJust keep losing our DEMOCRACY bit by bit\nWhich are you? '
p967
S'7:24 AM - 16 Nov 2017'
p968
tp969
a(S'Special Prosecutor is Ok for BS investigation of Russia collusion though! https://twitter.com/arsrcool/status/931168028871536641\xc2\xa0\xe2\x80\xa6'
p970
S'7:22 AM - 16 Nov 2017'
p971
tp972
a(S'..In the 5yrs btwn 2009, when FBI started documenting Vadim Mikerin\xe2\x80\x99s money laundering conspiracy, &2015, when he was finally charged, the Obama admn & the Clintons made quite a few shady moves indicating heavy collusion with Russia. ...'
p973
S'7:20 AM - 16 Nov 2017'
p974
tp975
a(S'Ex-MI6 spy who compiled Trump-Russia collusion dossier says it\xe2\x80\x99s \xe2\x80\x9870 to 90% accurate\xe2\x80\x99 https://www.rt.com/uk/410020-mi6-spy-trump-dossier/\xc2\xa0\xe2\x80\xa6pic.twitter.com/zVPW6C4G5l'
p976
S'7:17 AM - 16 Nov 2017'
p977
tp978
a(S'Adam Schiff continues with Russia dossier/collusion investigation https://hedgeaccordingly.com/2017/11/adam-schiff-continues-with-russia-dossiercollusion-investigation.html?utm_source=ReviveOldPost&utm_medium=social&utm_campaign=ReviveOldPost\xc2\xa0\xe2\x80\xa6 #politics'
p979
S'7:15 AM - 16 Nov 2017'
p980
tp981
a(S'#Zakharova Berates @POTUS @Pentagon @WhiteHouse And #Daesh #ISIS Collusion . As Social Media Sways Toward  Russia And The Rightfully Elected Syrian Government  @Presidency_Syhttps://twitter.com/mfa_russia/status/931093200525197312\xc2\xa0\xe2\x80\xa6'
p982
S'7:13 AM - 16 Nov 2017'
p983
tp984
a(S'The @realDonaldTrump Russia collusion has been debunked countless times  but the libTARDS democRATs would not let it go..'
p985
S'7:12 AM - 16 Nov 2017'
p986
tp987
a(S'@AmericaNewsroom   The Trump Russia collusion is "nothing but a false charge"!'
p988
S'7:09 AM - 16 Nov 2017'
p989
tp990
a(S'4) Do you like Russia? What about collusion? Then you\xe2\x80\x99ll love #300Days of #TrumpRussiaCollusionpic.twitter.com/1XNNkzC5OL'
p991
S'7:07 AM - 16 Nov 2017'
p992
tp993
a(S'Inside source, high up in podesta group comes forward,speaks to Tucker privately re: podesta, manafort, russia collusion.  https://m.youtube.com/watch?v=XbT-i-HJTLw\xc2\xa0\xe2\x80\xa6'
p994
S'7:04 AM - 16 Nov 2017'
p995
tp996
a(S'Since it has been proven that HRC was in collusion with Russia, wonder how many of her votes were from the Russian count?'
p997
S'7:02 AM - 16 Nov 2017'
p998
tp999
a(S'@realDonaldTrump accomplishments: tax cuts for billionaires, collusion with Russia, reviving Nazism, increasing HC costs, pushing elephants to extinction, and destroying US standing in the world. Well done! MAGA'
p1000
S'7:02 AM - 16 Nov 2017'
p1001
tp1002
a(S'The top media skeptics on Trump Russia collusion are Fox News. Just like the Iraq War.  pic.twitter.com/a4uECqWMcb'
p1003
S'7:02 AM - 16 Nov 2017'
p1004
tp1005
a(S"This unravels the whole nothingburger Russia collusion delusion \n\n 'Fusion GPS' door @PoliticalShorthttps://twitter.com/i/moments/924719263033593856\xc2\xa0\xe2\x80\xa6"
p1006
S'7:01 AM - 16 Nov 2017'
p1007
tp1008
a(S'stupid loofs here think everything related to Russia has to involve Trump. Hillary was the one in collusion with Russia!\n\n#ThursdayThoughts'
p1009
S'6:57 AM - 16 Nov 2017'
p1010
tp1011
a(S'Hillary and Obama makes this horrible Uranium deal with Russia then accuses Trump of collusion, the H&O create a "Russiafobia" https://twitter.com/sadforjournos/status/931159388475314176\xc2\xa0\xe2\x80\xa6'
p1012
S'6:57 AM - 16 Nov 2017'
p1013
tp1014
a(S'Sir, if you are not able to locate any evidence to indicate Trump-Russia collusion \nwhat will then be your driving source of information?\n#Russia #FakeNews #Magapic.twitter.com/k3wieAqXYn'
p1015
S'6:57 AM - 16 Nov 2017'
p1016
tp1017
a(S'Russia has no evidence to US\xe2\x80\x99 collusion with IS, this matter must be probed into \xe2\x80\x94 Lavrov http://tass.com/politics/976000\xc2\xa0'
p1018
S'6:57 AM - 16 Nov 2017'
p1019
tp1020
a(S"Realistically if there is a special investigation going on now into Russian collusion with no bounds, shouldn't that flow over into the Clinton's Foundation and all the money that was donated from Russia?"
p1021
S'6:53 AM - 16 Nov 2017'
p1022
tp1023
a(S"The TREASON is everywhere.\n\nMSM sees nothing.\n(D)@GOP too busy trying to shut real conservatives up.\nMueller is looking for Trump / Russia collusion that aint there.\n\nYou're all f insane.\n\n#Hannity #Outnumbered #Tucker #tcot"
p1024
S'6:51 AM - 16 Nov 2017'
p1025
tp1026
a(S'How Obama and Hillary Clinton Weaponized the Trump-Russia Collusion \xe2\x80\x98Dossier\xe2\x80\x99 - https://www.therussophile.org/how-obama-and-hillary-clinton-weaponized-the-trump-russia-collusion-dossier.html/\xc2\xa0\xe2\x80\xa6pic.twitter.com/gJ2pdTfJfv'
p1027
S'6:51 AM - 16 Nov 2017'
p1028
tp1029
a(S'So, it\xe2\x80\x99s a set up by Russia with help from Trump administration. How much more proof of Russian/Trump collusion do we need? It hasn\xe2\x80\x99t ended, it\xe2\x80\x99s continuing. https://twitter.com/thehill/status/931172283846184960\xc2\xa0\xe2\x80\xa6'
p1030
S'6:51 AM - 16 Nov 2017'
p1031
tp1032
a(S'The Russian collusion was with Obama and Hillary selling 20% of our uranium to Russia, genius'
p1033
S'6:49 AM - 16 Nov 2017'
p1034
tp1035
a(S'What does she care , she\xe2\x80\x99s got $145m in the bank, & they\xe2\x80\x99re concentrating on Trump\xe2\x80\x99s collusion with Russia, wake up & smell the salt fellows, indict HRC now!!!'
p1036
S'6:48 AM - 16 Nov 2017'
p1037
tp1038
a(S'So says @POTUS who raped his wife, sexually assaulted several women, bilked contractors, defrauded customers, and cheats on his taxes. #ImpeachTrump #Fraud #Collusion #Russia #MuellerTime #FollowTheMoney #MAGA #USA @nytimes @washingtonpost @guardian @latimes'
p1039
S'6:47 AM - 16 Nov 2017'
p1040
tp1041
a(S'Point taken, they now describe Mueller\xe2\x80\x99s investigation as being into the Trump campaign collusion with Russia...originally it was to look at Russian involvement in the election, to me, that has to include all aspects and all the people involved, or else it\xe2\x80\x99s a partisan affair.'
p1042
S'6:46 AM - 16 Nov 2017'
p1043
tp1044
a(S'#holdtrumpaccountablefor collusion with Russia, treason, sexual assault, racism, raping our earth, not addressing our seriously out of control gun issues & being an around creep.'
p1045
S'6:44 AM - 16 Nov 2017'
p1046
tp1047
a(S"MSM pivots,adding anti GOP sex scandal(s)? to spice up usual 24/7 RUSSIA/DJT Collusion Hoax&Con job;trying to top up ratings? & draw in more donations from its hourly 'Hoodwink' Sessions to MSNBC/CNN viewership,prone to brainwashing by its staff psychopaths hired as telemarketers pic.twitter.com/cqGLTrhy3O"
p1048
S'6:44 AM - 16 Nov 2017'
p1049
tp1050
a(S"Only on Fox. Everyone else has researched it and see no collusion, no pay for play. No matter, it still doesn't make Trump NOT guilty of selling his soul and our sovereignty to Russia. Aren't you so proud of your pussy grabbing guy?"
p1051
S'6:44 AM - 16 Nov 2017'
p1052
tp1053
a(S"Even talking about this nonsense contributes to the the cover up of Trump's collusion with Russia."
p1054
S'6:44 AM - 16 Nov 2017'
p1055
tp1056
a(S"This article says nothing about a lack of evidence of collusion between Trump and Russia, if anything it glosses over these activities as a given. So what if it wasn't part of some master plan, if Trump & co made illegal contact with RU that is all the dots that need connecting."
p1057
S'6:44 AM - 16 Nov 2017'
p1058
tp1059
a(S'If you follow Fusion sources it leads right to Russian operatives with direct connection to Putin---Obams admin PAID for collusion with Russia.  This is an Alinsky tactic--blame your opponents for what you are doing. https://twitter.com/MichellePiper18/status/930959063352999936\xc2\xa0\xe2\x80\xa6'
p1060
S'6:44 AM - 16 Nov 2017'
p1061
tp1062
a(S"Collusion with Russia, election fraud, travel ban, the wall, tax bill, pedophilia, sexual assaults, hell.. I'm not even done here. With all this & more going on, how can you..???"
p1063
S'6:34 AM - 16 Nov 2017'
p1064
tp1065
a(S"When it comes to the Clinton Campaign where THERE IS EVIDENCE of collusion with Russia by paying them to create a phony Trump dossier, it's an abuse of power 2 demand a special counsel?"
p1066
S'6:33 AM - 16 Nov 2017'
p1067
tp1068
a(S'@marcthiessen You claim Stephen Bannon is destroying Trump presidency. Bannon is a right wing nut job, but the guy who\xe2\x80\x99s destroying Trump\xe2\x80\x99s presidency is Trump himself with his incompetence and collusion with Russia'
p1069
S'6:33 AM - 16 Nov 2017'
p1070
tp1071
a(S'Such a load of .  How much have we spent on the nothing burger Russia Collusion based on a fake dossier her campaign took part in...and now she is crying abuse of power.  If you have nothing to hide Hilary let the sunlight hit it...She doth protest to much'
p1072
S'6:32 AM - 16 Nov 2017'
p1073
tp1074
a(S'#HoldTrumpAccounrableFor \n- collusion with Russia\n- Sexual assault\n- Taxing the poor to line his pockets\n- Hiring a corrupt administration \n- The rise of the Nazis\n- Hate crimes committed in his name\n- Not upholding the Constitution \n- US becoming laughingstock of the world'
p1075
S'6:31 AM - 16 Nov 2017'
p1076
tp1077
a(S"Let's #HoldTrumpAccountableFor the sexual assaults he committed.\nLet's #HoldTrumpAccountableFor the lies he tells every day.\nLet's #HoldTrumpAccountableFor his collusion with Russia.\nLet's #HoldTrumpAccountableFor the lives lost in Puerto Rico."
p1078
S'6:30 AM - 16 Nov 2017'
p1079
tp1080
a(S"Congressman PINS Sessions For Lying About Trump's Russia Collusion https://buff.ly/2zLMI1u\xc2\xa0"
p1081
S'6:30 AM - 16 Nov 2017'
p1082
tp1083
a(S'Can we just fast-forward through the next couple of years? I want to skip the  slow drip of headlines and jump straight into the Aaron Sorkin movie about all this GOP/Russia/Hollywood collusion/sex scandals/money laundering.  #fb'
p1084
S'6:27 AM - 16 Nov 2017'
p1085
tp1086
a(S'This tax bill is why Republicans overlooked:\n\nSexual abuse of women\nCollusion with Russia\nWhite supremacy\nObstruction of justice\nMass shootings\nCourting of dictators\nAnd countless numbers of lies.\n\nSo they could give massive tax breaks to themselves and their billionaire donors.'
p1087
S'6:25 AM - 16 Nov 2017'
p1088
tp1089
a(S"Assange (an agent of another country) actively supported the Trump campaign and provided them with information (stolen emails), advice on the campaign and was offering policy advice, all of which Trump and Jr. used.  Screw Russia, now it's collusion with an exiled Australian."
p1090
S'6:25 AM - 16 Nov 2017'
p1091
tp1092
a(S'#HoldTrumpAccountableFor his collusion with Russia and misleading of the American People.'
p1093
S'6:23 AM - 16 Nov 2017'
p1094
tp1095
a(S'Funny because I can literally see Trump shitting his alzheimer-prescribed diaper every time a new fact comes out about his and his cronies\xe2\x80\x99 collusion with Russia! You *know* his tweets are the equivalent of flinging feces! ROFLMAO!'
p1096
S'6:22 AM - 16 Nov 2017'
p1097
tp1098
a(S'Same guys were quick to name one for fake Trump-Russia collusion'
p1099
S'6:20 AM - 16 Nov 2017'
p1100
tp1101
a(S'Collusion with Russia. His white supremacist attitude in the wake of Charlottesville'
p1102
S'6:16 AM - 16 Nov 2017'
p1103
tp1104
a(S'I have a better question, why is the KGB guarding American Embassies in Russia? How did this happen under Special Counsel investigation for collusion with Russia?'
p1105
S'6:15 AM - 16 Nov 2017'
p1106
tp1107
a.