(lp0
(S'This was the real "collusion"  Only thing is that it was not in RUSSIA and Trump was not involved. https://twitter.com/FoxNews/status/909487388149391360\xc2\xa0\xe2\x80\xa6'
p1
S'4:48 PM - 17 Sep 2017'
p2
tp3
a(S"Is #Trump using the 'madman theory' on #Republicans? @CNNPolitics http://cnn.it/2x9SsRx\xc2\xa0 #Politics #NIXON #Russia #RussiaGate #Collusion pic.twitter.com/u0vuqRcYej"
p4
S'4:47 PM - 17 Sep 2017'
p5
tp6
a(S'what proof do you have of ANY collusion between Trump and Russia. If u do, u r better than Mueller. http://www.newsmax.com/Newsfront/President-Obama-ISIS-terrorism/2016/08/04/id/742218/\xc2\xa0\xe2\x80\xa6'
p7
S'4:31 PM - 17 Sep 2017'
p8
tp9
a(S'Is Felix Sater a Channel of Trump Collusion With Russia? http://nymag.com/daily/intelligencer/2017/08/is-felix-sater-a-channel-of-trump-collusion-with-russia.html?utm_source=tw&utm_medium=s3&utm_campaign=sharebutton-t\xc2\xa0\xe2\x80\xa6 via @intelligencer'
p10
S'4:27 PM - 17 Sep 2017'
p11
tp12
a(S'WHY SHOULD WE BE SURPRISED BY THAT GREEDY TINY HANDS MAN #IMPEACH #45 #COLLUSION W/RUSSIA, #VIOLATING THE #EMOLUMENTS DAILY, #STEALING TAX$$https://twitter.com/stevesilberman/status/909495531889598464\xc2\xa0\xe2\x80\xa6'
p13
S'4:26 PM - 17 Sep 2017'
p14
tp15
a(S'@realDonaldTrump Even with your shit storm of tweets this A.M. \nRussia collusion. ACA. Hidden taxes. AND, Obama & Hilary more loved than u.'
p16
S'4:19 PM - 17 Sep 2017'
p17
tp18
a(S'Democratic Senator Diane Feinstein confirms that there is still no evidence of Russia collusion with the Trump campaign.'
p19
S'4:18 PM - 17 Sep 2017'
p20
tp21
a(S'#vicebigot, you to will go to jail.  Russia.  #collusion'
p22
S'4:15 PM - 17 Sep 2017'
p23
tp24
a(S'#LITechNews: Russia collusion probe may last entire Trump presidency #President #Russia #Trumphttps://longislandtechnologynews.com/2017/07/russia-collusion-probe-may-last-entire-trump-presidency/\xc2\xa0\xe2\x80\xa6'
p25
S'4:03 PM - 17 Sep 2017'
p26
tp27
a(S'#Emmys YAY! \nWe get to watch a bunch of low-IQ anti-Trump propagandists yap about the popular vote, Russia collusion hoax & tranny bathrooms pic.twitter.com/nazIzSB9Sw'
p28
S'4:01 PM - 17 Sep 2017'
p29
tp30
a(S'This picture shows Robert Mueler is a "D"ependent Counsel.  He depends on his former boss Obama to push Russia collusion onto @POTUS Trump.'
p31
S'3:54 PM - 17 Sep 2017'
p32
tp33
a(S'Boycott Facebook for collusion with Russia causing Trump to win the election'
p34
S'3:52 PM - 17 Sep 2017'
p35
tp36
a(S'Russia collusion'
p37
S'3:50 PM - 17 Sep 2017'
p38
tp39
a(S'Gotta laugh at a fool who thinks he understands the impeachment talks. Russia is coming, Brandon. Collusion Proof. https://twitter.com/brandongroeny/status/909538714686251008\xc2\xa0\xe2\x80\xa6'
p40
S'3:45 PM - 17 Sep 2017'
p41
tp42
a(S'Pull the plug on Facebook! All the founders are democratstherefore more Democrat/Russia collusion. #MuellerIsComing for #Democrats '
p43
S'3:43 PM - 17 Sep 2017'
p44
tp45
a(S'John Podesta on Fox Business Discusses Russia, Nancy Pelosi @MariaBartiromo ROCKS \n@johnpodesta Russian collusion https://www.youtube.com/watch?v=G06-pXBXYS0&feature=share\xc2\xa0\xe2\x80\xa6'
p46
S'3:41 PM - 17 Sep 2017'
p47
tp48
a(S'Clinton/Russia is the most probable collusion(Uranium)"this is a hint", Trump/Russia '
p49
S'3:39 PM - 17 Sep 2017'
p50
tp51
a(S'There is no Russia collusion.  It all has to do with the #SethRich cover up. @JulianAssange will blow this wide open. Follow @RealMattCouch'
p52
S'3:32 PM - 17 Sep 2017'
p53
tp54
a(S"Here's a news flash, the Clinton camp met with Russians too. Your attempt at selling this Russia collusion is miserably failing."
p55
S'3:29 PM - 17 Sep 2017'
p56
tp57
a(S'An anonymous source within @CNN familiar with the situation, has confirmed they are colluding with Russia for dirt on Trump collusion. #Fake'
p58
S'3:28 PM - 17 Sep 2017'
p59
tp60
a(S'I liked a @YouTube video http://youtu.be/2yPtUzzYpDk?a\xc2\xa0 Is Media Misreporting Trump Jr Russia Collusion Story?'
p61
S'3:25 PM - 17 Sep 2017'
p62
tp63
a(S"Hung up on woman I've known 40 years. She insisted Mueller is fraud & collusion with Russia has been debunked. I don't tolerate fools well."
p64
S'3:24 PM - 17 Sep 2017'
p65
tp66
a(S'@cher DT attack on dreamers, trans, HRC all designed to distract from Russia collusion.Putin hacked our voting machines, more than thought!'
p67
S'3:23 PM - 17 Sep 2017'
p68
tp69
a(S'Hillary Clinton on the \xe2\x80\x9cClear and Present Danger\xe2\x80\x9d of Collusion with Russia http://www.wnyc.org/story/hillary-clinton-clear-and-present-danger-collusion-russia-extra\xc2\xa0\xe2\x80\xa6'
p70
S'3:22 PM - 17 Sep 2017'
p71
tp72
a(S"But didn't respond once to questions about Russia and their interference with our election, ignored q's about Trump's collusion &emoluments"
p73
S'3:22 PM - 17 Sep 2017'
p74
tp75
a(S'Far-Left Democrat Senator is shocked to discover that nobody gives a damn about the phony Russia "collusion" story.\n\nhttp://themarkromano.com/index.php/2017/08/23/democrat-senator-discovers-nobody-cares-about-russia-investigation/\xc2\xa0\xe2\x80\xa6'
p76
S'3:21 PM - 17 Sep 2017'
p77
tp78
a(S'This alone is sufficient to put Russia/Trump collusion to bed: Trump promised to open up oil/gas supply; hurts Russian hard currency gains.'
p79
S'3:17 PM - 17 Sep 2017'
p80
tp81
a(S'All this malicious hate to cover up his collusion with Russia and attempt to throw people off healthcare.'
p82
S'3:17 PM - 17 Sep 2017'
p83
tp84
a(S"Impeachment will come when Mueller's investigation wraps up, rept filed with DOJ & there is clear evidence of collusion with Russia."
p85
S'3:15 PM - 17 Sep 2017'
p86
tp87
a(S'Trump\xe2\x80\x99s political future if the Russia investigation concludes that there was meaningful collusion between Russia and the campaign?'
p88
S'3:08 PM - 17 Sep 2017'
p89
tp90
a(S'Retweet if you EVER found an ounce, a single iota, of evidence of Trump/Russia collusion?'
p91
S'3:07 PM - 17 Sep 2017'
p92
tp93
a(S'I mean to protest.  I call for his removal for collusion with Russia, obstruction of justice, violation of emoluments, FCPA, RICO, to start https://twitter.com/_unicornsfyeah/status/909537544311844864\xc2\xa0\xe2\x80\xa6'
p94
S'3:05 PM - 17 Sep 2017'
p95
tp96
a(S'Are ALL THE REST considered co-conspirators then or only ones involved in Russia collusion case?'
p97
S'2:50 PM - 17 Sep 2017'
p98
tp99
a(S"Now we can talk about collusion but it's not with Russia it's with the Clinton/Obama crime syndicate namely Democrats! https://twitter.com/charlescmarquez/status/909530260126916609\xc2\xa0\xe2\x80\xa6"
p100
S'2:48 PM - 17 Sep 2017'
p101
tp102
a(S"Obama wasn't investigated for collusion with Russia. We'll see how that plays out."
p103
S'2:44 PM - 17 Sep 2017'
p104
tp105
a(S'Hillary-Putin Collusion! Hillary -Russia Collusion! Arrest Hillary! Prosecute Hillary! Lock Hillary Up! Lock Her Up! Lock Her Up Longtime!!!'
p106
S'2:44 PM - 17 Sep 2017'
p107
tp108
a(S'Trump/Russia collusion impeach trump'
p109
S'2:42 PM - 17 Sep 2017'
p110
tp111
a(S"@realDonaldTrump Retweet all the misogynistic gifs you want. We're STILL focused on your Russia collusion. #TraitorInChief #LiarInChief"
p112
S'2:33 PM - 17 Sep 2017'
p113
tp114
a(S'Trump/Russia collusion, connection, corruption. Impeach and imprison trump https://twitter.com/sams1stdaughter/status/909514829664280576\xc2\xa0\xe2\x80\xa6'
p115
S'2:32 PM - 17 Sep 2017'
p116
tp117
a(S'Yes there has been. The whole Russia collusion thing is a nothing burger.'
p118
S'2:31 PM - 17 Sep 2017'
p119
tp120
a(S"Shouldn't a special council be appointed to investigate collusion with Russia?? https://twitter.com/tomfitton/status/909482131822452738\xc2\xa0\xe2\x80\xa6"
p121
S'2:31 PM - 17 Sep 2017'
p122
tp123
a(S'Senate Judiciary Just Made An Announcement That May Expose Trump Jr.\xe2\x80\x99s Russia Collusion http://russia.trendolizer.com/2017/09/senate-judiciary-just-made-an-announcement-that-may-expose-trump-jrs-russia-collusion-1.html\xc2\xa0\xe2\x80\xa6pic.twitter.com/zRah0tI71i'
p124
S'2:20 PM - 17 Sep 2017'
p125
tp126
a(S"FB's profitable collusion w/Russia is in the spotlight, but Twitter rakes in $billions for giving Trump the missile for his lies & threats. pic.twitter.com/DyRIA2PTPC"
p127
S'2:19 PM - 17 Sep 2017'
p128
tp129
a(S"With all d criminal actions that occurred in d Obama regime,d only investigation that's on course, is the Trump-Russia collusion ?! Who won?"
p130
S'2:17 PM - 17 Sep 2017'
p131
tp132
a(S'Ran out of Pee Pee places STOP No collusion between Ukraine & Russia STOP No cross border smuggling allowed No gambling Late Night Outings.'
p133
S'2:13 PM - 17 Sep 2017'
p134
tp135
a(S"hey remember the trump/russia collusion? i don't https://twitter.com/realdailywire/status/909509043584225280\xc2\xa0\xe2\x80\xa6"
p136
S'2:13 PM - 17 Sep 2017'
p137
tp138
a(S"She destroyed my party w/ #Collusion they kicked me out of Dem groups on FB for asking ?'s about Uranium, Russia, Foundation, FBI. NOT HER!"
p139
S'2:08 PM - 17 Sep 2017'
p140
tp141
a(S'So much for impartial investigation. This is a witch hunt.  Begin investigations into HRC collusion with Russia and Benghazi!!'
p142
S'2:07 PM - 17 Sep 2017'
p143
tp144
a(S"McConnell,Chaffetz,Gowdy,Giuliani, Ryan etc, were adament that Trump's collusion( alleged at the time) with Russia & hacking be kept secret."
p145
S'2:06 PM - 17 Sep 2017'
p146
tp147
a(S'Constantly tax returns or Russia collusion.'
p148
S'2:00 PM - 17 Sep 2017'
p149
tp150
a(S'Key Democratic Officials Now Warning Base Not to Expect Evidence of Trump/Russia Collusion https://theintercept.com/2017/03/16/key-democratic-officials-now-warning-base-not-to-expect-evidence-of-trumprussia-collusion/\xc2\xa0\xe2\x80\xa6'
p151
S'1:56 PM - 17 Sep 2017'
p152
tp153
a(S'Trump/Russia collusion impeach and imprison trump  Trump tweets today: Joy and panel discuss his latest http://www.msnbc.com/am-joy/watch/trump-tweets-today-joy-and-panel-discuss-his-latest-1048508483788\xc2\xa0\xe2\x80\xa6 via @msnbc'
p154
S'1:53 PM - 17 Sep 2017'
p155
tp156
a(S"Is that the overwhelming evidence of Trump's collusion with Russia?  He is corrupt, too. Blatantly. Why does he only go to his properties?"
p157
S'1:50 PM - 17 Sep 2017'
p158
tp159
a(S'More info on visitors here is privacy invasion, Russia collusion investigations doesnt mean all visitors should be under investigation too. https://twitter.com/ABC/status/909519040120545285\xc2\xa0\xe2\x80\xa6'
p160
S'1:50 PM - 17 Sep 2017'
p161
tp162
a(S"Only thing Russia did was took 20% of our Uranium and paid Hilary 145 million into the Clintons foundation. That's Collusion and Treason!"
p163
S'1:44 PM - 17 Sep 2017'
p164
tp165
a(S"Clinton + Russia/Putin = Diplomacy\nTrump + Russia/Putin = Collusion \nDidn't you get the memo?"
p166
S'1:20 PM - 17 Sep 2017'
p167
tp168
a(S'Mueller has all-star team of prosecutors/investigators building case against DT:\nObstruction\nMoney Laundering\nRussia Collusion\nProfiteering. https://twitter.com/GoldsteinThomas/status/909486258942103553\xc2\xa0\xe2\x80\xa6'
p169
S'1:17 PM - 17 Sep 2017'
p170
tp171
a(S'@realDonaldTrump @POTUS @DonaldJTrumpJr UNCOVER THE TRUTH-NO RUSSIA COLLUSION!!  Justice for #SethRich'
p172
S'1:11 PM - 17 Sep 2017'
p173
tp174
a(S'Hillary Clinton accuses her political rival, the President of the United States, of collusion w/ Russia.\n\nThis is how Democrats lose in 2020 https://twitter.com/JYSexton/status/909472836905050112\xc2\xa0\xe2\x80\xa6'
p175
S'1:11 PM - 17 Sep 2017'
p176
tp177
a(S'@realDonaldTrump @POTUS @jeffsessions @TGowdySC QUIT WASTING TAXPAYER MONEY ON TRUMP RUSSIA COLLUSION HERES YOUR EVIDENCE! Justice #SethRich'
p178
S'1:05 PM - 17 Sep 2017'
p179
tp180
a(S'The Left should be careful of what they wish for. Instead of collusion w/Trump & Russia, they have Hillary playing #RussianRoulette, lol '
p181
S'12:56 PM - 17 Sep 2017'
p182
tp183
a(S'Senate Judiciary Just Made An Announcement That May Expose Trump Jr.\xe2\x80\x99s Russia Collusion http://verifiedpolitics.com/senate-judiciary-just-made-announcement-may-expose-trump-jr-s-russia-collusion/\xc2\xa0\xe2\x80\xa6 via @OccupyDemocrats'
p184
S'12:54 PM - 17 Sep 2017'
p185
tp186
a(S'Collusion with Russia, not paying taxes, I.e. He and family not paying taxes to NYC, collecting money from his businesses, firing Comey, etc'
p187
S'12:46 PM - 17 Sep 2017'
p188
tp189
a(S"#Trump begging to be impeached. It's too easy to just focus on him: #PenceKnew of #GOP collusion with #Russia & #Mercer & #Kobach.  #ReVote!https://twitter.com/bosslady2898/status/909498360696066048\xc2\xa0\xe2\x80\xa6"
p190
S'12:40 PM - 17 Sep 2017'
p191
tp192
a(S"NO EVIDENCE of collusion 'tween Trump & Russia!\n\nIt's ALL NOISE: an investigation in search of a CRIME! \n\n#PJNETpic.twitter.com/O4M816G5pi"
p193
S'12:40 PM - 17 Sep 2017'
p194
tp195
a(S'They are using this to hide their own collusion with Russia.  Lead by IslamoMarxist Obama.'
p196
S'12:35 PM - 17 Sep 2017'
p197
tp198
a(S'10 correct definition of cyber war means we properly classify Russia as enemy and collusion as treason!'
p199
S'12:34 PM - 17 Sep 2017'
p200
tp201
a(S'Gerrymandering & Russia collusion is what took place in 2016.  Traitor actions & treason does not offend GOP.  GOP dont mind stealing a win.'
p202
S'12:32 PM - 17 Sep 2017'
p203
tp204
a(S'Well, she isnt investgated about Russia collusion.'
p205
S'12:31 PM - 17 Sep 2017'
p206
tp207
a(S'Still waiting on the hard evidence of Russia collusion after a year of Obama -Clinton state run media conspiracy theories!'
p208
S'12:30 PM - 17 Sep 2017'
p209
tp210
a(S'For a real Russia collusion story, follow a different trail - http://go.shr.lc/2wsMxVR\xc2\xa0 - @washtimes'
p211
S'12:28 PM - 17 Sep 2017'
p212
tp213
a(S"That's where the collusion is\nBiden Obabla Clinton=URANIUM\nThis is the reason why Biden feels the need to defend Russia"
p214
S'12:28 PM - 17 Sep 2017'
p215
tp216
a(S'0.0% evidence so far of ANY Russia collusion! To what r u referring, dunderhead? enlighten us? Your nothing more than a left leaning parrot!'
p217
S'12:27 PM - 17 Sep 2017'
p218
tp219
a(S'And soon to be found guilty of collusion with Russia. Save yourself while you still can.'
p220
S'12:26 PM - 17 Sep 2017'
p221
tp222
a(S'Mueller is neck deep with Comey, Clinton, Russia, Odama, and all the other cronies in Obama White House. Collusion charges,may backfire'
p223
S'12:25 PM - 17 Sep 2017'
p224
tp225
a(S"Russia didn't hack the DNC, and the whole Russia collusion story is fake designed by John Podesta the day after the election."
p226
S'12:19 PM - 17 Sep 2017'
p227
tp228
a(S'.\nOr did he RT because something bad regarding his collusion with Russia is about to drop...\n\xc2\xaf\\_(\xe3\x83\x84)_/\xc2\xaf\n#ItsHisPattern\n\ncc: @realdonaldtRUmphttps://twitter.com/ShadowingTrump/status/909496281336356864\xc2\xa0\xe2\x80\xa6'
p229
S'12:19 PM - 17 Sep 2017'
p230
tp231
a(S"There is no actual evidence of collusion with Russia, still. You're an #idiot"
p232
S'12:19 PM - 17 Sep 2017'
p233
tp234
a(S"LOL  hey #Mueller !!  here's your Russia collusion !!   now close the special investigation and quit wasting my hard earned money !! https://twitter.com/TomFitton/status/909482131822452738\xc2\xa0\xe2\x80\xa6"
p235
S'12:19 PM - 17 Sep 2017'
p236
tp237
a(S"Senate Judiciary Just Made An Announcement That #MayExposeTrumpJr.'s Russia Collusion http://www.trendolizer.com/2017/09/senate-judiciary-just-made-an-announcement-that-may-expose-trump-jrs-russia-collusion.html\xc2\xa0\xe2\x80\xa6pic.twitter.com/YCRMg6GduU"
p238
S'12:18 PM - 17 Sep 2017'
p239
tp240
a(S"Well...They couldn't find the Malaysian Airliner and the Russia collusion story has fizzled...What did you expect??? pic.twitter.com/xUV2SFlPfX"
p241
S'12:16 PM - 17 Sep 2017'
p242
tp243
a(S"@HillaryClinton \nGuess Putin's invite email wasn't relevant?! \n@CNN\n@MSNBC\nHere's actual collusion w Russia https://twitter.com/TomFitton/status/909482131822452738\xc2\xa0\xe2\x80\xa6"
p244
S'12:10 PM - 17 Sep 2017'
p245
tp246
a(S'We must not lose sight of fact that Schiff has knowingly lied about Trump/Russia collusion for over a year now. \nhttp://www.thegatewaypundit.com/2017/07/heres-complete-list-30-democrats-hired-criminal-awan-brothers-services/\xc2\xa0\xe2\x80\xa6'
p247
S'12:10 PM - 17 Sep 2017'
p248
tp249
a(S'Dem Rep (we lied) downgrades \xe2\x80\x98Russia hacked & Trump collusion in the election\xe2\x80\x99 claim\xe2\x80\xa6 again... DoG http://www.floppingaces.net/most-wanted/dem-rep-downgrades-russia-hacked-the-election-claim-again/\xc2\xa0\xe2\x80\xa6'
p250
S'12:08 PM - 17 Sep 2017'
p251
tp252
a(S'Russia, Collusion...no one died. Benghazi...four American lives lost, including the ambassador. Shame on you.'
p253
S'12:07 PM - 17 Sep 2017'
p254
tp255
a(S'Everyone should be furious democrats lied about Trump/Russia collusion. It was just democrat incompetence. \nhttp://www.thegatewaypundit.com/2017/07/heres-complete-list-30-democrats-hired-criminal-awan-brothers-services/\xc2\xa0\xe2\x80\xa6'
p256
S'12:07 PM - 17 Sep 2017'
p257
tp258
a(S"On Capital Hill, Trump Jr. Denies Collusion With Russia. Read more in this week's paper! \n#news"
p259
S'12:00 PM - 17 Sep 2017'
p260
tp261
a(S'And not funny when he goes to prison for Russia collusion and money laundering. Awwwww'
p262
S'11:56 AM - 17 Sep 2017'
p263
tp264
a(S'Hillary Clinton on the \xe2\x80\x9cClear and Present Danger\xe2\x80\x9d of Collusion with Russia http://www.wnyc.org/story/hillary-clinton-clear-and-present-danger-collusion-russia-extra/\xc2\xa0\xe2\x80\xa6 via @WNYC @RosieEmery'
p265
S'11:55 AM - 17 Sep 2017'
p266
tp267
a(S"shut it down, or investigate hilary's collusion with russia!!! https://twitter.com/mrntweet2/status/909358265573576704\xc2\xa0\xe2\x80\xa6"
p268
S'11:52 AM - 17 Sep 2017'
p269
tp270
a(S"Circle. JK enables Tr's win with Russia.Tr is grateful and trusts JK's advice. Which is to sack Comey.Thus Mueller.Who uncovers JK collusion"
p271
S'11:50 AM - 17 Sep 2017'
p272
tp273
a(S'Lets check bak when no impeachment U do no hav 2b convicted of crime 4 it 2 happen? U got ur safe space ready? Wher did Russia collusion go?'
p274
S'11:49 AM - 17 Sep 2017'
p275
tp276
a(S"Yeah it wasn't that - it was Trump's collusion and obstruction with Russia, but nice try.  #ImpeachTrump #FakePresident"
p277
S'11:48 AM - 17 Sep 2017'
p278
tp279
a(S"Hope you discuss @realdonaldtRump's insane vanity tweets today. Proof #Mueller is close-money laundering, collusion #impeachtRump #Russia"
p280
S'11:37 AM - 17 Sep 2017'
p281
tp282
a(S"Maybe you're right.\n\nMore likely, Trump will face these charges:\n\nObstruction of Justice\nCollusion w/ Russia\nMoney Laundering\nProfiteering. https://twitter.com/WendyRedFox/status/909479078587113472\xc2\xa0\xe2\x80\xa6"
p283
S'11:30 AM - 17 Sep 2017'
p284
tp285
a(S"Seriously? How about we focus on the serious issues at hand: North Korea, white supremacists, healthcare, Trump's Russia collusion."
p286
S'11:29 AM - 17 Sep 2017'
p287
tp288
a(S'@realDonaldTrump thinks violence against women, white supremacy, and treasonous collusion with Russia is okay. #impeach the idiot'
p289
S'11:25 AM - 17 Sep 2017'
p290
tp291
a(S"Articles: Investigate Hillary's Uranium One Collusion with Russia http://www.americanthinker.com/articles/2017/07/investigate_hillarys_uranium_one_collusion_with_russia.html?utm_campaign=crowdfire&utm_content=crowdfire&utm_medium=social&utm_source=twitter#799007898621923330-tw#1500212880155\xc2\xa0\xe2\x80\xa6"
p292
S'11:21 AM - 17 Sep 2017'
p293
tp294
a(S'@CBSThisMorning @gayleking @NBCNews Coverage Monday AM on this? Any report? Or is HER collusion w/Russia not imp. because she had YOUR vote? https://twitter.com/Carrie_Kelly17/status/909453930542850049\xc2\xa0\xe2\x80\xa6'
p295
S'11:17 AM - 17 Sep 2017'
p296
tp297
a(S'5/ Russian collusion was convenient. He already was beholden to Russia for most of his income - according to Don Jr- Betsy DeVos helped him'
p298
S'11:10 AM - 17 Sep 2017'
p299
tp300
a(S'Holy crap you believe the Russia collusion story.  That explains a lot.  Do you still believe that Russia hacked the dnc?'
p301
S'10:59 AM - 17 Sep 2017'
p302
tp303
a(S'Such as the Democrats\' bogus "Russia collusion" myth?  LOL!\n\nRT On #ConstitutionDay @realDonaldTrump continues to violate our laws'
p304
S'10:56 AM - 17 Sep 2017'
p305
tp306
a(S'Russia helped Cheeto man to win the election and the Trump/Russia collusion is definitely real.'
p307
S'10:49 AM - 17 Sep 2017'
p308
tp309
a(S'The case for Trump-Russia collusion: We\xe2\x80\x99re getting very, very close\nhttp://wapo.st/2xRDBdy\xc2\xa0'
p310
S'10:37 AM - 17 Sep 2017'
p311
tp312
a(S"He's terrified ppl are coming to see his collusion with Russia is real. He cheated and he's being exposed. The great deflector at work."
p313
S'10:35 AM - 17 Sep 2017'
p314
tp315
a(S'Then RESIGN as you & your collusion with Russia threaten our way of life'
p316
S'10:33 AM - 17 Sep 2017'
p317
tp318
a(S'WHAT THE HELL IS WRONG WITH REPUBLIANS IN DC ITS CLEAR  NO COLLUSION WITH RUSSIA & TRUMP CAMPAIGN YET HE HIRES DEMS TO DESTROY @POTUS45__'
p319
S'10:33 AM - 17 Sep 2017'
p320
tp321
a(S'Poor frustrated small-minded Dems cant accept the obvious reality that their Trump-Russia collusion theory has been thoroughly debunked.'
p322
S'10:29 AM - 17 Sep 2017'
p323
tp324
a(S"Like her husbands dealings in Russia and collusion in throwing election is legal? Then YEAH; if that's your calibration. She falsified docs!"
p325
S'10:28 AM - 17 Sep 2017'
p326
tp327
a(S"How do you intend to pay what most certainly will be massive legal fees to cover up all the lies you've told re: collusion with Russia?"
p328
S'10:28 AM - 17 Sep 2017'
p329
tp330
a(S'Nothing about you is honorable, pussygrabber.  Russia. #collusion'
p331
S'10:25 AM - 17 Sep 2017'
p332
tp333
a(S'Uh Oh, collusion with Russia. '
p334
S'10:22 AM - 17 Sep 2017'
p335
tp336
a(S'The whole Russia collusion story is fake news'
p337
S'10:19 AM - 17 Sep 2017'
p338
tp339
a(S'Hillary Clinton on the \xe2\x80\x9cClear and Present Danger\xe2\x80\x9d of Collusion with Russia http://www.wnyc.org/story/hillary-clinton-clear-and-present-danger-collusion-russia/\xc2\xa0\xe2\x80\xa6 via @WNYC'
p340
S'10:19 AM - 17 Sep 2017'
p341
tp342
a(S'Not shocked that EVERY interviewer this week let Hillary accuse Russia of collusion with @POTUS without being asked about her ties to Putin.'
p343
S'10:17 AM - 17 Sep 2017'
p344
tp345
a(S'Here is the only collusion with Russia. The more they investigate Trump and find nothing, the more dirt they find on the Dems. Too funny. pic.twitter.com/4Foc5eH4et'
p346
S'10:15 AM - 17 Sep 2017'
p347
tp348
a(S'More n more "Russia Collusion" keeps coming out! Russia w/Clinton\'s! Podesta! Even Dirty Cop Mueller! To name a few! https://www.conservativereview.com/articles/emails-hillary-clinton-invited-putin-to-clinton-foundation-gala#undefined.uxfs\xc2\xa0\xe2\x80\xa6'
p349
S'10:13 AM - 17 Sep 2017'
p350
tp351
a(S"Oh yea, all kinds of facts are coming out about the Democrats and their collusion with Russia. Won't see that on CNN though. Or any MSM "
p352
S'10:10 AM - 17 Sep 2017'
p353
tp354
a(S'American Patriot Daily \xe2\x80\x93 Robert Muller Just Got His Hands On This Evidence Of Collusion With Russia http://www.americanpatriotdaily.com/uncategorized/robert-muller-just-got-his-hands-on-this-evidence-of-collusion-with-russia/\xc2\xa0\xe2\x80\xa6'
p355
S'10:02 AM - 17 Sep 2017'
p356
tp357
a(S'The US needs to investigate collusion w/ Russia & Facebook. As we all know Facebook believes strongly in many communist philosophies'
p358
S'10:00 AM - 17 Sep 2017'
p359
tp360
a(S"#HillaryClinton  'Convinced' #Trump  Camp #collusion  With #Russia. #Putin http://nbcnews.to/2xi2lyt\xc2\xa0 #MuellerTime is #resistance #NeverForget"
p361
S'10:00 AM - 17 Sep 2017'
p362
tp363
a(S'if $10 were made on #Hillary hate then $1000 was made on #Trump hate\n\n#Podesta got #Russia money\n\n#DNC #Ukraine #Collusion\n#SethRich murder'
p364
S'9:58 AM - 17 Sep 2017'
p365
tp366
a(S'I liked a @YouTube video http://youtu.be/lw2BVI9OhC4?a\xc2\xa0 Trump, Russia, Possible Collusion (REMIX)'
p367
S'9:53 AM - 17 Sep 2017'
p368
tp369
a(S'cheating #DNC learns of #SethRich leak: #HRC #Podesta countered planting #Russia #Hoax narrative w/ #Obama admin #Collusion\n#unMasking $WMT'
p370
S'9:53 AM - 17 Sep 2017'
p371
tp372
a(S'This in principle will be able to demonstrate collusion between the #Trump family, the Trump campaign, and #Russia , a foreign hostile power https://twitter.com/tribelaw/status/909020755840634880\xc2\xa0\xe2\x80\xa6'
p373
S'9:51 AM - 17 Sep 2017'
p374
tp375
a(S'So @DylanByers why do you cover the FB ad story, Mueller, Russia, collusion, etc. if you believe this tweet....? https://twitter.com/DylanByers/status/908059155134529536\xc2\xa0\xe2\x80\xa6'
p376
S'9:42 AM - 17 Sep 2017'
p377
tp378
a(S'#IsntHeInJailYet? #Russia #MoneyLaundering #Collusion\n@realDonaldTrump'
p379
S'9:40 AM - 17 Sep 2017'
p380
tp381
a(S'#ArentYouInJailYet? #Russia #MoneyLaundering #Collusion #FollowTheMoney'
p382
S'9:38 AM - 17 Sep 2017'
p383
tp384
a(S'excellent interview with @HillaryClinton on the \xe2\x80\x9cClear and Present Danger\xe2\x80\x9d of Collusion with Russia http://www.wnyc.org/story/hillary-clinton-clear-and-present-danger-collusion-russia/\xc2\xa0\xe2\x80\xa6 via @WNYC'
p385
S'9:37 AM - 17 Sep 2017'
p386
tp387
a(S'TRUMP KNEW ALL ALONG RUSSIA WAS TIPPING THE SCALES! HE LIED EVERYTIME ASKED ABOUT IT! SHOWS INTENT/COLLUSION! WTF! R WE WAITING 4!IMPEACH! https://twitter.com/GovHowardDean/status/877921791221661696\xc2\xa0\xe2\x80\xa6'
p388
S'9:36 AM - 17 Sep 2017'
p389
tp390
a(S'Liberal Agenda:\n\nImpeach\nRussia\nCollusion\nTaxes\nRacist\nWhite Supremist\nNazi\nXenophobe\nMisogynist\nRocket Man\n\nFAIL FAIL FAIL  Losers!! pic.twitter.com/ZWNOhYqxZr'
p391
S'9:33 AM - 17 Sep 2017'
p392
tp393
a(S'Zero in emails. Umm.. collusion? Obstruction? Russia? Money laundering? Stiffing? Get ready 2 get ur visitor\'s pass 2 say "hi" to YOUR 45. pic.twitter.com/LGm7uc8bSN'
p394
S'9:32 AM - 17 Sep 2017'
p395
tp396
a(S'Still trying to link Russia to the Trump campaign after 6 months of Congressional investigation, NO collusion has been found.CNN= FAKE NEWS'
p397
S'9:28 AM - 17 Sep 2017'
p398
tp399
a(S'after...Trump U, rape charge, sexual ass charge, collusion w/Russia.no he would not'
p400
S'9:26 AM - 17 Sep 2017'
p401
tp402
a(S'COLLUSION WITH RUSSIA! https://twitter.com/NewtTrump/status/909283888039694336\xc2\xa0\xe2\x80\xa6'
p403
S'9:23 AM - 17 Sep 2017'
p404
tp405
a(S'#fireKushner he colluded with Russia why does he still have security clearance. Collusion = Treason #TrumpRussiahttps://twitter.com/harleyb11/status/909419603704582144\xc2\xa0\xe2\x80\xa6'
p406
S'9:11 AM - 17 Sep 2017'
p407
tp408
a(S'Every day accountability to the American people gets closer & the Deep State fights more dirty to keep the DNC Russia Collusion hoax secret.'
p409
S'9:04 AM - 17 Sep 2017'
p410
tp411
a(S'Back to the Russian collusion. Nothing else worked, Russia is your last hope. You know very well there is nothing there'
p412
S'9:02 AM - 17 Sep 2017'
p413
tp414
a(S'Collusion \xc3\x97 1000= gotcha\nMueller just obtained a warrant that could change the entire nature of Russia investigation https://finance.yahoo.com/news/mueller-just-obtained-warrant-could-153200191.html\xc2\xa0\xe2\x80\xa6'
p415
S'9:01 AM - 17 Sep 2017'
p416
tp417
a(S'So far in 8 months it has been. How do u feel about Hillary giving uranium to Russia. Is that collusion?'
p418
S'9:00 AM - 17 Sep 2017'
p419
tp420
a(S'Congressman demands Russia-collusion probe \xe2\x80\x93 into Hillary http://www.wnd.com/2017/09/congressman-demands-russia-collusion-probe-into-hillary/\xc2\xa0\xe2\x80\xa6'
p421
S'8:59 AM - 17 Sep 2017'
p422
tp423
a(S'2) Investigating Trump for collusion with Russia is not baseless. There would not be a grand jury activated otherwise.'
p424
S'8:59 AM - 17 Sep 2017'
p425
tp426
a(S'How dare you say we are not true Americans,  we arent traitors like he is & his followers supporting collusion wit Russia. #trumprussia'
p427
S'8:43 AM - 17 Sep 2017'
p428
tp429
a(S'Conway: Hillary Clinton \xe2\x80\x98one of the only people\xe2\x80\x99 who believes in Russia collusion http://politi.co/2tazATC\xc2\xa0 via @politico'
p430
S'8:43 AM - 17 Sep 2017'
p431
tp432
a(S'these different factions and people when the cause is gerrymandering & voter suppression + Russia collusion & hacked voting 2/'
p433
S'8:41 AM - 17 Sep 2017'
p434
tp435
a(S'China & Russia collusion w PRNK must be isolated, exposed & sanctioned.'
p436
S'8:34 AM - 17 Sep 2017'
p437
tp438
a(S'@HillaryClinton Clear and Present Danger\xe2\x80\x9d of Collusion with Russia pic.twitter.com/iZn6YUgPrZ'
p439
S'8:33 AM - 17 Sep 2017'
p440
tp441
a(S'Pure Propaganda By #DUMB AS A #ROCK #IVANKA\nMISDIRECTIONTo deflect attention from the\nTRUMPRUSSIA,#COLLUSION #INVESTIGATIONpic.twitter.com/AI4YbmlK07'
p442
S'8:32 AM - 17 Sep 2017'
p443
tp444
a(S'Likewise Donald j Trump should not get a pass because he is the 45th President for collusion with Russia'
p445
S'8:29 AM - 17 Sep 2017'
p446
tp447
a(S'Jealous of the division, corruption, and collusion with Russia that he brought to the Whitehouse?'
p448
S'8:17 AM - 17 Sep 2017'
p449
tp450
a(S'I don\'t think you know what "non-sequitur" means. You said Russia collusion allegations are debunked. They\'re VERY MUCH NOT.'
p451
S'8:17 AM - 17 Sep 2017'
p452
tp453
a(S"Yeah we're still with the Russian collusion. Not sure why any true American wouldn't be deeply concerned about Russia's attack on the U.S. https://twitter.com/davicfosho/status/909405488927797250\xc2\xa0\xe2\x80\xa6"
p454
S'8:14 AM - 17 Sep 2017'
p455
tp456
a(S'Maybe this is why the GOP Establishment has been so mum on the Russia collusion narrative and refuse to defend... http://fb.me/99tQ0EcLZ\xc2\xa0'
p457
S'8:13 AM - 17 Sep 2017'
p458
tp459
a(S'Wikileaks can debunk the Russia collusion farce for good @realDonaldTrumphttps://twitter.com/Wikileaks_Lover/status/909298243917430784\xc2\xa0\xe2\x80\xa6'
p460
S'8:02 AM - 17 Sep 2017'
p461
tp462
a(S'Will Impeach Trump for collusion with Russia as ordained and established by the Constitution for the United States of America!!!'
p463
S'8:02 AM - 17 Sep 2017'
p464
tp465
a(S'There exists a dociere stating that "the whole Russia collusion story was made up". The Deep State is covering up for Hillary.  Search.'
p466
S'7:58 AM - 17 Sep 2017'
p467
tp468
a(S'Will Impeach President Trump for collusion with Russia, tax evasion, White Supremacist, sexism, and healthcare!'
p469
S'7:54 AM - 17 Sep 2017'
p470
tp471
a(S"You have not done shit.  Actually, I take that back.  What you've tried to do is shot.  Russia. #collusion"
p472
S'7:52 AM - 17 Sep 2017'
p473
tp474
a(S'Maybe Mueller will find fake news spread by Trump campaign in collusion with Russia.'
p475
S'7:51 AM - 17 Sep 2017'
p476
tp477
a(S'Brilliant report by @CordeliaSkyNews regarding the alleged collusion between the Trump campaign and  Russia. Really good watch!!'
p478
S'7:49 AM - 17 Sep 2017'
p479
tp480
a(S'Nothing to Russia collusion.Democrats more corrupt during 2016 election than Trump campaign. DWS, Donna Brazil, John Podesta,Hillary Clinton'
p481
S'7:45 AM - 17 Sep 2017'
p482
tp483
a(S"Ok, you need to loosen your tin foil hat there. I wonder if you'd be so gung ho about a HRC/Russia investigation! The real collusion!"
p484
S'7:42 AM - 17 Sep 2017'
p485
tp486
a(S'Happy #ConstitutionDay @RepHultgren will you uphold it as you swore?Stop ignoring possible emoluments violations & collusion with Russia'
p487
S'7:41 AM - 17 Sep 2017'
p488
tp489
a(S'And yet there is still zero evidence of any collusion with Russia'
p490
S'7:36 AM - 17 Sep 2017'
p491
tp492
a(S'Daily reminder: #POTUS, family, friends & -who knows- supporters under investigation for COLLUSION w/Russia. #Mueller is getting closer!pic.twitter.com/6XmGvdKaqA'
p493
S'7:34 AM - 17 Sep 2017'
p494
tp495
a(S'I have said the nature of evil is backwards!Trump accused of Russian collusion and the accusers colluded with Russia!Not hard to understand!'
p496
S'7:19 AM - 17 Sep 2017'
p497
tp498
a(S'Need all the accolades u can get while u know a team of legal experts r uncovering ur life of crime & Trump campaign collusion with Russia'
p499
S'7:17 AM - 17 Sep 2017'
p500
tp501
a(S'Rep Schiff (D) on LA ABC peddling new Russia collusion story. Maybe GOP gave them data or laundered money for them.  He has no credibility.'
p502
S'7:14 AM - 17 Sep 2017'
p503
tp504
a(S'Mueller is knee deep in collusion with Comey, Clinton, Obama, Russia. All the little Obama cronies .'
p505
S'7:13 AM - 17 Sep 2017'
p506
tp507
a(S'You are a buffoon. A complete embarrassment. Also, Russia, Mueller, collusion, RICO, trafficking, prison. SAD! Trump=Loser #MAGA #resistpic.twitter.com/Ph3vgsAVab'
p508
S'7:09 AM - 17 Sep 2017'
p509
tp510
a(S'And he is STILL under investigation by Robert Mueller for collusion with Russia and obstruction of justice!'
p511
S'7:07 AM - 17 Sep 2017'
p512
tp513
a(S"Mark didn't see @amjoyshow she tweeted out this morning that she will discuss #Russia interfering w elections. Probably not Obama collusion pic.twitter.com/qfsgL4eFr8"
p514
S'7:00 AM - 17 Sep 2017'
p515
tp516
a(S"if the warrant was relating to the #HillaryClinton #Russia collusion then I think you are right, you big 'Movie Star'  haha, idiot lefties"
p517
S'6:59 AM - 17 Sep 2017'
p518
tp519
a(S'Sir, r u provoking North Korea so u can intervene militarily n distract us from ur collusion w/Russia, tax returns, golfing n immaturity???'
p520
S'6:57 AM - 17 Sep 2017'
p521
tp522
a(S'#MTP this am, @chucktodd & media shuld worry less on how a 45 voter feels & more on #russia, #treason, #collusion bc nothing else matters...'
p523
S'6:55 AM - 17 Sep 2017'
p524
tp525
a(S"Well....I guess Muellers team is very familiar with the Clinton/Russia Collusion while they're desperatly trying to hang #DJT \nfor it.\n#UGHhttps://twitter.com/NewtTrump/status/909283888039694336\xc2\xa0\xe2\x80\xa6"
p526
S'6:53 AM - 17 Sep 2017'
p527
tp528
a(S"#Russia also claiming that it's somehow suspicious the SDF advanced quickly to Deir-eZou, trying to imply collusion with Da'esh."
p529
S'6:52 AM - 17 Sep 2017'
p530
tp531
a(S'Workers and left forces Russia demand to stop policy of collusion bourgeois power Russia with ruling circles imperialism US against DPRK! https://twitter.com/tass_agency/status/908802910934495232\xc2\xa0\xe2\x80\xa6'
p532
S'6:49 AM - 17 Sep 2017'
p533
tp534
a(S'Two of my favorite things! Fall  and Russia collusion testimony '
p535
S'6:38 AM - 17 Sep 2017'
p536
tp537
a(S'Congressman demands Russia-collusion probe \xe2\x80\x93 into Hillary http://www.wnd.com/2017/09/congressman-demands-russia-collusion-probe-into-hillary/\xc2\xa0\xe2\x80\xa6'
p538
S'6:37 AM - 17 Sep 2017'
p539
tp540
a(S'More collusion between the FBI, DOJ and Clinton than between Russia and Trump! Why are they not going after Clinton for pay 2 play and email'
p541
S'6:37 AM - 17 Sep 2017'
p542
tp543
a(S'Trump electoral college win is courtesy of Russia/Trump collusion and Comey! The ppl did not elect him. Hillary won popular vote by 3M votes'
p544
S'6:33 AM - 17 Sep 2017'
p545
tp546
a(S"That's what cons do. They deflect. Trump's treasonous collusion with Russia is the only real story. https://twitter.com/davidcorndc/status/909395746943848449\xc2\xa0\xe2\x80\xa6"
p547
S'6:30 AM - 17 Sep 2017'
p548
tp549
a(S'Russia collusion confirmed! Found it for you @CNN @Acosta @MSNBC @nytimes @washingtonpost @politico @HillaryClintonhttps://twitter.com/cr/status/909197778592681985\xc2\xa0\xe2\x80\xa6'
p550
S'6:28 AM - 17 Sep 2017'
p551
tp552
a(S'So who has the "Russia Collusion" happening...better fact check @CNN pictures speak louder then accusations pic.twitter.com/ZkeE10Firp'
p553
S'6:21 AM - 17 Sep 2017'
p554
tp555
a(S'Wow!! Russia collusion has been on the Democratic Party all this time !! We knew it '
p556
S'6:20 AM - 17 Sep 2017'
p557
tp558
a(S"R Muller now has 9 dem lawyers who gave $ to the party now not doing Russia going into life's of Trumps people talk about collusion not fair"
p559
S'6:16 AM - 17 Sep 2017'
p560
tp561
a(S"Steven, I think you're on to something here. Don't let up! The American people need you! I think this might be the tip of Russia collusion."
p562
S'6:00 AM - 17 Sep 2017'
p563
tp564
a(S'Waiting for justice re: Clinton corruption. Instead the left focuses on Russia collusion and senseless other distractions. \nKeep on it!'
p565
S'5:58 AM - 17 Sep 2017'
p566
tp567
a(S".\nI wonder where he got the #money from?\nSome people say he's #BROKE & the #Russia cash has dried up\n.\n#Collusion #Corrupt #Inept #Kushner"
p568
S'5:54 AM - 17 Sep 2017'
p569
tp570
a(S'#Facebook had to know, from the pattern and volume of posts, that #Russia was interfering in our #elections. #collusion'
p571
S'5:53 AM - 17 Sep 2017'
p572
tp573
a(S"@realDonaldTrump Mueller entire team r partisan democrats?! I need to stop bec Russia collusion is on Democrats. They're not looking there!"
p574
S'5:49 AM - 17 Sep 2017'
p575
tp576
a(S'You must not live in the  last I checked he won! Pls show proof of Russia collusion? Just ask @DWStweets who really colluded'
p577
S'5:37 AM - 17 Sep 2017'
p578
tp579
a(S'See #skynews are still trying to flog the Trump/Russia collusion dead horse. He won. Get over it'
p580
S'5:35 AM - 17 Sep 2017'
p581
tp582
a(S'NO COLLUSION HERE, JUST PUSHING NUKE REACTORS FOR RUSSIA WHILE CAMPAIGNING TO BE POTUS! NO , NO COLLUSION!'
p583
S'5:34 AM - 17 Sep 2017'
p584
tp585
a(S'Also why they did the whole Russia collusion BS- when they have real ties to Russia.'
p586
S'5:29 AM - 17 Sep 2017'
p587
tp588
a(S'Evidence of Trump/Russia collusion is like hen\xe2\x80\x99s teeth. Hillary corruption evidence like an open face coal mine. http://fb.me/Fk5Fb9Bp\xc2\xa0'
p589
S'5:28 AM - 17 Sep 2017'
p590
tp591
a(S'This is exactly the response Captain Asshat wants from his "haters".\nMedia needs to keep  it\'s focus on Trumps collusion with Russia.'
p592
S'5:25 AM - 17 Sep 2017'
p593
tp594
a(S'#fire Mueller Comey collusion with Mueller. Conflict of interest. @AGJeffBSessions do your job. Not about Russia. #fireRosentein .'
p595
S'5:23 AM - 17 Sep 2017'
p596
tp597
a(S"Yeah, no. That's not it honey. Dump Resistance is about America, not collusion with Russia. Dump is a fascist bigot bully pervert. #impeach"
p598
S'5:12 AM - 17 Sep 2017'
p599
tp600
a(S'A popular politician selling a book (like many do) bothers you more than collusion with Russia and the silence of our acting government do?'
p601
S'5:11 AM - 17 Sep 2017'
p602
tp603
a(S'LOL RUSSIA!!! Since your a fan of actual facts, where are the FACTS of Russian collusion?'
p604
S'5:08 AM - 17 Sep 2017'
p605
tp606
a(S'Any1 offering bets on when first allegation will be made of collusion between #BorisJohnson & #Russia? #Brexit #Remoaners #Putin #Marr'
p607
S'5:06 AM - 17 Sep 2017'
p608
tp609
a(S'Trump/Russia collusion, connection, corruption. Impeach and imprison trump.'
p610
S'5:01 AM - 17 Sep 2017'
p611
tp612
a(S'Trump/Russia collusion, connection corruption impeach and imprison trump https://twitter.com/funder/status/909064601169473537\xc2\xa0\xe2\x80\xa6'
p613
S'4:59 AM - 17 Sep 2017'
p614
tp615
a(S'Trumps crimes\nCollusion w Russia \nObstruction of justice \nImpeding investigation \nIntimidating witness \nExtortion \nEmoluments \n$ laundering'
p616
S'4:54 AM - 17 Sep 2017'
p617
tp618
a(S'Russia collusion is just another Example. O got caught spying on Trump & now aft HRC lost we then have a Russia collusion, not before ??'
p619
S'4:52 AM - 17 Sep 2017'
p620
tp621
a(S'Collusion Illusion:\n\nThat #Hollywood or #MSM might have more influence on Nov 6, 2018 or Nov 3, 2020 elections than Russia did!\n#WeThePeoplepic.twitter.com/Pz0Ah5szSy'
p622
S'4:43 AM - 17 Sep 2017'
p623
tp624
a(S'Trump/Russia collusion impeach trump https://twitter.com/adamparkhomenko/status/905569823777796096\xc2\xa0\xe2\x80\xa6'
p625
S'4:39 AM - 17 Sep 2017'
p626
tp627
a(S'When will the UK & US MSM stop pushing this ridiculous Russia/Trump collusion farce? None of the intelligent public believe it.'
p628
S'4:30 AM - 17 Sep 2017'
p629
tp630
a(S'Democrat accusers of \xe2\x80\x98collusion with Russia\xe2\x80\x99 made heavy use of disinformation from Russia to target Trump => http://www.worldtribune.com/democrat-accusers-of-collusion-with-russia-made-heavy-use-of-disinformation-from-russia-to-target-trump/\xc2\xa0\xe2\x80\xa6'
p631
S'4:18 AM - 17 Sep 2017'
p632
tp633
a(S'Hillary Clinton on the \xe2\x80\x9cclear and present danger\xe2\x80\x9d of collusion with Russia. http://nyer.cm/hsfrI3B\xc2\xa0'
p634
S'4:00 AM - 17 Sep 2017'
p635
tp636
a(S"Focus instead on Trump's many methods for making money from US taxpayers and his collusion with Russia."
p637
S'3:58 AM - 17 Sep 2017'
p638
tp639
a(S"Investigate Hillary's Uranium One Collusion with Russia http://dlvr.it/PVk07j\xc2\xa0 http://ow.ly/PHx1N\xc2\xa0 #MAGA #PJNETpic.twitter.com/7HU3A5VnkZ"
p640
S'3:55 AM - 17 Sep 2017'
p641
tp642
a(S"And this insulting has absolutely nothing to do with the  Russia collusion because it's a bogus nothing burger pic.twitter.com/IdykTbJBml"
p643
S'3:53 AM - 17 Sep 2017'
p644
tp645
a(S'There is actual evidence for Benghazi. Only evidence of collusion in election was between\xe2\x80\x8b. MSM, DNC and Clintons. Or Clintons and Russia.'
p646
S'3:26 AM - 17 Sep 2017'
p647
tp648
a(S'Do we know how many investigations Mueller has active with respect to Russia collusion, Trump surrogates and money laundering, obstruction?'
p649
S'3:17 AM - 17 Sep 2017'
p650
tp651
a(S"It wont change a thing; Mueller is just a pawn; him & Rosenstein know there wasn't any collusion between the Trump campaign & Russia, none."
p652
S'3:15 AM - 17 Sep 2017'
p653
tp654
a(S'Hey @realDonaldTrump daily reminder.#Russia #Collusion #OBSTRUCTION #liarinchief #putinspuppet #illegitimatepresident #MuellerIsComing'
p655
S'2:56 AM - 17 Sep 2017'
p656
tp657
a(S'Also this was after, can you give me evidence of collusion prior the election tying Russia and Trump that shows he changed votes.'
p658
S'1:47 AM - 17 Sep 2017'
p659
tp660
a(S'Rohrabacher Calls For Hearings On Clinton Foundation Collusion With Russia https://disobedientmedia.com/2017/09/rohrabacher-calls-for-hearings-on-clinton-foundation-collusion-with-russia/\xc2\xa0\xe2\x80\xa6'
p661
S'1:46 AM - 17 Sep 2017'
p662
tp663
a(S'Gen. McMaster reiterated what everybody, including the fake media already knows- there is "no evidence" of collusion w/ Russia and Trump.'
p664
S'1:39 AM - 17 Sep 2017'
p665
tp666
a(S'Congressman demands Russia-collusion probe \xe2\x80\x93 into Hillary http://www.wnd.com/2017/09/congressman-demands-russia-collusion-probe-into-hillary/\xc2\xa0\xe2\x80\xa6'
p667
S'1:26 AM - 17 Sep 2017'
p668
tp669
a(S'If you think @EricLichtblau published the "FBI says no proof of trump/Russia collusion" story as a simple arbiter of truth, youre an idiot.'
p670
S'1:05 AM - 17 Sep 2017'
p671
tp672
a(S"Investigate Hillary's Uranium One Collusion with Russia http://dlvr.it/PVk07j\xc2\xa0 http://ow.ly/PHx1N\xc2\xa0 #MAGA #PJNETpic.twitter.com/Jt0UhgxP4F"
p673
S'12:40 AM - 17 Sep 2017'
p674
tp675
a(S'No Russia. No Puppet. No Collusion. NEYT https://twitter.com/billbrowder/status/909096090938544129\xc2\xa0\xe2\x80\xa6'
p676
S'12:20 AM - 17 Sep 2017'
p677
tp678
a(S'More evidence for that than there is for the Russia collusion... \nCNN: "An anonymous source just confirmed Trump\'s Antichrist status!"'
p679
S'12:14 AM - 17 Sep 2017'
p680
tp681
a(S"Russia Hack Hoax is dead. TrumpRussia collusion is bunk. Sanctions and sabre rattling vs Russia occur b/c Russia doesn't tow line w/bankers. https://twitter.com/julianassange/status/908857010187374593\xc2\xa0\xe2\x80\xa6"
p682
S'11:52 PM - 16 Sep 2017'
p683
tp684
a(S"For every story we have tracking the Trump campaign's collusion with Russia, we see how their failure in 2016 led to this."
p685
S'11:49 PM - 16 Sep 2017'
p686
tp687
a(S"Instead, he's gotten allegations of collusion between Russia and Belarus."
p688
S'11:32 PM - 16 Sep 2017'
p689
tp690
a(S'@thehill AMERICA was more pleasant, stabled with #no treasonous Russia collusion. When 1st Lady Michell, Barak Obama was Commander-in-Chief'
p691
S'11:11 PM - 16 Sep 2017'
p692
tp693
a(S'Russia collusion: Don Jr to testify in front of Senate judiciary committee behind closed doors.   http://www.lemonde.fr/donald-trump/article/2017/08/30/affaire-russe-donald-trump-jr-temoignera-devant-la-commission-judiciaire-du-senat_5178198_4853715.html\xc2\xa0\xe2\x80\xa6'
p694
S'10:52 PM - 16 Sep 2017'
p695
tp696
a(S"The investigation into Trump's collusion with Russia is what he was referring to with witch hunt comment. America's on to you & your boys."
p697
S'10:50 PM - 16 Sep 2017'
p698
tp699
a(S'Minor fabricated crap from losing side.There is no Russia collusion, rapes, or sexual assaults.All lies from those crazy dem politicians.'
p700
S'10:39 PM - 16 Sep 2017'
p701
tp702
a(S'Russia Russia Russia Russia Russia Russia Russia Russia Russia Russian Collusion! https://twitter.com/NewtTrump/status/909283888039694336\xc2\xa0\xe2\x80\xa6'
p703
S'10:31 PM - 16 Sep 2017'
p704
tp705
a(S'Yuit original statement "prior to this admin,there  was no nepotism in the White House , wrong. No collusion with Russia ?'
p706
S'10:14 PM - 16 Sep 2017'
p707
tp708
a(S"Good thing like Mueller's investigation of Trump's collusion with Russia. The great President Obama set the stock market in positive motion."
p709
S'10:02 PM - 16 Sep 2017'
p710
tp711
a(S'He leaked the fake russia collusion stories. There is absolutely nothing remotely there. What chess move gets us closer to amnesty? https://twitter.com/donminogue/status/909256191439712257\xc2\xa0\xe2\x80\xa6'
p712
S'9:11 PM - 16 Sep 2017'
p713
tp714
a(S"How many more Clinton cronies does Muelker have to hire before Sessions deems it a Witch hunt for Trump's head. Russia collusion is dead! https://twitter.com/jackbones10/status/909264483566022656\xc2\xa0\xe2\x80\xa6"
p715
S'9:03 PM - 16 Sep 2017'
p716
tp717
a(S'Meanwhile the president fox news endorsed is under FBI investigation for collusion with Russia'
p718
S'8:58 PM - 16 Sep 2017'
p719
tp720
a(S"Jen's gone full Garland. @pixelatedboat was right. 56 tweets on Bernie-Russia collusion that's 7,840 characters of untreated brain parasites pic.twitter.com/r3TY1Ue1f1"
p721
S'8:49 PM - 16 Sep 2017'
p722
tp723
a(S"We need to get bob mueller's collusion with james comey against POTUS &  Russia & his secret meeting on the tarmac & uranium for hillary etc https://twitter.com/JudicialWatch/status/908699430987141120\xc2\xa0\xe2\x80\xa6"
p724
S'8:49 PM - 16 Sep 2017'
p725
tp726
a(S"@POTUS @KellyannePolls  He's Christian He's the only one that wouldn't play the NWO game that's y Russia collusionWhat a dirty game. https://twitter.com/cr/status/909197778592681985\xc2\xa0\xe2\x80\xa6"
p727
S'8:29 PM - 16 Sep 2017'
p728
tp729
a(S'He releases the proof of Trump Russia collusion! Not JUST Russian meddling but Actual proof of conspiracy!'
p730
S'8:23 PM - 16 Sep 2017'
p731
tp732
a(S"Donald Trump is not our president.  He was bougbt and paid for by Vladimir Putin & had the election rigged by Russia with Trump's collusion."
p733
S'8:21 PM - 16 Sep 2017'
p734
tp735
a(S'Refer\'n t  campaign t influence \'16  election (+ likely collusion) as "the Russia hack" is mildly inaccurate @ best, misleading @ worst.'
p736
S'8:09 PM - 16 Sep 2017'
p737
tp738
a(S'For a real Russia collusion story, follow a different trail - http://go.shr.lc/2wsMxVR\xc2\xa0 - @washtimes'
p739
S'8:08 PM - 16 Sep 2017'
p740
tp741
a(S'Such as her collusion with Russia, Benghazi, voter fraud, etc?'
p742
S'8:05 PM - 16 Sep 2017'
p743
tp744
a(S'For what? More proof of collusion between Russia & HRC then DJT!'
p745
S'8:05 PM - 16 Sep 2017'
p746
tp747
a(S'President Trump will serve two terms and Mueller will still be trying to find evidence of collusion with Russia! pic.twitter.com/l0SbfI3eoa'
p748
S'8:03 PM - 16 Sep 2017'
p749
tp750
a(S"about Mueller's investigation into Russia's interference into our elections & collusion by Liar-in-Chief and his cohorts taking too long. 3/"
p751
S'8:02 PM - 16 Sep 2017'
p752
tp753
a(S"GOOD! He's finally going to find collusion w/ Russia. And it's going to be F***ing HILARIOUS when all point to Hilary & Nobama. Jail him 2"
p754
S'8:00 PM - 16 Sep 2017'
p755
tp756
a(S'Google Hillary saying Benghazi was because of a video. Google Hillary selling our uranium to Russia there is ur collusion'
p757
S'7:56 PM - 16 Sep 2017'
p758
tp759
a(S"guess U haven't been paying attention There was no collusion with Russia Only crimes committed were by Comey, Hillary, Obama, Rice & Powers"
p760
S'7:36 PM - 16 Sep 2017'
p761
tp762
a(S'The majority likes her. The "Mother of all rallies" proves how little support Trump has. Collusion Russia FB fools Mueller, all in due time.'
p763
S'7:25 PM - 16 Sep 2017'
p764
tp765
a(S'Do you really want to know why Hillary started yelling about Trump and Russia collusion?'
p766
S'7:23 PM - 16 Sep 2017'
p767
tp768
a(S'Great @WNYC radio. Clinton, whip smart and articulate, on the \xe2\x80\x9cClear and Present Danger\xe2\x80\x9d of Collusion with Russia http://www.wnyc.org/story/hillary-clinton-clear-and-present-danger-collusion-russia/\xc2\xa0\xe2\x80\xa6'
p769
S'7:14 PM - 16 Sep 2017'
p770
tp771
a(S'RUSSIA COLLUSION!! Well maybe not. OBSTRUCTION!! not going to happen. IMPEACHMENT!! Nope. HE SHOOK HER HAND!! So what?'
p772
S'7:09 PM - 16 Sep 2017'
p773
tp774
a(S"It's just the norm now trump Russia collusion. GOP seems 2 b okay w/ it"
p775
S'7:05 PM - 16 Sep 2017'
p776
tp777
a(S'If Russia helped anyone they helped Hillary. If there was collusion, it was with Hillary. Julian will confirm. \n\n#UraniumOne #Podesta #Toast'
p778
S'7:04 PM - 16 Sep 2017'
p779
tp780
a(S'Save the "traitor" line for when Mueller returns evidence of Trump\'s collusion w/ Russia & I don\'t have to "research" if 1st lady is female.'
p781
S'7:03 PM - 16 Sep 2017'
p782
tp783
a(S'Much like the Russia collusion...! :)'
p784
S'6:59 PM - 16 Sep 2017'
p785
tp786
a(S"say white ppl r evil. Russia collusion a lie. They do burn flags & kneel. They're pro Palestine, antifa, refugee. Racist statues. All true"
p787
S'6:56 PM - 16 Sep 2017'
p788
tp789
a(S"Corey, what do you know about Trump's collusion with Russia and when did you know it?"
p790
S'6:55 PM - 16 Sep 2017'
p791
tp792
a(S'They are bazaar. Fake President. Trump/Russia collusion. Impeach and imprison trump'
p793
S'6:54 PM - 16 Sep 2017'
p794
tp795
a(S'Treason and collusion with Russia. Use of cancer kids money to buy portrait of himself. RICO laws. Emolsion clause is being violated daily'
p796
S'6:52 PM - 16 Sep 2017'
p797
tp798
a(S'Gaffney: Brennan Testimony Confirms No Evidence of Trump-Russia Collusion but \xe2\x80\x98Abundant Evidence\xe2\x80\x99 - Breitbart News https://apple.news/A_i-zLjKUOhaOgjONYp__og\xc2\xa0\xe2\x80\xa6'
p799
S'6:49 PM - 16 Sep 2017'
p800
tp801
a(S'Hey judge can you say collusion with Russia? Can you say stolen money from St Jude cancer kids? Trump used charity money like personal act'
p802
S'6:47 PM - 16 Sep 2017'
p803
tp804
a(S'Drop the hammer on anyone in collusion with Russia, Mueller. I hate a traitor.'
p805
S'6:44 PM - 16 Sep 2017'
p806
tp807
a(S'It will never be over if Dems have their way.   By the way, besides some social media trolls what Russia collusion is there?'
p808
S'6:30 PM - 16 Sep 2017'
p809
tp810
a(S'Democrat accusers of \xe2\x80\x98collusion with #Russia\xe2\x80\x99 made heavy use of disinformation from Russia to target Trump http://s.einnews.com/0xm5iFTro3\xc2\xa0'
p811
S'6:30 PM - 16 Sep 2017'
p812
tp813
a(S"Like doing business w Russia as signs of collusion. Did 3 shows on Trump's real estate sold to Russians. Many Americans sell to Russians!"
p814
S'6:24 PM - 16 Sep 2017'
p815
tp816
a(S'Fox News hosts wrong that no law bans Russia-Trump collusion http://www.politifact.com/punditfact/statements/2017/may/31/gregg-jarrett/fox-news-hosts-wrong-no-law-forbids-russia-trump-c/\xc2\xa0\xe2\x80\xa6 via @PunditFact'
p817
S'6:11 PM - 16 Sep 2017'
p818
tp819
a(S"There is a movement to #DeleteFacebook. Delete your account Oct 19th. Protest Facebook's collusion w Russia to elect Donald Trump."
p820
S'5:54 PM - 16 Sep 2017'
p821
tp822
a(S"This was the whole thing Trump meant by a mutual internet collusion with Russia that was Jared's other job"
p823
S'5:53 PM - 16 Sep 2017'
p824
tp825
a(S'Enter yet if you\xe2\x80\x99d simply resign.  Lowest approval in history.  Biggest spender in history. Not to forget collusion with Russia.'
p826
S'5:51 PM - 16 Sep 2017'
p827
tp828
a(S"So what do you want to compare to Trump collusion with Russia let's compare I got all day long"
p829
S'5:48 PM - 16 Sep 2017'
p830
tp831
a(S'Now it\'s "Trump campaign ties to Russia" instead of collusion, which is the illegal standard of conduct.  What is a "tie"?'
p832
S'5:43 PM - 16 Sep 2017'
p833
tp834
a(S'@GOP must end this. Set Limits on time and $. No Trump/Russia collusion. Now looking for a hangnail to convict STOP the waste @SpeakerRyan'
p835
S'5:41 PM - 16 Sep 2017'
p836
tp837
a(S'House Democrat Pushes for #Facebook Testimony on #Russia Collusion #President #DonaldTrump http://russia.trendolizer.com/2017/09/house-democrat-pushes-for-facebook-testimony-on-russia-collusion.html\xc2\xa0\xe2\x80\xa6pic.twitter.com/nm6duLULV9'
p838
S'5:32 PM - 16 Sep 2017'
p839
tp840
a(S'The moment when a non vet arguing about how all  vet need mental health services becomes Russia collusion. SMH https://twitter.com/lph34rl1/status/909212531297624064\xc2\xa0\xe2\x80\xa6'
p841
S'5:31 PM - 16 Sep 2017'
p842
tp843
a(S'Oh, he will get time. Money laundering, collusion with Russia, mafia dealings, treason, etc. And etc.'
p844
S'5:23 PM - 16 Sep 2017'
p845
tp846
a(S'There are no more dots!...Mercer, Kushner and Bannon are collusion, all one goal. Russia developed ads and these guys developed targets DONE'
p847
S'5:20 PM - 16 Sep 2017'
p848
tp849
a(S'This needs to stop. Waste of taxpayer money. Russia collusion a false narrative started by Clinton per Podesta email day after election.'
p850
S'5:12 PM - 16 Sep 2017'
p851
tp852
a(S"Facebook isn't looking at all good w/the big money from Russia to have an effect on our election - and some of it paid in rubles? Collusion?"
p853
S'5:12 PM - 16 Sep 2017'
p854
tp855
a(S'More DNC and Hillary collusion with Russia http://www.google.com/amp/s/townhall.com/tipsheet/katiepavlich/2017/07/27/surprise-russia-tried-to-get-dirt-on-trump-too-was-behind-fake-dossier-n2360905%3famp=true\xc2\xa0\xe2\x80\xa6'
p856
S'4:55 PM - 16 Sep 2017'
p857
tp858
a(S'Then when it was 2late & u realized he could win & Russia collusion, u all began 2do ur job. Problem is, ure still whining bc he turned on u'
p859
S'4:48 PM - 16 Sep 2017'
p860
tp861
a(S"Omg, it's just as crazy as it seems. Seriously, wtf. I thought the Trump Russia collusion stuff was insane but this is a whole new level. pic.twitter.com/Ta1qqxBeVW"
p862
S'4:43 PM - 16 Sep 2017'
p863
tp864
a(S'Left for 10 months-"RUSSIA TRUMP COLLUSION! ARGLE-BARGLE!"\nLeft Today-"HILLARY WAS BEING STRATEGIC INVITING PUTIN!"\n\npic.twitter.com/Z1Zw02vNa1'
p865
S'4:43 PM - 16 Sep 2017'
p866
tp867
a(S'I wish Trump fans hated his collusion with Russia as much as they hate GGG.'
p868
S'4:32 PM - 16 Sep 2017'
p869
tp870
a(S'Since Russia collusion failed this is thier new game.  Dem Party is morally bankrupt and defunct of ideas.'
p871
S'4:27 PM - 16 Sep 2017'
p872
tp873
a(S'RT PrisonPlanet "Don Jr.\'s non-event meeting may be the last gasp of the faux Russia-Trump collusion scandal. https://t.co/xvPaDg'
p874
S'4:26 PM - 16 Sep 2017'
p875
tp876
a(S'@POTUS @realDonaldTrump @KellyannePolls @JaySekulow @SebGorka \nWarrant to investigate collusion between FB & Russia. http://www.businessinsider.com/mueller-obtains-warrant-for-russia-linked-facebook-ads-and-accounts-2017-9\xc2\xa0\xe2\x80\xa6'
p877
S'4:25 PM - 16 Sep 2017'
p878
tp879
a(S'Burr: "We\xe2\x80\x99re looking at Russia\xe2\x80\x99s meddling in our elections and potential collusion of either campaign. Bob Mueller\xe2\x80\x99s NOT INTERESTED in that\xe2\x80\x9d'
p880
S'4:21 PM - 16 Sep 2017'
p881
tp882
a(S'Comey , mccain tried to buy Russian dossier from p who deal w Russia collusion is w Comey and mccain enough ugly mueller @ChuckGrassley'
p883
S'4:19 PM - 16 Sep 2017'
p884
tp885
a(S"Yeah but how's that Russia collusion thing going? pic.twitter.com/0MTvmDfYyD"
p886
S'4:03 PM - 16 Sep 2017'
p887
tp888
a(S'At what point do these fake profiles stop with the fake russia collusion.  Not even libs believe it. Move on.'
p889
S'3:58 PM - 16 Sep 2017'
p890
tp891
a(S'You should tweet a thank you to President Obama for that. All you do is divide! #WorstPresidentEver #ImpeachTrump #Russia #collusion'
p892
S'3:56 PM - 16 Sep 2017'
p893
tp894
a(S'Just a reminder for stalkers! #MAGAOOPS:WaPo Russia Collusion Story--Team Trump REJECTED Offers To Meet W/Russia http://www.dailywire.com/news/19721/oops-wapo-russia-collusion-story-reveals-team-james-barrett\xc2\xa0\xe2\x80\xa6'
p895
S'3:50 PM - 16 Sep 2017'
p896
tp897
a(S'Since when are Americans defined by collusion with Russia?'
p898
S'3:48 PM - 16 Sep 2017'
p899
tp900
a(S'No, because Russia Russia Russia Collusion Collusion Colussion by TRUMP TRUMP TRUMP https://twitter.com/bostonglobe/status/908031338162335749\xc2\xa0\xe2\x80\xa6'
p901
S'3:48 PM - 16 Sep 2017'
p902
tp903
a(S'For a real Russia collusion story, follow a different trail - http://go.shr.lc/2wsMxVR\xc2\xa0 - @washtimes'
p904
S'3:42 PM - 16 Sep 2017'
p905
tp906
a(S'The New Yorker Radio Hour: Hillary Clinton on the \xe2\x80\x9cClear and Present Danger\xe2\x80\x9d of Collusion with Russia http://www.wnyc.org/story/hillary-clinton-clear-and-present-danger-collusion-russia/\xc2\xa0\xe2\x80\xa6'
p907
S'3:38 PM - 16 Sep 2017'
p908
tp909
a(S"It's useless because you can't read. Doesn't matter if there was collusion. Russia interfered in our election to get a moron elected."
p910
S'3:37 PM - 16 Sep 2017'
p911
tp912
a(S'Russia made a concerted effort to interfere to get your boy elected. That is the Truth, not a  narrative. Collusion or no, that is fucked up'
p913
S'3:36 PM - 16 Sep 2017'
p914
tp915
a(S'I have said about 15 times in response to your claims I think there was collusion that I only know Russia interfered.'
p916
S'3:33 PM - 16 Sep 2017'
p917
tp918
a(S'Shit show as usual from the pathological liar in chief. #ImpeachTrump #Russia #Collusion #MuellerIsComing'
p919
S'3:30 PM - 16 Sep 2017'
p920
tp921
a(S'If there happened to be Russians supporting @POTUS via FB how exactly does it translate to campaign collusion with Russia exactly?'
p922
S'3:25 PM - 16 Sep 2017'
p923
tp924
a(S'@RepThomasMassie @RandPaul fed gov s/pay if not found guilty of reason mueller council impaneled -Russia collusion http://thehill.com/blogs/blog-briefing-room/news/350994-former-trump-aide-liquidated-childrens-college-fund-to-pay-for\xc2\xa0\xe2\x80\xa6'
p925
S'3:22 PM - 16 Sep 2017'
p926
tp927
a(S'Trump-Russia Collusion\nClapper-"no evidence"\nBrennan-"no evidence"\nPelosi-"no evidence"\nSchiff-"no evidence"\nComey-"no evidence"'
p928
S'3:21 PM - 16 Sep 2017'
p929
tp930
a(S'Who cares. Russia collusion is a farce.  Yawn.'
p931
S'3:13 PM - 16 Sep 2017'
p932
tp933
a(S"It's called mind control to confuse you & to create division... Wiki leaks made it loud & clear there is no russia collusion!!"
p934
S'3:12 PM - 16 Sep 2017'
p935
tp936
a(S'Retweeted Jerome Corsi (@jerome_corsi):\n\n"Russia Collusion" meme failed, "White Supremacy" meme failed, now DEEP... http://fb.me/yhkmeZmf\xc2\xa0'
p937
S'3:08 PM - 16 Sep 2017'
p938
tp939
a(S'When your Uncle says "Go Trump" and you quickly clap back "to where? Jail for collusion with Russia?" #StayWoke'
p940
S'3:07 PM - 16 Sep 2017'
p941
tp942
a(S'#Facebook #Russia #collusion #TrumpIsGuiltyAFhttps://twitter.com/renato_mariotti/status/909046433931841537\xc2\xa0\xe2\x80\xa6'
p943
S'3:06 PM - 16 Sep 2017'
p944
tp945
a(S'This guy takes a pretty no-nonsense approach to the legalities surrounding Trump-Russia collusion. He notes speculation. AMA 7EST, 4PST https://twitter.com/SethAbramson/status/909173174041968640\xc2\xa0\xe2\x80\xa6'
p946
S'3:05 PM - 16 Sep 2017'
p947
tp948
a(S'looking for collusion w/ Russia, anyone? https://twitter.com/CR/status/909040196636864512\xc2\xa0\xe2\x80\xa6'
p949
S'3:04 PM - 16 Sep 2017'
p950
tp951
a(S'"Russia Collusion" meme failed, "White Supremacy" meme failed, now DEEP STATE pushes "Trump Caved" meme to demoralize base. WON\'T WORK'
p952
S'2:56 PM - 16 Sep 2017'
p953
tp954
a(S'RT NIVIsa4031: Compare & Contrast minutes the media spent on Russia Collusion that never happened \n#FakeNewsMedia \xe2\x80\xa6 https://twitter.com/NIVIsa4031/status/909172026174246912\xc2\xa0\xe2\x80\xa6'
p955
S'2:48 PM - 16 Sep 2017'
p956
tp957
a(S'LOL Always the "fake news" (and always Trump\'s lies). Part of Trump\'s coverup to abort the Russia-Trump collusion.'
p958
S'2:46 PM - 16 Sep 2017'
p959
tp960
a(S'Within days of March 20, 2017: Trump Asks Intelligence Leaders to Deny Evidence of Trump-Russia Collusion http://bit.ly/2lLDn5Z\xc2\xa0'
p961
S'2:44 PM - 16 Sep 2017'
p962
tp963
a(S'it\'s all a lie & you know it.\nyou choose to believe it out of desperation.\nif there was any "Russia collusion" Trump wouldn\'t be in office.'
p964
S'2:44 PM - 16 Sep 2017'
p965
tp966
a(S'"NO EVIDENCE OF COLLUSION BETWEEN RUSSIA AND TRUMP CAMPAIGN TO INFLUENCE THE ELECTION"...Diane Feinstein , one of ur own!\nWhy\'d she say it?? https://twitter.com/Luther05553306/status/909155858482855939\xc2\xa0\xe2\x80\xa6'
p967
S'2:41 PM - 16 Sep 2017'
p968
tp969
a(S'Feb. 28, 2017: GOP Blocks Effort to Clarify Trump-Russia Collusion. Read the full timeline here:  http://bit.ly/2lLDn5Z\xc2\xa0 @GOPHOUSE colludes'
p970
S'2:38 PM - 16 Sep 2017'
p971
tp972
a(S'OMG link to my Russian Collusion! Do you sell units in Russia?? Big J Beezy Only In Paris\n\xd0\xa1\xd0\xbb\xd1\x83\xd1\x88\xd0\xb0\xd1\x82\xd1\x8c \xd0\xbe\xd0\xbd\xd0\xbb\xd0\xb0\xd0\xb9\xd0\xbd  || \xd0\xa1\xd0\xba\xd0\xb0\xd1\x87\xd0\xb0\xd1\x82\xd1\x8c http://mobimuz.ru/search/big-j-beezy/\xc2\xa0\xe2\x80\xa6'
p973
S'2:31 PM - 16 Sep 2017'
p974
tp975
a(S"Gotta go back to Clinton for a blowjob. Merp.. Russia gate is collusion to compromise our literal democracy.Above all ideology, it's treason"
p976
S'2:29 PM - 16 Sep 2017'
p977
tp978
a(S"Hey #vicebigot...we're happy you left Indiana.  Russia. #collusion."
p979
S'2:27 PM - 16 Sep 2017'
p980
tp981
a(S'Hillary pulled more votes than any white presidential contender ever; the treasonous Trump/Russia collusion and the morons will pay a price'
p982
S'2:22 PM - 16 Sep 2017'
p983
tp984
a(S'Having no idea how to make a decent argument, Liberals obsess over "Racism" and "Russia Collusion"  #LiberalismIsAMentalDisorder'
p985
S'2:08 PM - 16 Sep 2017'
p986
tp987
a(S'when in reality it was russian collusion and hacking that stole a presidency for russia, donald jr emails are tip of the iceberg of cover up'
p988
S'2:07 PM - 16 Sep 2017'
p989
tp990
a(S'Don, you are the greatest threat the earth faced.  Russia. #collusion'
p991
S'1:58 PM - 16 Sep 2017'
p992
tp993
a(S"Don't forget the sexism, racism, collusion with Russia, illegal money laundering, gerrymandering, making ACA fail, Emoluments abuser etc. https://twitter.com/kylegriffin1/status/909154808900153344\xc2\xa0\xe2\x80\xa6"
p994
S'1:54 PM - 16 Sep 2017'
p995
tp996
a(S'(6). Follow up?  Go back and look at every single Trump/Russia collusion retweet or post u have done?  Any turn out to be correct?'
p997
S'1:51 PM - 16 Sep 2017'
p998
tp999
a(S"ICYMI Manning gave secrets to WIKILEAKS! Same WIKILEAKS that y'all wet yourselves over, screaming RUSSIA! Collusion! U ignore Russia now? https://twitter.com/aedison/status/908751309708386306\xc2\xa0\xe2\x80\xa6"
p1000
S'1:51 PM - 16 Sep 2017'
p1001
tp1002
a(S"Russia collusion tanked. Now it's white supremacist. That will tank too."
p1003
S'1:49 PM - 16 Sep 2017'
p1004
tp1005
a(S'If Assange stayed quiet, the lie that Russia hacked the DNC could stand with collusion from Obama IC/ODNI, DNC, DC PD and Crowdstrike.'
p1006
S'1:47 PM - 16 Sep 2017'
p1007
tp1008
a(S"They found it, collusion btw Russia & Trump, he'll be impeached any day now & Hillary will be installed as President. "
p1009
S'1:45 PM - 16 Sep 2017'
p1010
tp1011
a(S'Still no evidence of Russia collusion.  Actually it looks like it was Dems IT guy. This is what happens when you listen to @CNN fake news.'
p1012
S'1:31 PM - 16 Sep 2017'
p1013
tp1014
a(S'Please tell us-exactly what lies has the President told about Russia collusion?'
p1015
S'1:31 PM - 16 Sep 2017'
p1016
tp1017
a(S"@RepAdamSchiff When Trump-Russia Collusion dominos fall (& I truly believe they will) don't forget ALL of @VP LIES!http://www.msnbc.com/rachel-maddow/watch/pence-up-to-his-neck-in-russia-scandal-losing-press-secretary-1047943235752?cid=eml_mra_20170916\xc2\xa0\xe2\x80\xa6"
p1018
S'1:30 PM - 16 Sep 2017'
p1019
tp1020
a(S"Mueller got a warrant to investigate collusion between Facebook and Russia AGAINST Trump! I've been predicting this http://www.businessinsider.com/mueller-obtains-warrant-for-russia-linked-facebook-ads-and-accounts-2017-9\xc2\xa0\xe2\x80\xa6"
p1021
S'1:30 PM - 16 Sep 2017'
p1022
tp1023
a(S'Thread, USA.\nAnd remember: Congress has plenty of cause to #ImpeachTrump & remove him separate from collusion between Trump et al. & Russia. https://twitter.com/sarahkendzior/status/909057664960860161\xc2\xa0\xe2\x80\xa6'
p1024
S'1:28 PM - 16 Sep 2017'
p1025
tp1026
a(S'Cain the sexual harasser hates it that his country of Russia and his collusion is going to be discovered. Cain fears the truth'
p1027
S'1:14 PM - 16 Sep 2017'
p1028
tp1029
a(S'Just a thought, do you think Miller is there to protect the Dems and it has nothing to do with the Russia collusion....'
p1030
S'1:10 PM - 16 Sep 2017'
p1031
tp1032
a(S"TOLD U russia is probably ones funding all these torrorist groups plus all their other collusion buddies r 2! AWAKEN DON'T BE DECEIVED!!"
p1033
S'1:09 PM - 16 Sep 2017'
p1034
tp1035
a(S'Does this also mean @NancyPelosi & @SenSchumer are in collusion with Russia?'
p1036
S'1:09 PM - 16 Sep 2017'
p1037
tp1038
a(S"U do realize that there is not a tiny bit of proof for Trump/Russia collusion. Now they're just trying to get him on finances/ obstruction. pic.twitter.com/3Rxeu2uxQl"
p1039
S'1:07 PM - 16 Sep 2017'
p1040
tp1041
a(S"I think Melania is Trump's prize/controller from Russia for his collusion.  She won't hold his hand so shaking it is the best he can do. https://twitter.com/owillis/status/908783895449128960\xc2\xa0\xe2\x80\xa6"
p1042
S'1:01 PM - 16 Sep 2017'
p1043
tp1044
a(S"I don't buy the collusion but believe MY country's security forces when they say Russia interfered. Trump could have cooperated to c why"
p1045
S'12:52 PM - 16 Sep 2017'
p1046
tp1047
a(S'Trump/Russia collusion : \xe2\x80\x9cI believe there was coordination, and I\xe2\x80\x99m going to leave it at that for now.\xe2\x80\x9d https://www.vanityfair.com/news/2017/09/jared-kushner-data-operation-russia-facebook/amp\xc2\xa0\xe2\x80\xa6'
p1048
S'12:32 PM - 16 Sep 2017'
p1049
tp1050
a(S"If it was direct payment, it gets harder to prove collusion. Makes it look like it was all Russia's doing. Russia wanting to fuck with us."
p1051
S'12:31 PM - 16 Sep 2017'
p1052
tp1053
a(S'"JW" should and must Sue "for records on Links Between" Russia and the \'16 USpresidential election for collusion and interference. FAIRNESS!'
p1054
S'12:20 PM - 16 Sep 2017'
p1055
tp1056
a(S'Zuckerberg was paid millions by CIA. This is another BS Russia collusion narrative.  The Collusion Delusion.  FACEBOOK is def a libtard org.'
p1057
S'12:19 PM - 16 Sep 2017'
p1058
tp1059
a(S'What happened to Russia... Remember the Russia thing... I remember being in the news something about collusion.. am I mis remember ing'
p1060
S'12:16 PM - 16 Sep 2017'
p1061
tp1062
a(S'@facebook >5000 acts of Russia collusion:\nFB gave Mueller more details on Russian ad buys than Congress https://www.wsj.com/articles/facebook-gave-special-counsel-robert-mueller-more-details-on-russian-ad-buys-than-congress-1505514552\xc2\xa0\xe2\x80\xa6 via @WSJ'
p1063
S'12:12 PM - 16 Sep 2017'
p1064
tp1065
a(S'What is #Mueller investigating? Russia collusion #whateverthatis has been thoroughly debunked #investigativecreep #taxpayerdollars'
p1066
S'12:07 PM - 16 Sep 2017'
p1067
tp1068
a(S'Jared, after you mow the lawn,\nI want you commit #collusion with Russia.\noh, and use emails, not phone.https://twitter.com/ReignOfApril/status/908804305435623424\xc2\xa0\xe2\x80\xa6'
p1069
S'12:03 PM - 16 Sep 2017'
p1070
tp1071
a(S'This move will either prove or disprove collusion between the Trump team and Russia once and for all. http://fb.me/3qQy5h05s\xc2\xa0'
p1072
S'11:55 AM - 16 Sep 2017'
p1073
tp1074
a(S'What unknown sources you have. The same as Russia Collusion.?. You are done girl and you know it'
p1075
S'11:52 AM - 16 Sep 2017'
p1076
tp1077
a(S"Notice how they dropped the Russia stuff?  Maybe because it's turned around on them?  They are lousy with the smell of Russian collusion."
p1078
S'11:43 AM - 16 Sep 2017'
p1079
tp1080
a(S'@PatrioticCindy @funder OMGThere is NO Russia/Trump collusionWhat planet do u live on'
p1081
S'11:43 AM - 16 Sep 2017'
p1082
tp1083
a(S"it'd be so easy if everyone used Venmo #Venmo #Potus #realDonaldTrump #RobertMeuller #Impeachment #Putin #Russia #Collusion #Bustedpic.twitter.com/w3JCy0mMar"
p1084
S'11:39 AM - 16 Sep 2017'
p1085
tp1086
a(S'Looking for government collusion with Russia? Look no further, here it is; plain as the nose on your face... https://twitter.com/CR/status/909040196636864512\xc2\xa0\xe2\x80\xa6'
p1087
S'11:36 AM - 16 Sep 2017'
p1088
tp1089
a(S'2/ME: "His campaign is under investigation by the FBI for collusion with Russia--" \n#TRUMP VOTERS.: "#FAKENEWS!"'
p1090
S'11:32 AM - 16 Sep 2017'
p1091
tp1092
a(S'@realDonaldTrump YOU ARE A WHITE SUPREMACIST placed in OUR HOUSE by Russian collusion! RUSSIA RUSSIA RUSSIA #impeachTrumpnow #ResignTrump'
p1093
S'11:30 AM - 16 Sep 2017'
p1094
tp1095
a(S"More fake news from MSNBC!\n\nWhat FACTS do you have for your statement?\n\nPence isn't even involved in the Democrat/Russia collusion story!"
p1096
S'11:24 AM - 16 Sep 2017'
p1097
tp1098
a(S'"It was all Trumps idea, the money laundering, the collusion with Russia, please don\'t put us in prison."Says Manafort n everyone around him https://twitter.com/politico/status/909118479705493505\xc2\xa0\xe2\x80\xa6'
p1099
S'11:20 AM - 16 Sep 2017'
p1100
tp1101
a.