(lp0
(S'YUGE !! \nIts all tying together: Mueller-Rosenstein-McCabe-coverup lawyers-FBI-Comey-FusionGPS-Russia Collusion-Podesta-Obama-Hillary-UraniumOne-RUSSIA !!! https://twitter.com/RealSaavedra/status/940343217681088512\xc2\xa0\xe2\x80\xa6'
p1
S'3:59 PM - 11 Dec 2017'
p2
tp3
a(S'we are not stupid to believe this...the Dems trying hard to oust @POTUS using dirty scheme...Russia Collusion failed..so now this? bye bye https://twitter.com/TruthFeedNews/status/940301577562177536\xc2\xa0\xe2\x80\xa6'
p4
S'3:58 PM - 11 Dec 2017'
p5
tp6
a(S'Well...they dropped Russia, went with collusion for a few days...then had a #FrankenMoment decided to thro him out...and ya....they care about women again. 48 hours later. What a joke!!!  These are @HillaryClinton @BillClinton last ditch effort to save themselves. #DrainTheSwamp'
p7
S'3:57 PM - 11 Dec 2017'
p8
tp9
a(S'"Collusion"by DT enc.=0. Collusion by BO/HC even"more flexible"Adm=Prior HC #InfluencePeddling #UraniumOne to #Russia&DOJ Covering it up;Inaction on #RU"meddling";HC/#CF*funding*Kremlin\'s #FakeSexDossier=Obviously Putin wanted a POTUS HC b/c he knew he could buy her off again.'
p10
S'3:56 PM - 11 Dec 2017'
p11
tp12
a(S'Media went from Russia collusion to Presidents Diet coke drinking habits real quick.'
p13
S'3:56 PM - 11 Dec 2017'
p14
tp15
a(S'CNN has quietly walked back more of their \xe2\x80\x9cbombshell\xe2\x80\x9d Trump-Russia collusion narrative; this time, admitting Jeff Sessions is NOT a liar, as they claimed in May. CNN now admits FBI emails prove Sessions\xe2\x80\x99 explanation was accurate.MAGA http://dailycaller.com/2017/12/11/cnn-walks-back-jeff-sessions-russia-bombshell/?utm_medium=email\xc2\xa0\xe2\x80\xa6'
p16
S'3:56 PM - 11 Dec 2017'
p17
tp18
a(S'@NBC Russia, Russia, Russia.   Hmmmm.... The REAL collusion is between Democrats and Russia.  (So typical that you libs would commit a crime, and then try to assign blame to someone else.) https://twitter.com/FiveRights/status/940204256145100800\xc2\xa0\xe2\x80\xa6'
p19
S'3:56 PM - 11 Dec 2017'
p20
tp21
a(S"You see now that they can't find anything about Russia collusion , they went out and got these women , and I don't know if it's true or he said she said , But the left is still looking to pull our President down , NOT WORKING"
p22
S'3:56 PM - 11 Dec 2017'
p23
tp24
a(S'Yeah that was disgusting but it was lol when trump assumed Comey was a GOP shill and put him in charge of the Russia investigation only to have to fire him because he actually investigated the collusion.'
p25
S'3:55 PM - 11 Dec 2017'
p26
tp27
a(S'All this nonsense coming back up after a year only tells me they know the whole \xe2\x80\x9cRussia collusion\xe2\x80\x9d thing is a big dud so let\xe2\x80\x99s bring up some old accusations to get him out! They are so desperate it\xe2\x80\x99s pathetic'
p28
S'3:55 PM - 11 Dec 2017'
p29
tp30
a(S"His investigation into Manafort went back 10 years.\n\nI guess he didn't realize his mandate was to look into evidence of 2016 election collusion between Trump/Russia."
p31
S'3:55 PM - 11 Dec 2017'
p32
tp33
a(S'Is this guy for real? The only Russian collusion is the millions the Clinton campaign spent which eventually went to Russia for national enquiry type dacia...which was used to try to bring down trump. What a lying Lil weasel'
p34
S'3:54 PM - 11 Dec 2017'
p35
tp36
a(S"Why haven't you been investigated with your collusion with Russia?"
p37
S'3:54 PM - 11 Dec 2017'
p38
tp39
a(S'This is great. #dems switch to unsubstantiated sexual misconduct and sacrifice @SenFranken since Russia collusion hit a dead end and economy / country is booming.\n\n#fakenews #cnn #msm #nicetry'
p40
S'3:54 PM - 11 Dec 2017'
p41
tp42
a(S"it's the Democrats newest tool coz fake Russia collusion is backfiring them instead! https://twitter.com/PEACETHAHARDWAY/status/940365692473405440\xc2\xa0\xe2\x80\xa6"
p43
S'3:53 PM - 11 Dec 2017'
p44
tp45
a(S'Why does he need to resign? CNN says he will be impeached any day now. Losing faith in Mueller and Russia collusion I see.'
p46
S'3:50 PM - 11 Dec 2017'
p47
tp48
a(S'Well the phony Russia collusion going nowhere so now the left tries this BS.'
p49
S'3:48 PM - 11 Dec 2017'
p50
tp51
a(S'Over one year and 5 million dollars spent trying to find the non-existent evidence of Russia collusion. When they threw Franken under the bus last week, not hard to see what was coming this week.'
p52
S'3:45 PM - 11 Dec 2017'
p53
tp54
a(S'1. The Ukraine isn\'t Russia and has nothing to do with whatever "collusion" was alleged during the 2016 election. \n\n2. Manafort was indicted for acts that took place in 2011/2012.\n\n3. Manafort was working with the Podesta Group -- as in Hillary\'s campaign manager.'
p55
S'3:45 PM - 11 Dec 2017'
p56
tp57
a(S"Suspend Robert Mueller's politically tainted investigation into Russia-Trump collusion https://usat.ly/2BbqkBL\xc2\xa0 via @usatoday"
p58
S'3:45 PM - 11 Dec 2017'
p59
tp60
a(S'Do not accuse my botness being Russia Russia recalculate collusion error Diet Coke'
p61
S'3:44 PM - 11 Dec 2017'
p62
tp63
a(S'Ok the facts are that Manafort has pleaded Not Guilty , Flynn pleaded guilty about lying & papadopoulos pleaded but none of the charges were for collusion with Russia'
p64
S'3:44 PM - 11 Dec 2017'
p65
tp66
a(S'It is now becoming increasingly clear that Russia was only marginally successful in tilting the election one way or the other. If you want to believe Hillary, she thinks Comey shot her down. You need another meme. The Russian collusion meme is dead.'
p67
S'3:43 PM - 11 Dec 2017'
p68
tp69
a(S'Between his sexual assaults and collusion with Russia, why is he allowed to blue slip judges or make any decisions until investigations are completed? https://twitter.com/ronwyden/status/940292955188924416\xc2\xa0\xe2\x80\xa6'
p70
S'3:43 PM - 11 Dec 2017'
p71
tp72
a(S"@BretBaier Rather than using word 'collusion' & Pres Trump & Russia in same sentence, suggest you report true collusion i.e. DNC, Clinton campaign, FBI, DOJ, Fusion, et al.  Any wonder why media, FBI, DOJ are not trusted??"
p73
S'3:41 PM - 11 Dec 2017'
p74
tp75
a(S'Coup attempt on POTUS by " Me Too Party" after collusion with Russia failed is funny.Americans voted for Trump after hearing Sex Boasting. The same accusers coming as member of Me Too Party will make no difference. The Fake Medias, CNN/ABC alliance with  Me Too Party is Unholy.'
p76
S'3:41 PM - 11 Dec 2017'
p77
tp78
a(S'FusionGPS & the Obama FBI were in a lovers embrace for the duration of the 2016 Election. @Comey is as dirty as @AGLynch in their corruption/collusion with Russia. This scandal is cracking open b/c foreign contacts are not the WH0RES that the Obamaite/Clintonites in FBI/DOJ are.'
p79
S'3:39 PM - 11 Dec 2017'
p80
tp81
a(S'Months before there were arrests in the Trump-Russia case all the Sunday shows including @jaketapper kept asking if there was \xe2\x80\x9cany evidence of collusion.\xe2\x80\x9d Now with people lying to the FBI about Russian contacts & chatting with WikiLeaks I don\xe2\x80\x99t know how they can keep saying this.'
p82
S'3:39 PM - 11 Dec 2017'
p83
tp84
a(S'Ca Rep,Adam Schiff won\xe2\x80\x99t let the Trump Russia collusion scam go regardless of evidence  to the contrary! He is a Clinton tool, McCain accomplice, and coup d\xe2\x80\x99etat operative!'
p85
S'3:38 PM - 11 Dec 2017'
p86
tp87
a(S'Wait, with such attention to detail, there must be a mistake,,Facts First @CNN would not intentionally lead us down a road that lead to a narrative fueled by RUSSIA COLLUSION  #FakeNewsMedia #FakeRussiaCollusion #AmericaFirst #MAGA\nhttp://dailycaller.com/2017/12/11/cnn-walks-back-jeff-sessions-russia-bombshell/\xc2\xa0\xe2\x80\xa6'
p88
S'3:37 PM - 11 Dec 2017'
p89
tp90
a(S"Maybe he's paralyzed w/confusion....there was NO COLLUSION btw Russia, Russia, Russia & POTUSSchiff comes from CA-no need to explain furtherWhat's he hiding...try a working brain"
p91
S'3:36 PM - 11 Dec 2017'
p92
tp93
a(S'. #TruthBomb \n\nThe Russia Collusion didn\xe2\x80\x99t work, so another embarrassingly desperate attempt by the @DNC & @georgesoros https://twitter.com/dcdeplorable/status/940305948589154306\xc2\xa0\xe2\x80\xa6'
p94
S'3:35 PM - 11 Dec 2017'
p95
tp96
a(S'Keep looking after a Trump/Russia collusion Libtards. You just keep hastening your own political & legal demise! \nWife of demoted DOJ official worked for firm behind anti-Trump dossier http://www.foxnews.com/politics/2017/12/11/wife-demoted-doj-official-worked-for-firm-behind-anti-trump-dossier.html\xc2\xa0\xe2\x80\xa6 via the @FoxNews Android app'
p97
S'3:34 PM - 11 Dec 2017'
p98
tp99
a(S'I saw some kook chick tweet the Keaton thing is a Trump plan to divert attention from Russia collusion...jesus christ'
p100
S'3:34 PM - 11 Dec 2017'
p101
tp102
a(S'Forget Collusion. Can Mueller Prove Russia Committed Cyberespionage? http://bit.ly/2ATyqi9\xc2\xa0\nAnd if not, what\xe2\x80\x99s the point of his investigation?'
p103
S'3:33 PM - 11 Dec 2017'
p104
tp105
a(S'It\xe2\x80\x99s amazing that a these left wing communist democrats that scream Russia collusion always goes to fake news outlets to spout their bullshit lies. Fox News would eat their lunch'
p106
S'3:33 PM - 11 Dec 2017'
p107
tp108
a(S'Now THATS presidential! @realDonaldTrump is up every night knowing how much BETTER @BarackObama was! No scandals. No victims of sexual assault. No collusion with Russia. @ potus: YOUR DAYS ARE NUMBERED. HOPE YOU GET TO WEAR ORANGE IN PRISON #IAmTheResistance #RightSideOfHistory'
p109
S'3:32 PM - 11 Dec 2017'
p110
tp111
a(S'Forget Collusion. Can Mueller Prove Russia Committed Cyberespionage? http://bit.ly/2ATyqi9\xc2\xa0'
p112
S'3:31 PM - 11 Dec 2017'
p113
tp114
a(S'Damn, @CNN, you goobers have GOT to get better sources. What, no Russia collusion bombshells today? https://twitter.com/CNN/status/940335472202657792\xc2\xa0\xe2\x80\xa6'
p115
S'3:31 PM - 11 Dec 2017'
p116
tp117
a(S'He has no jurisdiction over Mueller probe.. However I increasingly feel he expose the role McCabe and strzok in setting up this fraudulent Trump/Russia collusion probe.'
p118
S'3:30 PM - 11 Dec 2017'
p119
tp120
a(S'.@Acosta #fakenews is not only the falsehoods being reported. Its ignoring huge stories like ISIS and the economy in favor of unproven accusations like Russia collusion for a solid year.\n\nOr reporting on @realDonaldTrump @DietCoke habit instead of NYC Port Authority attack.https://twitter.com/jackposobiec/status/940261530863534080\xc2\xa0\xe2\x80\xa6'
p121
S'3:29 PM - 11 Dec 2017'
p122
tp123
a(S'You should know! You wrote the book on lies and getting it wrong! If being out of control means getting to the truth and to the bottom of your collusion with Russia and sexual scandals, get crazy out of control!'
p124
S'3:27 PM - 11 Dec 2017'
p125
tp126
a(S"LOL RUSSIA COLLUSION HOAX DEAD BUT THERE WON'T BE A FUNERAL https://www.nbcnews.com/news/us-news/18-crucial-days-what-did-president-know-when-did-he-n828261\xc2\xa0\xe2\x80\xa6 via @nbcnews"
p127
S'3:27 PM - 11 Dec 2017'
p128
tp129
a(S'Since the Russia collusion nothingburger is getting a little stale, libs are going back to their playbook for the tried and true sexual abuse/war on women chestnut. Won\xe2\x80\x99t work either. pic.twitter.com/sHI4ut9AfL'
p130
S'3:26 PM - 11 Dec 2017'
p131
tp132
a(S'RT WOMEN ACCUSING PRESIDENT TRUMP R AS BELIEVABLE AS RUSSIA COLLUSION!  Show proof or shut the HELLO UP! Tired of democrats BS every time an election doesn\xe2\x80\x99t go their way. Franken admitted wrong doing BC of photo proof!'
p133
S'3:26 PM - 11 Dec 2017'
p134
tp135
a(S'No. I think the focus instead will be on the Trump gang\xe2\x80\x99s collusion with Russia, subsequent lies about it, and Trumpy\xe2\x80\x99s obstruction of justice.'
p136
S'3:25 PM - 11 Dec 2017'
p137
tp138
a(S'The Silver Bullet That Proved Collusion With Russia Just Surfaced http://greatamericandaily.com/the-silver-bullet-that-proved-collusion-with-russia-just-surfaced/\xc2\xa0\xe2\x80\xa6'
p139
S'3:24 PM - 11 Dec 2017'
p140
tp141
a(S'No, we did not. Collusion with Russia, gerrymandering, and voter suppression by the Trump campaign/RNC/Republicians tilted the electoral college to Trump. Btw, why is Jill Stein at the table with Flynn and Putin? Is Stein the next breaking news story?'
p142
S'3:24 PM - 11 Dec 2017'
p143
tp144
a(S'It was a great episode! Some revelations about Trump history with Russia I hadn\'t heard before!  Just ordered "Collusion" * Thanks @lukeharding1968'
p145
S'3:24 PM - 11 Dec 2017'
p146
tp147
a(S'I swear, if the corruption behind the dossier/Trump-Russia "collusion" narrative gets any more blatant, Scooby Doo is going to walk into Mueller\'s office, pull his mask off, and reveal that he\'s actually been Hillary Clinton the whole time. "I woulda gotten away with it, too!" https://twitter.com/MZHemingway/status/940343784595951622\xc2\xa0\xe2\x80\xa6'
p148
S'3:22 PM - 11 Dec 2017'
p149
tp150
a(S'@POTUS is not the problem.  They know nothing about karma.  False accusation, slander, defamation, sedition, collusion between HRC & Russia #UraniumOne, msm fake news,  etc., are the real crimes being committed.https://twitter.com/nameredacted5/status/940070773502328832\xc2\xa0\xe2\x80\xa6'
p151
S'3:22 PM - 11 Dec 2017'
p152
tp153
a(S'Luke Harding on Trump, Russia, and \xe2\x80\x98Collusion\xe2\x80\x99 http://dlvr.it/Q5Tswz\xc2\xa0pic.twitter.com/AC1rm2poT0'
p154
S'3:21 PM - 11 Dec 2017'
p155
tp156
a(S"So fake! no Russia collusion or obstruction of justice Dems and media are desperate so they are trying another tactic let's try the sexual harassment scam in order to get to Trump to resign"
p157
S'3:19 PM - 11 Dec 2017'
p158
tp159
a(S'Maybe u can put Dave on the Trump/Russia collusion case...'
p160
S'3:18 PM - 11 Dec 2017'
p161
tp162
a(S"Counterfeit News Network Corrects #FakeNews: New doc shows FBI informed Sessions he didn't have to report foreign contacts during Senate activities, but CNN had said his failure to disclose chats w/ Russia ambassador was evidence of #TrumpRussia collusion http://ow.ly/f66t50fF2Cp\xc2\xa0pic.twitter.com/kJ1qpFBjIr"
p163
S'3:18 PM - 11 Dec 2017'
p164
tp165
a(S"This is the kind of propaganda now being employed by GOP operatives to discredit the Mueller investigation; here by an Opinion columnist for USA Today: Suspend Robert Mueller's politically tainted investigation into Russia-Trump collusion https://usat.ly/2BbqkBL\xc2\xa0 via @usatoday"
p166
S'3:18 PM - 11 Dec 2017'
p167
tp168
a(S'The Left cant prove Trump Russia collusion. So now its plan B with sick false sexual misconduct accusations.'
p169
S'3:16 PM - 11 Dec 2017'
p170
tp171
a(S'CNN has quietly walked back more of their \xe2\x80\x9cbombshell\xe2\x80\x9d reporting on the Trump-Russia collusion narrative, and this time it\xe2\x80\x99s a story relating to Attorney General Jeff Sessions\xe2\x80\x99 security clearance forms. http://dailycaller.com/2017/12/11/cnn-walks-back-jeff-sessions-russia-bombshell/?utm_source=site-share\xc2\xa0\xe2\x80\xa6'
p172
S'3:16 PM - 11 Dec 2017'
p173
tp174
a(S"Omg the Russia hack excuse didn't work, the collusion bit didn't work impeachment didn't work now back to the women that say #Trump touched me are back again! Lol liberals are sad."
p175
S'3:15 PM - 11 Dec 2017'
p176
tp177
a(S"I'm not glossing over it, those charges have nothing to do with the Trump campaign or anything to do with Russia collusion.  However, I believe that they're going after him to just squeeze him into flipping on Trump."
p178
S'3:14 PM - 11 Dec 2017'
p179
tp180
a(S'Forget Collusion. Can Mueller Prove Russia Committed Cyberespionage? http://bit.ly/2ATyqi9\xc2\xa0'
p181
S'3:13 PM - 11 Dec 2017'
p182
tp183
a(S"Suspend Robert Mueller's politically tainted investigation into Russia-Trump collusion https://usat.ly/2BbqkBL\xc2\xa0 via @usatoday"
p184
S'3:11 PM - 11 Dec 2017'
p185
tp186
a(S"That's because Mueller's investigation has moved on from Trump-Russia collusion (cause he found nothing) into Trump n Friends corrupt business dealings with Russia, which there actually IS something there and ironically involves John Poedesta"
p187
S'3:10 PM - 11 Dec 2017'
p188
tp189
a(S'#Trump #USA #Fakenews #CNN #WAPO #NYT #collusion #Russia #impeachment\nhttps://buff.ly/2ASABlO\xc2\xa0\n35'
p190
S'3:10 PM - 11 Dec 2017'
p191
tp192
a(S"Oh, here we go again! Dems trying another set-up;  Russia Collusion didn't work! They got caught red handed with their hand N the cookie jar with their perverted men, so they turn it on republicans! Where is the hush list, we paid 17 million to their victims! We demand to see it!"
p193
S'3:10 PM - 11 Dec 2017'
p194
tp195
a(S'Wasn\xe2\x80\x99t the point of the Russia investigation to find collusion between @realDonaldTrump and Russia? Seems like all facts keep leading back to Dems & Clinton. http://fxn.ws/2Bfd1Ak\xc2\xa0 #FoxNews'
p196
S'3:08 PM - 11 Dec 2017'
p197
tp198
a(S'Luke Harding on Trump, Russia, and \xe2\x80\x98Collusion\xe2\x80\x99 http://flip.it/iuf0iR\xc2\xa0'
p199
S'3:07 PM - 11 Dec 2017'
p200
tp201
a(S'Same evidence of Russia collusion exists for Matt Flynn as Mike Flynn so witch hunts gotta witch hunt!'
p202
S'3:07 PM - 11 Dec 2017'
p203
tp204
a(S"Some of the less laudable previous work of Fusion GPS. If nothing else, Russia-gate is helping expose seedier side of the world of DC i.e. lobbyists who don't register, Israeli collusion with Trump, this. https://www.washingtonpost.com/investigations/journalism-for-rent-inside-the-secretive-firm-behind-the-trump-dossier/2017/12/11/8d5428d4-bd89-11e7-af84-d3e2ee4b2af1_story.html?utm_term=.a9dc98393f09\xc2\xa0\xe2\x80\xa6pic.twitter.com/jclyOdayUR"
p205
S'3:05 PM - 11 Dec 2017'
p206
tp207
a(S"@Potus as the President Elect had the authority to be in touch with Russia & many other countries & #GeneralFlynn also had that right under President Trump, THEY DID NOTHING WRONG & this isn't Russian Collusion especially POST ELECTION. https://twitter.com/guypbenson/status/940346362838822912\xc2\xa0\xe2\x80\xa6"
p208
S'3:05 PM - 11 Dec 2017'
p209
tp210
a(S'4THE RECORD=ROY MOORE WINS AL ELECTN 2MORROW-LEFT BHIND NEW SCAM2DUMP TRUMP-1ST RUSSIA STOLE ELECTN-THEN RUSSIA COLLUSION-TRUMP HEALTH-WHITE SUPREMACIST/RACIST ETC-NOW SEX ASSAULT-IT GOES ON&ON-DEMS RVICIOUS INSATIABLE2REGAIN POWER-DANGR 2AMERICA BC TRUMP XPOSES CORRUPT POLITICS!'
p211
S'3:04 PM - 11 Dec 2017'
p212
tp213
a(S"There's more evidence of collusion between the Clinton's and Russia than there is of collusion between the Trump's and Russia. Much more in fact. if this isn't a witch hunt, that is the collusion that these investigators ought to come to but they won't."
p214
S'3:04 PM - 11 Dec 2017'
p215
tp216
a(S'Better Q: how does CNN & rest of MSM think this ends when they have to finally admit the entire Trump/Russia collusion nonsense was made up? https://twitter.com/markskrikorian/status/940349392355233794\xc2\xa0\xe2\x80\xa6'
p217
S'3:03 PM - 11 Dec 2017'
p218
tp219
a(S'This is your new \xe2\x80\x9cRussia collusion\xe2\x80\x9d attempt. Everyone know it. Pathetic. Thats why Trump won, cause your side is pathetic!'
p220
S'3:02 PM - 11 Dec 2017'
p221
tp222
a(S'Adam Schiff has no evidence for collusion between Russia and Trump.'
p223
S'3:02 PM - 11 Dec 2017'
p224
tp225
a(S'Luke Harding on Trump, Russia, & \xe2\x80\x98Collusion\xe2\x80\x99 "There may not be a smoking gun, but there\xe2\x80\x99s a mountain of evidence tying Trump to the Kremlin." Audio of 30 minute interview with Harding. https://www.thenation.com/article/luke-harding-on-trump-russia-and-collusion/\xc2\xa0\xe2\x80\xa6'
p226
S'3:02 PM - 11 Dec 2017'
p227
tp228
a(S'It would be a lot easier to believe if you liberals weren\xe2\x80\x99t losing your mind screaming about Russia and collusion and impeachment with 0 evidence for the last year and a half.  Your false outrage and proven biased reporting doesn\xe2\x80\x99t equate factual evidence.'
p229
S'3:01 PM - 11 Dec 2017'
p230
tp231
a(S'People will believe that they were collusion with Jeter and the Yankees over the Stanton trade but not over Russia.'
p232
S'2:57 PM - 11 Dec 2017'
p233
tp234
a(S"Soon? Another year or what? 4 investigations on Trump collusion. We have more evidence of Clinton collusion with MSM/Russia. And I'm not even a Trump supporter. Just have a brain. Lay off MSM.  Before you try. That includes fox. It's embarrassing. Anonymous sources isn't evidence"
p235
S'2:56 PM - 11 Dec 2017'
p236
tp237
a(S"@SenFranken was a fall guy. Since Russia collusion is no longer, something new to carry the headlines! @TheDemocrats you guys are truly sick SOB's!"
p238
S'2:56 PM - 11 Dec 2017'
p239
tp240
a(S'Trump\xe2\x80\x99s Russia collusion IS way worse than Watergate. Is there ANYONE Trump knows who DOESNT have ties to Putin. Let Mueller (a Republican) do his job.'
p241
S'2:55 PM - 11 Dec 2017'
p242
tp243
a(S'Russia collusion = Fail\nObstruction = Fail\nSex Harassment = Fail\nDems, repeat cycle until something sticks, they really believe the American ppl are stupid'
p244
S'2:55 PM - 11 Dec 2017'
p245
tp246
a(S'Because the Russia collusion is a hoax. Politically motivated BS. Would be refreshing if you would acknowledge the obvious.'
p247
S'2:55 PM - 11 Dec 2017'
p248
tp249
a(S'Nobody is ignoring rational sense. We are WAITING for you to POINT to one act of collusion between Trump and Russia.\n\nAlso, what crime was broken.\n\nAlso, did Hillary collude when she paid Russians to compose a dossier to use as an against her political opponent to sway election? https://twitter.com/dcexaminer/status/940029900680970240\xc2\xa0\xe2\x80\xa6'
p250
S'2:54 PM - 11 Dec 2017'
p251
tp252
a(S'Funny how the Demrats Russia Collusion BS is not working so ya know what they go back to? Yep, These so called Victims that just so happen to \xe2\x80\x9cCome out\xe2\x80\x9d just before the election, I don\xe2\x80\x99t put nothing pass these evil MF\xe2\x80\x99s (Demrats) and yet they still have the media pushing their BS'
p253
S'2:54 PM - 11 Dec 2017'
p254
tp255
a(S"Please \nAll LIBERAL HYPOCRITS were enablers to Obama & Hillary's lies, collusion with Russia,\nKilling American in Benghazi, giving money to the enemy etc etc etc etc"
p256
S'2:53 PM - 11 Dec 2017'
p257
tp258
a(S'Here\xe2\x80\x99s the collusion between the Dems and Russia! Investigate this, Mueller!'
p259
S'2:52 PM - 11 Dec 2017'
p260
tp261
a(S"Suspend Robert Mueller's politically tainted investigation into Russia-Trump collusion https://www.yahoo.com/news/m/9a48492c-49a8-3055-8c5a-0e2b6ac28637/suspend-robert-mueller%27s.html?.tsrc=fauxdal\xc2\xa0\xe2\x80\xa6  Seems more like grasping at straws."
p262
S'2:52 PM - 11 Dec 2017'
p263
tp264
a(S'You mean like Trump/Russia collusion to hack the election?'
p265
S'2:50 PM - 11 Dec 2017'
p266
tp267
a(S"Total agreement with that. So much deception and collusion. First with Russia, next with her.  They're like a dog and pony show. https://twitter.com/funder/status/940334916474109952\xc2\xa0\xe2\x80\xa6"
p268
S'2:50 PM - 11 Dec 2017'
p269
tp270
a(S"With the wheels coming off of Plan A (Russia Collusion), time to attempt Plan B (woman abuser). That didn't work before and it won't now. Not sure if there is one, but Plan C, could be interesting. Talk about election denial. https://twitter.com/ConservativeTht/status/940316858875633665\xc2\xa0\xe2\x80\xa6"
p271
S'2:50 PM - 11 Dec 2017'
p272
tp273
a(S"After a year-and-a-half the only collusion that's been found and proven is Hillary Clinton with Russia"
p274
S'2:49 PM - 11 Dec 2017'
p275
tp276
a(S'#liar #dummy #Russia #collusion #traitor #DumbestTrump'
p277
S'2:48 PM - 11 Dec 2017'
p278
tp279
a(S'Robert Mueller Is Losing Ground But Was He Every Looking for Trump/Russia Collusion? https://conservativepost.com/robert-mueller-is-losing-ground/\xc2\xa0\xe2\x80\xa6'
p280
S'2:48 PM - 11 Dec 2017'
p281
tp282
a(S'We can all agree if there was some smoking gun regarding Trump Russia collusion, it would\xe2\x80\x99ve (cont) http://tl.gd/noa8je\xc2\xa0'
p283
S'2:48 PM - 11 Dec 2017'
p284
tp285
a(S'America, I present the new Russia Collusion, and it will have the same results.'
p286
S'2:47 PM - 11 Dec 2017'
p287
tp288
a(S"Yes, Chris, similar to the lack of evidence you and Mueller have about Trump/Russia collusion so let's just keep going with it right, you Pr**k. What's hugely offensive is probably your salary for BS'ng every single day of your life."
p289
S'2:45 PM - 11 Dec 2017'
p290
tp291
a(S'Trump Sexual Harassment Accusers Unite for Press Conference, Interview with Megyn ! As the Russia "collusion" allegations fall apart, the fanatic falsifiers pass en force to the next dubious tentative ... ! Business as usual ... !  !\nhttp://bit.ly/2jrRr4R\xc2\xa0 via @BreitbartNews'
p292
S'2:45 PM - 11 Dec 2017'
p293
tp294
a(S'Wife of demoted DOJ official worked for firm behind anti-Trump dossier via the @FoxNews () My God, collusion between Clinton\xe2\x80\x99s campaign, DNC, DOJ, President Obama and Russia has destroyed what little Democracy we had left!  http://www.foxnews.com/politics/2017/12/11/wife-demoted-doj-official-worked-for-firm-behind-anti-trump-dossier.html\xc2\xa0\xe2\x80\xa6'
p295
S'2:43 PM - 11 Dec 2017'
p296
tp297
a(S'Trump/Treason     Trump/Russia collusion, connection, corruption   Impeach trump'
p298
S'2:43 PM - 11 Dec 2017'
p299
tp300
a(S'mueller why is he not fired   he is looking to impeach trump not russia collusion'
p301
S'2:42 PM - 11 Dec 2017'
p302
tp303
a(S'cant read the article without paying for it.    If Team Trump was messin with Mueller probe,  Mueller would be out of a job.    There is no collusion....sorry to f up your day.   I believe Mueller is looking into his women now, which has nothing to do with russia.'
p304
S'2:41 PM - 11 Dec 2017'
p305
tp306
a(S'Nothing to do with Russia collusion'
p307
S'2:41 PM - 11 Dec 2017'
p308
tp309
a(S'#Trump #USA #Fakenews #CNN #WAPO #NYT #collusion #Russia #impeachment\nhttps://buff.ly/2ASzFhp\xc2\xa0\n43'
p310
S'2:41 PM - 11 Dec 2017'
p311
tp312
a(S'Meanwhile the Clinton Camp and DOJ are sitting back licking their lips because they are going to wait until they lose the election to really start dropping the hammer of Trump collusion with Russia conspiracy they created. 6/x'
p313
S'2:40 PM - 11 Dec 2017'
p314
tp315
a(S"'FBI is BIASED' Congressman ROASTS FBI director Christopher Wray on Russia collusion  This was impressive .... please check it out"
p316
S'2:40 PM - 11 Dec 2017'
p317
tp318
a(S'Do I think Russian collusion is a stretch and a crutch for desperate democrats? Yes. Did @realDonaldTrump assault many women? Yes. Fuck Russia. Impeach this asshole for being a sexual assaulter. It\xe2\x80\x99s so simple.'
p319
S'2:40 PM - 11 Dec 2017'
p320
tp321
a(S'FBI cleared Sessions after eight months! In the meantime he was forced to step down overseeing the Russia collusion investigation as AG. The media pushed a narrative & touted it breathlessly in the meantime for eight months!!! https://twitter.com/realsaavedra/status/940338706707181569\xc2\xa0\xe2\x80\xa6'
p322
S'2:39 PM - 11 Dec 2017'
p323
tp324
a(S"Same guy also said that Pres. Trump should resign because we can't trust him to deal with evil Russia. He believed, or was cynically using, the Trump-Russia collusion narrative. No credibility with me."
p325
S'2:38 PM - 11 Dec 2017'
p326
tp327
a(S"Suspend Robert Mueller's politically tainted investigation into Russia-Trump collusion https://www.yahoo.com/news/m/8bfd038a-b9c7-3ca1-abe5-b8a0133f7ada/ss_suspend-robert-mueller%27s.html?.tsrc=fauxdal\xc2\xa0\xe2\x80\xa6 via @yahoo"
p328
S'2:37 PM - 11 Dec 2017'
p329
tp330
a(S".\n\nIt's in the same evidence box where they keep #Trump-#Russia collusion evidence.\n\n#Resistpic.twitter.com/O1JUqawLGY"
p331
S'2:36 PM - 11 Dec 2017'
p332
tp333
a(S'3.) Breaking News:  #KTMcFarland just acknowledged  @POTUS collusion with Russia! --- dammit, she too likes White Russians!'
p334
S'2:36 PM - 11 Dec 2017'
p335
tp336
a(S'There is no Russia collusion so now it is sexual misconduct.'
p337
S'2:35 PM - 11 Dec 2017'
p338
tp339
a(S'Fake MSM, dc swamp, deep state, dem\xe2\x80\x99s, lib\xe2\x80\x99s can\xe2\x80\x99t find nothing on POTUS TRUMP, so they make up sexual assault & Russia collusion lies, when all they have to do is look at there own Dem party, Obama & the Clintons for real lies, thieves, murders & being traders!STP 2 #MAGA pic.twitter.com/t47xs8y5o8'
p340
S'2:34 PM - 11 Dec 2017'
p341
tp342
a(S'MSM jumps all over fake trump/Russia collusion but completely ignore ACTUAL collusion. It\xe2\x80\x99s stunning.'
p343
S'2:34 PM - 11 Dec 2017'
p344
tp345
a(S"If he has no need for Russia, why is it that his groupies are now coming under scrutiny for their collusion with Russia.... admitting guilt, etc....you people in his cult are just sad. I'll be glad when the real God strikes this demon we know as @POTUS down and he will. I pray!!!"
p346
S'2:34 PM - 11 Dec 2017'
p347
tp348
a(S'Just 3 outlets? \nCollusion is much worse than that. Even the Canadian MSM has the same stories with the identical narrative & reporting on the evening news and morning tabloid shows. e.g. Why do they care about following CNN\xe2\x80\x99s fake Russia story??? Yet they do....'
p349
S'2:33 PM - 11 Dec 2017'
p350
tp351
a(S"USA TODAY HAS EVEN HAD ENOUGH OF THE CORUPT MUELLER INVESTIGATION- END IT\n\nSuspend Robert Mueller's politically tainted investigation into Russia-Trump collusion https://usat.ly/2BbqkBL\xc2\xa0 via @usatoday"
p352
S'2:33 PM - 11 Dec 2017'
p353
tp354
a(S"And please relax don't start the Twitter storm we understand that you prefer the news to be speaking about your collusion and your obstruction of justice regarding the Russia probe"
p355
S'2:33 PM - 11 Dec 2017'
p356
tp357
a(S'The Left cant prove any Trump Russia collusion. So now its back to sick false sexual misconduct accusations BS. Hillary lost get over it snowflakes! Get a life! Get a real job! Working for george soros is not a real job. '
p358
S'2:32 PM - 11 Dec 2017'
p359
tp360
a(S"Sooooo, no Russia collusion, which they knew all along. But now they're just going to keep on making it about other things, so we can keep on hearing about bombshells that turn into duds. Good times."
p361
S'2:31 PM - 11 Dec 2017'
p362
tp363
a(S'Forget Collusion. Can Mueller Prove Russia Committed Cyberespionage? Like all pundits, Left and Right, @AndrewMcCarthy accepts the Word from US ingel agencies as gospel - despite their long history of lies.http://bit.ly/2ATyqi9\xc2\xa0'
p364
S'2:31 PM - 11 Dec 2017'
p365
tp366
a(S"Because it's NOT a Russia-2016 election-meddling-collusion investigation! Here's the real Russia-2016 election-meddling-collusion http://www.foxnews.com/politics/2017/12/11/wife-demoted-doj-official-worked-for-firm-behind-anti-trump-dossier.html\xc2\xa0\xe2\x80\xa6"
p367
S'2:31 PM - 11 Dec 2017'
p368
tp369
a(S'Democrats are desperate for anything. Russia collusion drama is failing and never happened so they come up with sexual harassment crap.'
p370
S'2:30 PM - 11 Dec 2017'
p371
tp372
a(S'What\xe2\x80\x99s offensive is Your #FakeNewsCNN & Your collusion with Fusion GPS & Adam Schiff for  trying to takedown a GOP nominee with Russia lies 24/7.  You need to earn RESPECT & stop riding on the coat tails of real professional journalists! https://twitter.com/cnnpolitics/status/940344473883676673\xc2\xa0\xe2\x80\xa6'
p373
S'2:30 PM - 11 Dec 2017'
p374
tp375
a(S'Russia collusion didn\xe2\x80\x99t work, so what we\xe2\x80\x99re seeing now is a last ditch effort to bring Trump down, it won\xe2\x80\x99t work either!'
p376
S'2:29 PM - 11 Dec 2017'
p377
tp378
a(S'Russia collusion failed so lets move to something else'
p379
S'2:29 PM - 11 Dec 2017'
p380
tp381
a(S'"collusion or obstruction." - Donald Trump starts paying Russia probe legal fees, previously covered by Republican party, donations http://www.abc.net.au/news/2017-11-18/donald-trump-starts-paying-for-own-lawyers-in-russia-probe/9164418\xc2\xa0\xe2\x80\xa6 via @abcnews #TrumpRussia @GOP'
p382
S'2:28 PM - 11 Dec 2017'
p383
tp384
a(S"Right. Trump/Sanders simply deny what's real. Undeniable. Indefensible. Obvious points. That doesn't mean it's FAKE. If you think that, you're going to be very disappointed when you realize this whole 'fake' Russia collusion/Sexual Accusers/corruption is real. Pay attention"
p385
S'2:28 PM - 11 Dec 2017'
p386
tp387
a(S'If there\xe2\x80\x99s a "major news story" that \n"journalists" have botched more over the past 70 years \n             than the"Russia collusion" story, \n\n                   I\xe2\x80\x99d love to hear about it.'
p388
S'2:27 PM - 11 Dec 2017'
p389
tp390
a(S"#RT | The level of collusion between DC unknowns and the media is alarming | Rep. Adam Schiff Seems Too Concerned About Fake Russia, What's He Hiding?  http://thegoldwater.com/news/13796-Rep\xc2\xa0\xe2\x80\xa6 #news | #ccot #teaparty #tcot #maga"
p391
S'2:27 PM - 11 Dec 2017'
p392
tp393
a(S'Hillary n DNC couldnt build a Russia Trump collusion marrative either if it was proven that Seth was the whistleblower. Only way to keep it quiet was to kill him. He wld have completely destroyed the campaign to impeach Trump and Russia narrative. Also had more dirt on Hillary.'
p394
S'2:27 PM - 11 Dec 2017'
p395
tp396
a(S'It\xe2\x80\x99s been one year and still not one single shred of evidence on Russia collusion. If they found something they would broadcast it around the world.'
p397
S'2:24 PM - 11 Dec 2017'
p398
tp399
a(S"Why is Mueller's Russia-2016 election-meddling-collusion investigation focused on a three week stretch AFTER Trump was inaugurated?\n\nhttps://townhall.com/tipsheet/guybenson/2017/12/11/nbc-news-muellers-russia-probe-focused-on-18day-stretchafter-trump-was-inaugurated-n2421045\xc2\xa0\xe2\x80\xa6"
p400
S'2:23 PM - 11 Dec 2017'
p401
tp402
a(S'More Fake News because the Russia collusion investigation is imploding!'
p403
S'2:23 PM - 11 Dec 2017'
p404
tp405
a(S'Oooh, are they all anal porn stars like jessica drake?  and were they all paid money to say this just like the roy moore accusers?  and do they have the ambulance-chasing gloria allred telling lies for them?  i guess this means the russia-collusion narrative has failed.... LOL!'
p406
S'2:22 PM - 11 Dec 2017'
p407
tp408
a(S'Yea ok indictments having nothing to do with Russia, collusion, or election. Good luck trying to impeach or indict a sitting president on anything so far lol'
p409
S'2:22 PM - 11 Dec 2017'
p410
tp411
a(S'Another layer of the onion gets unpeeled and once again there is blatant collusion.  However this collusion is always between Democrats, Russia and obama administration officials.'
p412
S'2:22 PM - 11 Dec 2017'
p413
tp414
a(S"Uranium one, she has already lied to FBI 10 times as much as Flynn, Russia dossier(collusion) just because FBI was corrupt under Comey doesn't mean it didn't happen. Its coming be patient, you triggered bro?"
p415
S'2:21 PM - 11 Dec 2017'
p416
tp417
a(S'CNN IN MAY: Sessions failed to disclose meetings he had w/Russian ambassador/intended to mislead, evidence of collusion w/Russia.\n\nCNN TODAY: We will not be disclosing who the sources were for our most recent debunked Russia story.'
p418
S'2:20 PM - 11 Dec 2017'
p419
tp420
a(S"So, 1st  he's not mentally stable, 2. He hiding something taxes, 3. Russia hacked elections, 4. Collusion from his campaign 5. Hindering investigation. Now preelection dirt that voters know about. Maybe it's time to smell coffee he's here for 4 yrs plus possibly. Lets run congres"
p421
S'2:19 PM - 11 Dec 2017'
p422
tp423
a(S'Yes, the Russia Collusion didn\'t work, so let\'s move on to the next item on our "Things to Do List", sexual assault.'
p424
S'2:19 PM - 11 Dec 2017'
p425
tp426
a(S'Forget Collusion. Can Mueller Prove Russia Committed Cyberespionage? - And if not, what\xe2\x80\x99s the point of his investigation? http://bit.ly/2ATyqi9\xc2\xa0 #tcot'
p427
S'2:19 PM - 11 Dec 2017'
p428
tp429
a(S'*still waiting for evidence of Trump Russia collusion* .-.'
p430
S'2:18 PM - 11 Dec 2017'
p431
tp432
a(S'OLD: Sanders Still Talking Russia Collusion http://www.breitbart.com:80/video/2017/12/10/sanders-mueller-evidence-collusion-trump-campaign-russia-grounds-impeachmentbreitbart.com/video/2017/12/\xc2\xa0\xe2\x80\xa6'
p433
S'2:18 PM - 11 Dec 2017'
p434
tp435
a(S'How about the Russia-Trump collusion story for the past year?'
p436
S'2:18 PM - 11 Dec 2017'
p437
tp438
a(S'benshapiro: RT RealSaavedra: CNN IN MAY: Sessions failed to disclose meetings he had w/Russian ambassador/intended to mislead, evidence of collusion w/Russia.\n\nCNN TODAY: Sessions did what the FBI told him to do and did not mislead the DOJ about his meet\xe2\x80\xa6 pic.twitter.com/gtBA3g0ptR'
p439
S'2:16 PM - 11 Dec 2017'
p440
tp441
a(S'Which has absolutely nothing to do w Russia/Trump election collusion. Sigh.'
p442
S'2:16 PM - 11 Dec 2017'
p443
tp444
a(S'Who is Donald J. Trump? Trump is a woman abuser, a child abuser. Filed bankruptcy 4 times. Want pay his help. Want pay his Contractors. He is known as one of the biggest liars a dishonest man. Want pay taxes. It seems that he loves Russia more than America. Collusion is likely.'
p445
S'2:15 PM - 11 Dec 2017'
p446
tp447
a(S'Special Prosecuter Mueller then assembled a team with someone who pushed the Steele Dossier as the very pretext for the stupid Russia collusion stories. Not only that, his wife works for Fusion GPS!'
p448
S'2:14 PM - 11 Dec 2017'
p449
tp450
a(S'Where is this man living.  It\xe2\x80\x99s incredulous. No proof whatsoever in a Russia collusion'
p451
S'2:14 PM - 11 Dec 2017'
p452
tp453
a(S'Democrats are ridiculous & so hypocritical. Why should he resign? He denies the allegations & there is no proof, just like the failed Russia Collusion Dems tried earlier. He\xe2\x80\x99s the POTUS whether they like it or not.'
p454
S'2:13 PM - 11 Dec 2017'
p455
tp456
a(S'Then, after having gotten Sessions to needlessly recuse himself on all things Russia, Obama appointed Rosenstein, appointed a Special Council to investigate Russia collusion because Trump fired Comey.'
p457
S'2:13 PM - 11 Dec 2017'
p458
tp459
a(S'Another day, another retraction. @CNN has quietly walked back more of their \xe2\x80\x9cbombshell\xe2\x80\x9d reporting on the Trump-Russia collusion narrative.  This time it\xe2\x80\x99s a story relating to Attorney General Jeff Sessions\xe2\x80\x99 security clearance forms. #LeastTrustedSourceInNews'
p460
S'2:11 PM - 11 Dec 2017'
p461
tp462
a(S'#Trump #USA #Fakenews #CNN #WAPO #NYT #collusion #Russia #impeachment\nhttps://buff.ly/2kSBMvW\xc2\xa0\n41'
p463
S'2:11 PM - 11 Dec 2017'
p464
tp465
a(S"Again, remove the tin foil hat buddy. There has been zero evidence of collusion or that Russia interfered in our election. You can buy all the BS you want, still doesn't make it fact. Enjoy the next 7 years of President Trump, loser."
p466
S'2:10 PM - 11 Dec 2017'
p467
tp468
a(S'Crazy @SenSanders Asking @POTUS @realDonaldTrump To resign over allegations of sexual misconduct is funny. Russia collusion is dead in the waters, obstruction of justice is far fetched...'
p469
S'2:10 PM - 11 Dec 2017'
p470
tp471
a(S'#Trump #USA #Fakenews #CNN #WAPO #NYT #collusion #Russia #impeachment\nhttps://buff.ly/2nKdXHo\xc2\xa0\n34'
p472
S'2:10 PM - 11 Dec 2017'
p473
tp474
a(S'The Russian collusion is a deflection because the entire democrats party is a Khmer Rouge regime Feminazi socialist/communist. They are the ones that are actually representing Russia\xe2\x80\x99s form of rule and are trying to space itself away. Confederate were democrats Irish socialist'
p475
S'2:09 PM - 11 Dec 2017'
p476
tp477
a(S'That is link bad but I found it. Thanks. - Forget Collusion. Can Mueller Prove Russia Committed Cyberespionage? http://www.nationalreview.com/article/454515/russian-cyberespionage-does-mueller-have-proof-beyond-reasonable-doubt\xc2\xa0\xe2\x80\xa6'
p478
S'2:08 PM - 11 Dec 2017'
p479
tp480
a(S'Out: Russia collusion!\n\nIn: Diet Coke-gate!\n\n#Sadhttps://twitter.com/CNN/status/940335472202657792\xc2\xa0\xe2\x80\xa6'
p481
S'2:07 PM - 11 Dec 2017'
p482
tp483
a(S"Russia collusion has failed, let's go back to sexual assault......."
p484
S'2:06 PM - 11 Dec 2017'
p485
tp486
a(S'So whatever happened to the Russia collusion story? Did it not work out as they wanted so they now have to go back to sexual harassment allegations?'
p487
S'2:05 PM - 11 Dec 2017'
p488
tp489
a(S"and none of those indictments are related to Donald Trump or his alleged illegal collusion with Russia. but you're still totally buying into it, aren't you?"
p490
S'2:04 PM - 11 Dec 2017'
p491
tp492
a(S'Russia Collusion Not Working So The Trump accusers hold press conference (video) http://dmlnews.com/trump-accusers-hold-press-conference-video/\xc2\xa0\xe2\x80\xa6'
p493
S'2:04 PM - 11 Dec 2017'
p494
tp495
a(S'The only reason CNN is being criticiazed is cuz they are not afraid to speak the truth about Russia collusion but would Conservative mfs tell the truth'
p496
S'2:03 PM - 11 Dec 2017'
p497
tp498
a(S'"ANDREW MCCARTHY: Forget Collusion. Can Mueller Even Prove Russia Committed Cyberespionage?. \xe2\x80\x9cWe hav\xe2\x80\xa6"  https://pjmedia.com/instapundit/283099/\xc2\xa0\xe2\x80\xa6 #TCOT #MAGA #PJNET #RedNationRising'
p499
S'2:03 PM - 11 Dec 2017'
p500
tp501
a(S"Russia collusion isn't working, so..."
p502
S'2:02 PM - 11 Dec 2017'
p503
tp504
a(S"Wow. Can't find any Russia collusion so #VeryFakeNews goes after @realDonaldTrump for how many @DietCoke's he drinks? There is some hard hitting journalism. Surely a #MurrowAward is imminent. #LiberalismIsAMentalDisorder"
p505
S'2:02 PM - 11 Dec 2017'
p506
tp507
a(S'Imagine after all the Russia collusion investigating. It\xe2\x80\x99s actually the sexual misconduct allegations against the fat, disgusting pervert who goes by the title POTUS, that brings him down. Millions can only hope.'
p508
S'2:02 PM - 11 Dec 2017'
p509
tp510
a(S"Another CNN 'Bombshell' Collapses, Forced To Correct Sessions-Russia Collusion Narrative http://ibleedredwhiteblue.com/another-cnn-bombshell-collapses-forced-to-correct-sessions-russia-collusion-narrative/\xc2\xa0\xe2\x80\xa6"
p511
S'2:01 PM - 11 Dec 2017'
p512
tp513
a(S'There is so much wrong with this article... Let\'s just address the obvious\n\nTHERE WAS NO RUSSIA COLLUSION!\n\nThe so called "professional" sp counsel would have leaked it by now since those "professionals" have leaked like a sieve from day one.\n\nPsst...#FakeNews'
p514
S'2:00 PM - 11 Dec 2017'
p515
tp516
a(S'Well the Russia collusion didn\xe2\x80\x99t work so time to pull out the Trump sexual harassed me but I have no proof but I\xe2\x80\x99m a woman so you have to believe me or you are sexist trick.....'
p517
S'2:00 PM - 11 Dec 2017'
p518
tp519
a(S"Any Trump collusion with Russia leads straight back to Israel. Israel owns America. Tell me Liz, wouldn't you say that the chances of anything vaguely proactive coming from this investigation is about as likely as real news from pop ups like OAN?"
p520
S'2:00 PM - 11 Dec 2017'
p521
tp522
a(S'Fact:\nObama WILL BE WRITTEN IN THE HISTORY BOOKS AS THE BIGGEST MISTAKE AMERICANS VOTED INTO OFFICE.\nTHE CLINTONS ARE IN COLLUSION WITH RUSSIA. \nFACTS.'
p523
S'1:59 PM - 11 Dec 2017'
p524
tp525
a(S"So Russia collusion didn't work now they're trying for another ploy give it a rest already get your voters together in 4 years stop disrupting democracy it's not helpful for the country this political BS is only escalating each election cycle how far will it go be4 it's too late"
p526
S'1:59 PM - 11 Dec 2017'
p527
tp528
a(S"There's Russian collusion, between Obama and Putin, Hillary s uranium and Russia"
p529
S'1:58 PM - 11 Dec 2017'
p530
tp531
a(S'Absolutely not. These allegations are as fake as the Russia Collusion farse.'
p532
S'1:57 PM - 11 Dec 2017'
p533
tp534
a(S'They\xe2\x80\x99re still exerting undue influence on our discourse. #russia #collusion #moorehttps://twitter.com/motherjones/status/940311160888446976\xc2\xa0\xe2\x80\xa6'
p535
S'1:56 PM - 11 Dec 2017'
p536
tp537
a(S'GOOD I DRINK DR PEPPER. Who F - -KING CARES  stupid he is  healthy.  STOP this SHIT  its hurting our country. We put up with  OBUMMER  corruption of gov agencies protecting hillary comey lynch sold our uranium bto Russia. COLLUSION  no one sad a F - - KING THING. SHUT UP & HIDE L https://twitter.com/SheriffClarke/status/940240710195916800\xc2\xa0\xe2\x80\xa6'
p538
S'1:56 PM - 11 Dec 2017'
p539
tp540
a(S'Wasting taxpayer dollars just like the Trump Russia collusion. Democrats lost grow up & accept it. Stop wasting the people\xe2\x80\x99s time & tax dollars. You are a hypocrite who supported the Clinton\xe2\x80\x99s until you moved up the food chain. All of you who covered for them should resign'
p541
S'1:56 PM - 11 Dec 2017'
p542
tp543
a(S"Actually this is 2nd choice;I'd like hm far BEHIND BARS.So,too, evidence shows,Pence!Charges are immense:Collusion with Russia to influence the 2016 election,so trump wd do biddg of russian-mafia-based putin.That's TREASON ,isn't it?Fin-crime$,too,are vast,involv'g $-launderg"
p544
S'1:56 PM - 11 Dec 2017'
p545
tp546
a(S'Oh, that\'s rich. But I\'ll bet you totally bought into the Brian Ross story, am I right "doctor"? And the BS Russia collusion narrative that\'s slowly falling apart?'
p547
S'1:55 PM - 11 Dec 2017'
p548
tp549
a(S'Forget Collusion. Can Mueller Prove Russia Committed Cyberespionage? http://bit.ly/2ATyqi9\xc2\xa0'
p550
S'1:55 PM - 11 Dec 2017'
p551
tp552
a(S'After Friday\'s fiasco CNN fake news walks back today yet another "bombshell" story (deliberate lie) on Sessions hiding of Russia "collusion"'
p553
S'1:55 PM - 11 Dec 2017'
p554
tp555
a(S' I guess the Russia collusion myth is collapsing'
p556
S'1:54 PM - 11 Dec 2017'
p557
tp558
a(S'This ploy to take down @realDonaldTrump is disgusting. The Dems can\xe2\x80\x99t find anything in the Russia collusion so now they try this method. Give up and unite to help us MAGA. https://twitter.com/dcdeplorable/status/940305948589154306\xc2\xa0\xe2\x80\xa6'
p559
S'1:53 PM - 11 Dec 2017'
p560
tp561
a(S'Yep! Guess Rep Adam Schiffty told deep state NO Russia collusion so start something else that will keep the resistance  going on another topic for another year.'
p562
S'1:53 PM - 11 Dec 2017'
p563
tp564
a(S'So the Russia collusion narrative is not working so the left is trying a different tactic. Meh '
p565
S'1:53 PM - 11 Dec 2017'
p566
tp567
a(S'CNN IN MAY: Sessions failed to disclose meetings he had w/Russian ambassador/intended to mislead, evidence of collusion w/Russia.\n\nCNN TODAY: Sessions did what the FBI told him to do and did not mislead the DOJ about his meetings with Russians. pic.twitter.com/DSwMkUD5jp'
p568
S'1:53 PM - 11 Dec 2017'
p569
tp570
a(S'The whole Russian attack on democracy is really only a desperate liberal cry for help...more than a year and the only collusion is the pathetic Hillary selling them uranium. Keep up clown we are back on the women he abused...Russia is dead'
p571
S'1:52 PM - 11 Dec 2017'
p572
tp573
a(S'This will not end well for Democrats.....and for those of you that still believe RUSSIA COLLUSION here is your sign to MOVE ON'
p574
S'1:52 PM - 11 Dec 2017'
p575
tp576
a(S'This dude is delusional! Hey @realDonaldTrump @seanhannity Tell DOJ this guy needs a drug test big time over his imaginary collusion!  Adam Schiff: Evidence of Russia collusion damning https://youtu.be/T_5mct8WArc\xc2\xa0 #tcot'
p577
S'1:50 PM - 11 Dec 2017'
p578
tp579
a(S'Can\'t find any @realDonaldTrump /Russia collusion, so media gonna go with "Trump rapes" to get him from a different angle. How pathetic!! These bastards are CRAZY  pic.twitter.com/sFpAZjsPFp'
p580
S'1:49 PM - 11 Dec 2017'
p581
tp582
a(S"Get real Rs u have a lot more 2 worry about. Your party has been taken over by far-right Nazis & a man how is a sexual assaulter & a traitor in collusion w Russia r enemy. Why don't u stand up against this tyranny within your party that is dividing r nation & weakening us."
p583
S'1:49 PM - 11 Dec 2017'
p584
tp585
a(S'Yep, you can now safely bet your ass there is no RUSSIA COLLUSION...they have moved on to another oldie but goodie'
p586
S'1:49 PM - 11 Dec 2017'
p587
tp588
a(S"Russia-Trump collusion ain't smelling good for them so they have to pull out any card they can get: make women who would want to be kissed by Trump feel victims because he didn't kiss them/enough. https://twitter.com/Liz_Wheeler/status/940332147600060416\xc2\xa0\xe2\x80\xa6"
p589
S'1:48 PM - 11 Dec 2017'
p590
tp591
a(S'Dems seeing their phony #Russia collusion story falling apart so they\xe2\x80\x99re moving on to next false attack in their playbook against #Trumphttps://twitter.com/americanhotlips/status/940259400878579712\xc2\xa0\xe2\x80\xa6'
p592
S'1:48 PM - 11 Dec 2017'
p593
tp594
a(S'.....FBI then-director James Comey has claimed that Trump asked his agency to drop their investigation of administration national security advisor Michael Flynn on charges of collusion with Russia."'
p595
S'1:46 PM - 11 Dec 2017'
p596
tp597
a(S'But TOTALLY not terrorism. Just one lone nut. Or as liberals WILL say, something something fake distraction something Russia something collusion something racism greedy Nazi something what about Russia something something...'
p598
S'1:44 PM - 11 Dec 2017'
p599
tp600
a(S"@realDonaldTrump You're not smart enough to be in collusion with Russia.  Putin would run circles around you.  I also think you aren't smart enough to find the tax loopholes...probably why you're refusing to show your taxes. Also...resigning would be too hard for you."
p601
S'1:42 PM - 11 Dec 2017'
p602
tp603
a(S"#RT | The level of collusion between DC unknowns and the media is alarming | Rep. Adam Schiff Seems Too Concerned About Fake Russia, What's He Hiding?  https://thegoldwater.com/news/13796-Rep-Adam-Schiff-Seems-Too-Concerned-About-Fake-Russia-What-s-He-Hiding\xc2\xa0\xe2\x80\xa6 #news | #ccot #teaparty #tcot #maga"
p604
S'1:42 PM - 11 Dec 2017'
p605
tp606
a(S'Forget Collusion\xe2\x80\xa4 Can Mueller Prove Russia Committed Cyberespionage? http://www.nationalreview.com/article/454515/russian-cyberespionage-does-mueller-have-proof-beyond-reasonable-doubt\xc2\xa0\xe2\x80\xa6 via @NRO'
p607
S'1:42 PM - 11 Dec 2017'
p608
tp609
a(S'Russia,Russia,Russia! Lmao! You want to know about Russian collusion,ask #CrookedHillary about her #UraniumOne deal w/Putin while Sec of State. Sold 20% of OUR uranium to Russia knowing they\xe2\x80\x99d sell to Iran for nukes. UR sorely lacking knowledge & I\xe2\x80\x99m bored. Have a good evening'
p610
S'1:42 PM - 11 Dec 2017'
p611
tp612
a(S"The only collusion with the Russians is Obama & Hillary allowing Russia to own 20% of US Uranium. Why would they approve that? Coincidence that Bill received 500k for a 30min. speech at the time the deal went through. Still think Trump is the criminal? If so, it's called denial."
p613
S'1:41 PM - 11 Dec 2017'
p614
tp615
a(S'Why bother?  Won\xe2\x80\x99t he be impeached from collusion with Russia?  #PlanBToOverthrowDemocracy'
p616
S'1:40 PM - 11 Dec 2017'
p617
tp618
a(S"What is this fixation with Russia on the Left? Every trial balloon gets shot down and we haven't forgotten Hillary's collusion with Russia to make money off sale of OUR uranium! CNN, go find the TRUTH just once! https://twitter.com/amber_athey/status/940281593159147522\xc2\xa0\xe2\x80\xa6"
p619
S'1:39 PM - 11 Dec 2017'
p620
tp621
a(S'OMG it has nothing to do with collusion!  Again go look at Hillary and Russian dossier and the Russian uranium deal and the 145 million to foundation and Biil getting $500,000 for a speech in Russia!'
p622
S'1:39 PM - 11 Dec 2017'
p623
tp624
a(S'Occassional errors?? You are so funny!! If fake news doesn\'t pan out for you, try comedy! "Hands up don\'t shoot" wasn\'t an honest error. UVA campus frat rape wasn\'t an honest error! Russia collusion wasn\'t just an error. These are biased media narratives! As are SO many stories!'
p625
S'1:39 PM - 11 Dec 2017'
p626
tp627
a(S'@RepAdamSchiff still blathering about @realDonaldTrump / Russia collusion. #followthemoney - $7.8m more exact. Your time will shortly be up. #QAnon, #FollowTheWhiteRabbit #treason #sealedindictments Your countenance drips of diverse iniquity...let the purge begin! #DrainTheSwamp'
p628
S'1:39 PM - 11 Dec 2017'
p629
tp630
a(S'@Acosta Why hasn\xe2\x80\x99t there been a single major honest "mistake" by #CNN that diminishes the Trump-Russia collusion story? Why is there never an honest "mistake" by CNN that indicts Democrats?  Easy answer.  #CNN is an advocacy group & advocacy is #FakeNews. #FakeNewsCNN'
p631
S'1:38 PM - 11 Dec 2017'
p632
tp633
a(S'CNN has quietly walked back more of their \xe2\x80\x9cbombshell\xe2\x80\x9d reporting on the Trump-Russia collusion narrative, and this time it\xe2\x80\x99s a story relating to Attorney General Jeff Sessions\xe2\x80\x99 security clearance forms.'
p634
S'1:37 PM - 11 Dec 2017'
p635
tp636
a(S"First they tried collusion with Russia nothing there. So let's try a new strategy hmmm. We just had several democrats resign for sexual assaults how about we go after the potus. Yeah that's it call some of those hookers and see if they will help us with out. Now read this line."
p637
S'1:37 PM - 11 Dec 2017'
p638
tp639
a(S'Trump & his admin are liars one & all.  No collusion with Russia. In a pigs eye'
p640
S'1:35 PM - 11 Dec 2017'
p641
tp642
a(S'Are you pushing this bogus Trump-Russia narrative to deflect from genuine collusion with Israel?'
p643
S'1:35 PM - 11 Dec 2017'
p644
tp645
a(S'You got it right. And if everything is Russia collusion...nothing is Russia collusion. Maybe CNN will learn.......'
p646
S'1:33 PM - 11 Dec 2017'
p647
tp648
a(S"At first I thought GOP is just giving Trump's collusion a pass because they want to control govt through him. Buy every day I see more shady Russia related stuff from GOP. You think they could be more than just complicit in collusion and treason?"
p649
S'1:29 PM - 11 Dec 2017'
p650
tp651
a(S'So the Dems sacrificed Franken so they could go after Trump because the Russia \xe2\x80\x9ccollusion\xe2\x80\x9d is dead.  Well, Dems, let\xe2\x80\x99s talk about Menendez.'
p652
S'1:28 PM - 11 Dec 2017'
p653
tp654
a(S'You cant deny becauss u have no evidence of Russiacollusion that whole Russia collusion story might b a lie paid for by establishment to stop the populist Trump from being successful. Trump is an outsider (even Hartman said that)So the establishment left or right cant let success'
p655
S'1:28 PM - 11 Dec 2017'
p656
tp657
a(S'OLD: Sanders Still Talking Russia Collusion http://www.breitbart.com:80/video/2017/12/10/sanders-mueller-evidence-collusion-trump-campaign-russia-grounds-impeachmentbreitbart.com/video/2017/12/\xc2\xa0\xe2\x80\xa6'
p658
S'1:28 PM - 11 Dec 2017'
p659
tp660
a(S'Why do you think he wants war with north korea? It takes away from the investigation into his collusion with russia.'
p661
S'1:26 PM - 11 Dec 2017'
p662
tp663
a(S"MSNBC can't go anywhere with Russia collusion so now they're dragging back in 19 accusers that president Trump supposedly inappropriately touched  why didn't they file suit when it happened unfortunately I don't believe any of you I think you all work for the DNC"
p664
S'1:26 PM - 11 Dec 2017'
p665
tp666
a(S'@FoxNews FOX NEWS is doing a lot of investigating INTO Trump & RUSSIA collusion? Believe in America Justice?'
p667
S'1:26 PM - 11 Dec 2017'
p668
tp669
a(S'I guess the Russia collusion is going no where.  Hillary Clinton led the way on enabling her husband.  If Trump goes, then Bill Clinton should be removed as a past president.'
p670
S'1:25 PM - 11 Dec 2017'
p671
tp672
a(S'The allegations were out BEFORE the election, the voters already decided so stop trying to stage a coup as sore losers. This is evidence that the great Russia Collusion scam bullsh*t fell through for Democrats.'
p673
S'1:24 PM - 11 Dec 2017'
p674
tp675
a(S'Something tells me they would have to make a big decision on Russia collusion before January 21 Alec or not.'
p676
S'1:24 PM - 11 Dec 2017'
p677
tp678
a(S"Luke Harding on Trump, Russia, and 'Collusion' ~ @thenationhttp://bit.ly/2AsnetH\xc2\xa0"
p679
S'1:23 PM - 11 Dec 2017'
p680
tp681
a(S'RT \n#TimesSquare #GoldenGlobes #MondayMotivation #explosion #MeToo #DentureDonald #Bernie2020 #BernieOrBust #DemExit #PeoplesParty #FollowTheWhiteRabbit #HillaryClinton #Collusion #Russia #Jeruasalem #Breaking #SexualPredator #Fukushima #WikiLeaks #GOP #DNC #DonaldTrumphttps://twitter.com/RobinHoodTax/status/940242269235482625\xc2\xa0\xe2\x80\xa6'
p682
S'1:21 PM - 11 Dec 2017'
p683
tp684
a(S'Forget Collusion. Can Mueller Prove Russia Committed Cyberespionage? http://bit.ly/2ATyqi9\xc2\xa0'
p685
S'1:21 PM - 11 Dec 2017'
p686
tp687
a(S'Wrong question. Right question: Did the Obama Administrstion or the DOJ use information gained from the investigations into Trump campaign collusion with Russia to give the Clinton campaign any assistance?'
p688
S'1:21 PM - 11 Dec 2017'
p689
tp690
a(S'Geez Kyle...nothing to this story at all.  Planned by the Dems.  No Russia, no collusion, nothing.  So they\xe2\x80\x99re trying this...again.  Kyle just have a glass of warm soy milk with a Red Bull chaser...you\xe2\x80\x99ll be fine.'
p691
S'1:21 PM - 11 Dec 2017'
p692
tp693
a(S"No, he should not, and luckily he won't. Just because your Russia Collusion stories have fallen apart, you don't go calling for his resignation."
p694
S'1:20 PM - 11 Dec 2017'
p695
tp696
a(S'RT \n#TimesSquare #GoldenGlobes #MondayMotivation #explosion #MeToo #DentureDonald #Bernie2020 #BernieOrBust #DemExit #PeoplesParty #FollowTheWhiteRabbit #HillaryClinton #Collusion #Russia #Jeruasalem #Breaking #SexualPredator #Fukushima #WikiLeaks #GOP #DNC #DonaldTrumphttps://twitter.com/mrkocnnll/status/939942430249537536\xc2\xa0\xe2\x80\xa6'
p697
S'1:20 PM - 11 Dec 2017'
p698
tp699
a(S'He must resign because Russia Russia Russia,  I mean alleged sexual assault.... I mean alleged sexual assault with a Russian???   I mean alleged collusion with a Russian while sexually assaulting them....  I mean alleged collusion with sexually assaulted Russians??? Bah ha ha ha'
p700
S'1:18 PM - 11 Dec 2017'
p701
tp702
a(S'FAKE NEWS CNN no longer pushing Russia collusion ,now its OLD FAKE NEWS http://us.cnn.com/2017/12/11/politics/donald-trump-metoo-analysis/index.html\xc2\xa0\xe2\x80\xa6'
p703
S'1:18 PM - 11 Dec 2017'
p704
tp705
a(S'Obama smoked (I mean, I love him, but he did) so y\xe2\x80\x99all can stop with this now. Maybe let\xe2\x80\x99s focus on the treasonous collusion with Russia or something. https://twitter.com/cnn/status/940329176636297217\xc2\xa0\xe2\x80\xa6'
p706
S'1:17 PM - 11 Dec 2017'
p707
tp708
a(S'Forget Collusion. Can Mueller Prove Russia Committed Cyberespionage? And if not, what\xe2\x80\x99s the point of his investigation?~ @AndrewCMcCarthy via @nationalreview.\nhttp://www.nationalreview.com/article/454515/russian-cyberespionage-does-mueller-have-proof-beyond-reasonable-doubt\xc2\xa0\xe2\x80\xa6pic.twitter.com/ex3Gv0u337'
p709
S'1:16 PM - 11 Dec 2017'
p710
tp711
a(S'The lying fake news media is in full desperation mode. With the Russia collusion story being a massive flop, & the roaring economy hitting new highs daily, Democrats have no card yet but to go \xe2\x80\x9cALL IN\xe2\x80\x9d on President Trump\xe2\x80\x99s sexual misconduct accusers. pic.twitter.com/fOiLIGZyG8'
p712
S'1:15 PM - 11 Dec 2017'
p713
tp714
a(S"Political Journalists Regret the Error. Again and Again.: If there's a major news story that journalists have botched more over the past 70 years than the Russia 'collusion' story, I'd love to hear about it.\nhttp://bit.ly/2z2b0Ww\xc2\xa0"
p715
S'1:15 PM - 11 Dec 2017'
p716
tp717
a(S'Two different topics. Impeachment based on Russia should wait for actionable evidence of said collusion. Resigning for sexual harassment/assault has apparently established a red line, now people are holding Trump to that standard.'
p718
S'1:14 PM - 11 Dec 2017'
p719
tp720
a(S'Unrolled thread from @rising_serpent https://threadreaderapp.com/thread/940061015026294785\xc2\xa0\xe2\x80\xa6\nWhile all the #noise was about #Russia #collusion, Jeff #Sessions was running another #investigation under the #radar and very soon the #hammer will come down on the #traitors #QAnon'
p721
S'1:14 PM - 11 Dec 2017'
p722
tp723
a(S'If there were any truths to these allegations HRC and the Dem party would have found evidence. 0 EVIDENCE just like Trump Russia collusion..'
p724
S'1:14 PM - 11 Dec 2017'
p725
tp726
a(S'Haha. "A book, by [@Guardian \'journalist\' aka] #MI6 publicist #LukeHarding, \'Collusion: Secret Meetings, Dirty Money, How Russia Helped Donald Trump Win\' seeks to pump credibility into the acknowledged British bag of smoke known as the #SteeleDossier"https://twitter.com/greekemmy/status/940269905848557569\xc2\xa0\xe2\x80\xa6'
p727
S'1:14 PM - 11 Dec 2017'
p728
tp729
a(S"Ethics committee has nothing to do with anything prior to holding office. Guess they figured out Russia collusion wasn't going to pan out for them!"
p730
S'1:13 PM - 11 Dec 2017'
p731
tp732
a(S'Remove your tin foil hat buddy. The only collusion with Russia came from your side of the isle.'
p733
S'1:11 PM - 11 Dec 2017'
p734
tp735
a(S'@SenGillibrand was all about @BillClinton and having his support until last month!!  Guess the Russia Collusion collapsed, so now leftists have to try a new failed path!!'
p736
S'1:11 PM - 11 Dec 2017'
p737
tp738
a(S'Truly I don\xe2\x80\x99t care about trump drinking 1-2 or 12 diet cokes a day!! I care about trump lying every day to the public! I care about him sexually assaulting 19 women. I care about Russia collusion on election. I care about Ca burning down I care about Puerto Rico.Pls reporton this'
p739
S'1:11 PM - 11 Dec 2017'
p740
tp741
a(S'It looks like Dems now want @POTUS to resign because of disputed sexual assaults before he was elected. The Russia collusion thing must not be working out.'
p742
S'1:11 PM - 11 Dec 2017'
p743
tp744
a(S'#Democrats #LiberalLeft & the #FakeMedia have tried to derail, undermine and obstruct @realDonaldTrump If all else fails like #Russia collusion let\xe2\x80\x99s try #sexual harassment @CNN couldn\xe2\x80\x99t be happier because the Russia Story is getting old #MAGApic.twitter.com/KcFJgaX52U'
p745
S'1:10 PM - 11 Dec 2017'
p746
tp747
a(S"Maybe you should, but it'd just be another witch hunt of the likes of Mueller. Any evidence of collusion? Not yet after a year of Dems looking & alleging! Mueller gets ppl for lying to the FBI. The only collusion is HRC & Russia."
p748
S'1:10 PM - 11 Dec 2017'
p749
tp750
a(S'What is such a joke is that trump & his mouthpieces say the voting is rigged & the news is fake\xe2\x80\xa6 The two things (besides Russia & GOP collusion) that got him where he doesn\xe2\x80\x99t belong. #WheresHillary??? The real POTUS!!! We need her!'
p751
S'1:10 PM - 11 Dec 2017'
p752
tp753
a(S'Syrian/Russian collusion in violating sanctions #putin #olgino #trolls #fsb #putin #oligarchs #russia #syria #assad #cyberspetsnashttp://ow.ly/e5Ea30h8zpr\xc2\xa0'
p754
S'1:10 PM - 11 Dec 2017'
p755
tp756
a(S'#Trump #USA #Fakenews #CNN #WAPO #NYT #collusion #Russia #impeachment\nhttps://buff.ly/2BqfPLw\xc2\xa0\n33'
p757
S'1:10 PM - 11 Dec 2017'
p758
tp759
a(S'Luke Harding on Trump, Russia, and \xe2\x80\x98Collusion\xe2\x80\x99 via @thenationhttps://www.thenation.com/article/luke-harding-on-trump-russia-and-collusion/\xc2\xa0\xe2\x80\xa6'
p760
S'1:09 PM - 11 Dec 2017'
p761
tp762
a(S'Another CNN \xe2\x80\x98Bombshell\xe2\x80\x99 Collapses, Forced To Correct Sessions-Russia Collusion Narrative http://ibleedredwhiteblue.com/another-cnn-bombshell-collapses-forced-to-correct-sessions-russia-collusion-narrative/\xc2\xa0\xe2\x80\xa6pic.twitter.com/0T8I2ExZ10'
p763
S'1:09 PM - 11 Dec 2017'
p764
tp765
a(S'Again, for the 1000th time, dick head Lurch criminal Mueller would have long since leaked everything he had on "Trump/Russia Collusion" if he indeed had anything remotely resembling it. He. Has. Nothing.\nCuz there is nothing.'
p766
S'1:09 PM - 11 Dec 2017'
p767
tp768
a(S'How peculiar this \'harassment" narrative has made front row, riding on the unsuccessful shirt tales of \'Russia collusion\'. This sickens me to images what lies the democratic party is capable of. Drain the swamp!'
p769
S'1:09 PM - 11 Dec 2017'
p770
tp771
a(S"Well defined!! 'Russia collusion' has dried up with one disappointment/outright lie after another, so it's now time to try and tie the Franken/Conyers anchor around Trump's neck..."
p772
S'1:08 PM - 11 Dec 2017'
p773
tp774
a(S'You knew liberals were going to claim @POTUS has sexually harassed women - They tried before the election and it failed with unsub stories, so why not try again? #Russia collusion story has collapsed.'
p775
S'1:07 PM - 11 Dec 2017'
p776
tp777
a(S'Never. It was litigated in the media and by the American public before the election. Voters were informed. We elected him. They\xe2\x80\x99re dredging up an old story because Muh Russia Collusion was another lie.'
p778
S'1:06 PM - 11 Dec 2017'
p779
tp780
a(S'227: #TrumpRussia #Trussia #TrumpRussiaCollusion #KremlinKlan #ITMFA\n17 Signs of Trump Team Collusion with Russia https://planetsave.com/2017/11/12/17-signs-of-trump-team-collusion-with-russia/\xc2\xa0\xe2\x80\xa6pic.twitter.com/VxOp19xnDe'
p781
S'1:06 PM - 11 Dec 2017'
p782
tp783
a(S"@MooreSenate  is boosted by Twitter bots, most likely through collusion of Donald Trump (his avid supporter) and Russia and he tries to blame the DNC and Democrats. Im shocked he didn't blame the 14 year old victims of his sexual abuse and harassment. https://twitter.com/AdamParkhomenko/status/940107061701967872\xc2\xa0\xe2\x80\xa6"
p784
S'1:06 PM - 11 Dec 2017'
p785
tp786
a(S'In other news after really breaking down the science  I now believe the Trump/Russia collusion is fake news.. Its Deeper then that'
p787
S'1:05 PM - 11 Dec 2017'
p788
tp789
a(S'Hell No!wat a joke ppl new wat happen bf we voted last yr this women want 2 come out nw y they didn\xe2\x80\x99t come out in 2006.? Or watever..? All this damn time nw that he is da president they got something 2 said since Russia didn\xe2\x80\x99t work or collusion isn\xe2\x80\x99t workin they want 2 try this'
p790
S'1:01 PM - 11 Dec 2017'
p791
tp792
a(S'we need to pray for @realDonaldTrump coz the Dems are coming back w women to go against @POTUS Trump..the Russia Collusion fake news is not working for them so Al Franken was used a pawn..their target is Pres Trump.. https://twitter.com/steph93065/status/940323554691768320\xc2\xa0\xe2\x80\xa6'
p793
S'1:00 PM - 11 Dec 2017'
p794
tp795
a(S"Oh, I dunno... You'd be amazed at what unending incompetence with a healthy dose of Russia collusion can do."
p796
S'12:59 PM - 11 Dec 2017'
p797
tp798
a(S'trump haters-fake news. they tried russia collusion, obstruction, unfit-mania, all kinds of mania, n went nowhere. now, sex accusers-mania. nothing there. going nowhere. we the ppl had decided. its a dead issue. abt new allegations, let accusers n accused have their day in court.'
p799
S'12:58 PM - 11 Dec 2017'
p800
tp801
a(S'ICYMI: GOP Lawmaker Believes Don Jr\xe2\x80\x99s Testimony ENDED the Russia Collusion Hysteria http://truthfeednews.com/gop-lawmaker-believes-don-jrs-testimony-ended-the-russia-collusion-hysteria/?utm_source=dlvr.it&utm_medium=twitter\xc2\xa0\xe2\x80\xa6'
p802
S'12:57 PM - 11 Dec 2017'
p803
tp804
a(S'Time for International High Crimes Court - Forget Collusion. Can Mueller Prove Russia Committed #Cyberespionage ?http://bit.ly/2ATyqi9\xc2\xa0'
p805
S'12:56 PM - 11 Dec 2017'
p806
tp807
a(S"We tried sex abuse first, then Russia Collusion after that we tried the firing of Comey. When that didn't work we hired a witch-hunting special prosecutor. Now we're going to keep throwing crap against the wall until something sticks! http://video.foxnews.com/v/5676125237001/\xc2\xa0\xe2\x80\xa6"
p808
S'12:56 PM - 11 Dec 2017'
p809
tp810
a(S'The hubris that made leftist hacks posing as objective journalists believe they could make the public swallow whole the fictional Trump Russia Collusion Story is built on lies that worked before.  The lies that they have gotten away with in the past are too many to list. pic.twitter.com/D7RJkQGphg'
p811
S'12:56 PM - 11 Dec 2017'
p812
tp813
a(S'@NASA was NOT CREATED TO MAKE MUSLIM"S FEEL GOOD About their Contributions to Science.  It was created to get us into SPACE & KEEP US THERE. Talk about COLLUSION with RUSSIA They have to Launch US INTO space!!!! @POTUS44https://twitter.com/GOPLeader/status/940315030121263104\xc2\xa0\xe2\x80\xa6'
p814
S'12:55 PM - 11 Dec 2017'
p815
tp816
a(S"GLORIA ALLRED & HITLARY CLINTON PAYING MILLIONS FOR THESE LIARS\nWE ALL SAW IT IN THE WIKI LEAKED EMAILS BEFORE THE ELECTIONS! I GUESS THAT MEANS THEY COULDN'T FIND ANYTHING COLLUSION OR OBSTRUCTION WITH RUSSIA. GIVE IT UP ALREADY SNOWFLAKES , SHOW ME THE PROOF OR STFU https://twitter.com/purplemeatballs/status/940321415990878208\xc2\xa0\xe2\x80\xa6"
p817
S'12:55 PM - 11 Dec 2017'
p818
tp819
a(S'The Left cant prove Trump Russia collusion. So now its plan B with sick false sexual misconduct accusations.'
p820
S'12:52 PM - 11 Dec 2017'
p821
tp822
a(S"The Obstruction charges are important, but let's not lose sight of Trumps real crimes, the original cause of the obstruction... Collusion, to undermine/influence/outright rig the US election in trade for a lift on U.S. sanctions on Russia - https://washingtonmonthly.com/2017/12/11/the-underlying-crime-in-the-trumprussia-investigation/\xc2\xa0\xe2\x80\xa6"
p823
S'12:52 PM - 11 Dec 2017'
p824
tp825
a(S'Now that the Trump/Russia collusion story has fallen apart, cnn and msnbc and other media are going back to old 2016 stories #Sad'
p826
S'12:51 PM - 11 Dec 2017'
p827
tp828
a(S"The uglier, the better!\nTrump thinks he's above the law and that he'll get away with ANYTHING, from collusion with Russia, sexual misconduct, to - and this is the worst of all - gross incompetence as president. \n#TheResistance #ImpeachTrump #MuellerTimehttps://bloom.bg/2BRHtgK\xc2\xa0"
p829
S'12:51 PM - 11 Dec 2017'
p830
tp831
a(S'Never mind Russia collusion -- Most Americans think Trump should be impeached over sexual assault https://twitter.com/FridaGhitis/status/940322094579159040\xc2\xa0\xe2\x80\xa6'
p832
S'12:48 PM - 11 Dec 2017'
p833
tp834
a(S'ANDREW MCCARTHY:  Forget Collusion. Can Mueller Even Prove Russia Committed Cyberespionage?. \xe2\x80\x9cWe hav\xe2\x80\xa6 https://pjmedia.com/instapundit/283099/\xc2\xa0\xe2\x80\xa6'
p835
S'12:47 PM - 11 Dec 2017'
p836
tp837
a(S'@FBI MUELLER PLEASE investigate @JudgeJeanine @FoxNews @seanhannity for OBSTRUCTION OF JUSTICE. They are advisers to the SO CALLED @POTUS @realDonaldTrump    Their propaganda and collusion with Russia has got to stop. https://twitter.com/sethabramson/status/940315929916952581\xc2\xa0\xe2\x80\xa6'
p838
S'12:47 PM - 11 Dec 2017'
p839
tp840
a(S'#Russia collusion failed? Try something new? Cc @FoxNews'
p841
S'12:46 PM - 11 Dec 2017'
p842
tp843
a(S'The good stuff: Luke Harding on Trump, Russia, and \xe2\x80\x98Collusion\xe2\x80\x99 via @thenationhttps://www.thenation.com/article/luke-harding-on-trump-russia-and-collusion/\xc2\xa0\xe2\x80\xa6'
p844
S'12:45 PM - 11 Dec 2017'
p845
tp846
a(S'Impeach Trump because, Russia Russia Russia, Oh wait I mean Alleged sexual assault....   I mean Alleged Sexual assault with a Russian...  I mean Alleged collusion with a sexually assaulted Russian... Alleged collusion while sexually assaulting a Russian????'
p847
S'12:44 PM - 11 Dec 2017'
p848
tp849
a(S"yup...this was coming...dirty schemes coz Russia Collusion allegations failed so they're using sexual harrassment as their tool to oust @realDonaldTrump ..https://twitter.com/TruthFeedNews/status/940319800009490432\xc2\xa0\xe2\x80\xa6"
p850
S'12:43 PM - 11 Dec 2017'
p851
tp852
a(S'@POTUS @DailySignal @DailyCaller Schiffy,Common Sense would tell U that conclusion is so Full of Hole even U could crawl thruThen1 must ask JUST WAS WAS THE EXACT COLLUSION BETWEEN TRUMP & RUSSIAOUTLINE IN FULL DETAIL WHAT YOU MOUTH IS FOAMMING&BRAIN KNOWS IT NOT TRUE'
p853
S'12:42 PM - 11 Dec 2017'
p854
tp855
a(S"I've got a sneaking suspicion Trump won't go down cause of collusion with Russia but for being a creepy fucker."
p856
S'12:40 PM - 11 Dec 2017'
p857
tp858
a(S'someone is still butthurt about Trump winning! Oh 1984Mik so professorial like Ovomit... How about bunch of women accusing you.. let me watch you squirm! haha.. BTW, no Russia collusion, no impeachment, seven more years buddy & guess what ZERO legacy left from Obummer! HAHAHA! pic.twitter.com/I86b2XedVI'
p859
S'12:40 PM - 11 Dec 2017'
p860
tp861
a(S"@realDonaldTrump ALABAMA VOTERS MUST REMEMBER THAT THIS'S JUST ANOTHER HOAX LIKE D FAMOUS TRUMP/FLYNN 'COLLUSION' W RUSSIA. THEY VE ALSO TRIED 2 REMOVE D WHOLE WH STAFF AND COULDN'T... https://twitter.com/mitchellvii/status/940290087576834049\xc2\xa0\xe2\x80\xa6"
p862
S'12:40 PM - 11 Dec 2017'
p863
tp864
a(S'YOU GOT PUNKED!!!  ONCE AGAIN CNN HAS QUIETLY WALKED BACK MORE OF THEIR "BOMBSHELL" reporting on TRUMP RUSSIA COLLUSION NARRATIVE.  http://dailycaller.com/2017/12/11/cnn-walks-back-jeff-sessions-russia-bombshell/\xc2\xa0\xe2\x80\xa6 @potus @DonaldJTrumpJr @TuckerCarlson @ScottPresler @LouDobbs @seanhannitypic.twitter.com/qho31HFgEH'
p865
S'12:39 PM - 11 Dec 2017'
p866
tp867
a(S"This is just the typical liberal playbook. Since the Russia collusion thing didn't work, or impeachment or crazy, this is the logical next step. Parade a bunch women and accuse, demand he step down."
p868
S'12:38 PM - 11 Dec 2017'
p869
tp870
a(S"Adam Schiff: You have to ignore 'rational sense' to not sense collusion between Trump and Russia http://www.washingtonexaminer.com/article/2643072\xc2\xa0 via @dcexaminer"
p871
S'12:38 PM - 11 Dec 2017'
p872
tp873
a(S"#Russia Collusion failed, so let's see if this nonsense will stick? Another MISdirection right before Alabama election #RoyMooreForSenatehttps://twitter.com/President1Trump/status/940282018839121920\xc2\xa0\xe2\x80\xa6"
p874
S'12:38 PM - 11 Dec 2017'
p875
tp876
a(S'GOP Lawmaker Believes Don Jr\xe2\x80\x99s Testimony ENDED the Russia Collusion Hysteria http://truthfeednews.com/gop-lawmaker-believes-don-jrs-testimony-ended-the-russia-collusion-hysteria/\xc2\xa0\xe2\x80\xa6'
p877
S'12:37 PM - 11 Dec 2017'
p878
tp879
a(S'The only collusion I\'m more certain took place than that of @realDonaldTrump & @Russia over the 2016 Election is the collusion of Derek Jeter & the @Yankees over the theft... er, "trade" of Giancarlo Stanton pic.twitter.com/xARK0pB67l'
p880
S'12:37 PM - 11 Dec 2017'
p881
tp882
a(S'Same old crap different day. Didn\xe2\x80\x99t believe it prior to election and don\xe2\x80\x99t believe it now. Russia collusion theory collapsing so they sacrifice a few of their own to try to go after Trump. So obvious. Saw this coming from a mile away. Another Soros funded attack.'
p883
S'12:36 PM - 11 Dec 2017'
p884
tp885
a(S'The Dems can\xe2\x80\x99t prove collusion with Russia so now they are trying sexual accusations. Dems why don\xe2\x80\x99t you start with investigating Obama and HC? That will be a huge story!'
p886
S'12:36 PM - 11 Dec 2017'
p887
tp888
a(S'They are getting ready to drop Russia Collusion and start attacking on other fronts'
p889
S'12:35 PM - 11 Dec 2017'
p890
tp891
a(S'So the Russia collusion falls flat now they go back to this... their desperation is showing... https://twitter.com/OhCanadiana/status/940307623538077696\xc2\xa0\xe2\x80\xa6'
p892
S'12:35 PM - 11 Dec 2017'
p893
tp894
a(S"@realDonaldTrump @POTUS @DonaldJTrumpJr @EricTrump @FLOTUS @IvankaTrump the Dems are scheming to impeach/taint Pres Trump after Russia collusion allegations is not going anywhere...It's said that George Soros is funding these!..... https://twitter.com/VivaLaBanned/status/940239994303729664\xc2\xa0\xe2\x80\xa6"
p895
S'12:34 PM - 11 Dec 2017'
p896
tp897
a(S'Yet there is nothing to connect Trump or even connect Flynn & Manafort to Russia collusion. The charge against Flynn is far less serious and should be easily beatable IMO as per Hillary, ie selective prosecution. #TrumpRussiaCollusionNothingBurger '
p898
S'12:34 PM - 11 Dec 2017'
p899
tp900
a(S'Russia collusion has failed, let\xe2\x80\x99s go back to old allegations.\n#MAGAhttps://twitter.com/cnni/status/940306318153388032\xc2\xa0\xe2\x80\xa6'
p901
S'12:33 PM - 11 Dec 2017'
p902
tp903
a(S'@realDonaldTrump WHEN THIS GUY WILL RETURN BACK TO COMMUNIST RUSSIA? NO COLLUSION, NO OBSTRUCTION, & NOW MORE FABRICATED LIES? https://twitter.com/TheWeeHours/status/940313674836795392\xc2\xa0\xe2\x80\xa6'
p904
S'12:32 PM - 11 Dec 2017'
p905
tp906
a(S'rhetorical....of course... They are so predictable. Win election, ng, Russia collusion, NG, me too see if it sticks, ng. So predictable'
p907
S'12:31 PM - 11 Dec 2017'
p908
tp909
a(S'OLD: Sanders Still Talking Russia Collusion http://www.breitbart.com:80/video/2017/12/10/sanders-mueller-evidence-collusion-trump-campaign-russia-grounds-impeachmentbreitbart.com/video/2017/12/\xc2\xa0\xe2\x80\xa6'
p910
S'12:30 PM - 11 Dec 2017'
p911
tp912
a(S"DON'T LET DEMS DECEIVE U WITH SUPPOSED PEDOPHILE ACCUSATION. IT WAS CAREFULLY PLANNED FOR 2 WEEKS BEFORE ELECTION 2 STEAL ANOTHER CHAIR IN SENATE. JUST ANOTHER HOAX LIKE @POTUS & FLYNN COLLUSION W RUSSIA... https://twitter.com/MooreSenate/status/940265056226496513\xc2\xa0\xe2\x80\xa6"
p913
S'12:29 PM - 11 Dec 2017'
p914
tp915
a(S'Russia?that is actually propaganda... still waiting for the election collusion... they have a team full of pro-hilllary lawyers and NOTHING'
p916
S'12:28 PM - 11 Dec 2017'
p917
tp918
a(S'@realDonaldTrump @GOP @POTUS #TheResistance is resisting your Crime, your lies, your collusion with Russia, your ban on immigration, your sexual abuse, your turning back progress, your sick #dotard plans to enrich yourself #resist #StopBullying stop mocking those who oppose you'
p919
S'12:27 PM - 11 Dec 2017'
p920
tp921
a(S'Hillary Clinton\xe2\x80\x99s Russia Collusion Doesn\xe2\x80\x99t Interest Mainstream Media http://www.libertyheadlines.com/hillary-clintons-russia-collusion-doesnt-interest-mainstream-media/\xc2\xa0\xe2\x80\xa6 via @LibertyHeadline'
p922
S'12:26 PM - 11 Dec 2017'
p923
tp924
a(S'@POTUS @SenateGOP @SenateDems @IngrahamAngle @CNNPolitics @GOP @DNC If democrats & swamp think they can shift from failed Russia Collusion story to Sexual  Harassment / obstruction story in an effort to  negate our vote for second year, they are wrong! http://www.foxnews.com/politics/2017/12/11/trump-accusers-band-together-seek-congressional-probe-sexual-misconduct.html\xc2\xa0\xe2\x80\xa6'
p925
S'12:25 PM - 11 Dec 2017'
p926
tp927
a(S'"#Russia" -- #ObamaGate | #Mueller\nAndy C. McCarthy: Forget Collusion. Can Mueller Prove Russia Committed Cyberespionage?\nhttp://www.nationalreview.com/article/454515/russian-cyberespionage-does-mueller-have-proof-beyond-reasonable-doubt\xc2\xa0\xe2\x80\xa6\n| #tcot #PJNET'
p928
S'12:25 PM - 11 Dec 2017'
p929
tp930
a(S"No you idiot he wasn't. Clintons are on the Russian's back pocket sold them 20% of US uranium. She received $ millions from Russia. Trump no Russian collusion"
p931
S'12:24 PM - 11 Dec 2017'
p932
tp933
a(S'Just like in the case with Roy Moore, these women conveniently come out after President Trump is running for office. Their"Russia Collusion" scam only proved democrat Hillary, Bill, Obama, & Mueller colluded, and is now falling apart, so it\'s back to plan A, trot out the trollops'
p934
S'12:24 PM - 11 Dec 2017'
p935
tp936
a(S'U guys support HRC & obama and they not only colluded with Russia but put them in control of our Uranium right here. Trump hasn\xe2\x80\x99t given anyone control over a national security thing such as they did. And collusion isn\xe2\x80\x99t against the law itself.'
p937
S'12:24 PM - 11 Dec 2017'
p938
tp939
a(S'With the Russia collusion story being a massive flop, and the roaring economy hitting new highs daily, Democrats have no card yet but to go \xe2\x80\x9call in\xe2\x80\x9d on President Trump\xe2\x80\x99s sexual misconduct accusers.  http://truthfeednews.com/eyewitness-says-trump-accuser-jessica-leeds-is-lying/\xc2\xa0\xe2\x80\xa6'
p940
S'12:24 PM - 11 Dec 2017'
p941
tp942
a(S'the Dems are using sexual harrassment case now after AL Franken against you..coz Russia collusion story failed..there must b consequences 4 those who report fake news..'
p943
S'12:22 PM - 11 Dec 2017'
p944
tp945
a(S'You mean proof like Trump Russia collusion or like Clinton Russia collusion? https://twitter.com/RedNationRising/status/940313750011371521\xc2\xa0\xe2\x80\xa6'
p946
S'12:19 PM - 11 Dec 2017'
p947
tp948
a(S"Meanwhile the Sessions-Russia collusion scandal isn't one at all... http://dailycaller.com/2017/12/11/cnn-walks-back-jeff-sessions-russia-bombshell/\xc2\xa0\xe2\x80\xa6"
p949
S'12:19 PM - 11 Dec 2017'
p950
tp951
a(S'Today is the day the Russia Collusion bullshit officially died. Now we\'re onto the laughable "I can\'t believe he saw my (robed) naked body" and "He asked for my phone #."\nHow about yall just fuck off, he isn\'t going anywhere. https://twitter.com/deirdrewalshcnn/status/940297572261953536\xc2\xa0\xe2\x80\xa6'
p952
S'12:19 PM - 11 Dec 2017'
p953
tp954
a(S'Russia collusion only exists in the minds of those that cannot get over the fact that Hillary lost & on video with Obama saying he will have more flexibility after his election.'
p955
S'12:17 PM - 11 Dec 2017'
p956
tp957
a(S'megyn kelly would sell her kids for ratings .you cant get trump with russia cant with collusion lets try sex harrasment . it is the bottom of the barrel scum sucking pigs'
p958
S'12:16 PM - 11 Dec 2017'
p959
tp960
a(S'Tell US again how no collusion with Russia and Putin.  Liar liar Pence on fire. '
p961
S'12:15 PM - 11 Dec 2017'
p962
tp963
a(S"That's a long shot, considering we don't even have a space program and have to use Russia (collusion here too?) to fly in space"
p964
S'12:14 PM - 11 Dec 2017'
p965
tp966
a(S'Russia is working, collusion is working. pic.twitter.com/jlqtvNPeWD'
p967
S'12:14 PM - 11 Dec 2017'
p968
tp969
a(S'Is there collusion between #Russia and the #GOP related to campaign funds. Is #Graham culpable? \n\nhttps://www.dallasnews.com/opinion/commentary/2017/08/03/tangled-web-connects-russian-oligarch-money-gop-campaigns\xc2\xa0\xe2\x80\xa6'
p970
S'12:13 PM - 11 Dec 2017'
p971
tp972
a(S'Well... COLLUSION,Trick U.S: people to believe Russia\xc2\xb4s obstruction to the elections, SELLING THE COUNTRY TO RAS-PUTIN!!PROMOTE HATRED AND RACISM!!'
p973
S'12:13 PM - 11 Dec 2017'
p974
tp975
a(S'Oh boy Dems on their desperate soap box. Guess Russia collusion passed?'
p976
S'12:13 PM - 11 Dec 2017'
p977
tp978
a(S'Newt, I\xe2\x80\x99m shocked that you think so highly of Mueller. He is on nothing short of a witch hunt of our POTUS, family & associates. After a year no evidence of collusion with Russia. @FoxNews @OANN'
p979
S'12:12 PM - 11 Dec 2017'
p980
tp981
a(S'JAMES ROBBINS: Suspend Robert Mueller\xe2\x80\x99s politically tainted investigation into Russia-Trump collusion: It is dangerous to subject the office of the president to a gravely biased probe undertaken with a reckless spirit. https://pjmedia.com/instapundit/283093/\xc2\xa0\xe2\x80\xa6'
p982
S'12:12 PM - 11 Dec 2017'
p983
tp984
a(S'@realDonaldTrump You see, there is not one shred of evidence regarding any Russia collusion and they will continue this diatribe because they don\'t like you and still think "Hitlary" should have won !!! #politicshttps://twitter.com/Militis805/status/940312751146012672\xc2\xa0\xe2\x80\xa6'
p985
S'12:12 PM - 11 Dec 2017'
p986
tp987
a(S'What does this have to do with Russia collusion during the campaign?'
p988
S'12:12 PM - 11 Dec 2017'
p989
tp990
a(S"Oh,yes he did and he isn't the only one # D&C Hillary thugs Democratic Party Collusion with Russia their your Russian crime they been looking for love in the wrong place Muller # nuke deal"
p991
S'12:11 PM - 11 Dec 2017'
p992
tp993
a(S'So I take it the Russia Collusion thing isn\xe2\x80\x99t going to pan out?'
p994
S'12:11 PM - 11 Dec 2017'
p995
tp996
a(S'Sanders: If Mueller Has Evidence of Collusion Between the Trump Campaign, Russia You Have Grounds for Impeachment\xe2\x80\x99:\nhttp://valubit.cc/sanders-if-mueller-has-evidence-of-collusion-between-the-trump-campaign-russia-you-have-grounds-for-impeachment/\xc2\xa0\xe2\x80\xa6'
p997
S'12:10 PM - 11 Dec 2017'
p998
tp999
a(S'#Trump #USA #Fakenews #CNN #WAPO #NYT #collusion #Russia #impeachment\nhttps://buff.ly/2Bqfdpc\xc2\xa0\n32'
p1000
S'12:10 PM - 11 Dec 2017'
p1001
tp1002
a(S'Sorry but I\xe2\x80\x99m more interested in all the sex accusations. And collusion with Russia'
p1003
S'12:09 PM - 11 Dec 2017'
p1004
tp1005
a(S'Sarah did an off the charts outstanding job and the democrats are so predictable. They had a massive fail with the Russia collusion accusations and this is no different!'
p1006
S'12:09 PM - 11 Dec 2017'
p1007
tp1008
a(S"Deep State couldn't defeat @POTUS @realDonaldTrump with FAKE Russia Collusion, even w/ @TheJusticeDept Rosenstein's Dirty Cop Mueller, so it has recycled sexual misconduct allegations against him?  And of all people, yesterday's recycled has-been propagandist @megynkelly?  #LOL"
p1009
S'12:09 PM - 11 Dec 2017'
p1010
tp1011
a(S'I wish we put the same kinds of resources into investigating Trump\xe2\x80\x99s sexual harassment and assault that we put into investigating his collusion with Russia. #ITMFA #NotMyPresident #WomenMatter #MeToo'
p1012
S'12:08 PM - 11 Dec 2017'
p1013
tp1014
a(S'Forget Collusion. Can Mueller Prove Russia Committed Cyberespionage? http://bit.ly/2ATyqi9\xc2\xa0'
p1015
S'12:08 PM - 11 Dec 2017'
p1016
tp1017
a(S'Obstructing justice ok with #GOP\nSexual assault ok with #GOP\nCollusion with Russia ok with #GOP\nVery rich get very richer purpose of #GOP'
p1018
S'12:07 PM - 11 Dec 2017'
p1019
tp1020
a(S'@BarackObama space legacy made US dependent on Russia to get to the space station...  Russian collusion anyone ?'
p1021
S'12:06 PM - 11 Dec 2017'
p1022
tp1023
a(S'Now that the Russia collusion hoax is irrelevant and nothing is sticking on Trump family members, Dems rehash old BS.'
p1024
S'12:06 PM - 11 Dec 2017'
p1025
tp1026
a(S'Robert Mueller Admitted The One Thing About Russia Collusion No One Saw Coming http://greatamericandaily.com/robert-mueller-russia-collusion/\xc2\xa0\xe2\x80\xa6'
p1027
S'12:06 PM - 11 Dec 2017'
p1028
tp1029
a(S"Barack Obama's Collusion with Russia Caught on Camera! pic.twitter.com/X49mgGmhWV"
p1030
S'12:06 PM - 11 Dec 2017'
p1031
tp1032
a(S'can we say more lies by the media.Flynn did nothing.No evidence of collusion on Russia.Meuller only hired people who hate trump.All have close ties to Clintons.Emails and texts shows this to be true'
p1033
S'12:05 PM - 11 Dec 2017'
p1034
tp1035
a(S"And what are @CNN and their illegitimate cousin @MSNBC focused on? The Trump/Russia collusion that didn't happen."
p1036
S'12:04 PM - 11 Dec 2017'
p1037
tp1038
a(S'I guess the recent Russia collusion didn\xe2\x80\x99t work out so back to pre-election accusations! Sick of it the MSM was fine w/Clintons sex accusers but still it\xe2\x80\x99s  fine cause it\xe2\x80\x99s the Clintons don\xe2\x80\x99t tell me it was then she was now n Bill would have been FMOTUS still actively involved'
p1039
S'12:04 PM - 11 Dec 2017'
p1040
tp1041
a(S"Russia didn't work. Collusion didn't work. Hey let's pay these liars to lie more to get him out. Geez just stop it!"
p1042
S'12:04 PM - 11 Dec 2017'
p1043
tp1044
a(S'Communicating with russia as an incoming administration is not collusion its diplomacy. Trump did 4 rallies a day in front of 30k people. Hillary did 1 a week in front if 400 people in HS gyms. He outworked her & won. Rural America rejected obamas race-baiting legacy. Move on.'
p1045
S'12:04 PM - 11 Dec 2017'
p1046
tp1047
a(S'#Russia offers specific help to #Trump\xe2\x80\x99s election. It delivers. Trump team looks to pay Russia back and to hide that fact from the public and even the government itself. Not sure what the rest of the collusion is supposed to look like, but that\xe2\x80\x99s enough.\n#trumprussia'
p1048
S'12:04 PM - 11 Dec 2017'
p1049
tp1050
a(S'Trump should be found guilty of: sexual assault, collusion with Russia, and obstruction of justice, to name a few!'
p1051
S'12:04 PM - 11 Dec 2017'
p1052
tp1053
a(S'Trump purposely incites violence to take away the focus on  the investigation into his collusion with russia'
p1054
S'12:04 PM - 11 Dec 2017'
p1055
tp1056
a(S'What the hell does Russia Collusion have to do a time period AFTER the election?There was no fucking collusion. Now he\'s just hunting for something. You take a fine tooth comb and go over every nook and cranny of ANYONE (including yourself) You would be able to find "something".'
p1057
S'12:04 PM - 11 Dec 2017'
p1058
tp1059
a(S'Remember when I said all this Trump Russia collusion was to reignite the cold war competitiveness.... https://twitter.com/cnn/status/940310664639377409\xc2\xa0\xe2\x80\xa6'
p1060
S'12:03 PM - 11 Dec 2017'
p1061
tp1062
a(S"Can it get more pathetic? Now that the Dems year of Fake accusations of Trump/Russia collusion are backfiring on them, and the Race Card over played, they've moved to accusing Trump of false sexual accusations. Follow the $! I have no doubt these ladies are being paid to lie! https://twitter.com/Fuctupmind/status/940307017314586624\xc2\xa0\xe2\x80\xa6"
p1063
S'12:03 PM - 11 Dec 2017'
p1064
tp1065
a(S'doesn\'t it say more about america than russia if they were able to influence the election in some way? what does "collusion" actually mean?'
p1066
S'12:00 PM - 11 Dec 2017'
p1067
tp1068
a(S"Why does @KatyTurNBC  and @MSNBC have Michael Caputo on to discuss the Russian collusion scandal when Caputo himself spent years as an advocate for Russia and Putin? He's just as likely to have similar ties!"
p1069
S'11:59 AM - 11 Dec 2017'
p1070
tp1071
a(S'I can see Russia and Hillary from my Back Yard ! Whatzzz Up ? Collusion ? Hmmmm?'
p1072
S'11:58 AM - 11 Dec 2017'
p1073
tp1074
a(S'Who did not see this coming?  Moral high ground taken as a ploy with Franken and Conyers (2 useless buffoons) in order to play this game as RUSSIA collusion leads to HER, OBSTRUCTION non-existent, Alinsky tactics never die, but the DNC is on their way #2018/2020Landslide'
p1075
S'11:57 AM - 11 Dec 2017'
p1076
tp1077
a(S'Could\xe2\x80\x99ve seen this one coming a mile away! Didn\xe2\x80\x99t work when aired it to stop him from being elected but now that they\xe2\x80\x99ve sacrificed their own, they feel it will have credibility! Russia collusion didn\xe2\x80\x99t work, obstruction failed, so repeat till something does'
p1078
S'11:57 AM - 11 Dec 2017'
p1079
tp1080
a(S"Just like Trump will resign any day? or MuellerTime will impeach Trump any day? Or Trump's base will abandon him any day? or evidence of Russia collusion will surface any day?"
p1081
S'11:57 AM - 11 Dec 2017'
p1082
tp1083
a(S'Joy Behar Delivers Fake News from Brian Ross RE: Trump and Russia Collusion - Never Offers Apology: http://youtu.be/CxCg377LZek?a\xc2\xa0 via'
p1084
S'11:57 AM - 11 Dec 2017'
p1085
tp1086
a(S"Suspend Robert Mueller's politically tainted investigation into Russia-Trump collusion https://usat.ly/2BbqkBL\xc2\xa0 via @usatoday =You people are out of your mind!"
p1087
S'11:56 AM - 11 Dec 2017'
p1088
tp1089
a(S'never stops! @CNN has quietly walked back more of their \xe2\x80\x9cbombshell\xe2\x80\x9d reporting on the Trump-Russia collusion narrative, and this time it\xe2\x80\x99s a story relating to Attorney General Jeff Sessions\xe2\x80\x99 security clearance forms  http://dailycaller.com/2017/12/11/cnn-walks-back-jeff-sessions-russia-bombshell/\xc2\xa0\xe2\x80\xa6 #MondayMotivation'
p1090
S'11:55 AM - 11 Dec 2017'
p1091
tp1092
a(S'BREAKING NEWS \nAS OF DECEMBER 11 NO COLLUSION WITH RUSSIA IS EVIDENT! #MSM SWITCHING TO \n#SLUTGATE\n#MAGA\n#nycexplosion\n#TimesSquare\n#Trump\n#NYPD'
p1093
S'11:55 AM - 11 Dec 2017'
p1094
tp1095
a(S'Latest Dem strategy: While Russia collusion is slowly simmering on the back burner, let\xe2\x80\x99s hammer the Prez with sexual assault.'
p1096
S'11:55 AM - 11 Dec 2017'
p1097
tp1098
a(S'Many journalists are reporting false info. It\xe2\x80\x99s so obvious to people outside the leftist echo chamber. \n\nIt\xe2\x80\x99s also not only the falsehoods being reported. Its ignoring huge stories like ISIS and the economy in favor of unproven accusations like Russia collusion for a solid year.'
p1099
S'11:55 AM - 11 Dec 2017'
p1100
tp1101
a.