(lp0
(S'16 yr old Yazidi girl Yasmin was sick of being raped by ISIS fighters . So she doused herself in gasoline & lit a match , knowing that if she survived,the militants would no longer find her desirable. Now she looks like a zombie, and children cry when they see her. pic.twitter.com/iG0uIJgza9'
p1
S'2:41 PM - 30 Jan 2018'
p2
tp3
a(S'What exactly is the left "resisting" ?\n\n99 record highs on the stock market?\nA booming economy?\nISIS being slaughtered?\nRecord low black unemployment?\nLargest middle class tax cut in US History?\nUS finally being energy independent? \n\nThe left is on the wrong side of history'
p4
S'1:25 PM - 28 Jan 2018'
p5
tp6
a(S'After gleefully championing the butcher of thousands of women in Libya and fueling the rise of ISIS, Hillary Clinton does the outrageous, and covers up for a sexual impropriety towards a member of the same class that writes American newspaper columns.  https://www.washingtonpost.com/news/act-four/wp/2018/01/30/breaking-up-with-hillary-clinton/?utm_term=.9aa0816c1541\xc2\xa0\xe2\x80\xa6'
p7
S'12:43 PM - 30 Jan 2018'
p8
tp9
a(S'.@PressSec: "We\'ve had an incredible first year. The economy is booming, ISIS is on the run." pic.twitter.com/XnDbwTwrAf'
p10
S'6:10 AM - 30 Jan 2018'
p11
tp12
a(S'Joshua Boyle got a meeting with @JustinTrudeau because he had (in Trudeau\xe2\x80\x99s words) an \xe2\x80\x9coverseas ordeal\xe2\x80\x9d. This little boy who survived ISIS captivity has not been granted a meeting. RT if you want Trudeau to meet with Emad when he goes to Winnipeg tomorrow.\nhttps://www.ctvnews.ca/mobile/canada/boy-held-captive-by-isis-seeks-meeting-with-trudeau-1.3769238\xc2\xa0\xe2\x80\xa6'
p13
S'6:14 AM - 30 Jan 2018'
p14
tp15
a(S'People who attack military bases and vehicles and try lynching a soldier are no more civilians.\n\nPeople who hurl stones and petrol bombs at police are no more innocent.\n\nPeople who hoist ISIS flags on the top of religious shrines, no more deserve our sympathy.'
p16
S'9:14 AM - 30 Jan 2018'
p17
tp18
a(S'Yazidi girl set herself on fire to avoid further rape at hands of ISIS. Why She did this? Because there was No option as Monsters were brutally raping her everyday. Situation Matters. But for People like Swara Bhaskar, Its all about Vagina so let it be... https://womenintheworld.com/2016/09/23/yazidi-girl-set-herself-on-fire-to-avoid-further-rape-at-hands-of-isis/\xc2\xa0\xe2\x80\xa6'
p19
S'8:53 AM - 30 Jan 2018'
p20
tp21
a(S'Reminder: Back when he was FBI Director, Mueller worked w/ Islamist orgs \xe2\x80\x94 including ISNA & CAIR (unindicted co-conspirators in the HolyLandFoundation terror case) \xe2\x80\x94 to purge the FBI\'s anti-terror training manuals of material deemed "offensive" to Muslims.http://jwatch.us/N1QLHJ\xc2\xa0'
p22
S'2:30 PM - 30 Jan 2018'
p23
tp24
a(S'TERROR: Man who stabbed 2 brothers in US shopping mall admits attack inspired by ISIS. \n\n\xe2\x80\x9cI am here reaffirming that it was indeed an act of Jihad in the way of Allah.\xe2\x80\x9d\n\nhttp://www.westmonster.com/man-who-stabbed-two-brothers-at-us-mall-insists-act-of-jihad-in-the-way-of-allah/\xc2\xa0\xe2\x80\xa6'
p25
S'7:15 AM - 30 Jan 2018'
p26
tp27
a(S'\xe2\x80\x9cIf there was no American prison in Iraq, there would be no ISIS now.\xe2\x80\x9d https://interc.pt/2BAHzc4\xc2\xa0pic.twitter.com/lL4GcSSUYh'
p28
S'11:17 AM - 30 Jan 2018'
p29
tp30
a(S"If Radical Mob lynched & killed Jawan then its ok, We'll declare him Martyr. No action against Mob. But If Jawan killed Anti India Radical or Potential Terrorist in Self-Defence then filed FIR & put him behind bar. This is how we end Terrorism & says India emerging as Super Power"
p31
S'6:50 AM - 30 Jan 2018'
p32
tp33
a(S'.@RepMcCaul: "I saw the rise of ISIS under my chairmanship for six years \xe2\x80\x94 President Obama did virtually nothing to stop this. Within one year @realDonaldTrump has unleashed the generals and crushed the caliphate in Iraq and Syria."pic.twitter.com/jkmJYRGAb6'
p34
S'6:42 AM - 30 Jan 2018'
p35
tp36
a(S"for my terrorism class, hezbollah was one of the suggested subjects we could write our 25 page research paper on, so instead i told my professor i'm writing 25 pages on why they shouldn't be included in that list "
p37
S'2:23 PM - 30 Jan 2018'
p38
tp39
a(S'Secretary Tillerson: Following @POTUS\xe2\x80\x99 challenge to our Gulf partners, #Qatar has made great progress to improve efforts to combat terrorism. The US and Qatar have increased information sharing on terrorists & terrorist financiers. We look forward to building on this foundation. pic.twitter.com/2QTxogEvwE'
p40
S'7:37 AM - 30 Jan 2018'
p41
tp42
a(S'Turkey keeps releasing high profile #ISIS suspects.\n\nToday, a 2015 Ankara bombing suspect got released\n\n109 were killed in the attack\n\nThe suspect was captured with:\n\n40 lbs TNT\n8 suicide vests 1 w explosives\n3 hand grenades\n1 IED\n1 Glock gun\n100s bullets\n\nhttps://ahvalnews.com/node/6100#sthash.qlOIWrGQ.uxfs\xc2\xa0\xe2\x80\xa6pic.twitter.com/JLyfAln6kj'
p43
S'6:21 AM - 30 Jan 2018'
p44
tp45
a(S'With the stock market humming, pay raises and bonuses bristling, unemployment down, ISIS largely defeated, and taxes going down, the State of the Union shows glimmers of hope. Yet, we all know that something is missing. 1/2'
p46
S'6:36 AM - 30 Jan 2018'
p47
tp48
a(S'Pakistan has sacrificed 75,000 civilians & 6000 soldiers to the scourge of terrorism (we have one of the highest officer-to-soldier casualty rate globally) and suffered economic losses worth USD 123bn'
p49
S'7:06 AM - 30 Jan 2018'
p50
tp51
a(S'skater: \n-needs a place to crash\n-never seen the movie holes \n-has no clue what u like he just wants to shower at ur place \n- isis\n-gives u UTIs for the sport of it\nscooter:\n- tall dark handsome\n-helps you with math\n-will kill for u\n-rts ur selfies\n-already told his mom about u'
p52
S'3:37 PM - 30 Jan 2018'
p53
tp54
a(S'ISIS is desperately waiting for you to Join their army...... Subsidy on which you are eating food is not given by your daddy... Its our money so read and Join ISIS rather than preaching others...Bloody Jihadan'
p55
S'8:47 AM - 30 Jan 2018'
p56
tp57
a(S'I genuinely enjoy those car rides you have w someone when y\xe2\x80\x99all talk about everything & anything together because y\xe2\x80\x99all are that comfortable. Those conversations be deep af but the best lol'
p58
S'12:17 PM - 30 Jan 2018'
p59
tp60
a(S'Good Morning Everyone.  Look I got a dog and boo.pic.twitter.com/kq8kZt14Xi'
p61
S'8:39 AM - 30 Jan 2018'
p62
tp63
a(S'Well he gave me a raise, cut taxes, gave us the freedom to kill ISIS, cut regulations, cut unemployment to the lowest levels in 45 years, and GDP has increased more that last 3 qtrs than the last 25 years. Troll somewhere else brother. pic.twitter.com/8oFRDeopjQ'
p64
S'3:07 PM - 30 Jan 2018'
p65
tp66
a(S"Mall Of America Slasher: I Was Answering The 'Call For Jihad' From ISIS http://bit.ly/2DOjpNj\xc2\xa0"
p67
S'11:18 AM - 30 Jan 2018'
p68
tp69
a(S'Philadelphia jihad car attack: \xe2\x80\x9cPolice don\xe2\x80\x99t believe incident was a case of domestic terrorism\xe2\x80\x9d https://gellerreport.com/2018/01/police-phllly-terror-not.html/?utm_source=dlvr.it&utm_medium=twitter\xc2\xa0\xe2\x80\xa6pic.twitter.com/5rIegSjYmm'
p70
S'2:52 PM - 30 Jan 2018'
p71
tp72
a(S'Seen here is Mihrac Ural shaking hands with Qadri Jamil, head of the Moscow group, at the Sochi conference. Ural holds primary responsibility for the Bayda and Banyas massacre in 2013 and is wanted by Turkey on terrorism charges.\nQuite simply...this is the "peace" they\'re after?! pic.twitter.com/QfNgv5J49Y'
p73
S'7:15 AM - 30 Jan 2018'
p74
tp75
a(S'The NYT has done quite a few pieces giving context and explaining why otherwise ordinary people in the west have sympathized with and joined ISIS. Does that make the NYT pro ISIS? It\xe2\x80\x99s absurd'
p76
S'11:58 AM - 30 Jan 2018'
p77
tp78
a(S'Secretary Tillerson on the Gulf dispute: It is critical that all parties minimize rhetoric & work toward a resolution. A united GCC bolsters our effectiveness on many fronts, particularly on countering terrorism, defeating ISIS & countering the spread of #Iran\xe2\x80\x99s malign influence. pic.twitter.com/5j1SilkH8f'
p79
S'7:51 AM - 30 Jan 2018'
p80
tp81
a(S'Evidence of how #Pakistan is fighting terrorism as they claim always. By supplying Lashkar-e-Tohiba (LeT) with weapons and letting LeT\xe2\x80\x99s frontal organisation JuD\xe2\x80\x99s cadre brandish AK-47 or the Kalashnikov assault rifles openly in Peshawar rally. Even children not spared. Shocking. pic.twitter.com/SAA9nvvd1d'
p82
S'12:31 PM - 30 Jan 2018'
p83
tp84
a(S'\xe2\x9d\x9dTo be yourself is not a crime.\xe2\x9d\x9epic.twitter.com/HUOySNAvff'
p85
S'2:18 PM - 30 Jan 2018'
p86
tp87
a(S'Brahminism is Terrorism!\nHinduism is Terrorism!\nOptimisam is Terrorism!\nIndianism is Terrorism!\nBiggest irony is Indians themselves are ignorant of what actual terrorism is?'
p88
S'8:43 AM - 30 Jan 2018'
p89
tp90
a(S'#ISIS finally ditches pretence and boils ideology down to 3 words. pic.twitter.com/qnHDsE2zTG'
p91
S'9:42 AM - 30 Jan 2018'
p92
tp93
a(S"The right wing media in this country are a disgrace, they are making Mr. Corbyn a target with their false accusations of sympathy with terrorism and terrorists, he's a man of peace, he's won peace awards ffs,unhinged ppl like Darren Osborne believe all this fake news."
p94
S'11:49 AM - 30 Jan 2018'
p95
tp96
a(S'NIA has registered a case against 9 people hailing from Kerala and Bangalore for allegedly being involved in forcible conversion of a Gujarat-based woman and attempting to sell her off to ISIS terrorists in Saudi Arabia. I wonder, Why feminists are mum over such incidents?'
p97
S'10:27 AM - 30 Jan 2018'
p98
tp99
a(S'Seven tech buses have been hit with projectiles this past month, causing buses to be rerouted to 101 with longer commute times. CHP has no leads.  '
p100
S'9:29 AM - 30 Jan 2018'
p101
tp102
a(S'is your child using acronyms online?\n\nlmao- i have no idea what this means\n\nstfu- absolutely no clue\n\nsmh- this one could be bad... i don\xe2\x80\x99t know\n\nlol- holy shit this one looks really bad\n\nfml- possibly terrorism??????\n\nlmfao- it\xe2\x80\x99s the same one as earlier but it has fuck in it'
p103
S'11:13 AM - 30 Jan 2018'
p104
tp105
a(S'Im too warm to go out for a weepic.twitter.com/kUKMfiGKVv'
p106
S'3:13 PM - 30 Jan 2018'
p107
tp108
a(S"#ISIS not represent Islam..\n#Wahhabism not represent Islam..\n#Shia not represent Islam..\n#Sunni not represent Islam...\n#Iran #Pakistan, And #Indonesia not represent Islam..\n\nThen who's will?! Thailand for example!"
p109
S'9:02 AM - 30 Jan 2018'
p110
tp111
a(S'Minnesota man pleads guilty to answering "the call for jihad" on behalf of ISIL when he slashed two shoppers at the Macy\'s in the Mall of America in November.\n\nRecall that authorities first claimed this was an interrupted theft.http://www.startribune.com/man-who-stabbed-2-at-mall-of-america-tells-court-isis-inspired-him/471639884/\xc2\xa0\xe2\x80\xa6'
p112
S'6:12 AM - 30 Jan 2018'
p113
tp114
a(S'Security FTW! The State Department Has Released A New Map Of The World Where America Is Too Small For ISIS To Find http://clckhl.co/UvmdvOc\xc2\xa0 pic.twitter.com/ca5HKlSxGm'
p115
S'12:30 PM - 30 Jan 2018'
p116
tp117
a(S'JUST IN: Top Russian spy sanctioned by US government visits US for "consultations" on "terrorism" http://hill.cm/5meKhQX\xc2\xa0pic.twitter.com/QFav02Txym'
p118
S'1:13 PM - 30 Jan 2018'
p119
tp120
a(S"'Telling residents of Missouri that they can\xe2\x80\x99t know when the governor and his staff downloaded text-destroying software is not a state secret. It\xe2\x80\x99s a secret from the state.' Cc: @EricGreitens @confide #moleghttp://www.stltoday.com/news/local/columns/tony-messenger/messenger-greitens-cites-terrorism-exception-to-hide-details-on-text/article_5c81b496-8a6b-59a6-8c85-a4a897d2d9d4.html\xc2\xa0\xe2\x80\xa6"
p121
S'3:20 PM - 30 Jan 2018'
p122
tp123
a(S"Trump's war on ISIS has resulted in an ALL TIME HIGH IN CIVILIAN DEATHS. How much attention does Corporate Media give this reality? Next to zero. Make America Great Again is more like Make America Kill Innocent People Some More. http://www.independent.co.uk/news/world/middle-east/donald-trump-us-civilian-deaths-iraq-syria-isis-coalition-bombing-a8180331.html\xc2\xa0\xe2\x80\xa6"
p124
S'2:32 PM - 30 Jan 2018'
p125
tp126
a(S'Hate filled animals just like Isis. pic.twitter.com/6ll5wv7kwY'
p127
S'2:41 PM - 30 Jan 2018'
p128
tp129
a(S"So we've got three dynamics overlapping at play. \n1) That proximity to Muslims (or being Muslim) is reason to suspect split allegiances.\n2) That being critical of the War on Terror is tantamount to treason. \n3) Historicising terrorism is the same as condoning it."
p130
S'12:10 PM - 30 Jan 2018'
p131
tp132
a(S'Time 4 @ashrafghani to show decisiveness, command and envision a plan to defeat terrorism. We need young generation security leaders, they are educated, passionate nd knw modern warfare nd R never defeated unlike the current communist commanders in charge of key positions.'
p133
S'7:11 AM - 30 Jan 2018'
p134
tp135
a(S'Turkey, Isis and Al Qaeda terrorists have been allies during the entire Syrian war\n\n#StopAfrinGenocidepic.twitter.com/dJYjuV2jcG'
p136
S'9:40 AM - 30 Jan 2018'
p137
tp138
a(S'"Terrorism is the price of empire. If we do not wish to pay it, we must give up the empire." - Pat Buchanan'
p139
S'6:00 AM - 30 Jan 2018'
p140
tp141
a(S'Certificate, counter terrorism studies. Does that mean he\xe2\x80\x99s played Call of Duty?!'
p142
S'1:21 PM - 30 Jan 2018'
p143
tp144
a(S'Beside discussing the regional security issues, NSA talked abt the 4 year development plan for ANDSF said parallel to the fight agianst terrorism the govt. also seriously fight agnst corruption in the ranks of the AFG Security Forces&had remarkable achievements in these areas.(2)'
p145
S'10:51 AM - 30 Jan 2018'
p146
tp147
a(S'There are some videos of what ISIS does to its victims. https://twitter.com/ranaayyub/status/958290384429383680\xc2\xa0\xe2\x80\xa6'
p148
S'10:13 AM - 30 Jan 2018'
p149
tp150
a(S'#StopAfrinGenocide ! Stop Turkish terrorism against civil people in Afrin! pic.twitter.com/0DloXvJsEg'
p151
S'1:45 PM - 30 Jan 2018'
p152
tp153
a(S'Turkish attack on #Afrin should stop now. I call on the @UN, @StateDept and @mfa_russia to intervene immediately and protect lives of so many innocent people. I call on all parties in #Syria to focus on #ISIS defeat and ensure they never return. 1/2'
p154
S'9:38 AM - 30 Jan 2018'
p155
tp156
a(S'yesterday in class, we were instructed to write a social/human problem that a business/product could help solve. after I wrote \xe2\x80\x9chelp people with Instagram captions\xe2\x80\x9d on the board, I realized \xe2\x80\x9cpoverty\xe2\x80\x9d \xe2\x80\x9cterrorism\xe2\x80\x9d & \xe2\x80\x9cpollution\xe2\x80\x9d were the themes of every other problem written'
p157
S'6:38 AM - 30 Jan 2018'
p158
tp159
a(S'The sanctioned head of the Kremlin foreign intel service (responsible for 2016 election interference) recently met with Pompeo under pretext of working together against terrorism. https://www.thedailybeast.com/russias-sanctioned-spy-chief-reportedly-met-cia-director-in-the-us?source=twitter&via=desktop\xc2\xa0\xe2\x80\xa6'
p160
S'1:47 PM - 30 Jan 2018'
p161
tp162
a(S'Watch documentaries on women imprisoned by ISIS. You will understand what nauseating & repulsive really means. BTW how much is 2+2\xc3\x972-2\xc3\xb72? https://twitter.com/RanaAyyub/status/958290384429383680\xc2\xa0\xe2\x80\xa6'
p163
S'6:26 AM - 30 Jan 2018'
p164
tp165
a(S'#Afrin under siege from #Hitler #Serial Opium Smoking ISIS #Turkey Insurgent & he is going to lose big @ The Hague \nhttps://youtu.be/whQQpwwvSh4\xc2\xa0pic.twitter.com/EidO3kdNaa'
p166
S'3:17 PM - 30 Jan 2018'
p167
tp168
a(S'Should the Muslim Grooming Gangs targeting under age non Muslim girls be considered an act of terrorism . Your opinions please'
p169
S'5:59 AM - 30 Jan 2018'
p170
tp171
a(S'I\xe2\x80\x99m being sucked in & watching season 5 of Bad Boys club. Isis is ICONIC already. I.... why do I like this ratchetness?'
p172
S'6:17 AM - 30 Jan 2018'
p173
tp174
a(S'BREAKING: New DOD report indicates Trump raining hellfire on Taliban, ISIS & AQ in Afghanistan:\n\n"There has been a significant uptick in U.S. air strikes & special ops, with the US dropping 653 munitions in Oct 2017 ... a record high since 2012 & a 3-fold increase from Oct 2016."'
p175
S'7:38 AM - 30 Jan 2018'
p176
tp177
a(S'Every Senate Democrat Has Refused to Condemn Terrorism by Group DNC Deputy Chair Promoted \n\n#DOMESTIC TERRORISM \n\nThe message approved by Democrats \n\nBrutal Violence gets thumbs up  by the party of Hate Rhetoric & Division \n\nhttp://www.thegatewaypundit.com/2018/01/every-senate-democrat-refused-condemn-terrorism-group-dnc-deputy-chair-promoted/http://www.thegatewaypundit.com/2018/01/every-senate-democrat-refused-condemn-terrorism-group-dnc-deputy-chair-promoted/\xc2\xa0\xe2\x80\xa6pic.twitter.com/dJOCidmo8E'
p178
S'3:34 PM - 30 Jan 2018'
p179
tp180
a(S'This picture from Hatay Turkey near Syria Border, saying "Let tell the israel and Usa ; Muhammad\'s (pbuh) Army Returned"...Most Turkish 85% believes this proxy terrorism war make against israel and USA... pic.twitter.com/m7sHJipbx9'
p181
S'3:05 PM - 30 Jan 2018'
p182
tp183
a(S'Afrin is another story of Terrorism in this world. The state terror of Turkey.\n#StopAfrinGenocide'
p184
S'1:53 PM - 30 Jan 2018'
p185
tp186
a(S'Looking forward to a great #SOTU speech tonight as President Trump gives a message of hope and accomplishments and a look forward! Jobs/ economy Immigration Infrastructure Trade Nat Security & fighting ISIS #GodBlessPresidentTrump pic.twitter.com/lYZYcY9q7H'
p187
S'12:33 PM - 30 Jan 2018'
p188
tp189
a(S'FORGET ISIS, Forget ILLEGALS, forget ANTIFA, forget REFUGEES and MUSLIMS, and Criminals.  We The People Need Protection FROM THE DEMOCRAT PARTY, THEIR CORRUPT MEMBERS IN OUR GOVERNMENT, and the CORRUPT MEDIA'
p190
S'12:10 PM - 30 Jan 2018'
p191
tp192
a(S"FSA is a terrorist group which was based from Al Qaida and other jihadist terror groups, and Erdogan's vehicles were caught when they were carrying weapons to Isis. So, #TurkeyEqualAlQaida !!"
p193
S'12:06 PM - 30 Jan 2018'
p194
tp195
a(S'This is not the ISIS center. This is Turkey...\n#TurkeyEqualAlQaidapic.twitter.com/cy3D5h9pe9'
p196
S'11:54 AM - 30 Jan 2018'
p197
tp198
a(S'\xe2\x80\x9cWe\'ve had an incredible first year. The #economy is booming, #ISIS is on the run." ~.@PressSec\n#MAGA\n#TRUMP\n#WINNING\n#RedWaveRising\n#RedWaveRising2018\n#MakeAmericaGreatAgain pic.twitter.com/8Lu7HrEPZc'
p199
S'10:53 AM - 30 Jan 2018'
p200
tp201
a(S'These are surveys that were done in predominantly muslim countries and turns out hundreds of millions of \xe2\x80\x98moderate\xe2\x80\x99 muslims justify suicide bombing. These are the same ones that come to the West and say that they are peaceful and live off benefits #Muslim #Islam #ISIS #Surveypic.twitter.com/z3tlc5La9v'
p202
S'9:12 AM - 30 Jan 2018'
p203
tp204
a(S'Islam is peace. I condemn any act of intimidation, terrorism, insurgency and bloodletting in the name of Allah'
p205
S'9:10 AM - 30 Jan 2018'
p206
tp207
a(S"Members of Yezidi community narrating their story in a Public Talk on 'Escape to Freedom -The Tale of Yezidi Survivors and Victims of Islamic State of Iraq and Syria' (ISIS) at JNU organised by @abvpjnupic.twitter.com/KDdlTskI0t"
p208
S'8:57 AM - 30 Jan 2018'
p209
tp210
a(S'The world is laughing at our so- called Democracy \xe2\x80\x94 right to our faces. Who the hell thought that the @GOP is our new enemy. It is no longer ISIS & other terrorist groups. #TuesdayThoughts'
p211
S'8:51 AM - 30 Jan 2018'
p212
tp213
a(S'State terrorism and bloodshed in #ModelTown will result in a fall of a tyranny of Sharifs. \n#WeAppealSuoMoto4MT'
p214
S'8:34 AM - 30 Jan 2018'
p215
tp216
a(S'I know multiple two words he will say tonight.  Tax cuts, middle class, immigration reform, the wall, ISIS destroyed, stock market, Schumer retire!!! @markgruber1960'
p217
S'7:47 AM - 30 Jan 2018'
p218
tp219
a(S'Racism. Is. Domestic. Terrorism.'
p220
S'7:37 AM - 30 Jan 2018'
p221
tp222
a(S'Happy birthday @BarstoolBigCat. Thank you for your service in the fight against ISIS pic.twitter.com/qYTXYUhjmf'
p223
S'7:31 AM - 30 Jan 2018'
p224
tp225
a(S'ISIS/Taliban is not on the run.\n\nThe Afghanistan Army controls only about 56% percent of the districts, which is down from 2015 (under Obama) when 72% was under control.\n\nTrump is not getting the job done. pic.twitter.com/tH9K1UldpQ'
p226
S'6:28 AM - 30 Jan 2018'
p227
tp228
a(S"Oh come on ... the guy says he can rehabilitate ISIS ... welcomes them to Canada ... how far off the rails does he have to go before his 'Liberal' minions stop defending this anti-CDN nutcase ?"
p229
S'6:06 AM - 30 Jan 2018'
p230
tp231
a(S'ISIS claimed they are saviours of Islam. RSS claims they are saviour of Hinduism, bottomline both are terrorist organizations!'
p232
S'6:04 AM - 30 Jan 2018'
p233
tp234
a(S'The neo-ottomanist/Jihadist Erdogan is helll-bent to restore the lost empire, the Caliphate, that is why Syria is his first target.his Caliphate project is more prudent than that of Al Qaeda/Nusra\\Al Sham/ISIS crazy terrorists.'
p235
S'5:58 AM - 30 Jan 2018'
p236
tp237
a(S"I'm specially  request to our Honourable Chief justice of Pakistan Mr.Justice Saqib Nisar sb to take suomoto(luckiness) Notice on state terrorism in MT. Lahore  \n#WeAppealSuoMoto4MT\n@TahirulQadri @AtiqRehmanPAT @siasatpk @newsonepk @PakMGOfficial @RaheeqAbbasi"
p238
S'5:03 AM - 30 Jan 2018'
p239
tp240
a(S'Every Senate Democrat Has Refused to Condemn Terrorism by Group DNC Deputy Chair Promoted\n\nhttp://thegatewaypundit.com/2018/01/every-senate-democrat-refused-condemn-terrorism-group-dnc-deputy-chair-promoted/\xc2\xa0\xe2\x80\xa6'
p241
S'2:23 PM - 30 Jan 2018'
p242
tp243
a(S'man, I feel like we really didn\'t get enough time to enjoy that whole "hobby lobby funding isis" thing last year.'
p244
S'2:05 PM - 30 Jan 2018'
p245
tp246
a(S'Hillary Clinton took cash from,  was director of, company that did deals with ISIS   \n#QAnon https://twitter.com/wikileaks/status/760145201008668672\xc2\xa0\xe2\x80\xa6'
p247
S'1:51 PM - 30 Jan 2018'
p248
tp249
a(S'Isis is one of the terrorist organizations controlled by the British Deep State  http://harunyahya.com/en/Kisa-filmler---Mutlaka-izleyin/244857/Isis-is-one-of-the-terrorist-organizations-controlled-by-the-British-Deep-State\xc2\xa0\xe2\x80\xa6 \xe2\x80\xa6 \n\nMark Salling #TuesdayThoughts\n#MyWelcomeMatWouldRead #PlanForVacation #Glee #NationalCroissantDaypic.twitter.com/y80UGJp9gt'
p250
S'1:30 PM - 30 Jan 2018'
p251
tp252
a(S"It's amazing how Trump in 1 year has exposed the media, DNC and now the FBI as treasonous anti- American criminals while defeating ISIS and bringing back manufacturing jobs plus tax reform."
p253
S'1:18 PM - 30 Jan 2018'
p254
tp255
a(S'I wish I could text my dog.'
p256
S'12:09 PM - 30 Jan 2018'
p257
tp258
a(S'The Israeli government is planning to demolish an entire Palestinian Bedouin community to expand an illegal settlement and those who resist the demolition orders will be convicted of terrorism. http://bit.ly/2FuDHeS\xc2\xa0pic.twitter.com/AUusNMSBIu'
p259
S'11:00 AM - 30 Jan 2018'
p260
tp261
a(S'These people want to make absolutely sure they are not associated w/ lowest black unemployment in history, a booming economy w/ 3%+ GDP growth & record setting DOW, fighting sexual predators, destroying ISIS, restoring pride in USA and not leading from behind. Pls help them by RT pic.twitter.com/L1bZm4WgZm'
p262
S'10:54 AM - 30 Jan 2018'
p263
tp264
a(S'Tonight will be the most Epic #SOTU if Trump would just read the memo.\n\nBesides Draining the Swamp\nJobs\nWages\nStock Market\nMilitary\nISIS\nTaxes\nUnemployment\nIllegal Border Crossings\n#ReleaseTheMemo\n\n"Despite the constant negative press, COVFEFE."pic.twitter.com/S9mmHsU3KJ'
p265
S'10:52 AM - 30 Jan 2018'
p266
tp267
a(S'.@SenBlumenthal forgets a critical piece of information to his unsubstantiated rhetoric. \n\nBuilding a border wall, reducing ISIS to gnats asses, implementing @ICEgov raids, negotiating nuclear threat, increasing US economic power worldwide isn\xe2\x80\x99t enough? Pffft. \n\n#CluelessIngratehttps://twitter.com/senblumenthal/status/958394511574667264\xc2\xa0\xe2\x80\xa6'
p268
S'10:04 AM - 30 Jan 2018'
p269
tp270
a(S'White supremacy = terrorism.'
p271
S'7:04 AM - 30 Jan 2018'
p272
tp273
a(S'We want justice from the world and we are going to reject state terrorism in pakistan with pashtun.\n#PashtunRejectStateTerrorism'
p274
S'6:43 AM - 30 Jan 2018'
p275
tp276
a(S'The point of removing cultural heritage monuments is to conquer people. To break their bond with their past, makes it much easier to control their future.\nISIS, the Taliban, & many others who have sought to conquer other people have done this, but you wouldnt know about history. https://twitter.com/alibearbeads/status/958338595030519808\xc2\xa0\xe2\x80\xa6'
p277
S'6:43 AM - 30 Jan 2018'
p278
tp279
a(S"International conspiracy to kill #Ambazonia. And you doubt why terrorism reigns in the world today. Where's justice in the world? @ryanlenorabrown @FoxNews @BorisJohnson #BringBackOurLeaders #FreeSisikuAyukTabe #FreeAllArrested #AJNewsGrid @UNHumanRights #FreeSouthernCameroonspic.twitter.com/1ZueLmvih2"
p280
S'6:22 AM - 30 Jan 2018'
p281
tp282
a(S'Lets join hands against Terrorism in the region and the world. We must expose all those states using terror as tool of foreign policy objective\n#PashtunRejectStateTerrorism'
p283
S'5:02 AM - 30 Jan 2018'
p284
tp285
a(S'Pashtuns are racially profiled, killed in fake encounters, faces inhuman treatement and biggest victims of terrorism. There is an ongoing genocide of Pashtuns. The world should listen to us. \n#PashtunRejectStateTerrorism'
p286
S'4:58 AM - 30 Jan 2018'
p287
tp288
a(S'Looking forward to an awesome SOTU address tonight by our wonderful .@POTUS who has been delivering on all his promises! Topics to discuss: Jobs/economy Immigration Infrastructure Trade National Security &amp; ISIS #WeStandWithTrump pic.twitter.com/iCw1syOSTE'
p289
S'4:45 AM - 30 Jan 2018'
p290
tp291
a(S"The only feeling I get when I think of a certain Mahatma is that of disappointment!\nHe took away my possibility to have a truly Hindu Nation where my kids didn't have to live in FEAR of Islamic Terrorism\nHe took away my right to truly live a life of dignity&equality!"
p292
S'4:15 AM - 30 Jan 2018'
p293
tp294
a(S'\xe2\x80\x9cSanctioned Russia intelligence officer entered the USA under the guise of discussing terrorism\xe2\x80\x9d <- there\xe2\x80\x99s the headline'
p295
S'1:55 PM - 30 Jan 2018'
p296
tp297
a(S'patxi and me before he went to the anti-mauricio unit................all cause terrorism......................................................................fuck the alt-right pic.twitter.com/ozLEYySZ51'
p298
S'1:12 PM - 30 Jan 2018'
p299
tp300
a(S'The world should ear us not to have any terrorist attacks by Isis in their country. If the Kurds was failed to defend their soil, the Kurds are not going to be the only one who lost the war againts Turkey. If the Kurds was lost, then Isis will re-appear!! #TurkeyEqualAlQaida'
p301
S'12:05 PM - 30 Jan 2018'
p302
tp303
a(S"Yup I agree. Twitter & @jack condones hate from the left while violating the right. I'm not sure, but I hypothese that his mom didnt show him enough love as a kid. He's actually quite pathetic really!\n\nI also agree, he'll never be successful in silencing patriots."
p304
S'11:28 AM - 30 Jan 2018'
p305
tp306
a(S'Why would the English Government want one of its former head of immigration and anti terrorism to head up the New Improved Scottish Office?'
p307
S'10:22 AM - 30 Jan 2018'
p308
tp309
a(S"I see why ppl hate Trump.. he doesn't know when to stop... 1st he fixes the economy, interest rates up, stock market all time highs, unemployment down across the board, he cuts off bad trade deals, cuts ISIS in half, and NOW fixes global warming? It's freezing outside Trump! Stop"
p310
S'9:55 AM - 30 Jan 2018'
p311
tp312
a(S'#Afrin will be the second Kobani for unmasked ISIS (Turkey)'
p313
S'9:16 AM - 30 Jan 2018'
p314
tp315
a(S'@PressSec\n@POTUS @realDonaldTrump\n"We\'ve had an incredible first year\nThe#Economyis booming\n#ISIS is on the run\n#JOBS\n#TaxCuts\n#MadeintheUSA\n#BuyAmericanHireAmerican\n#AmericaFirst#ProudAmerican\n#MAGA pic.twitter.com/QNePLCh8vL'
p316
S'6:24 AM - 30 Jan 2018'
p317
tp318
a(S'We request to our Honourable Chief justice Mr Saqib Nisar sb to take Suomoto notice against state terrorism on  MT tragedy 14 innocent citizens killed.\n#WeAppealSuoMoto4MT @TahirulQadri @BOLNETWORK @PakMGOfficial @newsonepk @siasatpk @HasanNisarPK @BOLNewsOfficial'
p319
S'6:23 AM - 30 Jan 2018'
p320
tp321
a(S'Model Town massacre was state terrorism, police acted on Punjab govt orders which led to bloodshed. \n#WeAppealSuoMoto4MT'
p322
S'5:19 AM - 30 Jan 2018'
p323
tp324
a(S"On this day RSS started their terrorism & hatred in India by killing #GandhiJi & it's continuation of terrorism is going on by RSS in #MahatmasIndia."
p325
S'4:39 AM - 30 Jan 2018'
p326
tp327
a(S'37 kids have died from flu. The president is doing nothing to stem this epidemic, which has killed more people in US than ISIS.'
p328
S'4:30 AM - 30 Jan 2018'
p329
tp330
a(S'#PashtunRejectStateTerrorism\nPashtuns are the victims of state terrorism'
p331
S'4:14 AM - 30 Jan 2018'
p332
tp333
a(S'#PashtunRejectStateTerrorism\nIf state is willing to exterminate terrorism, then kill Hafiz Saeed not Naqeeb Mehsud'
p334
S'4:13 AM - 30 Jan 2018'
p335
tp336
a(S'US President new policy to fight Taliban terrorism will pressurize countries mainly Pakistani ISI from using terrorism as a tool to pursue their objectives in the region. It also deter Afghan leadership from threatening our people by Taliban based on Ghani\xc5\x9b ethno-nationalism.'
p337
S'4:12 AM - 30 Jan 2018'
p338
tp339
a(S'Bingo! \xe2\x80\x9cThe honorable rank and file FBI\xe2\x80\x9d have been as silent as the \xe2\x80\x9cmajority of peace-loving Muslims\xe2\x80\x9d who never seem to speak out publicly against terrorism either. Disgraceful.'
p340
S'3:33 AM - 30 Jan 2018'
p341
tp342
a(S'Well thats rich coming from a person who belongs to a so called "terrorism Sponsoring Nation"'
p343
S'2:53 AM - 30 Jan 2018'
p344
tp345
a(S'HOW TURKEY COULD BECOME THE NEXT IRAQ!\nErdogan has more dangerous options now that his rule is secure, however. A partnership with al Qaeda\\ Sham\\ ISIS could grant him a powerful proxy force to achieve national security objectives without relying on the Turkish Military.'
p346
S'2:42 AM - 30 Jan 2018'
p347
tp348
a(S"Look at my sweet boi @mishacollins  I'm so softpic.twitter.com/KekNofZV9G"
p349
S'11:52 AM - 30 Jan 2018'
p350
tp351
a(S"ABVP National org. joint sec. Shri @shriniwas_hr ji is addressing on the 'Escape to Freedom -The Tale of Yezidi Survivors and Victims of Islamic State of Iraq and Syria' (ISIS) with our Yezidi friends at Mahi-Mandavi Mess, JNU. pic.twitter.com/rYIh81r45J"
p352
S'9:58 AM - 30 Jan 2018'
p353
tp354
a(S'#SOTU summed up in 20 seconds, "The State of the Union is great!  We\'re #MAGA! It\'s going to be even bigger. ISIS is crapping their pants.  Unemployment is the lowest it\'s ever been.  The stock market is roaring!  This is what winning looks like! Get used to it"  #DropTheMic'
p355
S'7:04 AM - 30 Jan 2018'
p356
tp357
a(S'Erdogan is an anti-western Jihadist. Now, that he has exposed his true feelings about the West, he should get the same treatment as members of Al Qaeda/ISIS that he supports. Time to close the door on Turkey ever being part of the European Union and NATO.'
p358
S'6:36 AM - 30 Jan 2018'
p359
tp360
a(S'The Israeli government is planning to demolish an entire Palestinian Bedouin community to expand an illegal settlement and those who resist the demolition orders will be convicted of terrorism. http://bit.ly/2E0Ezea\xc2\xa0pic.twitter.com/btNOgYL7cU'
p361
S'6:28 AM - 30 Jan 2018'
p362
tp363
a(S'#PashtunRejectStateTerrorism\nExterminate terrorism, Restore Peace and extend education'
p364
S'4:11 AM - 30 Jan 2018'
p365
tp366
a(S'So the pentagon will no longer report on insugent ISIS activity in Afghanistan! \nThat\xe2\x80\x99s how you fix the problem, just hide it from the Anerican public and tell us it\xe2\x80\x99s great!'
p367
S'3:50 AM - 30 Jan 2018'
p368
tp369
a(S'Because Obama is black the media pretended he was a good president no matter how obvious it became that he was a traitor to USA (helped Iran, ISIS, Hezbollah).\nWorse, if O had been eligible to run again, he might\'ve won.\nConclusion: the media must be "fundamentally transformed."'
p370
S'3:13 AM - 30 Jan 2018'
p371
tp372
a(S'Fred Fleitz: "ISIS was not going to be wiped out under Barack Obama, or frankly, under Hillary Clinton. It is president Trump." pic.twitter.com/Nehh2SF79f'
p373
S'2:21 AM - 30 Jan 2018'
p374
tp375
a(S'ISIS and AL Qaida Jihadists are presented as FSA. Those Turks Al-Qaeda terrorists were not in the region and casually walked over into Syria. Turkey brought them in with military vehicles..\n\nWhat does this mean? It means that Turkey is a state sponsor of terror..'
p376
S'2:09 AM - 30 Jan 2018'
p377
tp378
a(S"Military defeat of ISIS can be 'measured in weeks,' top US general says http://fxn.ws/2GvD8CP\xc2\xa0"
p379
S'1:55 AM - 30 Jan 2018'
p380
tp381
a(S'ISIS and AL Qaida want to attack Americans and take revenge on their defeat. Every Kurds should get on the phone and let the White House and their Senators speak up against these aggressions by Turkey and their appoxie militants.'
p382
S'1:40 AM - 30 Jan 2018'
p383
tp384
a(S'Good god I love misha collins so much'
p385
S'12:58 AM - 30 Jan 2018'
p386
tp387
a(S'Manbij was captured from Islamic State by the U.S.-backed Syrian Democratic Forces after a 75-day battle. Fighters from the predominately Kurdish People\xe2\x80\x99s...Now ISIS\\Al Qaeda is back with the Turks !!'
p388
S'12:52 AM - 30 Jan 2018'
p389
tp390
a(S'When wuld @nassnigeria @NGRSenate @HouseNGR @SPNigeria @bukolasaraki @YakubDogara consider "SARS & police terrorism, herdsmen terrorism, our president\'s ineptitude" a serious enough topic to be addressed? AREN\'T YALL MEANT TO PROJECT D VOICE OF D PEOPLE? @IntlCrimCourt @segalink'
p391
S'12:49 AM - 30 Jan 2018'
p392
tp393
a(S'Terrorism mean killing someone. So far only one religion have monopoly over it and that right is exclusive'
p394
S'12:40 AM - 30 Jan 2018'
p395
tp396
a(S"Chief Executive Dr. Abdullah and Frank Bakke Jensen Defense Minister of Norway discusses Norway's continued support for the Afghan National Security and Defense Forces and collective global cooperations and actions against terrorism and its harbors in this region. pic.twitter.com/oPyoiTp75D"
p397
S'12:35 AM - 30 Jan 2018'
p398
tp399
a(S'@ISIS These two have just called you a bunch of puffs. pic.twitter.com/0FyzOK8kPG'
p400
S'12:32 AM - 30 Jan 2018'
p401
tp402
a(S'Over 40 ISIS terrorists killed inside eastern Deir Ezzor in last 48 hours https://aml.ink/EK9D1\xc2\xa0 via @thearabsource @BLIKOPENER333 #\xd8\xa7\xd8\xb3\xd9\x85_\xd8\xa7\xd9\x84\xd9\x84\xd9\x8a_\xd8\xaa\xd8\xad\xd8\xa8\xd9\x87_\xd8\xa8\xd8\xa7\xd9\x84\xd8\xb1\xd9\x85\xd9\x88\xd8\xb2 #TTBninYan\xc4\xb1nday\xc4\xb1z #BlackPanther #MahatmaGandhi #FelizMartes #Syria #Syrianarmy #TwitterBestFandom #IPLAuction #\xd9\x88\xd8\xb4_\xd9\x82\xd8\xa7\xd9\x84\xd8\xaa_\xd9\x84\xd9\x83pic.twitter.com/UE5rHDfJ9H'
p403
S'11:43 PM - 29 Jan 2018'
p404
tp405
a(S"Either Hindu Mohalla or Muslim Mohalla, until Pak doesn't stops spreading terrorism in Bharat & killing Indians,Till then Every Bhartiya has right to raise Slogan 'Pakistan Murdabad' in every locality."
p406
S'11:21 PM - 29 Jan 2018'
p407
tp408
a(S'.@KellyannePolls: "This president, between the regulations, the taxation, ISIS is on the run. What he\'s done in one short year to stimulate this economy, keep us safer, and to make us prouder is really remarkable." pic.twitter.com/4kQRYde92s'
p409
S'11:00 PM - 29 Jan 2018'
p410
tp411
a(S'On this day in 1948 a Hindu terrorist assassinated Mahatma Gandhi. It took many decades but Hindu terrorism has now become way of life in India.'
p412
S'10:12 PM - 29 Jan 2018'
p413
tp414
a(S'Fresh, never frozen but I\xe2\x80\x99m still cold ya know pic.twitter.com/feQsNusGlI'
p415
S'10:00 PM - 29 Jan 2018'
p416
tp417
a(S'Please @jack @TwitterSupport @TwitterSafety help him recover the account that he is fighting terrorism .\n@mahaaaawihby'
p418
S'10:00 PM - 29 Jan 2018'
p419
tp420
a(S'\xe2\x9d\x9dThe sun will rise, and we will try again.\xe2\x9d\x9epic.twitter.com/HqdNuAe3sP'
p421
S'9:49 PM - 29 Jan 2018'
p422
tp423
a(S'Please follow this patriot who needs our help. Former FBI Supervisory Special Agent Robyn Gritz @vabelle2010\n\nHelp her fight FBI corruption & recover from their terrorism. pic.twitter.com/QIuV5495oU'
p424
S'8:50 PM - 29 Jan 2018'
p425
tp426
a(S'Ladies and Gentlemen, Terrorism has no RELIGION but has a CASTE. https://twitter.com/AmbedkarCaravan/status/957572228408856577\xc2\xa0\xe2\x80\xa6'
p427
S'8:47 PM - 29 Jan 2018'
p428
tp429
a(S"Gregory Salcido\xe2\x80\x99s vile criticizm of the military Included, \xe2\x80\x9cThey're not high-level bankers.\xe2\x80\x9d\n\nIn 2017, our military liberated 5.3 million people from ISIS.\n\nTell me we need more bankers in the world.   pic.twitter.com/vBKWScepuO"
p430
S'8:35 PM - 29 Jan 2018'
p431
tp432
a(S'Where\xe2\x80\x99s the Blu?: Black Sunday (1977), terrific Frankenheimer terrorism thriller with the best of Shaw\xe2\x80\x99s post-Jaws star leads. Dern and Keller aces too on this; recent respin of DVD made clear the need for upgrade but Paramount and their clause... pic.twitter.com/iv9JymHrJF'
p433
S'7:57 PM - 29 Jan 2018'
p434
tp435
a(S'#FactsMatterPH\n@rapplerdotcom spreading unverified info on ISIS hand in Resorts World Attack.\n\n#Rappler misleadingly implies SEC approved its PDRs and claims attack on press-freedom.\n\n@mariaressa fabricated that there were 7,080 drug-related killings since Duterte assumed power.'
p436
S'7:24 PM - 29 Jan 2018'
p437
tp438
a(S't-rex: look at that big ass shooting star haha make a wish\nraptor: i wish we was dead haha\nt-rex: lmao\nt-rex: \nt-rex:\nt-rex: aye bruh that shit look kinda close dont it'
p439
S'6:33 PM - 29 Jan 2018'
p440
tp441
a(S"The biggest enemy to the United States is no longer, Iran, Korea, ISIS or Russia. It's Devin Nunes and his crazy GOP House Secret Tree Fort Gang. I'm scared they can do alot of damage to our country before they they are stopped!!!"
p442
S'5:55 PM - 29 Jan 2018'
p443
tp444
a(S'You know how we\xe2\x80\x99ve been kept largely safe from terrorism since 9/11? #thanktheFBI'
p445
S'5:48 PM - 29 Jan 2018'
p446
tp447
a(S'Isis survivor Nihad Barakat thanks Gurudev @SriSri and @ArtofLiving! https://www.newsx.com/world/is-survivor-nihad-barakat-narrates-her-traumatic-ordeal-to-newsx/amp?__twitter_impression=true\xc2\xa0\xe2\x80\xa6 @SushmaSwarajpic.twitter.com/lB6qJ3OxCb'
p448
S'5:37 PM - 29 Jan 2018'
p449
tp450
a(S'UNBELIEVABLE ||\n\nErdogan finally made Turkish military to operate with the extensions of ISIS and Al Qaeda. #idlib \n\nErdogan disarmed educated and skillful soldiers from the Turkish Army by staging a coup.  \n\npic.twitter.com/XM6vlVu7rw'
p451
S'5:35 PM - 29 Jan 2018'
p452
tp453
a(S"These adults who think it's okay to threaten the lives of students and teachers because one man has a different opinion from them need to stop. School shootings are not a form a protest, it's terrorism."
p454
S'5:10 PM - 29 Jan 2018'
p455
tp456
a(S"Did you know:\n\nThanks to President Trump's leadership and the heroism of our troops, US led forces have reclaimed 98% of territory once held by ISIS"
p457
S'5:03 PM - 29 Jan 2018'
p458
tp459
a(S'Barack Obama was the Worst President in the History of the United States! RT If You Agree. #FisaAbuse #ObamaDeepState #ClintonEmails #Benghazi #Libya #ISIS #IranDeal #Syria #ChristianGenocide #RefugeeCrisis #MiddleEast #UraniumOne #FastandFurious #Obamacare #LoisLernerpic.twitter.com/oa5L5ugDGE'
p460
S'8:01 PM - 29 Jan 2018'
p461
tp462
a(S'.@KellyannePolls: "This president, between the regulations, the taxation, ISIS is on the run. What he\'s done in one short year to stimulate this economy, keep us safer, and to make us prouder is really remarkable." pic.twitter.com/A89VdDOyWk'
p463
S'6:59 PM - 29 Jan 2018'
p464
tp465
a(S'$900M just withheld from Pakistan. #ISIS in defeat. \n pic.twitter.com/qeZsxclt7W'
p466
S'4:54 PM - 29 Jan 2018'
p467
tp468
a(S'Zero SCANDALS?  You are so full of crap it isn\'t funny. \n1) Uranium 1\n2) Created ISIS\n3) Illegal "wiretapping" of political opponents\n and those are just the beginning pic.twitter.com/SQjImaaLFe'
p469
S'3:24 PM - 29 Jan 2018'
p470
tp471
a(S" Military defeat of ISIS can be 'measured in weeks,' US general says!\nAMAZING what has happened in just 1 year under @realDonaldTrump \nUnder Obama, Dem. Tulsi Gabbard said we were providing support to terrorists\nWATCH  https://youtu.be/EpzaLCPdbUs\xc2\xa0http://www.foxnews.com/world/2018/01/29/military-defeat-isis-can-be-measured-in-weeks-top-us-general-says.html\xc2\xa0\xe2\x80\xa6"
p472
S'3:17 PM - 29 Jan 2018'
p473
tp474
a(S"Always a pleasure to meet young, talented Pakistani interns. Miriam Ahmed is just completing an internship at the UN's Counter-Terrorism Committee Executive Directorate (CTED) pic.twitter.com/W2Qe5LeMQs"
p475
S'2:18 PM - 29 Jan 2018'
p476
tp477
a(S'UK: Muslim teen leaves flyers and CD\xe2\x80\x99s calling for jihad terrorism in two of London\xe2\x80\x99s biggest hospitals https://wp.me/p4hgqZ-zvo\xc2\xa0pic.twitter.com/DqCsUl19Eo'
p478
S'2:00 PM - 29 Jan 2018'
p479
tp480
a(S"Isa Kocoglu, a disability pensioner accused of funding Islamic State fighters in Syria. If this bloke, who looks like he's never gone hungry in his life, can afford to fund ISIS what is he doing on a DISABILITY PENSION? Is our Welfare System being policed? pic.twitter.com/sCFdB6U8uc"
p481
S'1:28 PM - 29 Jan 2018'
p482
tp483
a(S'Terrorism eyed after driver allegedly targets pedestrians in Philadelphia http://feeds.foxnews.com/~r/foxnews/national/~3/IUNVuFfGfYI/terrorism-eyed-after-driver-allegedly-targets-pedestrians-in-philadelphia.html\xc2\xa0\xe2\x80\xa6'
p484
S'1:20 PM - 29 Jan 2018'
p485
tp486
a(S'Earlier today, @POTUS hosted @UN Security Council members to discuss cooperation on a range of security challenges, including the denuking of #NorthKorea, countering #Iran\xe2\x80\x99s destabilization activities in the Middle East; ending the conflict in #Syria; and confronting terrorism. pic.twitter.com/is6HqHWBJB'
p487
S'1:19 PM - 29 Jan 2018'
p488
tp489
a(S'ISIS is desperate the gig is up. #GWB should have finished them off years ago but he listened to his Saudi masters and decided to go after Saddam Hussein for his oil which he never took and let ISIS take it. Genius move! #TRUMP taking care of business\n#MAGA\n#GMANFAN45'
p490
S'1:03 PM - 29 Jan 2018'
p491
tp492
a(S"Seventy years ago on January 30, in the first act of terrorism in Independent India, Rightwing bigot and Savarkar's protege, Nathuram Godse, gunned down Father of Nation #MahatmaGandhi\n#RssKilledGandhi\n@Shehla_Rashid @kanhaiyajnusu @RanaAyyub @prakashraaj @TeestaSetalvadpic.twitter.com/BnWLE1h3CE"
p493
S'12:49 PM - 29 Jan 2018'
p494
tp495
a(S'Meet Gillian \n\nDirector at the Scotland office.\n\nGillian has had roles in the Home Office as head of operational support for immigration and counter terrorism...\n\nIncluding a stint in Northern Ireland...\n\nWhy would a Scotland Office Director require such a skill set? pic.twitter.com/vDZ3I0Jv7p'
p496
S'12:32 PM - 29 Jan 2018'
p497
tp498
a(S'McCabe worked hard for each of his accomplishments. \n\nBolles school \nDuke graduate\nJ.D. from Washington University\nIntern DOJ\nField Office FBI\nSwat team\nFBI counter terrorism unit\nNational security\nInvestigated Marathon bomber \n\nYou? Winning sperm lotto. \n\nPales in compassion.'
p499
S'12:24 PM - 29 Jan 2018'
p500
tp501
a(S'13 babies, 8 boys and 5 girls, were baptized in St. George\xe2\x80\x99s #Teleskof #Iraq. \n\xe2\x80\x9cThis is the 1st #baptism since #ISIS occupation. This is our response to the violence we faced, and a sign of hope and joy for the future of this land. We are back on track.\xe2\x80\x9d\nhttp://www.victimsofisis.org\xc2\xa0pic.twitter.com/zZrykLFoKH'
p502
S'11:51 AM - 29 Jan 2018'
p503
tp504
a(S'Mr. Altaf Hussain, leader of #MQM is facing illegal ban on Pakistani media as he is vocal against #Taliban , #ISIS and extremist groups. #Pakistan #Kabul #\xd8\xa2\xd8\xa4_\xda\xa9\xd8\xb1\xd8\xa7\xda\x86\xdb\x8c_\xda\xa9\xdb\x8c_\xd8\xa8\xd8\xa7\xd8\xaa_\xda\xa9\xd8\xb1\xdb\x8c\xda\xba'
p505
S'11:12 AM - 29 Jan 2018'
p506
tp507
a(S'Armenian Genocide.\nDersim Genocide.\nInvasion of Cyprus.\nEthnic cleansing of Cypriots, Greek and minorities.\nNow Turkey tries to genocide Kurds in Rojava.\n\nStop Turkish terrorism! #StopAfrinGenocidepic.twitter.com/L2O6ATNhan'
p508
S'10:53 AM - 29 Jan 2018'
p509
tp510
a(S"1/2 Dignity & resilience of Nihad, a Yazidi woman who survived ISIS brutality is awe inspiring. Thanks @NewsX for giving her story a voice. If anyone deserves refuge in India it is Yazidi community. Haven't heard leftist bigots utter a word in support of this endangered community"
p511
S'10:31 AM - 29 Jan 2018'
p512
tp513
a(S'Kerala HC orders NIA probe into forced conversion as Hindu girl complained of plot to sell her to ISIS, alleges PFI members converted her to Islam. There are more than 90 cases of Love Jihad in Kerala, Many linked with PFI. What stopping Govt to ban PFI & its political front SDPI'
p514
S'10:31 AM - 29 Jan 2018'
p515
tp516
a(S"They're not my brothers. Also, there is no Islamophobia. People fear Isis fighters, not some manufactured phobia by the government."
p517
S'10:24 AM - 29 Jan 2018'
p518
tp519
a(S'This is not #Syria, #Iraq, #Somalia or #Lybia.. Nor #ISIS, #AlQaeda or #AlShabab. This is #Greece (#Florina) 70 years ago.  Greek soldiers (backed by #UK) posing with heads of killed #macedonian partisans in greek province of #Macedonia. The main reason for #nameissue is #guilt.pic.twitter.com/XI2XvCvktF'
p520
S'2:06 PM - 29 Jan 2018'
p521
tp522
a(S"Trump's legacy may not even include his great economic record or ISIS destruction. Bringing down a rogue & corrupt government may end up being his biggest accomplishment. All Americans should unite & pray this Deep State Empire falls. #McCabeResignspic.twitter.com/xIn06vr9XA"
p523
S'1:55 PM - 29 Jan 2018'
p524
tp525
a(S'AMERICA FIRST\nCONSERVATIVES JUDGES\nISIS DECIMATED\nTRAVEL BAN\nDEREGULATIONS\nTAX REFORM\nBONUSES \nSTOCK MARKET \nLOWEST UNEMPLOYMENT/ AFRICAN AMERICANS/ HISPANICS \n2018 - DEBT LIMIT - IMMIGRATION - INFRASTRUCTURE - HEALTH CARE - NK - IRAN - WELFARE REFORM \n\n #sotu'
p526
S'1:13 PM - 29 Jan 2018'
p527
tp528
a(S"@sardesairajdeep is always desperate to set term'hindu terrorism' and opportunist to call  any fringe element who hv any Hindu identity  a Hindu terrorist! But y he run away to set term ISLAMIC terrorism!! Is he afraid to do that bcz he knows he will mess up with real Terrorist! pic.twitter.com/aRW0AqERVm"
p529
S'12:33 PM - 29 Jan 2018'
p530
tp531
a(S'the new snapchat update was an act of terrorism'
p532
S'9:43 AM - 29 Jan 2018'
p533
tp534
a(S'Sad but very important video, the child\xe2\x80\x99s father joined isis and died apparently fighting for them, the kid is mad about what happened and blames Iraqi army for his loss, he says he prefers isis over IQ army, Iraqi govt/coaltion are faced with a tall task to set up psych clinics pic.twitter.com/OJ0aSuJXro'
p535
S'9:26 AM - 29 Jan 2018'
p536
tp537
a(S'Because Obama is black the media pretended he was a good president no matter how obvious it became that he was a traitor to USA (aided Iran, ISIS, Hezbollah).\nWorse, if O had been eligible to run again, he might\'ve won.\nConclusion: the media must be "fundamentally transformed."'
p538
S'9:00 AM - 29 Jan 2018'
p539
tp540
a(S'Tremendous pressure on army to handle terrorism with kids gloves says Gen @atahasnain53 the Garhwali troops are benign with our population. @IndiaToday @gauravcsawant'
p541
S'8:47 AM - 29 Jan 2018'
p542
tp543
a(S"Yezidi girl sets herself on fire to avoid further rape at hands of ISIS, Swara Bhasker blames Yezidi patriarchal society for this Jauhar of Yezidi girl, asks why can't they accept sex slavery of ISIS pic.twitter.com/u1P0ZVe0Z9"
p544
S'8:41 AM - 29 Jan 2018'
p545
tp546
a(S"Every right wing Hindutva terrorism apologist is asking what is Muslim area? How can we have Muslim area in India. First they stopped giving houses on rent or sale to Muslims saying this is Hindu locality, started #LandJihad. Now asking what's Muslim area? #KasganjTruth"
p547
S'8:28 AM - 29 Jan 2018'
p548
tp549
a(S'Hyderabad: Severed head of P Ramesh, a 25 yr old Hindu man kept on the wall of a religious structure. Locals informed the cops, a hunt for his body is now on.\n\nWelcome to the \xe2\x80\x9cSecular Republic of India.\xe2\x80\x9d These ISIS style beheadings are just the beginning.\n\nhttps://www.indiatoday.in/india/story/hyderabad-severed-head-of-man-found-on-compound-wall-of-religious-structure-search-on-for-torso-1156456-2018-01-29\xc2\xa0\xe2\x80\xa6pic.twitter.com/mc4hCfuhQC'
p550
S'8:18 AM - 29 Jan 2018'
p551
tp552
a(S'#KasganjTruth now where is prakash raj who was shouting when gauri lankesh died and was saying that hindu terrorism exists in india \nShame a big shame on these creeps like prakash raj '
p553
S'8:03 AM - 29 Jan 2018'
p554
tp555
a(S'Foi know how to write a drama! Loving #siyahbeyaza\xc5\x9fk\xd9\x93 #S\xc3\xb6yleyemediklerim @BrcAkalay @ibrahimcelikkol @KanalD'
p556
S'8:03 AM - 29 Jan 2018'
p557
tp558
a(S'Hoisting a Bhagwa flag is provocative. Hosting ISIS flag is promoting peace.'
p559
S'7:46 AM - 29 Jan 2018'
p560
tp561
a(S'In this second episode of our Blowback series, @mehdirhasan explains how the U.S. built, ran, and supervised a recruitment center for the men who would go on to create ISIS. https://interc.pt/2DKU2zF\xc2\xa0pic.twitter.com/bH9h8aAPeZ'
p562
S'7:10 AM - 29 Jan 2018'
p563
tp564
a(S'Maram Susli aka Partisangirl & suicide bombings:\n\nYes, that is a #Hezbollah flag\n\nAccording to Partisangirl it\'s despicable to carry out a suicide bombing against #TSK/#ISIS jihadists\n\n... but it is okay to carry out a suicide bombing against #Jews while screaming "Allahu Akbar!"pic.twitter.com/xpZtAkR1pW'
p565
S'6:54 AM - 29 Jan 2018'
p566
tp567
a(S'Turkish state once again proved to the world how savage and cruel it is against Kurdish minority population in the Middle East. It has recently launched a military attack against defenseless and oppressed Kurdish minority population in Syria under the excuse of fighting terrorism'
p568
S'6:23 AM - 29 Jan 2018'
p569
tp570
a(S'#EconomicSurvey2018\n#BeatingRetreat\n#Bollywood_StopVulgarity\nSo much of crimes, violence and terrorism are shown in certain movies that are enough to agitate the minds of the youth.\n@aajtak\n@abpnewstv\n@NewsNationTV\n@RamnathKovind1\nWatch ishwar TV 8:30pmpic.twitter.com/NBjBgIXgyf'
p571
S'6:22 AM - 29 Jan 2018'
p572
tp573
a(S'Watch An injured policeman in Benue State narrates how he narrowly escaped death in the hands of heavily armed Fulani herdsmen who recently attacked the state.\xc2\xa0But the dullards at the presidency said they are not fulani But ISIS. \n\n pic.twitter.com/e2x7o3jWBI'
p574
S'6:04 AM - 29 Jan 2018'
p575
tp576
a(S'Trolls keep saying, \xe2\x80\x9cWhen are you going to stand up against Islamist terrorism?!\xe2\x80\x9d\xe2\x80\x9d\n\nJust to be clear, I stand against ALL terrorism, but that doesn\xe2\x80\x99t mean I\xe2\x80\x99m foolish enough to blame all Muslims for the actions of Isis any more than I\xe2\x80\x99d blame all whites people for Vegas.'
p577
S'3:18 AM - 29 Jan 2018'
p578
tp579
a(S'Isis, gilded tamarix wood, incrusted\nwith bronze and glass, 50 cm high.\nMus\xc3\xa9e du Louvre\nE 17495\n#ancientEgypt #Isis #museum #egyptologypic.twitter.com/kftMhZkJpm'
p580
S'3:06 AM - 29 Jan 2018'
p581
tp582
a(S'Rape with children is a terrorism and such cases should run in military courts for justice.\n\n#StandUpToFightRapists'
p583
S'2:28 AM - 29 Jan 2018'
p584
tp585
a(S'stans saying zayn wearing a white rose in solidarity with the Times Up movement is bare minimum as if he isn\xe2\x80\x99t the ambassador for the british asian trust that supplies girls with education, donated thousands to help girls escape ISIS sex slavery, and paid for classrooms in syria pic.twitter.com/4smZxyzZN4'
p586
S'2:00 AM - 29 Jan 2018'
p587
tp588
a(S'first, he fought the USA! \nthen he defeated ISIS!\nand he always loved his mother \n#\xd9\x85\xd9\x86_\xd8\xb9\xd8\xa7\xd8\xb4\xd9\x82_\xd9\x82\xd8\xa7\xd8\xb3\xd9\x85_\xd8\xb3\xd9\x84\xdb\x8c\xd9\x85\xd8\xa7\xd9\x86\xdb\x8c_\xd9\x87\xd8\xb3\xd8\xaa\xd9\x85pic.twitter.com/71W1vhdywS'
p589
S'1:20 AM - 29 Jan 2018'
p590
tp591
a(S'Tragic\n#AfghanistanIsBleeding\n#ISIS chased from #Iraq #Syria now shelter within #Afghanistan in bed w/#Taliban\nThe bastardized reincarnation=#ISKP\n#intercontinental #KabulAttack & #Military Academy prove it\n\n@OzerKhalid Warned in 2017\n\nRead http://www.criterion-quarterly.com/isis-pakistan-afghanistan-rhetoric-reality/\xc2\xa0\xe2\x80\xa6\nIn @CriterionQ pic.twitter.com/2eDAeb44YU'
p592
S'1:16 AM - 29 Jan 2018'
p593
tp594
a(S"Kerala High Court orders NIA probe into 'forced conversion' | Hindu girl complained of plot to 'sell' her to ISIS, alleges PFI members converted her to Islam pic.twitter.com/PY6XiMHKWc"
p595
S'12:13 AM - 29 Jan 2018'
p596
tp597
a(S"Alright!! So Vande matram,bharat mata ki jai r problematic slogans n saffron flag offends dem..These jihdis don't hav prob wt pak zindabad slogans or ISIS/Pak flags..These live n reside wt hindus bt can't respect their faith.\nIs it justification 4 killing #ChandanGuptapic.twitter.com/fOITqbkxOU"
p598
S'12:07 AM - 29 Jan 2018'
p599
tp600
a(S"Someone called me & asked Why I said Islam is not terrorism.\n\nI replied.\nMosques are bombed\nImams are murdered\nEven Ka'aba is targeted.\nAnyone who says terror war is anti Islam or dt terrorism is pro Islam is not different from those who say Anticorruption war is anti opposition!"
p601
S'10:38 PM - 28 Jan 2018'
p602
tp603
a(S'No hype but Im just so weird lol. I get asked out on dates plenty of times which is nice but Im not one of those girls who is all about that stuff. Im not interested in wasting time or anything that comes along w it. I\xe2\x80\x99m hard to talk to but theres good reasons behind it'
p604
S'10:06 PM - 28 Jan 2018'
p605
tp606
a(S'The @DNC platform for 2020\n\n1. Resist cutting taxes...\n2. Resist job creation...\n3. Resist border security...\n4. Resist strengthening military...\n5. Resist defeating #ISIS\n6. Resist terminating bad trade \xe2\x80\x9cdeals\xe2\x80\x9d...\n7. Trump is bad.\n\nNo platform\nNo message\nNo money\nNo hope \n\n#MAGA'
p607
S'9:38 PM - 28 Jan 2018'
p608
tp609
a(S'Obama....ISIS\nBush.....9/11'
p610
S'9:30 PM - 28 Jan 2018'
p611
tp612
a(S'Canada lists 53 recognized terrorist organizations 45 are based in Islam.\n85% of "official" terror groups this country acknowledges are Muslim. A stat like that says it\'s ok to be wary and criticize what causes the abnormal spike in terrorism versus other belief structures.'
p613
S'9:29 PM - 28 Jan 2018'
p614
tp615
a(S'Attention all student-athletes at OSU. Your strength inspired me tonight and I\xe2\x80\x99m incredibly grateful to be part of such an empowering and supportive community. #GoBeavs '
p616
S'9:27 PM - 28 Jan 2018'
p617
tp618
a(S'#ISIS claims responsibility for the attack on the Marshal Fahim National Defense University in Kabul. 5 Afgan soldiers dead, 10 injured.'
p619
S'9:21 PM - 28 Jan 2018'
p620
tp621
a(S"apparently transgenders fixing people's haircut is a worse threat than terrorism when you have a really, really fragile masculinity"
p622
S'9:13 PM - 28 Jan 2018'
p623
tp624
a(S'Pistol has been found in Chief accused in #ChandanGupta\nMurder case #WasimJaved.He is yet not arrested.\nLiberandus who found terrorism in bus attack n ganga jamuna tehzib in Amarnath attack,wil u arrange #NotInMyName again for #JusticeForChandan\n#Kasganjpic.twitter.com/KM7pCbWAr7'
p625
S'8:12 PM - 28 Jan 2018'
p626
tp627
a(S"All women questioning Rani Padmavati's jauhar should be sent immediately to ISIS camps.\nPractical experience will help them convince us their point properly."
p628
S'8:10 PM - 28 Jan 2018'
p629
tp630
a(S"Terrorism is an Act of Waging War against India: Gun-Wielders & Stone-Pelters r acting in Aid, Abetment & Conspiracy among Themselves. They hv 2 meet same Fate under Law: that's Death. Its Highly Demoralising 2 register FIR against Army Officer in Kashmir where AFSPA is in vogue."
p631
S'7:58 PM - 28 Jan 2018'
p632
tp633
a(S'>Biggest sporting event of the year in US is being held in the #1 Islamic terror recruitment state in the country. \n\n> @NFL \xe2\x80\x9cHey let\xe2\x80\x99s hire a security company that has a record of training and employing ISIS terrorists.\xe2\x80\x9d\n\nWhat could possibly go wrong?'
p634
S'7:10 PM - 28 Jan 2018'
p635
tp636
a(S'Democrat platform for 2020\n\n1. Resist cutting taxes\n2. Resist job creation\n3. Resist border security\n4. Resist strengthening military\n5. Resist defeating Isis\n6. Resist terminating bad trade \xe2\x80\x9cdeals\xe2\x80\x9d\n7. Trump is mean'
p637
S'7:19 PM - 28 Jan 2018'
p638
tp639
a(S'I\xe2\x80\x99m too confident & love myself too much to ever be worrying or insecure over another girl  could never be me lol never'
p640
S'6:01 PM - 28 Jan 2018'
p641
tp642
a(S"Never thought I'd see:\n\n1) Our Gov't being controlled by the Muslim Brotherhood/Islam\n2) Our Country being invaded By ISIS\n3) Our RCMP/Police Trusted & True Pledged to Corruption.\n4) Our Beautiful Country in such Disarray\n5) Canada being Broken\n\nCan We Make Canada Canadian Again?"
p643
S'5:49 PM - 28 Jan 2018'
p644
tp645
a(S'#MannKiBaat\n#Bollywood_\xe0\xa4\xb8\xe0\xa5\x81\xe0\xa4\xa7\xe0\xa4\xb0_\xe0\xa4\x9c\xe0\xa4\xbe\xe0\xa4\x93\nSo much of crimes, violence and terrorism are shown in certain movies that are enough to agitate the minds of the youth.\n@siddh\n@sidmallya\n@ritesh_sidpic.twitter.com/1gP6V5cS37'
p646
S'5:39 PM - 28 Jan 2018'
p647
tp648
a(S'Court Records: Mall of America Stabbing Suspect Pleads Guilty, Calls it Act of Jihad \n\nhttp://kstp.com/news/mahad-abdiaziz-abdiraham-mall-of-america-guilty-plea-jihad/4760698/#.Wm5njiYoeut.twitter\xc2\xa0\xe2\x80\xa6\n#immigration\n#MAGA\n#resist the #resistance\n#Terrorism pic.twitter.com/kqJaJLVmOg'
p649
S'4:27 PM - 28 Jan 2018'
p650
tp651
a(S"In Kwa-Kwa village close to Kumba,Cameroon army reduced houses 2 ashes & roasted 86 year-old woman; now it's the turn of Tadu village,some miles from Kumbo,where houses were again set ablaze & a mosque vandalised by soldiers This is terrorism and barbarism! @BBCAfrica #Ambazonia"
p652
S'3:19 PM - 28 Jan 2018'
p653
tp654
a(S'Like ISIS, Turkey destroyed a world heritage site in Afrin today. pic.twitter.com/g4Eg6JzATf'
p655
S'2:51 PM - 28 Jan 2018'
p656
tp657
a(S"Objectivity, nice. But as a journalist you owe explanations to your ppl. Explain the ideology of those you are propagating. Explain how these very groups gave birth to ISIS, who killed 100s in Paris. Then keep embedded to salafist islamist groups & see French people's reaction."
p658
S'2:45 PM - 28 Jan 2018'
p659
tp660
a(S'"We have 32 gun deaths a year." "Yeah but you have terrorism."  #TrumpMorganpic.twitter.com/tOqpiFWfUV'
p661
S'2:36 PM - 28 Jan 2018'
p662
tp663
a(S'The Monster leader of Turkey uses  ISIS terrorists in fight against Kurds pic.twitter.com/rRPiaD85YE'
p664
S'2:36 PM - 28 Jan 2018'
p665
tp666
a(S"'Survivors Against Terror' new lobby group with Jo Cox's husband at the helm! A joke! Just 1 person killed by so called 'white supremacist' & her relative is mouthpiece for new task force to tackle terrorism! When 100's died @ hands of Islamic terrorists! http://bbc.in/2Ejr3Aa\xc2\xa0pic.twitter.com/Aduq2B3J5F"
p667
S'1:45 PM - 28 Jan 2018'
p668
tp669
a(S'Just gonna say this and be done with it: the real day-to-day terror in America is in the homes of violent men attacking women. And those men have my full focus...I\xe2\x80\x99m in a different counterterrorism center now. Forget ISIS; our terror is systemic relentless domestic violence.'
p670
S'1:41 PM - 28 Jan 2018'
p671
tp672
a(S'@ReallySwara see these ladies with Honour..pls teach them that living as slaves under ISIS is good choice'
p673
S'1:40 PM - 28 Jan 2018'
p674
tp675
a(S'SFJ Condemns Extrajudicial Killing Of Vicky Gounder & Prema Lahoriya By @capt_amarinder Boys. It\xe2\x80\x99s Cowardly Act Of State Terrorism and Our Sympathies Are With Gounders Group. We Invite You To Join SFJ To Liberate Punjab As Per UN Laws & Support #Referendum2020 @sikhsforjusticepic.twitter.com/JnD0ePhVBk'
p676
S'1:19 PM - 28 Jan 2018'
p677
tp678
a(S"#RunHideTell Our advice to the public: if you're caught in a terrorist firearms or weapons attack you should Run. If you can't Run, Hide, then Tell the police when safe to do so. Call 999 #ActionCountersTerrorismpic.twitter.com/ODuKI1wVwp"
p679
S'12:55 PM - 28 Jan 2018'
p680
tp681
a(S'Please @jack @TwitterSupport @TwitterSafety  help him recover the account that he is fighting terrorism .\n@da3s__1_nawaseb'
p682
S'12:20 PM - 28 Jan 2018'
p683
tp684
a(S"New #ISIS Video Sings to #US #Jihadists: 'It is Now Time to Rise, Slit Their Throats, Watch Them Die'\n\nhttps://pjmedia.com/homeland-security/new-isis-video-sings-u-s-jihadists-now-time-rise-slit-throats-watch-die/\xc2\xa0\xe2\x80\xa6pic.twitter.com/yJrtLh5xfw"
p685
S'12:10 PM - 28 Jan 2018'
p686
tp687
a(S'Build Bridges, not walls. Unite in the fight against #Terrorism. pic.twitter.com/9WISUtAjkl'
p688
S'10:30 AM - 28 Jan 2018'
p689
tp690
a(S'Lol y\xe2\x80\x99all swear gay ppl are like ISIS members when it comes to sexuality. Gay ppl just wanna be left alone '
p691
S'9:59 AM - 28 Jan 2018'
p692
tp693
a(S"I THINK THE FBI IS REFUSING TO TURN OVER MCCABE'S TEXTS EVEN AFTER BEING SUED BY J.W.  FOLKS THIS IS GETTING FRIGHTENING. WHO THE HELL WAS THAT GUY IN OFFICE THE LAST 8 YEARS, AND WHAT DID HE DO TO OUR COUNTRY?! WAS HE ISIS?"
p694
S'9:59 AM - 28 Jan 2018'
p695
tp696
a(S'That\xe2\x80\x99s some hard hitting journalism you\xe2\x80\x99re doing, wouldn\xe2\x80\x99t expect anything less than the \nCrappy Broadcasting Corporation \n\nHiw about asking @JustinTrudeau and his affiliation with Boyle and his Isis brothers'
p697
S'1:37 PM - 28 Jan 2018'
p698
tp699
a(S"I've lived through 9 Presidents and Obama has been the most damaging to the economy, racism, terrorism and corruption."
p700
S'11:01 AM - 28 Jan 2018'
p701
tp702
a(S'Minnesota has turned into a real shithole. \n\nIt\xe2\x80\x99s not The Mall of America anymore. It\xe2\x80\x99s The Mall of Islam https://townhall.com/tipsheet/timothymeads/2018/01/27/mall-of-america-stabbing-suspect-pleads-guilty-pledges-allegiance-isis-n2440694\xc2\xa0\xe2\x80\xa6'
p703
S'10:50 AM - 28 Jan 2018'
p704
tp705
a(S'Sharif Mafias his name of terrorism he supported different  terrorism Congregational.\n#KingOfCorruptionNS @AtiqRehmanPAT'
p706
S'9:38 AM - 28 Jan 2018'
p707
tp708
a(S'This happened while Mueller was FBI Director:\n\nBill Clinton took a $1,000,000 "present" from a state sponsor of terrorism. \n\nHow can anyone take Mueller seriously on "foreign influence" when he had/has no interest in FOREIGN BRIBERY!?\n\n#ReleaseTheMemopic.twitter.com/QqScEhw158'
p709
S'8:57 AM - 28 Jan 2018'
p710
tp711
a(S'BUILD THE WALL\n\nBUILD THE WALL\n\nBUILD THE WALL\n\nBUILD THE WALL\n\nBUILD THE WALL\n\nBIILD THE WALL\n\nBUILD THE WALL\n\nBUILD THE WALL\n\nBUILD THE WALL\n\nBUILD THE WALL\n\nBUILD THE WALL\n\nBUILD THE WALL\n\nBUILD THE WALL\n\nBUILD THE WALL \n\nDONT YOU GET IT !!!\n\nWE ARE AT WAR !!!\n\nWITH ISIS !!!'
p712
S'8:32 AM - 28 Jan 2018'
p713
tp714
a(S'How do you know when #ISIS\n is REALLY on the run?\nQueen Rania of #Jordan says so\n#MAGA #SundayMorning\n#SOTU #Winningpic.twitter.com/dFwtCVFMan'
p715
S'8:31 AM - 28 Jan 2018'
p716
tp717
a(S'1 year ago today, General "Mad Dog" Mattis was sworn in as the new Defense Secretary. As a result, ISIS has surrendered. And so has France, just to be safe. \npic.twitter.com/EbS2S1ZMrG'
p718
S'8:30 AM - 28 Jan 2018'
p719
tp720
a(S"Your looking at a supporter of terrorism. \n\nShe's a member of the MSA [Muslim Student Association] which is the Islamic Student Arm of the Muslim Brotherhood, a terrorist organization.\n\nThe MSA actively recruits students to convert them to radical Islam. \npic.twitter.com/PCOIQlLaA5"
p721
S'7:38 AM - 28 Jan 2018'
p722
tp723
a(S'Democrat platform for 2020\n\n1. Resist cutting taxes\n2. Resist job creation\n3. Resist border security\n4. Resist strengthening military\n5. Resist defeating Isis\n6. Resist terminating awful trade \xe2\x80\x9cdeals\xe2\x80\x9d\n7. Trump is mean\n\nCryin Chucks & Crazy Nancys master plan for a \xe2\x80\x9cblue wave\xe2\x80\x9d lol pic.twitter.com/XYo0pVweTK'
p724
S'6:56 AM - 28 Jan 2018'
p725
tp726
a(S'"Takbir , Allah o Akbar "\n\nnot ISIS, this time #Turkey army member of NATO after captured Borsaya mountain in #Afrin\n#DefenAfrin #NoFlyZone4Afrinpic.twitter.com/4sS9QIAN9W'
p727
S'6:49 AM - 28 Jan 2018'
p728
tp729
a(S'Canada NOT Invited to Anti-ISIS Coalition Meeting in Paris.\n\nTraitor Trudeau Liberals:\n\nVoted AGAINST Prosecuting ISIS Returnees to Canada \nPlan To Heal Them With Poetry & Release Them \nMake Them "A Voice" Against Terrorism \nhttp://www.cbc.ca/player/play/2682206164/\xc2\xa0\xe2\x80\xa6'
p730
S'6:37 AM - 28 Jan 2018'
p731
tp732
a(S'Found ISIS on snap map pic.twitter.com/3rbL0yedPX'
p733
S'5:46 AM - 28 Jan 2018'
p734
tp735
a(S"HILARIOUS @NbcSNL!\n\n#WillFerrell plays Dubya again & the laughter never stops!\n\nMost comical part: Blame Bush for #ISIS even though Obama's Sec/Def & CIA Chief Panetta blames Barry for rise of 1st Caliphate in 90yrs\nhttp://www.businessinsider.com/leon-panetta-obama-criticism-syria-isis-2014-10\xc2\xa0\xe2\x80\xa6\n\nKnee-slapper: O ARMed ISIS as well pic.twitter.com/ixkz1Krp8b"
p736
S'5:42 AM - 28 Jan 2018'
p737
tp738
a(S'You forgot ISIS literally being decimated to a mere pittance of what they were in less than one year. The media doesn\xe2\x80\x99t tell that story though.'
p739
S'4:55 AM - 28 Jan 2018'
p740
tp741
a(S'And this is  how a patriotic, progressive, visionary leader owns & acknowledges his country\xe2\x80\x99s army which is in the front line in fighting terrorism & sacrificing for their country @BBhuttoZardaripic.twitter.com/Es6DISfh43'
p742
S'3:24 AM - 28 Jan 2018'
p743
tp744
a(S'YPG uses young girls as suicide bomber. No difference than ISIS. pic.twitter.com/Pg61DVafVa'
p745
S'2:38 AM - 28 Jan 2018'
p746
tp747
a(S'There are people in this country who are more opposed to Trump visiting than they are to returning Isis fighters. \n\nIncredible'
p748
S'1:11 AM - 28 Jan 2018'
p749
tp750
a(S'Kansas City: Muslim migrant who was investigated for terrorism gets four years for passport fraud https://wp.me/p4hgqZ-ztj\xc2\xa0pic.twitter.com/4WpV3EUdbf'
p751
S'6:50 AM - 28 Jan 2018'
p752
tp753
a(S'In The Magic Cercle Of Isis And Osiris \nhttp://peterseelig.com/index.php?frame=show_set.php&pic_id=1151\xc2\xa0\xe2\x80\xa6 #artwork #paintingpic.twitter.com/4KOPpsavhe'
p754
S'5:15 AM - 28 Jan 2018'
p755
tp756
a(S'What a shame!!! #Turkey bombing & killing #US backed #Kurdish fighters & Civilians but #Trump & his administration are watching?? They used kurds for war on ISIS & left them alone  #\xd8\xb9\xd9\x81\xd8\xb1\xd9\x8a\xd9\x86_\xd8\xa7\xd9\x84\xd8\xa2\xd9\x86 #\xd8\xb9\xd9\x81\xd8\xb1\xd9\x8a\xd9\x86 #AFRIN #EFRIN #YPG #YPJ #QSD #SDF #Syria #Amnesty #HumanRights #HRW #CNN @AFPpic.twitter.com/R8jvp6hhHd'
p757
S'5:11 AM - 28 Jan 2018'
p758
tp759
a(S'A child victim of Turkish/jihadi terrorism in Afrin today. He will most probably die. Turkoislamist barbarians have gone full savage today. pic.twitter.com/Gy4Dter4br'
p760
S'4:49 AM - 28 Jan 2018'
p761
tp762
a(S"When you report online terrorist or extremist content - you're playing your part in tackling the terrorist threat. We''ll sort it. Visit http://www.gov.uk/ACT\xc2\xa0 #ActionCountersTerrorismpic.twitter.com/wtEBGvwggq"
p763
S'4:00 AM - 28 Jan 2018'
p764
tp765
a(S"Trump's Secretary of 'Defense' emerged last week to announce that competition, not terrorism, is the new focus of our military.\nYet most of us all already know the so-called terror war has ALWAYS been about profit and resource-driven competition. \nhttps://www.youtube.com/watch?v=EBdZbL7c4U4\xc2\xa0\xe2\x80\xa6"
p766
S'2:53 AM - 28 Jan 2018'
p767
tp768
a(S'Curry\n#Bollywood_\xe0\xa4\xb8\xe0\xa5\x81\xe0\xa4\xa7\xe0\xa4\xb0_\xe0\xa4\x9c\xe0\xa4\xbe\xe0\xa4\x93\nThe great saint who gives the correct way of worship is now in India.\nHe will bring peace and love to the world, by his spiritual power.\nHe will end terrorism\npic.twitter.com/HbOWagSR9y'
p769
S'12:54 AM - 28 Jan 2018'
p770
tp771
a(S'If Conte was head of Isis, they\xe2\x80\x99d stop attacking'
p772
S'12:20 AM - 28 Jan 2018'
p773
tp774
a(S'There Have Been More Than 30,000 Documented Terror Attacks Worldwide Since September 2001..\n\nIn 2017 alone \xe2\x80\x9c There were 2035 Islamic attacks in 61 countries , in which 15,700 people were killed and 14,302 injured.. \xe2\x80\x9d\n\nRascal @FarOutAkhtar , FYI\nReligion of terrorism is Islam.. pic.twitter.com/A78yoa9LJN'
p775
S'11:13 PM - 27 Jan 2018'
p776
tp777
a(S'Didn\'t saw a single tweet frm @sardesairajdeep @BDUTT @sagarikaghose @waglenikhil for #Chandan ..probably they didn\'t got the news yet\n RT so that they will get know abt the "Intolerant Muslims" & then we can see them tweeting abt Islamic Terrorism.. mention the liberals I missed pic.twitter.com/b5XdNLgOrm'
p778
S'10:40 PM - 27 Jan 2018'
p779
tp780
a(S"I think your insidious deflection reveals that you have a soft spot for those terrorist who attacked innocent Amarnath pilgrims!\nAnd do be double standard anymore!\nCondemn the real Islamic Terrorism first with mentioning 'Islamic Terrorism'. \nHave a great Sunday sir!"
p781
S'10:11 PM - 27 Jan 2018'
p782
tp783
a(S'Don\xe2\x80\x99t ever try to talk shit about me especially if I was good to your ass '
p784
S'6:40 PM - 27 Jan 2018'
p785
tp786
a(S'THE FACTS ABOUT RACISM:\n\nThough Congress passed legislation designed to curb Klan terrorism, the organization saw its primary goal \xe2\x80\x93 the reestablishment of white supremacy \xe2\x80\x93 fulfilled through Democratic victories in state legislatures across the South in the 1870s.'
p787
S'6:32 PM - 27 Jan 2018'
p788
tp789
a(S"I trust President Trump to lead our nation through anything. He defeated the corrupt Democratic Party, he continually exposes the lying MSM, he is crushing ISIS & he's creating opportunities for every American willing to work hard. As such, #IStandWithTRUMP "
p790
S'5:57 PM - 27 Jan 2018'
p791
tp792
a(S'US kills 150 ISIS fighters in Syria airstrike during government shutdown, Pentagon says http://fxn.ws/2n5zd78\xc2\xa0pic.twitter.com/fp2JvCACU1'
p793
S'5:43 PM - 27 Jan 2018'
p794
tp795
a(S'Common phrases: "black crime"; "victims of communism"; "Islamic terrorism"; "Russian meddling."\n\nUnusual phrases: "white crime"; "victims of capitalism"; "Christian terrorism"; "American meddling."\n\nAnd thus corporate media pretend to be neutral while cosseting the ruling class.'
p796
S'5:28 PM - 27 Jan 2018'
p797
tp798
a(S'HISTORIC MARKET RUN.  UP 40% IN 2017!\nTAX REFORM POISES ECONOMY FOR 4% GDP IN 2018!\nWORKFORCE RECEIVING UNEXPECTED BONUSES!\nGOOD JOBS EVERYWHERE - LOWEST UNEMPLOYMENT IN 40 YEARS!\nGOT JUDGE GORSUCH ON SUPREME COURT!\nISIS IN RETREAT!\nCAMPAIGN PROMISES KEPT! pic.twitter.com/GiNRWXIJ2e'
p799
S'5:03 PM - 27 Jan 2018'
p800
tp801
a(S"#auspol Now that ardent supporter of 'the war on terror', Andrew Bolt, has dodged death by falling off a ladder., will he now demand a 'war on ladders' given falls off them kill over twice as many people as terrorism in Australia? pic.twitter.com/cTg0kxf6Yl"
p802
S'4:55 PM - 27 Jan 2018'
p803
tp804
a(S'ISIS "Finger of Tawheed" \n\nISIS carries forward the finger symbolism of their founder pic.twitter.com/THEyPgukno'
p805
S'4:32 PM - 27 Jan 2018'
p806
tp807
a(S"Afrin has been safe, free from ISIS and al-Qaeda throughout the Syrian War.\nThat's why thousands of Syrian refugees found a home here. But after an agreement between Putin and Erdogan to exchange #Idlib for #Afrin, now Turkey is massacring this beautiful land\n#StopTurkeySaveAfrinpic.twitter.com/Te0nBYm0mY"
p808
S'3:59 PM - 27 Jan 2018'
p809
tp810
a(S'ISIS DESTROY ALL THE archeological site in everywhere they control .Now turkey is destroying the most beautiful place IN DARA in Afrin .both Isis and turkey are the same .\nDestroying ,killing  calling for jihad in Afrin .what are the differences .save Afrin heritage'
p811
S'9:30 PM - 27 Jan 2018'
p812
tp813
a(S'Tell Isis I said nugget in a biscuit pic.twitter.com/Ry76KkHJwC'
p814
S'9:06 PM - 27 Jan 2018'
p815
tp816
a(S'Good terrorism and bad terrorism has been rooted deeply in India Good terrorist r those who have a patronage  of  extremist groups of majority community like RSs and bajrangdal v can count supporters of Ram Rahim & Karni sena in it.Where as bad terrorist r any one from minority.'
p817
S'8:25 PM - 27 Jan 2018'
p818
tp819
a(S'Turkey is attacting #Afrin with #Jihadist and that Turkey is still member of #NATO. How can #NATO keep silent against that situation? #Kurds fired #ISIS from #Syria and Turkey brings them back. #StopTurkeySaveAfrin #TurkeyHandsOffAfrin #TurkeyOutOfNATO #TurkeySupportsRadicalspic.twitter.com/xuZHdhfNpc'
p820
S'7:09 PM - 27 Jan 2018'
p821
tp822
a(S'Brave #Kurdish #YPJ girls fighting #ISIS while  #Erdogan #Turkey attacking them #TurkeyHandsOffAfrin #Turkish #afrin #Efrine #YPG #SDF #NXTTakeOver #saveafrin #NoFlyZone4Afrin #PYD #Kurdistan #Kurds #TwitterKurds #Syrian #Manbij #DefendPressFreedom #receptayyiperdoganpic.twitter.com/CjcGyASnNn'
p823
S'7:01 PM - 27 Jan 2018'
p824
tp825
a(S'Turkey claims McMaster promised US would stop support for ISIS-fighting militia in Syria http://hill.cm/rsocou8\xc2\xa0pic.twitter.com/LQbLMpaJNb'
p826
S'5:17 PM - 27 Jan 2018'
p827
tp828
a(S'There is a genocide that has been going on for 3.5 years now- the Yezidi genocide by ISIS. While you tweet #NeverAgain, please look it up. It happened again.'
p829
S'3:16 PM - 27 Jan 2018'
p830
tp831
a(S'these are THE BEST popsicles ever... don\xe2\x80\x99t @ me.pic.twitter.com/KThdLArE9C'
p832
S'3:10 PM - 27 Jan 2018'
p833
tp834
a(S'Terrorism continues under Trump'
p835
S'3:01 PM - 27 Jan 2018'
p836
tp837
a(S'Real estate agents,lawyers and accountants in Aust are exempted from Anti Money Laundering and Counter  Terrorism Financing Act. #auspol 1/3'
p838
S'2:37 PM - 27 Jan 2018'
p839
tp840
a(S"Two years ago the whole world was terrified of IS' terrorism. Today SDF, the force that has driven IS out is being bombed by the Turkish Army. It's a shame!\n\n#SDF #YPG #YPJ #EfrinNotAlone #DefendAfrin #iamkurd #Rojava #Manbijpic.twitter.com/JsyvRDPRNe"
p841
S'2:24 PM - 27 Jan 2018'
p842
tp843
a(S'It\'s funny that #Dems say that \n"God didn\'t create borders"\n\n- the fact is that the Garden of Eden was surrounded by 4 border rivers,\nthe Euphrates, \nthe Gihon,\nthe Pison and,\nthe Hiddekel\n#God created the very first borders.\n#MAGA'
p844
S'1:10 PM - 27 Jan 2018'
p845
tp846
a(S'Brilliantly done by @BBhuttoZardari  on IndiaToday: \xe2\x80\x9cIf we want to do populist politics like Mr. Modi and Mr. Trump, we are never going to end extremism and terrorism.\xe2\x80\x9d    pic.twitter.com/EkKw7hmBDo'
p847
S'12:51 PM - 27 Jan 2018'
p848
tp849
a(S'#ERDOGAN\'S #AlQaeda Soldiers\n \n"Allah o Akbar we are gonna kill atheist Kurds"\nNot ISIS but #Turkey backed jihadist attacking #Afrin and now they are part of NATO!\n\nTHANK YOU #TRUMP FOR YOUR LOYALTY TO KURDS!\n#MAGA #MASA #DefendAfrinpic.twitter.com/xymFT03Yin'
p850
S'11:58 AM - 27 Jan 2018'
p851
tp852
a(S'.@PeterTatchell\n#Turkey gets help from #ISIS terrorists to murder Kurds in #Syria at #Afrin. Kurds led the fight to defeat ISIS & liberate #Raqqa Heroes! Turkey is more interested in killing #Kurds NOT ISIS. West must sanction Turkey, halt arms sales & suspend its NATO membership pic.twitter.com/WXnw4vztW3'
p853
S'11:56 AM - 27 Jan 2018'
p854
tp855
a(S'President Kagame remarks at the Peace and Security Council meeting: The challenges we have are very serious but not insurmountable. Rwanda will be a strong partner as we count on each other for appropriate actions to fight terrorism #30thAUSummit'
p856
S'11:21 AM - 27 Jan 2018'
p857
tp858
a(S'My comrade Abu Layla fought against ISIS in Kobane & elsewhere and got martyred in Manbij. If he were alive, he would certainly defend #Afrin from Turkish attackspic.twitter.com/6ZH6b65rer'
p859
S'10:28 AM - 27 Jan 2018'
p860
tp861
a(S'Translation: "Trump has blocked my power & control over many politicians and the US government so I will attempt to orchestrate a coup to remove a sitting US President from power."\n\nIts proven he has funded left wing terrorism. US should seize all personal and foundation assets. https://twitter.com/TruthinGov2016/status/956918921214513152\xc2\xa0\xe2\x80\xa6'
p862
S'9:37 AM - 27 Jan 2018'
p863
tp864
a(S'NEWS: "DOW at 26K; consumer confidence 25 yr high; black unemployment record low; North Korea and South Korea are talking to each other; IS caliphate defeated, ISIS fighters surrendering en masse; Gorsuch and record number of appellate judges confirmed..."\n\n@CNN: "Trump\'s fat"'
p865
S'9:16 AM - 27 Jan 2018'
p866
tp867
a(S'The growing terrorism threat in Africa is a shared responsibility, requires the intensification of our efforts in a coordinated global approach. The transnational nature of terrorism knows no borders + no single state can fight it alone. #AUPeace&SecurityCouncil #30thAUSummitpic.twitter.com/FSjtfgWtz1'
p868
S'8:59 AM - 27 Jan 2018'
p869
tp870
a(S'Either we are fighting ISIS or we support ISIS.\n\n 7 Countries excluded Canada from Meetings to fight terrorism, you have a lot to answer for!'
p871
S'9:27 AM - 27 Jan 2018'
p872
tp873
a(S'95 people have been killed after a terror attack on Kabul. This heinous act is a stark reminder that no matter what your religion or race is we are all united in the fight against terrorism. Prayers to Afghanistan.'
p874
S'8:54 AM - 27 Jan 2018'
p875
tp876
a(S'i hate being yelled at i\xe2\x80\x99m sensitive'
p877
S'8:47 AM - 27 Jan 2018'
p878
tp879
a(S"If you're caught in a terrorist gun or knife attack RUN. \nIf you can't run, HIDE.\nThen TELL  Call 999 \n#ActionCountersTerrorism\nhttp://www.gov.uk/ACT\xc2\xa0pic.twitter.com/0BkseHlRJZ"
p880
S'8:30 AM - 27 Jan 2018'
p881
tp882
a(S'Two acts of terrorism came here last year through \xe2\x80\x98chain migration.\xe2\x80\x99 Lyndon Johnson warned about the dangers of chain migration. Bill Clinton\xe2\x80\x99s commission urged ending chain migration.'
p883
S'8:23 AM - 27 Jan 2018'
p884
tp885
a(S'Profile in Stupidity: Ralph Goodale MP. This minister has managed to lose track of just how many returning ISIS "tourists" are in Canada. He also doesn\'t seem too interested in tightening up our border to stop illegals from getting in. Great job Ralphie. pic.twitter.com/K02rYtfOvn'
p886
S'8:03 AM - 27 Jan 2018'
p887
tp888
a(S"1.Pakistan is number 1 Country n The World For telling lies,\n2.Pakistani people are number 1 in raping Innocent children's\n3.Pak is the no 2 corrupt country is world.\n4.Pak Army is no 1army in world for killing innocent ppl.\n5.Pak is no 1 country n world for promoting terrorism. pic.twitter.com/08keParA9B"
p889
S'7:02 AM - 27 Jan 2018'
p890
tp891
a(S"Modi ji, when you said Make in India, surely you didn't mean violence and home grown terrorism. Please clarify this once, this country is going to the dogs. \n#Kasganj"
p892
S'6:56 AM - 27 Jan 2018'
p893
tp894
a(S'The Muslim Brotherhood has quietly infltrated gov at every level, including law enforcement such as FBI under Obama. Their goal is to whitewash language and deny terrorism has ties to Islam.\n\nTheir code words are "violent extremeism" and say it\'s Islamaohobia if you disagree. https://twitter.com/AmyMek/status/957129837021466624\xc2\xa0\xe2\x80\xa6'
p895
S'6:54 AM - 27 Jan 2018'
p896
tp897
a(S'1/1: I strongly condemn the current riots of IJT members in Punjab University & behavior of  police towards Baloch and Pashtun students. Charging students with terrorism charges is willfully destroying the future of Baloch & Pashtun students. The education institutions in'
p898
S'6:05 AM - 27 Jan 2018'
p899
tp900
a(S'In India, Terrorism kills more in Northeast region than elsewhere. Unfortunately Its a hidden fact because Politicians have more scope & Media have more TRP in Kashmir than Northeast. Yesterday on 26 January, there were 3 blasts in Assam but No such big News or Debates reported.'
p901
S'5:45 AM - 27 Jan 2018'
p902
tp903
a(S'Unkept US promises to Turks\n\n\xe2\x80\xa2 Won\xe2\x80\x99t arm YPG, (oops we did but we\xe2\x80\x99ll collect them back) \n\xe2\x80\xa2 Won\xe2\x80\x99t give heavy weapons to YPG (oops we did, will stop that)\n\xe2\x80\xa2 YPG won\xe2\x80\x99t be in Manbij (oops they are there but they\xe2\x80\x99ll leave) \n\xe2\x80\xa2 Will leave once ISIS is done (oops creating a YPG army)'
p904
S'5:36 AM - 27 Jan 2018'
p905
tp906
a(S"True love can wait, but gutom can't "
p907
S'5:31 AM - 27 Jan 2018'
p908
tp909
a(S'Kasganj has 22.94% Muslims \nResult? Hindu with the Tricolor is shot dead.\n\nKerala has 26.56% Muslims \nResult? Active export of ISIS recruits. \n\nJ&K has 68.31% Muslims\nResult? J&K is terror-infested.\n\nGet the drift? \n#Kasganj\n#JusticeForChandan'
p910
S'5:18 AM - 27 Jan 2018'
p911
tp912
a(S"Who would've thought back in the 1940s that an American Government Agency would embrace the tactics of the Gestapo with such enthusiasm? @ICEgov is nothing more than state sponsored terrorism."
p913
S'5:06 AM - 27 Jan 2018'
p914
tp915
a(S"Do you know the game plan? We've worked closely with sports clubs and stadiums throughout the UK to improve fan safety.  Security is a team effort: these tactics help keep you safe so you can enjoy the game pic.twitter.com/UYwiwNqr7e"
p916
S'3:30 AM - 27 Jan 2018'
p917
tp918
a(S'Respected @CPMumbaiPolice @MumbaiPolice \nThis acc is spreading hatred in the name of terrorism!\nDefaming the acctress @ShindeShilpaS nd her brother @ShindeAshutosh \n\nI request u to take action as soon as possible!\n@TwitterIndia request u to suspend this acc for spreading hatredhttps://twitter.com/Minnie_S/status/956901919087185920\xc2\xa0\xe2\x80\xa6'
p919
S'3:08 AM - 27 Jan 2018'
p920
tp921
a(S'Dear @theresa_may \nwe want @realDonaldTrump to visit asap. What we dont want are returning ISIS fighters walking our streets.\nPlease learn the difference and tell that little shit @SadiqKhan too\nThanks\nThe British Public'
p922
S'2:42 AM - 27 Jan 2018'
p923
tp924
a(S'With gun you can kill a terrorist but via education you can kill terrorism.  #PakistanWantsChange'
p925
S'2:13 AM - 27 Jan 2018'
p926
tp927
a(S'#PakistanWantsChange and needs to resolve the following issues. \n1.Terrorism/Sovereignty Violation\n2.Religious Intolerance \n3.Water Shortage \n4. Inflation \n5. Rampant Corruption\n6. Provincial Disharmony \n7. Devalued Currency \n8. Unemployment \n9. Low Education \n10. Foreign Policy'
p928
S'2:08 AM - 27 Jan 2018'
p929
tp930
a(S'We have some great news. \nBy hard work of Ali Muhammad Khan kakar and his company.\nCourt have decided to dismiss 7ATA terrorism charges on Pashtun and Baloch students.\nAnd they will be released by midnight or tomorrow. pic.twitter.com/pR60QgZpvf'
p931
S'5:31 AM - 27 Jan 2018'
p932
tp933
a(S'Respected @CPMumbaiPolice @MumbaiPolice \nThis acc is spreading hatred in the name of terrorism!\nDefaming the acctress @ShindeShilpaS nd her brother @ShindeAshutosh \n\nI request u to take action as soon as possible!\n@TwitterIndia request u to suspend this acc for spreading hatredhttps://twitter.com/Minnie_S/status/956901919087185920\xc2\xa0\xe2\x80\xa6'
p934
S'5:09 AM - 27 Jan 2018'
p935
tp936
a(S'@rashtrapatibhvn \nSir, time and again #MediaFooledNation but still GOI is ignorant towards it!\nWhy there are no guidelines for the implementation of NEWS?https://www.youtube.com/watch?v=ko1019WWSbo\xc2\xa0\xe2\x80\xa6'
p937
S'2:55 AM - 27 Jan 2018'
p938
tp939
a(S'This group that they call FSA is a Jabhat al Nusra splinter group. Direct descendants of al Qaeda in Syria. Supported by NATO against Kurds in Afrin.\nAnd no, apart ftom inter-salafi war; they had no \xe2\x80\x9cresistance\xe2\x80\x9d or whatsoever against ISIS. pic.twitter.com/N8SOZuoU2c'
p940
S'2:05 AM - 27 Jan 2018'
p941
tp942
a(S'Chairman PPP @BBhuttoZardari interview with @rahulkanwal @IndiaToday . Watch to see #PPP perspective on terrorism, extremism & India/Pak relations. #wef18 @Davospic.twitter.com/M9O4CswIH4'
p943
S'1:45 AM - 27 Jan 2018'
p944
tp945
a(S'What happens when @gleesh plays \xe2\x80\x9c Water \xe2\x80\x9c //  @icrydojatears pic.twitter.com/BTQfDSy6sw'
p946
S'12:53 AM - 27 Jan 2018'
p947
tp948
a(S'Forget Padmavati, Tell what would have you done if you were in the place of Yazidi women who are in the captives of ISIS ?? Apparently, many Yazidi women choose to die than being held captive to ISIS. Now go and tell these same words to Yazidi women, can you ??'
p949
S'12:22 AM - 27 Jan 2018'
p950
tp951
a(S'In School Bus Attack Farhan has \xe2\x80\x9cTerrorists\xe2\x80\x9d, \xe2\x80\x9cTerrorism\xe2\x80\x9d\n\nIn Amarnath Terrorist Attack, Farhan has \xe2\x80\x9cPerpetrators\xe2\x80\x9d pic.twitter.com/Eqv0MRKedl'
p952
S'12:09 AM - 27 Jan 2018'
p953
tp954
a(S'.@7NewsSydney: "As usual, alcohol remained the police\'s biggest challenge on #AustraliaDay." Not terrorism? Pretty sure you said terrorism concerned police the most, only a few days ago. Turns out it was actually booze.'
p955
S'11:13 PM - 26 Jan 2018'
p956
tp957
a(S'Of course, a mothers approval means so much to me!! I wanna be able to grow a relationship w her & do for her as I would do for my man  & that\xe2\x80\x99s just mehttps://twitter.com/ismailsoloooooo/status/834107512316186624\xc2\xa0\xe2\x80\xa6'
p958
S'10:06 PM - 26 Jan 2018'
p959
tp960
a(S"Yazidis victims of ISIS genocide yet Trudeau gov only permits 1200 of 200,000 displaced. Aren't we better than that JT? Sunday Yazidi guest."
p961
S'9:59 PM - 26 Jan 2018'
p962
tp963
a(S' Yazidi children on Mount Sinjar, Children of the Sun #TrueYazidis\n#Yazidi #YazidiPeople #YazidiGenocide #YazidiPlight #YazidiTruth #Sinjar #Iraq #War #ISIS #Genocide #Earth #Childrenpic.twitter.com/TBeYpZ3yYQ'
p964
S'9:47 PM - 26 Jan 2018'
p965
tp966
a(S'Can someone explain to me why Twitter only seems to have suppressed \xe2\x80\x9cpotentially sensitive content\xe2\x80\x9d when it\xe2\x80\x99s Conservatives but seems to let porn and ISIS propaganda run wild? \n\nIt\xe2\x80\x99s getting pretty annoying.'
p967
S'7:47 PM - 26 Jan 2018'
p968
tp969
a(S'Rich Arabs sitting on piles of oil money in middle East fund the rise of ISIS. Naive Hindus in India argue that there is no correlation between development,  prosperity of our nation and the rise of Hinduism! #HinduAwareness'
p970
S'7:46 PM - 26 Jan 2018'
p971
tp972
a(S'Pakistan has to fight against terrorism for itself: Bilawal Bhutto Zardari\nhttp://www.thesindhtimes.com/world/pakistan-fight-terrorism-bilawal-bhutto-zardari/\xc2\xa0\xe2\x80\xa6 @BBhuttoZardari @AAliZardaripic.twitter.com/ICTZxqTCKz'
p973
S'7:34 PM - 26 Jan 2018'
p974
tp975
a(S'Reminder: Back when he was FBI Director, Mueller worked w/ Islamist orgs \xe2\x80\x94 including ISNA & CAIR (unindicted co-conspirators in the HolyLandFoundation terror case) \xe2\x80\x94 to purge the FBI\'s anti-terror training manuals of material deemed "offensive" to Muslims.http://jwatch.us/N1QLHJ\xc2\xa0'
p976
S'7:07 PM - 26 Jan 2018'
p977
tp978
a(S'In #Alsasua teenagers are facing terrorism charges and prison sentences of up to 62 years each for getting into a local bar fight http://ow.ly/fcNH30i1inO\xc2\xa0'
p979
S'7:05 PM - 26 Jan 2018'
p980
tp981
a(S'Aphrodite Hypolympidia [\xce\xa4he Aphrodite venerated at the foothills of Mt #Olympos]. 150-100 BC. Marble. The sculpture was found in the temple dedicated to the Goddess and was excavated from the Sanctuary of Isis in #ancient #Dion, in #Macedonia.\n\n #archaeology #lp #travel #ttotpic.twitter.com/lkC62Jn0ZA'
p982
S'7:03 PM - 26 Jan 2018'
p983
tp984
a(S'Ugh flowers are the way to my heart https://twitter.com/katemontemayorr/status/956689513375559680\xc2\xa0\xe2\x80\xa6'
p985
S'5:21 PM - 26 Jan 2018'
p986
tp987
a(S'Some girls have no damn morals or dignity..they\xe2\x80\x99ll fw someone whos in a relationship or just got out of one like why y\xe2\x80\x99all so desperate for dick for?? where\xe2\x80\x99s y\xe2\x80\x99all self respect '
p988
S'4:29 PM - 26 Jan 2018'
p989
tp990
a(S'LETTER FROM: \nCmt on the Judiciary \nSubCmt Crime/Terrorism\n\nRE:  Whole 9-Yards; Birth of Christ to Death of the Devil\n\nADDRESSED TO:\nJoel Benenson\nChief Strategist, Hillary for America\nBenenson Strategy Group\n777 3rd Ave\nNew York, NY 10017 \n\n#ObamaGate\n#FusionGPS\n#DNC\n#QAnonpic.twitter.com/G7ngfQTlLH'
p991
S'7:34 PM - 26 Jan 2018'
p992
tp993
a(S'Remember Assad pulled out Syrian Army, left Kurds face to face with #ISIS, but #PKK came to defend #Kurds in Syria & Iraq. \nNow #Kurds have an army to defend #Rojava #Afrin, Turkey replaced ISIS as #TurkishISIS\n#OperationTurkishPoisonedOlive'
p994
S'6:53 PM - 26 Jan 2018'
p995
tp996
a(S'New thread, did I get everyone?\n\n@DanteZCan\n@indulged11\n@marcjeff100\n@LadyShadowban\n@Mb50Blog\n@CarineTanagila\n@daeshhun\n@a_n_7_i_\n@w_s_1_\n@Spynxlove\n@iSlayTroll\n@Butcher_isis_\n@BuDTHEinfidel\n@Legion_ExpectUs\n@Spynxlove\n@SSNVet681\n@abou_dunez\n@LadyShallot1'
p997
S'6:43 PM - 26 Jan 2018'
p998
tp999
a(S'A Yazidi survivor woman says some mothers were served meal in the captivity. Then after eating it ISIS soldiers revealed they just had eaten their children\xe2\x80\x99s meat.\nThe soldiers showed those mothers the videos where the children were being slaughtered.\n#YazidiPlight #Yezidishttps://twitter.com/mumtazibrahm/status/956979115483127809\xc2\xa0\xe2\x80\xa6'
p1000
S'6:32 PM - 26 Jan 2018'
p1001
tp1002
a(S'And a double murder in Floridahttps://www.google.com/amp/s/m.huffpost.com/us/entry/us_5925cd0ae4b00c8df2a13b18/amp\xc2\xa0\xe2\x80\xa6'
p1003
S'6:10 PM - 26 Jan 2018'
p1004
tp1005
a(S'They control ISIS & other terrorist groups. They put those groups in action, when they need them, in order to let the west move the way they wish. It is their trade to kill, lie & play victim. They want to satisfy their God Baal thru scarifying children & killing man & woman pic.twitter.com/aNP4SSSmFH'
p1006
S'6:09 PM - 26 Jan 2018'
p1007
tp1008
a(S'Afrin Kurd imam says;  PYD/PKK terror group oppresses Kurds, If people knew PKK/PYD/YPG/SDF reality ....They are same as Daesh/ISIS https://goo.gl/bqfWsu\xc2\xa0'
p1009
S'6:02 PM - 26 Jan 2018'
p1010
tp1011
a(S'Somali charged with attempted murder!! \nWhy not Terrorism?? #Trudeau continues his protection of Islam in Canada!!https://twitter.com/pamelageller/status/955925148938285058\xc2\xa0\xe2\x80\xa6'
p1012
S'5:54 PM - 26 Jan 2018'
p1013
tp1014
a(S'3 years con este loco!! pic.twitter.com/nRvckO0stI'
p1015
S'5:51 PM - 26 Jan 2018'
p1016
tp1017
a(S'Air Force One LMFAO\n\nBARRY HUSSEIN OVOMIT spent trillions to CREATE HIS TERRORIST GROUP ISIS\n\nSickening piece of shit baboon'
p1018
S'5:47 PM - 26 Jan 2018'
p1019
tp1020
a(S'Xfl is coming back, isis is dead, and Jemele Hill is demoted/fired. Trump out here pitching a perfect game'
p1021
S'5:44 PM - 26 Jan 2018'
p1022
tp1023
a(S'They should be treated as domestic terrorists. Arrest their big money backer George Soros for funding domestic terrorism.'
p1024
S'5:01 PM - 26 Jan 2018'
p1025
tp1026
a(S"All narcissists need to be singled out.  An enterprise born of terrorism, self-victimization and racial supremacy should be on EVERYONE'S radar."
p1027
S'4:58 PM - 26 Jan 2018'
p1028
tp1029
a(S'#WomensMarch2018 drew harpies, shrews, #LGBT(XYZ), #IllegalAliens, #abortion promoters, and non-ironic #ShariaLaw apologists. #Media swooned.\n\nThe same #FakeNews media deemed  #TeaParty marches and rallies domestic terrorism.\n\nAt least we bathed and cleaned up after ourselves! pic.twitter.com/s99V7DYPjK'
p1030
S'4:49 PM - 26 Jan 2018'
p1031
tp1032
a(S"Every night's news\nTERRORISTS ! TERRORISTS !\nIn the USA number of\nAmerican deaths in 2016\n\nHeart Disease: 600,000\nCancer: 600,000\nTerrorism, less than 100\n\nCongress takes immediate action\nThey\nCut Health Insurance\nCut Cancer Research Funding\n&\nIncrease funding to fight Terrorism"
p1033
S'4:48 PM - 26 Jan 2018'
p1034
tp1035
a(S'POLL: Americans who say dealing with terrorism is a top priority for Trump and Congress.\n\nCollege graduate: 60%\nSome college: 71%\nHigh school or less: 85%\n\n(Pew Research)'
p1036
S'4:39 PM - 26 Jan 2018'
p1037
tp1038
a(S'I\xe2\x80\x99m such a strong minded women & I love it'
p1039
S'4:38 PM - 26 Jan 2018'
p1040
tp1041
a(S'Works for ISIS Too pic.twitter.com/fXQkAUNSU8'
p1042
S'4:36 PM - 26 Jan 2018'
p1043
tp1044
a(S"Big news @usairforce will include funding for more A-10 wings in the FY19 budget request! The A-10 is critical in the fight against ISIS, the Taliban, N. Korea & Russian aggression. We can't afford to ground 3 squadrons. Learn more:  https://goo.gl/1YYG7B\xc2\xa0pic.twitter.com/lt6YRnIy1M"
p1045
S'4:22 PM - 26 Jan 2018'
p1046
tp1047
a(S'If texting all day is an effective way for the FBI to thwart crime, espionage, and terrorism, Americans can sleep well at night.\n\n#50,000perYear?'
p1048
S'4:19 PM - 26 Jan 2018'
p1049
tp1050
a(S'Appalling...absolutely appalling and disgusting beyond what I could ever wish to write.  ISIS must be eradicated from the face of the Earth.  They are worse than animals!!! https://twitter.com/Warrior4War/status/957031866628038656\xc2\xa0\xe2\x80\xa6'
p1051
S'4:47 PM - 26 Jan 2018'
p1052
tp1053
a(S'Judge dismisses RCMP peace bond against B.C. man accused of wanting to join ISIS to behead Canadians https://globalnews.ca/news/3987363/rcmp-peace-bond-isis/\xc2\xa0\xe2\x80\xa6'
p1054
S'4:47 PM - 26 Jan 2018'
p1055
tp1056
a(S"every one of Candy Carson's stories about Ben Carson sounds fictional except this one\nhttp://time.com/4163187/candy-carson-new-book-ben-carson/\xc2\xa0\xe2\x80\xa6pic.twitter.com/T2XAxN5Kej"
p1057
S'4:44 PM - 26 Jan 2018'
p1058
tp1059
a(S'Is that Wray guy the one who went with Rod "the weasel" Rosenstein to Ryan to attempt to get him to allow the @FBI an @TheJusticeDept  to continue stonewalling Congressional subpoenas?\n\nIs that the guy protecting McCabe?\n\nRespectfully, Wray has shown nothing but swampness.'
p1060
S'4:44 PM - 26 Jan 2018'
p1061
tp1062
a(S"You're Iraqi and live in Sweeden, the odds of you being Sunni are very low. What's the difference between ISIS and Hezbollat? They're just on the 2 opposite sides of the sectarian beef."
p1063
S'4:40 PM - 26 Jan 2018'
p1064
tp1065
a(S'Ex-Afghan hostage #JoshuaBoyle to undergo psychiatric assessment #Stewartstown #CaitlanColeman... http://terrorism.trendolizer.com/2018/01/ex-afghan-hostage-joshua-boyle-to-undergo-psychiatric-assessment.html\xc2\xa0\xe2\x80\xa6pic.twitter.com/zEdeVnYQ4S'
p1066
S'4:34 PM - 26 Jan 2018'
p1067
tp1068
a(S"The best way is to fire @USAGSessions , Trump's greatest mistake."
p1069
S'4:34 PM - 26 Jan 2018'
p1070
tp1071
a(S'Obama says he is \xe2\x80\x9cBasically a Liberal Jew". \n\nHow many \xe2\x80\x9cliberal Jews\xe2\x80\x9d propped up Iran and gave them over $1B in cash, to fund terrorism against Israel? https://twitter.com/thehill/status/957025627642712064\xc2\xa0\xe2\x80\xa6'
p1072
S'4:28 PM - 26 Jan 2018'
p1073
tp1074
a(S'do y\xe2\x80\x99all realize the seriousness of suicide and terrorism or are we really desensitized to tragedy'
p1075
S'4:23 PM - 26 Jan 2018'
p1076
tp1077
a(S'Book of Hate and Control. Islam has never integrated and never will. Islam is still fighting wars from centuries ago. When you understand that you realise that we have a major problem ahead !!! #Islam #ISIS #Infiltrationhttps://twitter.com/onlinemagazin/status/956858317451743232\xc2\xa0\xe2\x80\xa6'
p1078
S'4:22 PM - 26 Jan 2018'
p1079
tp1080
a(S'Isis pic.twitter.com/itoZwV7N5o'
p1081
S'4:20 PM - 26 Jan 2018'
p1082
tp1083
a(S"Marvin's Room is a great show. I've found a lot of great new music from it.https://twitter.com/MarvinsRoomCBC/status/957044512790020096\xc2\xa0\xe2\x80\xa6"
p1084
S'4:18 PM - 26 Jan 2018'
p1085
tp1086
a(S'The terrorist kills us once, but the dictatorships kill us every day every hour every second \nkill us in a day by the number of our breaths by the number of our heart beats by the number of our steps \nand thank them at the end of the day \nand say terrorism is our enemy pic.twitter.com/Iw9hrlHpfr'
p1087
S'4:15 PM - 26 Jan 2018'
p1088
tp1089
a(S'I think if I could I would re-up lol just to see the military with a COC who actually salutes us and allows us to FINISH THE MISSION. Suck it ISIS'
p1090
S'4:15 PM - 26 Jan 2018'
p1091
tp1092
a(S'Happy Birthday Auntie Ang!!pic.twitter.com/W2jkdmRkmc'
p1093
S'4:13 PM - 26 Jan 2018'
p1094
tp1095
a(S'I absolutely love my dad pic.twitter.com/IZ75Ln3FY3'
p1096
S'4:13 PM - 26 Jan 2018'
p1097
tp1098
a(S'According to @teresamayMP @jeremycorbyn this is perfectly fine practise. Oh and rape and terrorism https://twitter.com/Cerralin/status/956979128565223429\xc2\xa0\xe2\x80\xa6'
p1099
S'4:10 PM - 26 Jan 2018'
p1100
tp1101
a(S'Automatic brush cleaner is a must for a busy day @ work. Washed & dried in less than 20 seconds, ready for immediate use pic.twitter.com/ud0xsZ98OQ'
p1102
S'4:09 PM - 26 Jan 2018'
p1103
tp1104
a(S'#syrianchildren \xe2\x80\x94>. Remember your lessons  learned.  \n\n #Ceasefire = new carnage\n\n#Isis  = we bomb children with impunity.    \n\n#GhoutaIsBleeding #ISIS #Idlib #Ghoutaceasefire #ChildrenUnderAttack'
p1105
S'4:05 PM - 26 Jan 2018'
p1106
tp1107
a(S'Who Thinks Muslim Leaders Should Condemn Terrorism? https://buff.ly/2E9BWo4\xc2\xa0 Another fascinating survey from the great team at @TheISPU!pic.twitter.com/c1cVIPKS7B'
p1108
S'4:02 PM - 26 Jan 2018'
p1109
tp1110
a(S' Rickey??https://twitter.com/itsjustbambii/status/957004236834959360\xc2\xa0\xe2\x80\xa6'
p1111
S'4:12 PM - 26 Jan 2018'
p1112
tp1113
a(S'I\xe2\x80\x99ve been going to the gym for 2 weeks  so far & i lost 5 pounds :\xe2\x80\x99) #soproud'
p1114
S'4:12 PM - 26 Jan 2018'
p1115
tp1116
a(S'You are anything but weak, Isis.'
p1117
S'4:11 PM - 26 Jan 2018'
p1118
tp1119
a(S'#terrorism still a problem. #Trump is on the right path. @redstatetalkhttp://www.washingtonexaminer.com/in-afrin-turkey-seeks-ethnic-cleansing-not-terror-eradication/article/2647260\xc2\xa0\xe2\x80\xa6'
p1120
S'4:09 PM - 26 Jan 2018'
p1121
tp1122
a(S"At least he's not using our military to traffic drugs and guns through Mexico to an Isis Corporation.... Obama is the one who needs to be prosecuted for treason"
p1123
S'4:09 PM - 26 Jan 2018'
p1124
tp1125
a(S"Not a big fan of conspiracy theories but it's obvious the US left their massive weapons in Mosul in 2013 knowing very they'd be captured. ISIS has only served carving up Iraq and Syria for Iranian expansionist ambitions https://twitter.com/Bluegriffon151/status/956775761792454656\xc2\xa0\xe2\x80\xa6"
p1126
S'4:09 PM - 26 Jan 2018'
p1127
tp1128
a(S'CEO ICE COLD @ICEWATERCANDY ISIS KENNEY\nhttps://www.facebook.com/HIPHOPFINEART1/\xc2\xa0pic.twitter.com/m3FONSgnnj'
p1129
S'4:09 PM - 26 Jan 2018'
p1130
tp1131
a(S'Give ISIS safe passage to the other side and rinse and repeat ,'
p1132
S'4:07 PM - 26 Jan 2018'
p1133
tp1134
a(S'MAKE SURE YOU CHECK OUT HIP HOP FINE ART  \n"FEAR OF A BLACK PLANET" AT @TheFieldLibrary ART BY ISIS KENNEY https://www.facebook.com/HIPHOPFINEART1/\xc2\xa0pic.twitter.com/AYQeYAWjP6'
p1135
S'4:07 PM - 26 Jan 2018'
p1136
tp1137
a(S'Religion justifying supremacy and death: Zionism and ISIS.... pic.twitter.com/zF5IE8OuET'
p1138
S'4:06 PM - 26 Jan 2018'
p1139
tp1140
a(S'John Kerry Once Again In Possible Violation Of #TheLogansAct While Making #Seditious Remarks Against the President Of The United States.. Palestine Refuses To Renounce Terrorism..Hamas Holds Sway Over Many Palestinians..Kerry Colluding W/Terrorists     https://truthuncensored.net/deep-state-john-kerry-tells-palestinian-official-london-trump-will-not-remain-office-long/\xc2\xa0\xe2\x80\xa6'
p1141
S'4:06 PM - 26 Jan 2018'
p1142
tp1143
a(S"I don't even know what to say about Americans and guns anymore. Who cares about terrorism when y'all are wiping yourselves out  pic.twitter.com/GxKZTyiPbl"
p1144
S'4:06 PM - 26 Jan 2018'
p1145
tp1146
a(S'No country is immune to terrorism but Muslims biggest victims: Indonesian President http://www.diplomacypakistan.com/main-front/no-country-is-immune-to-terrorism-but-muslims-biggest-victims-indonesian-president/\xc2\xa0\xe2\x80\xa6pic.twitter.com/wdeaGnFSnm'
p1147
S'4:06 PM - 26 Jan 2018'
p1148
tp1149
a(S'"If the Trump administration really wants to bring the Islamic State to its knees, it not only must help Baghdad kill terrorists but also bankrupt them."\n\nFrom our January issue:http://bit.ly/2ndWnrS\xc2\xa0'
p1150
S'4:05 PM - 26 Jan 2018'
p1151
tp1152
a(S'DEMOCRATS FUCKIN INSURANCE POLICY METLIFE STATE FARM PROGRESSIVE WARREN BUFFETT TERRORISM AGAINST MY FAMILY pic.twitter.com/4zIui85uJc'
p1153
S'4:04 PM - 26 Jan 2018'
p1154
tp1155
a(S'No one tops the cheap theatrics of Leftists, for which media fall right into line. I guess they were happy with the timekeeping when ISIS was rampant under Obama, cash was delivered to Iran, placing it on a race to become nuclear, Clinton enabling North Korea.  Unbelievable.'
p1156
S'4:02 PM - 26 Jan 2018'
p1157
tp1158
a(S'Blockade hurts effort to fight terrorism \xe2\x80\x93 Qatar Foreign Minister https://mirakulos.com/blockade-hurts-effort-to-fight-terrorism-qatar-foreign-minister/\xc2\xa0\xe2\x80\xa6'
p1159
S'4:02 PM - 26 Jan 2018'
p1160
tp1161
a(S'Radicalized Jews were found embedded with ISIS destroying Iraq slaughtering Iraqis #Mosul pic.twitter.com/xzoRQZ9O0q'
p1162
S'4:01 PM - 26 Jan 2018'
p1163
tp1164
a(S'EU supports counter-terrorism in Mali http://africadiplomatic.com/2018/01/27/eu-supports-counter-terrorism-in-mali/\xc2\xa0\xe2\x80\xa6pic.twitter.com/OC3HnBiV3L'
p1165
S'4:01 PM - 26 Jan 2018'
p1166
tp1167
a(S'Before any wrongdoing the delinquent government personnel look for justification, and the moment they get it they implement their plan without any hesitation. All they need is justification and they are expert in making that. #JaiMaharashtra #police #terrorism #corruption #ethics'
p1168
S'4:00 PM - 26 Jan 2018'
p1169
tp1170
a(S"No, grabbing his speech isn't terrorism."
p1171
S'4:02 PM - 26 Jan 2018'
p1172
tp1173
a(S"Obama wanted to control all w his inner circle. He would not listen to his generals or even talk to them. Some decisions (on ISIS) were made by a 4 yr degree creative writer with no military experience/knowledge! They didn't know what they didn't know! https://twitter.com/FiveRights/status/956843297787600896\xc2\xa0\xe2\x80\xa6"
p1174
S'4:02 PM - 26 Jan 2018'
p1175
tp1176
a(S'Italy deports four, arrests one on suspicion of terrorism - Xinhua http://dlvr.it/QCwrPN\xc2\xa0'
p1177
S'4:02 PM - 26 Jan 2018'
p1178
tp1179
a(S'Pakistan has to fight against terrorism for itself, says Bilawal - DAVOS: Pakistan Peoples Party (PPP) chairman Bilawal Bhutto Zardari Thursday said that Pakistan has to fight against extremism and terrorism for itself, and not for the United States o... http://ow.ly/AzRW50ggDVA\xc2\xa0'
p1180
S'4:01 PM - 26 Jan 2018'
p1181
tp1182
a(S'As much fun as this has been I believe it\xe2\x80\x99s time to crawl back into your bunker and find other like minded extremists to have fun being the equivalent of American isis with.'
p1183
S'4:01 PM - 26 Jan 2018'
p1184
tp1185
a(S'Blockade hurts effort to fight terrorism \xe2\x80\x93 Qatar Foreign Minister http://appleoo.com/blockade-hurts-effort-to-fight-terrorism-qatar-foreign-minister/\xc2\xa0\xe2\x80\xa6'
p1186
S'4:01 PM - 26 Jan 2018'
p1187
tp1188
a(S'Live da @heyisis no youtubehttps://www.youtube.com/watch?v=2zpVCkLu_wQ&feature=push-lsb&attr_tag=t5Om6iOEwERWzW6m-6\xc2\xa0\xe2\x80\xa6'
p1189
S'4:01 PM - 26 Jan 2018'
p1190
tp1191
a(S'US troops risk getting caught in crossfire amid Turkish-Kurdish fighting http://cnn.it/2ndogjN\xc2\xa0 # Turkey wants to help, down & out ISIS?'
p1192
S'4:01 PM - 26 Jan 2018'
p1193
tp1194
a(S'How much credit are you giving trump for isis? 10-20-30%?'
p1195
S'4:01 PM - 26 Jan 2018'
p1196
tp1197
a(S'White Supremacist shootings/terrorism/assaults are on the rise since Trump.'
p1198
S'4:00 PM - 26 Jan 2018'
p1199
tp1200
a(S'I think you should be removed from whatever it is you do, gorda '
p1201
S'4:00 PM - 26 Jan 2018'
p1202
tp1203
a(S'London Bridge attack \xc3\xa2\xe2\x82\xac\xe2\x80\x9c ISIS claims responsibility for Borough Market terror as video shows jihadis stalking pu... http://ref.gl/RxgnMp3B\xc2\xa0'
p1204
S'4:00 PM - 26 Jan 2018'
p1205
tp1206
a(S"My dude, opposing fascism isn't terrorism. At the Cernovich event, McInnis was planning violence:\nhttps://twitter.com/jaredlholt/status/954901877463961603?ref_src=twcamp%5Eshare%7Ctwsrc%5Em5%7Ctwgr%5Eemail%7Ctwcon%5E7046%7Ctwterm%5E0\xc2\xa0\xe2\x80\xa6"
p1207
S'4:00 PM - 26 Jan 2018'
p1208
tp1209
a(S'AG: Anti-Terrorism Bill To Go To Joint Select Committee, No Timeline For Hangings\n http://ow.ly/ciKq30i1Q7G\xc2\xa0'
p1210
S'4:00 PM - 26 Jan 2018'
p1211
tp1212
a(S"Trump's \xe2\x80\x9cfake news\xe2\x80\x9d cry is heard during a very real terror threat ... - New Republic\nhttp://bloodylead.com\xc2\xa0 #terrorism"
p1213
S'4:00 PM - 26 Jan 2018'
p1214
tp1215
a(S"And how the hell did you determine that he's a brilliant mind?  He claims to be an expert in\nA - Terrorism\nB - Aviation \nC - Saudi\\Arab culture\nD - Israel \nE- Physics \nF- Weapons systems other than flamethrowers\nThe list goes on.  He's brilliant if you enjoy fiction."
p1216
S'4:00 PM - 26 Jan 2018'
p1217
tp1218
a(S'Targeted #ISIS accounts\nhttps://twitter.com/intent/user?user_id=885896709771075584\xc2\xa0\xe2\x80\xa6\nhttps://twitter.com/intent/user?user_id=3088140371\xc2\xa0\xe2\x80\xa6\nhttps://twitter.com/intent/user?user_id=1257626558\xc2\xa0\xe2\x80\xa6\n#targets #iceisis #opiceisis'
p1219
S'4:00 PM - 26 Jan 2018'
p1220
tp1221
a.