(lp0
(S'Great jobs numbers and finally, after many years, rising wages- and nobody even talks about them. Only Russia, Russia, Russia, despite the fact that, after a year of looking, there is No Collusion!'
p1
S'4:26 PM - 3 Feb 2018'
p2
tp3
a(S'Memo:  No FISA warrant without Dossier.  Which means no Russia collusion story without Dossier.  Which means no Mueller special counsel without Dossier paid for by Clinton/DNC.  Shut it down.'
p4
S'9:38 AM - 2 Feb 2018'
p5
tp6
a(S'Russia, Russia, Russia. Oh yeah. And the stock market crashed on Friday partly because of political unease over your reckless war on justice. #Collusion https://twitter.com/realdonaldtrump/status/959946200488271872\xc2\xa0\xe2\x80\xa6'
p7
S'8:24 PM - 3 Feb 2018'
p8
tp9
a(S"Mueller using Clinton/DNC dossier, which is the fraudulent center of the Russia collusion allegations against @realDonaldTrump. Don't be fooled by the spin the Memo has nothing to do with Mueller investigation. Shut it down!https://reut.rs/2xUyL0t\xc2\xa0"
p10
S'9:18 AM - 4 Feb 2018'
p11
tp12
a(S'So you\xe2\x80\x99re telling me the FBI has been looking at Carter Page since 2013, still haven\xe2\x80\x99t found anything, but he\xe2\x80\x99s \xe2\x80\x9cproof\xe2\x80\x9d of \xe2\x80\x9cRussia collusion?\xe2\x80\x9d\n\nSure thing. Ok.'
p13
S'6:44 AM - 4 Feb 2018'
p14
tp15
a(S'Jim Jordan continues 2hammer away at liberal fools regurgitating Trump/Russia collusion nonsense:\n\xe2\x80\x98Not one bit of evidence shows any type of coordination by Trump campaign &Russians 2influence the election.\xe2\x80\x99\nYet progressives continue 2foam at the mouth while spreading lies! pic.twitter.com/Psxi2rIrEl'
p16
S'10:01 AM - 4 Feb 2018'
p17
tp18
a(S'After the disclosures of the House Intel Memo, JW filed a FOIA lawsuit w/ DOJ for all the FISA applications submitted to (& all the responses from) the Foreign Intel Surveillance Court re: Trump-Russia, so the American ppl can finally see the truth. Read: http://jwatch.us/vAdajo\xc2\xa0https://twitter.com/realDonaldTrump/status/959949725028974592\xc2\xa0\xe2\x80\xa6'
p19
S'4:51 PM - 3 Feb 2018'
p20
tp21
a(S'"So now the Russia \'collusion\' thing leads right back to the democrats..." pic.twitter.com/o8SimXNWWx'
p22
S'5:12 AM - 3 Feb 2018'
p23
tp24
a(S'To be clear, there is no evidence that we know to exist that there was collusion between @realDonaldTrump & #Russia. Schmucky #CarterPage remains uncharged despite being relentlessly surveilled as a foreign agent. Both Flynn and Papadapolous are in hot water because they lied'
p25
S'4:55 AM - 3 Feb 2018'
p26
tp27
a(S'FBI used articles planted by Fusion GPS to corroborate the Steele dossier compiled by Fusion GPS, which they then leaked to produce more stories. There was a bouncing ball between media/govt/media to create and weaponize the Russia collusion narrative. pic.twitter.com/AW8HAmfWNj'
p28
S'9:36 AM - 2 Feb 2018'
p29
tp30
a(S'Remember Obama\xe2\x80\x99s collusion with the Kremlin? Yeah... not many people do.  http://www.telegraph.co.uk/news/worldnews/wikileaks/8304654/WikiLeaks-cables-US-agrees-to-tell-Russia-Britains-nuclear-secrets.html\xc2\xa0\xe2\x80\xa6'
p31
S'2:32 PM - 4 Feb 2018'
p32
tp33
a(S'JW is seeking all proposed & final signed FISA apps submitted to FISC re: Russian interference in the 2016 election, allegations of collusion between ppl associated with Trump campaign & Russia, and any known Trump associates regardless of context. (2/7)\nhttp://jwatch.us/vAdajo\xc2\xa0'
p34
S'1:44 PM - 2 Feb 2018'
p35
tp36
a(S"Judicial Watch filed a FOIA lawsuit against DOJ for FBI docs re: the FISA warrant application submitted to \xe2\x80\x93 & responses from \xe2\x80\x93 the Foreign Intelligence Surveillance Court re: alleged collusion between Russia & Trump's campaign. #ReleaseTheFISAApplication http://jwatch.us/vAdajo\xc2\xa0"
p37
S'2:07 PM - 4 Feb 2018'
p38
tp39
a(S"DNC/Clinton Dossier is the Russia Collusion Story. It led to corrupt FISA surveillance.  It led to Comey confrontation w/@RealDonaldTrump. It led to Comey's firing. It led to Mueller's appointment. It led to McCabe's removal. It led to year of stonewalling by FBI/DOJ/Mueller,etc.https://twitter.com/bradheath/status/959539649348820992\xc2\xa0\xe2\x80\xa6"
p40
S'3:12 PM - 2 Feb 2018'
p41
tp42
a(S'Memo Fallout: \n\n Nine Questions About James Comey\xe2\x80\x99s Role in Fueling Russia Collusion Conspiracy\n\n(Yep there\xe2\x80\x99s a thread)\n#itsmemoseason\n\nTHE MOST WONDERFUL TIME OF THE YEAR \nhttp://www.breitbart.com/jerusalem/2018/02/04/memo-fallout-nine-questions-james-comeys-role-fueling-russia-collusion-conspiracy/\xc2\xa0\xe2\x80\xa6'
p43
S'9:11 AM - 4 Feb 2018'
p44
tp45
a(S'The unclassified memo shows Deputy Attorney General Rosenstein misled the FISA court. Andrew McCabe testified that a FISA warrant would never have been issued to spy on Trump without Hillary\xe2\x80\x99s phony Russia dossier. WITHOUT IT no Russian collusion story & no Mueller investigation. pic.twitter.com/gcM4ncST7I'
p46
S'11:19 AM - 2 Feb 2018'
p47
tp48
a(S'Remember when MSM was telling U that the Clinton investigation wld be dismissed & Trump/Russia collusion\xe2\x80\x9d was what you *really needed 2be worried abt*? Well, this memo proves: the entire narrative was PAID 4BY DNC, OKAYED BY OBAMA & FUNNELED TO LEFT-CONTROLLED MAINSTREAM MEDIA\nGP pic.twitter.com/fjucEMMT6c'
p49
S'8:16 AM - 3 Feb 2018'
p50
tp51
a(S'FROM MY FRIEND & JOURNALIST AARON KLEIN. GREAT READ.   Memo Fallout: Nine Questions About James Comey\xe2\x80\x99s Role in Fueling Russia Collusion Conspiracy http://bit.ly/2nB85xL\xc2\xa0 via @BreitbartNews'
p52
S'9:26 AM - 4 Feb 2018'
p53
tp54
a(S'How come took so long for rosenstein to tell us about ghe fbi corruption how come Mueller knew about peter strzock and still had him on Russia collusion hoax was it so he could continue to built his insurance company ?? We need an independent investigator to ask all the questions'
p55
S'3:56 PM - 4 Feb 2018'
p56
tp57
a(S"Senior Republican claims he's seen more collusion between Russia and the Clintons than between the Kremlin and Trump http://washex.am/2BUdyEk\xc2\xa0pic.twitter.com/LPZvAoELAZ"
p58
S'3:26 PM - 4 Feb 2018'
p59
tp60
a(S"It appears that the light is finally coming on for some Congressional Republicans that they have exposed themselves to serious jail time for either their collusion with Russia or obstruction of the investigation. Now they don't know whether to fish or cut bait."
p61
S'2:46 PM - 4 Feb 2018'
p62
tp63
a(S"Senior Republican claims he's seen more collusion between Russia and the Clintons than between the Kremlin and Trump http://washex.am/2EFXXey\xc2\xa0pic.twitter.com/gcY8sDMuqM"
p64
S'2:26 PM - 4 Feb 2018'
p65
tp66
a(S'Kylie Jenner was better at hiding her pregnancy for 9 months better than Trump was at hiding his collusion with Russia. Let that sink in.'
p67
S'1:42 PM - 4 Feb 2018'
p68
tp69
a(S'The left/DNC is so ignorant!\nThey scream obstruction now instead of collusion, how in the hell can you obstruct a fake dossier that was paid for by your enemies and helped pushed by the FBI,doj?\nThe Russia story is fake, no obstruction, deal with it!'
p70
S'1:15 PM - 4 Feb 2018'
p71
tp72
a(S'Hey DirtyCopComey,\nU &Your Co- ConspiratorsShldBe Tried ForSedition/Treason For  Trying ToUndermineOur "Election"? \n1. Obama\n2. George Sorrus\n3. DNC\n4. Hillary Clinton\n5. FBI/DOJ \n#FBICoverup\n#FBIDOJCollusion\n#DrainTheDeepState\n#DNCCorrumption\n#Obamagatehttp://www.breitbart.com/jerusalem/2018/02/04/memo-fallout-nine-questions-james-comeys-role-fueling-russia-collusion-conspiracy/?utm_source=feedburner&utm_medium=feed&utm_campaign=Feed%3A+breitbart+%28Breitbart+News%29\xc2\xa0\xe2\x80\xa6'
p73
S'10:56 AM - 4 Feb 2018'
p74
tp75
a(S'Mike Pence was complicit in the Russian collusion, and has been at the forefront of the cover-up. \nhttp://www.foxnews.com/politics/2018/02/03/pence-says-memo-raises-serious-concerns-suggests-more-memos-on-russia-probe-will-be-released.html\xc2\xa0\xe2\x80\xa6'
p76
S'10:46 AM - 4 Feb 2018'
p77
tp78
a(S"It's about to get ugly folks. \nSo remember who started it, \nwho always starts it, \nand raise your own voices to\n\n#StandWithTrump & demand an\n#EndofFakeNews \n\nDems go despicable as the Russia Collusion plot to impeach Trump explodes in their faces \n\nhttp://www.americanthinker.com/blog/2018/02/dems_go_despicable_as_the_russia_collusion_plot_to_impeach_trump_explodes_in_their_faces.html\xc2\xa0\xe2\x80\xa6pic.twitter.com/R94qXBvQOb"
p79
S'8:32 AM - 4 Feb 2018'
p80
tp81
a(S' If \xe2\x80\x9cNo Collusion\xe2\x80\x9d, then:\n\nWhy did MishaFlynn & \xe2\x80\x9ccoffee boy\xe2\x80\x9d PapaD plead GUILTY to FELONIES for making false statements (= LYING) about contacts w/#Russia\nWhy did Mueller just hire DOJ\xe2\x80\x99s top cyber PROSECUTOR\nWhy is Kush hiring a crisis PR firm https://twitter.com/realdonaldtrump/status/959946200488271872\xc2\xa0\xe2\x80\xa6'
p82
S'5:43 AM - 4 Feb 2018'
p83
tp84
a(S'Earlier tonight, President @realDonaldTrump complained that despite excellent economic news, the Russia collusion narrative is still the dominant issue. http://fxn.ws/2FHjGlw\xc2\xa0pic.twitter.com/0qKFxloZx9'
p85
S'8:48 PM - 3 Feb 2018'
p86
tp87
a(S'We Are Talking About It Mr. President! You Are #MAGA!!\n\n"Great jobs numbers and finally, after many years, rising wages- and nobody even talks about them. ONLY RUSSIA, RUSSIA, RUSSIA, despite the fact that, after a year of looking, there is NO COLLUSION!"_ @realDonaldTrumppic.twitter.com/kvc0QZQO1E'
p88
S'5:07 PM - 3 Feb 2018'
p89
tp90
a(S"Shooting the messenger is really lame. Espionage, Sedition and Treason of the highest levels. Can't wait for the indictments to come and this whole year long investigation into a fake Russia collusion lie."
p91
S'1:36 PM - 3 Feb 2018'
p92
tp93
a(S'.@TomFitton on GOP FISA memo: "There is no Russia collusion story without the dossier. And we now know and have confirmed six ways to Sunday, there was nothing behind it...why is there a special counsel investigation?"\n\nTRUTH!\n\nRETWEET if you agree!\n\n#MemoDaypic.twitter.com/yKuEgqG7ST'
p94
S'7:05 PM - 2 Feb 2018'
p95
tp96
a(S'"Andrew McCabe\'s testimony, but for the #Dossier there would\'ve been no application to the #FISA court for a warrant on Carter Paige"\n[Joe Digenova] \n\n"The #Dossier is central to the Russia Collusion Theory targeting #Trump & that\'s the basis for the appt of #Mueller @TomFitton \'pic.twitter.com/fimIfPGqcT'
p97
S'6:24 PM - 2 Feb 2018'
p98
tp99
a(S'There is no Trump-Russia without the Dossier\nThere is no Trump-Russia without the FISA warrant\nThere is no Trump-Russia without the compromised FBI\nThere is no Trump-Russia without the Obama DOJ\n\nThere is no Russian collusion at all, THE WITCH HUNT SHOULD END!!!!\n#MAGA #TRUMPpic.twitter.com/zYxQIh2Wby'
p100
S'5:41 PM - 2 Feb 2018'
p101
tp102
a(S"The Democrats have been seeking justice for over a year in the Russia collusion investigation. I hope they don't lose that appetite now that their candidate of choice and her campaign team will be the ones being investigated."
p103
S'4:26 PM - 2 Feb 2018'
p104
tp105
a(S'So a FISA warrant was issued to start a real investigation wasting real taxpayer money based on false evidence (Russian trash dossier) of a false crime (Trump Russia collusion) I guess they had the perverted Libnuts at Russian prostitutes! #memoday'
p106
S'3:42 PM - 2 Feb 2018'
p107
tp108
a(S'The Nunes memo is a devastating blow and final nail in the Mueller probe coffin.\n\nDOJ and FBI have zero credibility at this point. \n\nFake News  Fake Dossier   FISA warrant  Illegal Surveillance  Fake Russia collusion investigation \n\nShut It Down! #MemoDay'
p109
S'1:01 PM - 2 Feb 2018'
p110
tp111
a(S'It\xe2\x80\x99s the tried and true rule of the Democratic Party: Accuse others of what you\xe2\x80\x99re guilty of. \n\nHillary campaign paid for a dossier full of Russian lies in order to push the phony Trump Russia collusion narrative.'
p112
S'11:44 AM - 2 Feb 2018'
p113
tp114
a(S'Turns out Democrats have been spelling Russia collusion** wrong.\n**FBI/DNC Clinton Campaign pic.twitter.com/5S8mQ5D1OQ'
p115
S'10:15 AM - 2 Feb 2018'
p116
tp117
a(S'CNN off its rocker. @brianstelter cites "Russian bots" as evidence to prove that Trump colluded with Russia. \nhttps://www.youtube.com/watch?time_continue=267&v=HzWwVlU_M3A\xc2\xa0\xe2\x80\xa6'
p118
S'1:39 PM - 4 Feb 2018'
p119
tp120
a(S'Bam! The real collusion......Russia and entire BHO administration. HRC running the show as Secretary of State.  With BHO\xe2\x80\x99s blessings.'
p121
S'10:38 AM - 4 Feb 2018'
p122
tp123
a(S'MEMO reveals Trump vindicated on Russia collusion. Appears Leaders at FBI not Rank & File, used Phony FISA to influence the 2016 election due to Bias. https://www.wsj.com/articles/a-reckoning-for-the-fbi-1517617641\xc2\xa0\xe2\x80\xa6 via @WSJOpinion'
p124
S'5:46 AM - 4 Feb 2018'
p125
tp126
a(S'FISA FALLOUT: Donald Trump Jr. speaks out on FISA memo revelations calling for final conclusion to Russia collusion investigations pic.twitter.com/HEdWiTqFEQ'
p127
S'4:15 AM - 4 Feb 2018'
p128
tp129
a(S"Democrats so desperate to connect Trump to Russia in any way possible. It started that Trump & Putin physically changed the vote tallies. Now it's at the point where if Trump ever knew anyone who knew a Russian is collusion. Anyone who's anyone in politics has russian connections"
p130
S'8:28 PM - 3 Feb 2018'
p131
tp132
a(S'After over a year of investigating Trump/Russia collusion, the only collusion we have discovered was between the Democrats with the FBI and Russia.\n\nWhere is the MSM outrage?'
p133
S'6:23 PM - 3 Feb 2018'
p134
tp135
a(S'Obama weaponized the US intel agencies to spy on a political adversary to throw the election to HRC & when failed, they both w/DOJ FBI engaged in a coup attempt to discredit the President and remove him from office by a Fake Dossier in collusion w/russia intelligence.'
p136
S'2:06 PM - 3 Feb 2018'
p137
tp138
a(S'I\xe2\x80\x99m confused. Is it collusion with Russia by Hillary and the DNC or obstruction of justice by the Democrats? @NancyPelosi\n@ScottPresler.  \nAsking for a friend.'
p139
S'9:21 AM - 3 Feb 2018'
p140
tp141
a(S'"There is no Russia collusion story without the dossier. And we now know and have confirmed six ways to Sunday, there was nothing behind it so why is there a special counsel investigation?" ~@TomFitton on GOP FISA memo\n\n#MuellerInvestigationpic.twitter.com/dNataVaVff'
p142
S'5:55 AM - 3 Feb 2018'
p143
tp144
a(S'And make a STRONG note Carter Paige is not one of the few indicted!!  Dems claim they beleived he was an agent of Russia yet out of 4 indictments (having NOTHING to do with the campaign collusion) HE IS NOT ONE OF THEM!  The whale they went after was only a minnow.'
p145
S'4:41 AM - 3 Feb 2018'
p146
tp147
a(S'The memo states that George Papadopoulos triggered  Peter Strzok to start a counterintelligence investigation. It did not say anything about Papadopoulos triggering a "Russia collusion" investigation between the Trump campaign & Russia.'
p148
S'2:13 AM - 3 Feb 2018'
p149
tp150
a(S'People seem to forget that the public editor of the @nytimes acknowledged their failure to properly scrutinize the Trump-Russia collusion story and questioned whether there was an effort to play down its significance.\n\nNot long after, she was fired.\n\nhttp://nyti.ms/2EzEV98\xc2\xa0pic.twitter.com/gl8XELRRpL'
p151
S'2:23 PM - 2 Feb 2018'
p152
tp153
a(S"So Hillary pays for a dossier written by a Brit who got fake info from Russians.\n\nDemocrats were right! There was collusion with Russia!! But it was Hillary's campaign doing it!!\n\n#MemoDay"
p154
S'10:16 AM - 2 Feb 2018'
p155
tp156
a(S'Anyone that still believes the Trump Russia Collusion Hoax after the release of the #FISAMemo is an idiot!\n\n#MemoDay'
p157
S'9:52 AM - 2 Feb 2018'
p158
tp159
a(S'I believe that the fabrication of this DOSSIER was a precursor to RUSSIA COLLUSION STORY.\n\nSince ALL OF THIS DOSSIER WAS FALSE & PAID FOR BY DNC & FBI BEING INVOLVED \n\nIT SHOWS #AMERICANCOLLUSION #DNCCOLLUSION\n& by right\nPRESIDENT TRUMP SHOULD #FireMueller #NOW!\n\n#GetOutMuellerpic.twitter.com/x1ZHtVcrNc'
p160
S'9:23 AM - 2 Feb 2018'
p161
tp162
a(S'FISA judge was NOT told that fake dossier was paid for Clinton w/Russian info. So the real collusion was FBI-Clinton-Russia to sink the opposition candidate.'
p163
S'9:20 AM - 2 Feb 2018'
p164
tp165
a(S'1. trump claims his team only has the best people. \n2. Appoints repubs Wray &  Rosenstein to @FBI. \n3. Facing collusion with Russia, then obstruction charges from repub Mueller after firing repub Comey.\n4. Now claims Wray & Rosenstein are Dem lovers. \n5. Give me a fucking break.'
p166
S'8:21 AM - 2 Feb 2018'
p167
tp168
a(S"Is the Head of the Russia Collusion Department now a permanent civil service position? Mueller doesn't need to be fired, his position needs to cease to exist."
p169
S'8:20 AM - 2 Feb 2018'
p170
tp171
a(S'That is exactly what they were doing. It\xe2\x80\x99s crazy how the same ppl that were investigating HRC and let her walk were in charge of the DJT Russia collusion investigation. This is unreal. '
p172
S'6:54 AM - 2 Feb 2018'
p173
tp174
a(S'The democrats have been pushing the Trump/Russia collusion story for a year. That\xe2\x80\x99s the basis for Mueller\xe2\x80\x99s investigation. Right?  They should be ecstatic that this is #MemoDay \nThis memo should bring vindication to all democrats. Right?'
p175
S'4:57 AM - 2 Feb 2018'
p176
tp177
a(S'So a MEMO providing tons of evidence of deep corruption by the FBI and DOJ is a nothingburger, but a Trump Russia Collusion story investigated for over a year with zero evidence is somehow credible???'
p178
S'10:14 AM - 4 Feb 2018'
p179
tp180
a(S'#LeftistSedition #ObamaGate #FISAMemo #ComeyCrimes\nMemo Fallout: \nNine Questions About James Comey\xe2\x80\x99s Role in Fueling Russia Collusion Conspiracy\n.\nhttp://www.breitbart.com/jerusalem/2018/02/04/memo-fallout-nine-questions-james-comeys-role-fueling-russia-collusion-conspiracy\xc2\xa0\xe2\x80\xa6'
p181
S'9:30 AM - 4 Feb 2018'
p182
tp183
a(S'also worth noting that Carter Page, who brags that he was an adviser to staff of Kremlin, was the person Republicans apparently thought best HELPED vindicate Trump of Russia collusion stench. \n\nThey centered their memo on Carter  Page being unfairly surveilled. So, do the math.'
p184
S'7:14 PM - 3 Feb 2018'
p185
tp186
a(S'Moments ago, President @realDonaldTrump complained that despite excellent economic news, the Russia collusion narrative is still the dominant issue. http://fxn.ws/2FHjGlw\xc2\xa0pic.twitter.com/WYR8KJHFMf'
p187
S'4:43 PM - 3 Feb 2018'
p188
tp189
a(S'Here\'s @SenSanders on the Nunes Memo:\n\n"The release of this Republican staff memo is a blatant attempt to disrupt the critically important investigation into Russia\xe2\x80\x99s interference in the 2016 election and the possible collusion between Russia and the Trump campaign." pic.twitter.com/nV9GvJiCFy'
p190
S'11:05 AM - 3 Feb 2018'
p191
tp192
a(S"The only collusion we've seen so far is Democrat/Russia collusion"
p193
S'8:28 AM - 3 Feb 2018'
p194
tp195
a(S'It took FBI & DoJ a YEAR to turn over the Trump-Russia collusion documents.\nThe deadline was 1-3-18.\nThreatened w/ #ContemptOfCongress, they turned over the docs.\n1 month later>#TheMemo\n\nThe good news, they have endless #YoMemoJokes.\nThe Memo Reveals the Coup\n#Snowden was rightpic.twitter.com/qr7Y34K6Wa'
p196
S'8:05 AM - 3 Feb 2018'
p197
tp198
a(S' It took an army to pull off  the greatest political heist in history. Media were  in The Art of Brainwashing A Nation.\n24 hour Russia spin.\nCollusion.\nOne man is insulated from the plot to politicize and weaponize federal agencies to destroy a political rival. Barack Obama. pic.twitter.com/YIR1cbv75s'
p199
S'5:56 AM - 3 Feb 2018'
p200
tp201
a(S'"There is no Russia collusion story without the dossier. And we now know and have confirmed six ways to Sunday, there was nothing behind it so why is there a special counsel investigation?" ~@TomFitton on GOP FISA memo\n\n#MuellerInvestigation #SteeleDossier\npic.twitter.com/iFq4MEW9e0'
p202
S'4:18 AM - 3 Feb 2018'
p203
tp204
a(S'On Tucker last night, Joe Digenova a former US Attorney, states he has confirmed with those in the room when McCabe testified that he lied and this whole Trump-Russia \xe2\x80\x9cCollusion\xe2\x80\x9d narrative was all based NOW on the dossier which was ALL a lie! #LockThemAllUp #TCT #SaturdayMorningpic.twitter.com/YR513Ktt7d'
p205
S'3:31 AM - 3 Feb 2018'
p206
tp207
a(S'Russia Russia Russia I am so glad you got your talking points........This morn at your Libturd meeting !\nI say guilty as sin collusion look no further than the Clinton cartel !\nPs Wolf surprised you are still alive thought you were.....Dead Hmm R U  https://twitter.com/marklevinshow/status/959606039015579650\xc2\xa0\xe2\x80\xa6'
p208
S'6:07 PM - 2 Feb 2018'
p209
tp210
a(S'And Rosenstein knew it. Rosenstein knew there was NO Russia Collusion but he appointed Mueller anyway and destroyed those in his path. Unbelievable.'
p211
S'12:01 PM - 2 Feb 2018'
p212
tp213
a(S'The dnc\xe2\x80\x99s tom perez said \xe2\x80\x9c the American people have a right to know the extent of Trump\xe2\x80\x99s collusion with Russia.\xe2\x80\x9d Not only is he a delusional sub-logical leftistdem idiot, as well as his constituents, they can\xe2\x80\x99t read or use a dictionary! As my ole buddy Bender says pic.twitter.com/yJHamFcc45'
p214
S'10:24 AM - 2 Feb 2018'
p215
tp216
a(S"Something we didn't know. Yahoo News report was one used to beef up the dossier to get the FISA warrant. Steele met with them and Fusion GPS paid someone at @YahooNews for Russia collusion stories, so this could be far worse they it even looks now. #MemoDay #MemoReleased"
p217
S'9:32 AM - 2 Feb 2018'
p218
tp219
a(S'Do you remember last year after the election, Obama initiated a Russia collusion report from his security advisors\xe2\x80\xa6 He was involved, he was the linchpin, the quarterback... Don\xe2\x80\x99t stop till we get everyone involved! This must never happen again!'
p220
S'5:16 AM - 2 Feb 2018'
p221
tp222
a(S'The impending memo is still the unmentionable memo in UK media. If they thought it detailed Trump-Russia collusion they would be speculating on the content every 5 minutes. #ReleaseTheMemo'
p223
S'1:43 AM - 2 Feb 2018'
p224
tp225
a(S"Donny never thought he would get elected. So, he didn't see much risk in his collusion with Russia - which was extensive (over 50 meetings with 19 different Russians). Now he has Putin squeezing him on one end and Mueller on the other. He is so totally, completely screwed."
p226
S'10:04 PM - 1 Feb 2018'
p227
tp228
a(S'Can u believe @realDonaldTrump rigged the RNC, paid Russians for a fake dossier on HRC to get a FISA warrnt to spy on her campaign, then used FBI top brass to feed the media leaks to lead to a Spec. Counsel over the false collusion w/ Russia? \nI bet Dems are pissed! Oh wait...'
p229
S'8:12 PM - 1 Feb 2018'
p230
tp231
a(S'The Democrats have got a lot of zany characters that are completely #FullofSchiff, but Russia collusion hoaxster, @RepAdamSchiff, really seems to believe the whacky Russia lies he spews, nonstop.\n#ReleaseTheMemo, so this crooked bug-eyed weirdo can be prosecuted for sedition.pic.twitter.com/9TGBl64flk'
p232
S'6:29 PM - 1 Feb 2018'
p233
tp234
a(S'Moments ago, President @realDonaldTrump complained that despite excellent economic news, the Russia collusion narrative is still the dominant issue. \n\nWe the People See your hard work - the Agenda being filled as quick as you can . #OurTrumpCardWins @POTUSpic.twitter.com/QoSJdoUOSy'
p235
S'6:03 PM - 3 Feb 2018'
p236
tp237
a(S'I respectfully disagree, Mr. President. There was collusion with Russia, and it was the Clinton campaign doing it by paying Kremlin agents for fake opposition research which was then used to justify massive spying on a political opponent: you.'
p238
S'5:05 PM - 3 Feb 2018'
p239
tp240
a(S'McCabe testified that without the Dossier they wouldn\xe2\x80\x99t have been a FISA warrant therefore Mueller would not have been appointed as Special Prosecutor  and there wouldn\xe2\x80\x99t be ANY Trump/Russia Collusion Investigation! #ReleaseMcCabeTransciptpic.twitter.com/DsHbw8ErCp'
p241
S'2:12 PM - 3 Feb 2018'
p242
tp243
a(S'So let\xe2\x80\x99s get this straight. GOP sit is a room for 6 months to hatch plans to smokescreen and sandbag the Russia probe, launch date is imminent so putinbots push it everywhere, gop talkingpoints parrot the bots, foxnews parrots the bots... and there is \xe2\x80\x98no collusion?\xe2\x80\x99\n\n#WaitWhat?'
p244
S'1:43 PM - 3 Feb 2018'
p245
tp246
a(S'As a Kiwi this is bemusing. Isn\xe2\x80\x99t it a bit like if the Nixon Govt had said \xe2\x80\x9cBut the Democrats were behind the discovery of Watergate. That\xe2\x80\x99s more criminal than the act of Watergate itself\xe2\x80\x9d. \n\nRegardless of who paid for research, it revealed lies and collusion with Russia.'
p247
S'12:12 AM - 3 Feb 2018'
p248
tp249
a(S'Memo:  No FISA warrant without Dossier.  Which means no Russia collusion story without Dossier.  Which means no Mueller special counsel without Dossier paid for by Clinton/DNC.  Shut it down. - Tom Fitton @JudicialWatch #ShutItDown #NunesMemo #FISAMemo #Nunes #JamesComey #MemoDay'
p250
S'12:06 PM - 2 Feb 2018'
p251
tp252
a(S'Any comment from @yahoo on being used for the fake Russia collusion story?'
p253
S'11:10 AM - 2 Feb 2018'
p254
tp255
a(S'What you\'re going to start hearing from Democrats now: "Mistakes were made, but Russia-Trump collusion still rings true, so it is true"'
p256
S'9:59 AM - 2 Feb 2018'
p257
tp258
a(S'Imagine the democrats spending all year on Russia collusion, which not only was an excuse to cover criminality within intelligence and Washington, but to undermine a President\'s election \n\nNOW accuse Devin nunes of "tampering"  with #FisaAbuseMemo \n\nIrony.  \n#ReleaseTheMemo'
p259
S'6:00 PM - 1 Feb 2018'
p260
tp261
a(S'The Obstruction Case? Wait a minute, I was promised Trump collusion with Russia to steal the election from Hillary. Not obstruction of a crime that never happened.\n\nRising White House'
p262
S'3:46 PM - 1 Feb 2018'
p263
tp264
a(S'Does the FBI agents association stand by those in the FBI that worked to FIX an election? Do they stand by those that wrongly accused Candidate now President Trump of Russia collusion? To have the agents union approve release of the memo implicates FBI'
p265
S'12:12 PM - 1 Feb 2018'
p266
tp267
a(S'MadMaxine u want Trump filter \nHow bout you n your co conspirators in Russia \nCollusion approve FCC Fake\nNews Warning \nEvery time u open mouth \n#FullOfSchiff #FakeNews'
p268
S'11:14 AM - 1 Feb 2018'
p269
tp270
a(S'Nancy Pelosi calls for the removal of Chairman Devin Nunes. \n\nSo the Russia Collusion is real with not one shred of evidence, but this memo is false with 3 different official memos and documents?\n\nEither she is lying or she is the dumbest elected official of all time.\n\nOr both.'
p271
S'10:17 AM - 1 Feb 2018'
p272
tp273
a(S'The Russia collusion narrative was started by Barack Obama and Hillary Clinton as an excuse to spy on Trump and members of his campaign. Totally illegal! #ReleaseTheMemo'
p274
S'8:22 AM - 1 Feb 2018'
p275
tp276
a(S'Trump is betting on Nunes secret memo to discredit Russia collusion story.\n\nBetting on Nunes!\nLet that sink in. \nHAHAAHAHAHA!'
p277
S'8:04 AM - 1 Feb 2018'
p278
tp279
a(S'Wow Dan, thanks for pointing it out! US Rep Schiff(D) & Dems are going absolutely Bat S#!? Crazy to keep FISA Memo from being released! Wonder why Schiff is SCARED! First it was Russia Collusion, then Nat\xe2\x80\x99l Security, & now Memo is altered. So what\xe2\x80\x99s next Schiff? Memo is Racist?!'
p280
S'7:01 AM - 1 Feb 2018'
p281
tp282
a(S'"DEEP STATE IN PANIC"\n\nThe Dems plot?\n\n-HRC/@DNC orders Faux Dossier\n-@FBI/@DOJ uses Dossier for FISA warrant\n-Use info to create Faux Russia collusion\n-Feed to corrupt media\n-Demand Special Prosecutor\n\n@cnn @msnbc @pbs @ap @abc @politico @thehill @WSJ @realDonaldTrump @FoxNewspic.twitter.com/7TBHTNaJS3'
p283
S'5:43 AM - 1 Feb 2018'
p284
tp285
a(S'Proof of Russia collusion please'
p286
S'7:15 PM - 2 Feb 2018'
p287
tp288
a(S"Congratulations #GOP\n\nYou've now made this about: \n\n collusion with Russia \n\nAND\n\n unpatriotic attacks on our law enforcement & military. \n\n Great Job! "
p289
S'2:09 PM - 2 Feb 2018'
p290
tp291
a(S'For the past year there\xe2\x80\x99s been an ongoing information operation fueling the Trump-Russia collusion narrative. (Louise Mensch anyone?) I suspect it may be tied to the same forces behind the #FISAabuse - maybe to Russian efforts to sow chaos. This needs to be investigated.'
p292
S'1:40 PM - 2 Feb 2018'
p293
tp294
a(S"The Emperor's New Clothes from the Trump-Russia Collusion Collection #ReleaseTheMemo Mueller #RealCollusion FBI Investigation #DrainTheSwamp #UraniumOne #TheyAllKnew http://www.gocomics.com/mike-lester/2018/02/01?ct=v&cti=1421940\xc2\xa0\xe2\x80\xa6pic.twitter.com/iJE6PZuTdR"
p295
S'12:20 PM - 2 Feb 2018'
p296
tp297
a(S"There is NO Russia collusion.\n\nIt's a hoax made up by the deep state, Obama adming, Clinton campaign and the mainstream media.\n\nThe Memo just proved it, and I am seeing tons of libs / leftists shitting their pants right now."
p298
S'10:15 AM - 2 Feb 2018'
p299
tp300
a(S'There\xe2\x80\x99s only one thing that hasn\xe2\x80\x99t been leaked to the Media...\n\nEvidence of Trump Russia Collusion.\n\nI wonder why? \n#ReleasetheMemo'
p301
S'6:32 AM - 2 Feb 2018'
p302
tp303
a(S"Note to #Comey. #JoeMcCarthy was a paranoid partisan who destroyed careers trying to expose collusion with Russia, which, in fact, didn't exist. Sound familiar? The Democrats are those McCarthyites. #ReleaseTheMemo #WeThePeopleAreFurious #DrainTheSwamp #MAGA #FullofSchiff"
p304
S'6:09 PM - 1 Feb 2018'
p305
tp306
a(S'Comrade Devin Nunes: Trump / Russia: MONEYLAUNDERING \xe2\x80\xa2 #denial #diversion #Collusion #complicit #COMRADE #ComradeTrump #TrumpRussia #alternativefacts #moneylaundering #criminal #deutschebank #sberbank #vebbank #alphabank #vtbBank #Republican #sanctions #DevinNunes #TraitorNunespic.twitter.com/akLf0y0TD2'
p307
S'12:12 PM - 1 Feb 2018'
p308
tp309
a(S'Nancy Pelosi calls for the removal of Chairman Devin Nunes. \n\nSo the Russia Collusion is real with not one shred of evidence, but this memo is false with 3 different official memos and documents?\n\nEither she is lying or she is the dumbest elected official of all time.\n\nOr both.'
p310
S'9:49 AM - 1 Feb 2018'
p311
tp312
a(S"I want the tea on this Hope Hicks drama, but the Russia collusion story has gotten away from me five characters and two scandals ago. I need to catch up, but it's like a TV show with six seasons and I'm on season 2. pic.twitter.com/UclsXPQWgY"
p313
S'8:02 AM - 1 Feb 2018'
p314
tp315
a(S'"DEEP STATE IN PANIC"\n\nThe plot?\n\n-HRC/@DNC orders Faux Dossier\n-@FBI/@DOJ uses Faux Dossier for FISA warrant\n-Use info to create Faux Russia collusion\n-Feed to corrupt media\n-Demand Special Prosecutor\n\n@cnn @msnbc @pbs @ap @abc @politico @thehill @WSJ @realDonaldTrump @FoxNewspic.twitter.com/vkfTVqeT5n'
p316
S'4:02 AM - 1 Feb 2018'
p317
tp318
a(S'FISA warrants are supposed to be granted when multiple sources confirm evidence of a crime. This warrant didn\'t have that\n\nYou will notice the Mueller investigation is focusing on "Obstruction" because the Russia collusion related crimes are not there\n\n#ThursdayThoughts'
p319
S'3:59 AM - 1 Feb 2018'
p320
tp321
a(S"it's been OVER A YEAR and ZERO has been found re: Trump/Russia collusion; conversely, plenty has been found re: Clinton/Russia/FBI/DOJ/Obama collusion. FYI Manafort indicted 4 money laundering during tenure @ Podesta grp & totally UNRELATED to time w/Trump #FactsFirst"
p322
S'1:09 AM - 1 Feb 2018'
p323
tp324
a(S"Why, you can find it here and there! \nYou can find Russia collusion anywhere!\nYou can find it in liberal dreams!\nYou can find it in Facebook memes!\nYou can find it on TV!\nI'm in Congress! Listen to me!\nYou can smell it! Take a sniff! \nWhat's that you say? It smells like #Schiff?pic.twitter.com/0OiWi468qe"
p325
S'12:08 AM - 1 Feb 2018'
p326
tp327
a(S'I\xe2\x80\x99ve been saying I really want to talk to #RobertMueller to prove that I\xe2\x80\x99m innocent of collusion with #Russia & obstruction of justice! But then I remembered that I\xe2\x80\x99m TOTALLY guilty of both, so there\xe2\x80\x99s no way I\xe2\x80\x99m meeting with him! Plus my #BoneSpurs are acting up again!'
p328
S'9:32 PM - 31 Jan 2018'
p329
tp330
a(S'The head of Russia\xe2\x80\x99s spy agency is banned from entering the United States and Rex Tillerson\xe2\x80\x99s State Department allowed him to enter the country and secretly meet with CIA Director. No collusion, there\xe2\x80\x99s no collusion.'
p331
S'9:20 PM - 31 Jan 2018'
p332
tp333
a(S'BOOM! IT\xe2\x80\x99S WORSE THAN WE THOUGHT! Everything we were told by #FBI & #DOJ is not a lie, it \xe2\x80\x98s all backwards! Yes there was collusion with #Russia...BY #OBAMA & #HILLARY AGAINST #TRUMP! Pristine clean #FBI #DOJ? JOKE! Agencies weaponized by Obama to attack #Republicans. MEMO IS OUT'
p334
S'10:11 AM - 2 Feb 2018'
p335
tp336
a(S'The tremendous political bias against President  Trump by Steele and his continued meetings with Ohr continued to keep the false Russia Collusion story going Circular reporting was used to help get the warrant which is illegal. #WeNeedJustice https://twitter.com/foxnews/status/959481066506604550\xc2\xa0\xe2\x80\xa6'
p337
S'10:00 AM - 2 Feb 2018'
p338
tp339
a(S'There was a time during the 2016 campaign that Hillary started accusing Trump of Russia collusion. I would like all her campaign emails subpoenaed, along with that of the top brass of the FBI, to find out if there was some coordination between the campaign and the FBI and Obama!'
p340
S'6:52 AM - 2 Feb 2018'
p341
tp342
a(S'REAL Russian collusion: A Democrat was arrested for actually accepting checks from Russia Joy Cooper the mayor of Hallandale Beach FL is out on $12K bond after been arrested for accepting illegal campaign contributions from Russians in a FBI sting She\xe2\x80\x99s currently awaiting trial'
p343
S'4:07 AM - 2 Feb 2018'
p344
tp345
a(S'The media normalized Hillary\xe2\x80\x99s wiping of an illegal server containing classified info & smashing of cell phones...\n\nBut convinced Democrats of widespread Trump Russia collusion with no evidence\n\nThere\xe2\x80\x99s a lot of money & strategy going on behind the scenes to push specific agendas'
p346
S'1:01 AM - 2 Feb 2018'
p347
tp348
a(S'TRUTH COMING OUT!\nGOP case: FBI probe based on tainted evidence linked to Clinton! False Clinton info generated Unlawful #FISAWarrant and Baseless Russia collusion probe!\n#FBICorruption\n#FisaAbuseMemo\n#SteeleDossierhttp://thehill.com/homenews/administration/371929-gop-case-fbi-probe-based-on-tainted-evidence-linked-to-clinton\xc2\xa0\xe2\x80\xa6'
p349
S'6:44 PM - 1 Feb 2018'
p350
tp351
a(S'Its real simple, folks: \n\nIf no "meddling" then no "collusion."\n\nRussia did not hack the DNC emails: http://g-2.space\xc2\xa0\n\nThere was no sophisticated Russian disinfo campaign: https://www.ineteconomics.org/uploads/papers/Ferg-Jorg-Chen-INET-Working-Paper-Industrial-Structure-and-Party-Competition-in-an-Age-of-Hunger-Games-8-Jan-2018.pdf\xc2\xa0\xe2\x80\xa6\n\nYou #RemoveNunes people are fucking insane. #ReleaseTheMemo ffs. pic.twitter.com/hKtD0xkPYR'
p352
S'6:21 PM - 1 Feb 2018'
p353
tp354
a(S"The entire Russian collusion is fake news.  Russia didn't hack the DNC server it was an inside job.  The fake dossier was composed by Russian agents.  Putin would want his friend Hillary as President, she's pay to play."
p355
S'6:19 PM - 1 Feb 2018'
p356
tp357
a(S"What's the problem? Leakers within the Russia collusion investigation have been illegally releasing information to @CNN and others in the #fakenews MSM for almost a year and you've had no problem with that. Now your hair is on fire about the legal release of a summary memo?  :Dpic.twitter.com/StIxkiGVQl"
p358
S'4:43 PM - 1 Feb 2018'
p359
tp360
a(S'Trump: \xe2\x80\x9cFine, investigate Russia collusion. I got nothing to hide.\xe2\x80\x9d\n\nDems, FBI, DOJ: \xe2\x80\x9cDon\xe2\x80\x99t tell the American people what we\xe2\x80\x99ve been up to!\xe2\x80\x9d\n\n#ReleaseTheMemo\n#FullTransparency\n#LockThemAllUp'
p361
S'3:30 PM - 1 Feb 2018'
p362
tp363
a(S'"The Memo"\n\nDems plot & MSM coverup?\n\n-HRC/@DNC orders Faux Dossier\n-@FBI/@DOJ uses Dossier for FISA warrant\n-Use info to create Faux Russia collusion\n-Feed to corrupt media\n-Demand Special Prosecutor\n\n@cnn @msnbc @pbs @ap @abc @politico @thehill @WSJ @realDonaldTrump @FoxNewspic.twitter.com/xkgfqdjqnu'
p364
S'3:01 PM - 1 Feb 2018'
p365
tp366
a(S'Comrade Devin Nunes: Trump / Russia: MONEYLAUNDERING \xe2\x80\xa2 #denial #diversion #Collusion #complicit #COMRADE #ComradeTrump #TrumpRussia #alternativefacts #moneylaundering #criminal #deutschebank #sberbank #vebbank #alphabank #vtbBank #Republican #sanctions #DevinNunes #TraitorNunespic.twitter.com/WUvFVqhXW0'
p367
S'12:14 PM - 1 Feb 2018'
p368
tp369
a(S'\xe2\x80\x9cAs instruments of executive action taken by President Obama, the current sanctions against Russia could be eased or eliminated by the Trump Administration without Congress.\xe2\x80\x9d\n\n@JonesDay \nAugust 3, 2017\nRepresenting Trump campaign for collusion with Russia\nhttp://m.jonesday.com/president-trump-signs-new-sanctions-legislation-into-law-08-03-2017/\xc2\xa0\xe2\x80\xa6pic.twitter.com/28Z5sWt4mI'
p370
S'9:41 AM - 1 Feb 2018'
p371
tp372
a(S"Anyone else wonder why the media blackout on the Las Vegas shooter? Why on earth have the networks seemingly forgotten this tragedy, yet continued to hammer on the Russia collusion non-story? Could it be Paddock didn't support their narrative?"
p373
S'8:09 AM - 1 Feb 2018'
p374
tp375
a(S'Proof positive the FISA memo shows no collusion between Trump and Russia. Otherwise the Dems would have leaked it months ago!'
p376
S'7:48 AM - 1 Feb 2018'
p377
tp378
a(S'I keep hearing about separating these two issues:\n\n1) The Mueller probe in to Russia/Trump Collusion.\n2) The FISA meme release.\n\nThey are one in the same. If the FBI used an unverified dossier to obtain a warrant to spy on Trump. The Mueller Probe is over.'
p379
S'5:50 AM - 1 Feb 2018'
p380
tp381
a(S'\xe2\x80\x9cI only hire the best people\xe2\x80\x9d\n@realdonaldtrump\n\xe2\x80\x9cMy campaign has had zero contacts with Russia zero\xe2\x80\x9d\n@realdonaldtrump\n\xe2\x80\x9cThere\xe2\x80\x99s no obstruction! No Collusion\xe2\x80\x9d\n@realdonaldtrump\n\xe2\x80\x9cBring me a bill & I\xe2\x80\x99ll sign it. I\xe2\x80\x99ll take the hit\xe2\x80\x9d\n@realdonaldtrump\n\xe2\x80\x9cI won\xe2\x80\x99t make anything from tax cuts\xe2\x80\x9d'
p382
S'3:53 AM - 1 Feb 2018'
p383
tp384
a(S'Russia collusion has officially replaced global warming as the left\xe2\x80\x99s new religion.\nMueller Zeros'
p385
S'3:16 AM - 1 Feb 2018'
p386
tp387
a(S'Why, b/c it will make the very agency falsely accusing @POTUS of Russia Collusion look like crap? \n#ReleaseTheMemo'
p388
S'10:46 PM - 31 Jan 2018'
p389
tp390
a(S"The Obstruction Case ? How can you have Obstruction case of a crime they haven't even found yet? Where did the Russia Collusion narrative go?"
p391
S'4:40 PM - 1 Feb 2018'
p392
tp393
a(S'How many indictments for Russia collusion? pic.twitter.com/DS6kq3qjj8'
p394
S'4:25 PM - 1 Feb 2018'
p395
tp396
a(S'The Obstruction Case is just another hoax concocted by Democrats & the fakenews msm  because The Russia Collusion Case failed. Only brainless liberal sheeples believe otherwise \n#ReleaseTheMemo'
p397
S'3:28 PM - 1 Feb 2018'
p398
tp399
a(S"The lawyers for Rick Gates have quit his case. Weird, if the Russia collusion scandal is a witch hunt, you'd think they'd want to keep making money for an easy win.\n#MAGA"
p400
S'3:15 PM - 1 Feb 2018'
p401
tp402
a(S'I think the most important lesson from this Russia investigation that is being missed is that even if there ends up being no collusion we are screaming to Putin \xe2\x80\x9cinfiltrate our government & nothing will be done about it.\xe2\x80\x9d'
p403
S'3:03 PM - 1 Feb 2018'
p404
tp405
a(S"@SpeakerRyan why would Nunes be trusted? Or you, Trump? Any of his administration? It's an obvious attempt to obstruct or delay the investigation. AGAIN.. we're talking about RUSSIA interfering and collusion. RUSSIA!! When will that sink in??"
p406
S'1:17 PM - 1 Feb 2018'
p407
tp408
a(S".@RepAdamSchiff\n Leaked the Trump Jr. email\n Sponsored bill giving FISA Court appointments to Obama\n Continues to push the debunked Russia collusion hoax\n Fully supports Antifa domestic terrorism\nQuite Frankly, he's a #PieceofSchiff, that I can tell you #ReleaseTheMemopic.twitter.com/xefhbP21Cp"
p409
S'12:54 PM - 1 Feb 2018'
p410
tp411
a(S"Here's what I think the Nunes memo reveals. That the FBI realized that Carter Page was dumber than a sack of potatoes and alone was not evidence of Trump/Russia collusion, so they had to reach and dig and use the Steele and Shearer dossiers, unverified opposition research."
p412
S'12:38 PM - 1 Feb 2018'
p413
tp414
a(S'Comrade Trump / Russia: MONEYLAUNDERING \xe2\x80\xa2 #denial #diversion #Collusion #complicit #COMRADE #ComradeTrump #TrumpRussia #alternativefacts #moneylaundering #criminal #deutschebank #sberbank #vebbank #alphabank #vtbBank #Republican #sanctions #DevinNunes #TraitorNunes #TraitorTrumppic.twitter.com/wSsBtvy4V1'
p415
S'12:15 PM - 1 Feb 2018'
p416
tp417
a(S'Look, we get it. The name "Hillary Clinton" cause the media\'s eyes to light up like a kid at the sight of their parent jiggling the car keys but at some point they need to recognize these stories appear every time there\'s a new revelation about Trump\'s collusion with Russia.'
p418
S'11:20 AM - 1 Feb 2018'
p419
tp420
a(S'MUELLER WILL NOT BE FIRED...He will eventually conclude his investigation...finding Trump not involved in collusion with Russia..Mueller will be ..castigated..by Democrats with a call for another investigator that they pick.The fact that Mueller is a republican,will be their cry.'
p421
S'10:39 AM - 1 Feb 2018'
p422
tp423
a(S'Russia collusion: ZERO proof. \n\nObama admin illegally spying: The memo will tell us. \n\nWhich side of history are you on? Today might be the day you should chose and flip if needed. I\xe2\x80\x99m #MAGA #ReleaseTheMemo'
p424
S'10:32 AM - 1 Feb 2018'
p425
tp426
a(S'every elected republican official & dictator trump  are literally OWNED by russia. this is why nothing has happened to stop the treason & collusion,still  going on now, since before russia bought the election for dictator trump https://twitter.com/EmmaF_Resists/status/958782432433590272\xc2\xa0\xe2\x80\xa6'
p427
S'9:36 AM - 1 Feb 2018'
p428
tp429
a(S'Dems are holding on for dear life!!! Hahaha they know the memo is going to debunk the \xe2\x80\x9cRussia collusion\xe2\x80\x9d garbage and they\xe2\x80\x99re calling for patriots to be fired! #MAGA'
p430
S'8:18 AM - 1 Feb 2018'
p431
tp432
a(S"This memo is very bad for the #DumbDumbDemocrats. They were hoping to have the cloud of the Russia Collusion Hoax/Scam remain through the midterms. \nIt's all falling apart. Right, ass clown @RepAdamSchiff?\n\nMueller & Rosenstein are going to be exposed as treasonous frauds."
p433
S'7:29 AM - 1 Feb 2018'
p434
tp435
a(S'@newtgingrich: We started off with "Russia collusion" only to find now the @FBI & Justice Dept were colluding against @POTUS.pic.twitter.com/3kbf16owlh'
p436
S'6:43 AM - 1 Feb 2018'
p437
tp438
a(S'@DevinNunes \nLooks Shady! Member of Donny\'s transition team. In March presented "intelligence" report that was written by WH. Makes changes to "Memo" which is inaccurate & misleading. Trying to block Mueller Investigation to cover his tracks. All points to his collusion w Russia. pic.twitter.com/IWYx1QfEJ8'
p439
S'6:40 AM - 1 Feb 2018'
p440
tp441
a(S'Patriots, for National Freedom Day take off the blinders of the state run media and realize the real conspiracy theory is the one about Trump/Russia collusion.  DEEP STATE IN PANIC because Americans are helping Americans to see the truth! CNN and MSNBC are #FullofSchiffpic.twitter.com/OgpJaSWZ7n'
p442
S'6:33 AM - 1 Feb 2018'
p443
tp444
a(S'If the #FISAMemo exposed Trump collusion with Russia, does ANYONE believe the #Democrats would be fighting to hide it?'
p445
S'6:30 AM - 1 Feb 2018'
p446
tp447
a(S'Even leftist media is starting to realize the "Russia collusion" narrative is a total hoax http://www.breitbart.com/big-government/2018/01/31/wasinger-as-russia-narrative-implodes-establishment-targets-trump-loyalists-to-impede-trump-agenda/\xc2\xa0\xe2\x80\xa6'
p448
S'6:00 PM - 31 Jan 2018'
p449
tp450
a(S'Before anybody decides to #RemoveNunes, America needs to get rid of bug-eyed Russia collusion hoaxster, @RepAdamSchiff\n#ReleaseTheMemo Expose the\n#TrumpRussiaConspiracy\nand #Obamagate #PieceofSchiffpic.twitter.com/4NJWpdjyKw'
p451
S'12:38 PM - 1 Feb 2018'
p452
tp453
a(S"Watch this. Share it. Our nation is in danger, and the enemy is Trump! 'Russia Spy Chiefs Met In U.S. With Donald Trump Officials Last Week' - from Rachel Maddow | MSNBC - YouTube https://www.youtube.com/watch?v=4RIeL5VEGlw&feature=youtu.be\xc2\xa0\xe2\x80\xa6 #ThursdayThoughts #Treason #Collusion #Obstruction #TrumpRussia"
p454
S'9:26 AM - 1 Feb 2018'
p455
tp456
a(S'Apparently the one who was and is so eager to release any little indication of a Trump/Russia collusion now wants Nunes to be removed, even though she doesn\xe2\x80\x99t even know what\xe2\x80\x99s in the memo.\n#ReleaseTheMemo'
p457
S'7:52 AM - 1 Feb 2018'
p458
tp459
a(S'So the strategy\'s to draft #Nunesfakememo to discredit FBI & FISA? Carter Page was on radar BEFORE dossier as Russian agent & neutral Judge found PROBABLE CAUSE for FISA.\n\nWhy did TrumpRussia conspirators give up on the "no collusion" strategy?\n\nhttps://www.wsj.com/articles/former-trump-aide-carter-page-was-on-u-s-counterintelligence-radar-before-russia-dossier-1517486401\xc2\xa0\xe2\x80\xa6 via @WSJ'
p460
S'7:20 AM - 1 Feb 2018'
p461
tp462
a(S'"There\'s no evidence that Vanetik is under investigation...or that he factors into the ongoing probes of possible collusion between Russia and Trump campaign officials.\n\nBut Vanetik has operated in the same sphere as some figures in the Trump-Russia saga, including Paul Manafort"'
p463
S'5:33 AM - 1 Feb 2018'
p464
tp465
a(S'28 Russians had their doping charges overturned.\nPutin had American sanctions overturned.\n\nRussia is winning.    \n\n#collusion'
p466
S'4:38 AM - 1 Feb 2018'
p467
tp468
a(S"I mean let's be fair, who among us hasn't had Hope Hicks obstruct justice in order to help cover up our collusion with Russia?"
p469
S'2:47 AM - 1 Feb 2018'
p470
tp471
a(S"IF what we are hearing about the Fisa Memo is true, that there WAS 'Interference in the Elections' but it wasn't Russia, it was collusion between the Clinton Campaign and top level bureaucrats from Intel Agencies, would you be surprised?"
p472
S'10:41 PM - 31 Jan 2018'
p473
tp474
a(S'This is obviously a very important matter regarding the Trump/Russia collusion. https://twitter.com/DisavowTrump16/status/958776709830070272\xc2\xa0\xe2\x80\xa6'
p475
S'9:33 PM - 31 Jan 2018'
p476
tp477
a(S'After memo released, ventilator for \xe2\x80\x9cRussia Collusion\xe2\x80\x9d will be beyond repair. Guess you underestimated that there are STILL a few good men NOT owned by #DeepState and have the courage to do what most yellow-backed cowards in Congress will not!'
p478
S'9:00 PM - 31 Jan 2018'
p479
tp480
a(S'Who knew....the collusion was between Killary and the FBI? and Russia....and the DNC....'
p481
S'7:46 PM - 31 Jan 2018'
p482
tp483
a(S"So a fake president who was helped to steal power by Russia (a fake democracy ruled by a killer) is using a #fakememo to undermine a legitimate FBI investigation into collusion with Russia, treason and money laundering.  \n\nSurely there's one or two crimes in all that? pic.twitter.com/1mXOqpEmKi"
p484
S'7:26 PM - 31 Jan 2018'
p485
tp486
a(S'A Republican President & a Republican Congress are voraciously attacking the integrity of their own Republican-led DOJ (Sessions & Rosenstein) and a Republican-led FBI (Wray) to distract us from the Republicans collusion w/Russia.  \n\nYet they\xe2\x80\x99re blaming it all on the Democrats!'
p487
S'6:56 PM - 31 Jan 2018'
p488
tp489
a(S"It seems a bit farcical that the Mueller investigation has moved on from non-existent collusion with Russia to allegations that there was obstruction of justice in an effort to stop an investigation into something that didn't happen"
p490
S'6:37 PM - 31 Jan 2018'
p491
tp492
a(S'What a Hack: CNN\xe2\x80\x99s Preston Claims \xe2\x80\x98People Are Consumed With\xe2\x80\x99 Trump-Russia Collusion Story (VIDEO) https://truepundit.com/hack-cnns-preston-claims-people-consumed-trump-russia-collusion-story-video/\xc2\xa0\xe2\x80\xa6'
p493
S'6:15 PM - 31 Jan 2018'
p494
tp495
a(S'"Do I have your loyalty?"\n"Are you on my team?" \n"Let Flynn go!"\n"I fired Comey because of fake Russian Collusion!"\n"Fire Mueller!" \n"It was about adoptions!"\n"I or no one in my campaign had contacts with Russians!"\n"No business dealings with Russia!\n#Impeach45pic.twitter.com/5iwO6uj8Z4'
p496
S'5:51 PM - 31 Jan 2018'
p497
tp498
a(S'Russia sanctions not enforced, Pompeo meets with Russian spies: \nCoincidence or Collusion? #innerspic.twitter.com/kWPLpF7L6C'
p499
S'5:48 PM - 31 Jan 2018'
p500
tp501
a(S'This did not age well. #Russia #Collusion pic.twitter.com/H3CUKbK78K'
p502
S'5:31 PM - 31 Jan 2018'
p503
tp504
a(S'This is why it\xe2\x80\x99s so critical to let Mueller\xe2\x80\x99s investigation proceed unhindered. There\xe2\x80\x99s a lot of circumstantial reason to believe in collusion with Russia. We can\xe2\x80\x99t move forward as a country without answers. https://twitter.com/bobbrigham/status/958840661255471104\xc2\xa0\xe2\x80\xa6'
p505
S'4:43 PM - 31 Jan 2018'
p506
tp507
a(S'Russia Russia Russia - Mueller Mueller Mueller... \n\nI\xe2\x80\x99m still trying to figure out why a special counsel was appointed to investigate \xe2\x80\x9ccollusion\xe2\x80\x9d which isn\xe2\x80\x99t even a prosecutable crime!'
p508
S'9:16 PM - 31 Jan 2018'
p509
tp510
a(S'What a Hack: CNN\xe2\x80\x99s Preston Claims \xe2\x80\x98People Are Consumed With\xe2\x80\x99 Trump-Russia Collusion Story (VIDEO) https://truepundit.com/hack-cnns-preston-claims-people-consumed-trump-russia-collusion-story-video/\xc2\xa0\xe2\x80\xa6\nTHEY ARE THE ONES CONSUMED WITH A FAKE STORY!'
p511
S'9:08 PM - 31 Jan 2018'
p512
tp513
a(S'Starting, lol it started when you @RepAdamSchiff told everyone that you had proof of collusion between Russia and #Trump. But what Rep. Schiff very likely already knew, was Obama HRC DOJ DNC FBI Fusion GPS all colluded against Trump. #ReleaseTheMemo'
p514
S'8:48 PM - 31 Jan 2018'
p515
tp516
a(S'The \xe2\x80\x9cMob Chart" below looks much better than mine but here is mine, for what it\'s worth. I\'m interested in showing the flow of money and information in the \xe2\x80\x9cTrump-Russia Collusion\xe2\x80\x9d narrative. As you mentioned earlier, this goes way beyond the FBI. pic.twitter.com/X0RDTBu3ym'
p517
S'8:39 PM - 31 Jan 2018'
p518
tp519
a(S'Stunning Report: FBI Deputy Director Andrew McCabe Caught Leaking After Admitting "Trump-Russia" Collusion Story Was "Bullsh*t" http://thegatewaypundit.com/2018/01/stunning-report-fbi-deputy-director-andrew-mccabe-caught-leaking-admitting-trump-russia-collusion-story-bullsht/\xc2\xa0\xe2\x80\xa6'
p520
S'7:51 PM - 31 Jan 2018'
p521
tp522
a(S"Tonight's Hope Hicks news shows how seamlessly they changed the narrative from Russia collusion to obstruction, nevermind the fact they spent a year + telling you Trump is an undercover Kremlin agent."
p523
S'7:48 PM - 31 Jan 2018'
p524
tp525
a(S'Its been more than a year and still not a scrape of evidence about Trump  russia collusion... unless you are referring to hillary and russia... then yes, tons of evidence.  The memo scares the libs and its being released. \n#ReleaseTheMemo'
p526
S'7:31 PM - 31 Jan 2018'
p527
tp528
a(S'I suspect it will not be all it\'s been hyped up to be; however, I do believe it will demonstrate that Russian collusion was orchestrated by the democrats. I used to say, "Why is it that every Russia story has a Clinton crony linked to it?" I am confident they are not innocent!'
p529
S'7:17 PM - 31 Jan 2018'
p530
tp531
a(S'Dan, Didn\xe2\x80\x99t Hillary go to Russia? Get paid by Russia? Sell uranium? Hit reset button? Sounds like collusion to me.'
p532
S'7:08 PM - 31 Jan 2018'
p533
tp534
a(S'The stakes -free and fair elections \nRule of law - obstruction of justice -\nSeparation of powers -\nCharges against trump of potential treason - not hyperbolic to call trump a  actual Manchurian candidate  if coordination collusion with Russia proved  \nStakes could not be higher- https://twitter.com/MiekeEoyang/status/958895127979790336\xc2\xa0\xe2\x80\xa6'
p535
S'6:56 PM - 31 Jan 2018'
p536
tp537
a(S'Advanced copy of The Memo:\n"Pres Trump is a very good president w/ huge crowds at his inauguration-bigger than ANY crowds of ANY other president. And there is no collusion w/ Russia, even though Putin is a wonderful guy. This is all Hillary\'s fault." lol #maddow #ImpeachTheMoron'
p538
S'6:53 PM - 31 Jan 2018'
p539
tp540
a(S"Oh Trump cares alright BUT Putin has him by his junk.  Putin has the dirt on Trump and can cause further chaos to America's democracy if he spills the beans on the collusion. That's why Trump hasn't firmly punished Russia or firmly criticized Putin like any US president would."
p541
S'6:18 PM - 31 Jan 2018'
p542
tp543
a(S'Here we go AGAIN! Somebody had to have COLLUSION with Russia!!!'
p544
S'6:18 PM - 31 Jan 2018'
p545
tp546
a(S'Add...\nSarah Sanders calls the probe into potential collusion between the Trump campaign and Russia "a total hoax" and "a waste of taxpayer money," but says the White House wants to see it through.\n\nNational Security Advisor PLED GUILTY to a crime; Campaign chair was INDICTED pic.twitter.com/oTOKJZ7itC'
p547
S'6:10 PM - 31 Jan 2018'
p548
tp549
a(S"MSNBC panel lays out how Trump\xe2\x80\x99s posture towards Russia shows collusion may be ongoing. It sounds insane because it's all happening in plain sight. But that's the evil of it. I hope voters never forget who did this. It wasn't just Trump. It was the GOP. https://www.rawstory.com/2018/01/watch-msnbc-panel-lays-trumps-posture-towards-russia-shows-collusion-may-ongoing/\xc2\xa0\xe2\x80\xa6pic.twitter.com/mE3ZFWAyrW"
p550
S'5:46 PM - 31 Jan 2018'
p551
tp552
a(S'They dug this hole. The Trump Russia Collusion investigation should never have taken place. No one is above the law and they all took an oath to the Constitution of the United States of America.'
p553
S'5:37 PM - 31 Jan 2018'
p554
tp555
a(S'You nailed it. Ryan has no spine. I find it ironic that Repubs have been screaming for years about how Libs want US to become Socialist/Communist country & now they turn their heads when Russia"s collusion w/ @realDonaldTrump is so obvious. They\'ll welcome in the totalitarians.'
p556
S'5:13 PM - 31 Jan 2018'
p557
tp558
a(S"'The #Russia investigation started as suspected collusion, now it's about obstruction of justice - it's almost as if some of the people leading the probe want to see #Trump go down any way possible,' @RyanGirdusky tells @ShaynaEstulinpic.twitter.com/iyfH7T9wjZ"
p559
S'5:04 PM - 31 Jan 2018'
p560
tp561
a(S"WATCH: MSNBC panel lays out how Trump's posture towards Russia shows collusion may be ongoing https://www.rawstory.com/2018/01/watch-msnbc-panel-lays-trumps-posture-towards-russia-shows-collusion-may-ongoing/#.WnJboFcVD84.twitter\xc2\xa0\xe2\x80\xa6"
p562
S'4:13 PM - 31 Jan 2018'
p563
tp564
a(S'So the Resistance is all in on obstruction of justice LOL what happened to russia collusion .. btw the obstruction of justice case is very weak lol'
p565
S'7:06 PM - 31 Jan 2018'
p566
tp567
a(S'Congress passed sanctions against Russia to rebuff their attacks on our country\xe2\x80\x99s elections. Refusing to enforce these laws is treasonous, and doing it while under investigation for possible collusion with Russia is a guilty plea. #resist #TrumpRussia #AmericaFirst #USA #America'
p568
S'6:31 PM - 31 Jan 2018'
p569
tp570
a(S"This guy just rubs me wrong there's nothing to me about him full of s*** what's his name that's how full of s*** is tip of my tongue\nParker what Parker something\nLike I said Spider-Man villain\nHe a classic Hitchman igar he went the Russia collusion proven\nNot smart an errand boy!"
p571
S'6:24 PM - 31 Jan 2018'
p572
tp573
a(S'What a Hack: CNN\xe2\x80\x99s Preston Claims \xe2\x80\x98People Are Consumed With\xe2\x80\x99 Trump-Russia Collusion Story (VIDEO) https://truepundit.com/hack-cnns-preston-claims-people-consumed-trump-russia-collusion-story-video/\xc2\xa0\xe2\x80\xa6'
p574
S'6:15 PM - 31 Jan 2018'
p575
tp576
a(S'The most damning fact proving Trumps guilt -he made up a story about adoptions to coverup collusion with Russia.'
p577
S'6:14 PM - 31 Jan 2018'
p578
tp579
a(S'Isnt the investigation about collusion with russia during the campaign?'
p580
S'6:05 PM - 31 Jan 2018'
p581
tp582
a(S'Conservatives warned Democrats that if you kept that stupid fake Russia Collusion story going a real investigation would blow back on the Dems.  BRING ON THE MEMO'
p583
S'5:47 PM - 31 Jan 2018'
p584
tp585
a(S"The difference between the memo and the Russia investigation is very easy to explain. The Republicans have ACTUAL EVIDENCE to base the memo on. To date, the Democrats and Robert Mueller have not found ANY EVIDENCE of Russian collusion.. and it's been over a year! #ReleaseTheMemo"
p586
S'5:44 PM - 31 Jan 2018'
p587
tp588
a(S'Probably collusion with Russia during transition.'
p589
S'5:36 PM - 31 Jan 2018'
p590
tp591
a(S'If you think that today\'s train collision with a garbage truck is a liberal conspiracy, but that the overwhelming evidence of collusion between Russia and the POSOTUS / potential obstruction of justice is "fake news", then you may be a fucking idiot.'
p592
S'5:28 PM - 31 Jan 2018'
p593
tp594
a(S"#TrumpRussiaConspiracy #RussiaSanctions #TrumpLies & #Corruption \nWATCH: @MSNBC panel lays out how Trump's posture towards Russia shows collusion may be ongoing https://www.rawstory.com/?p=1209285\xc2\xa0 via rawstory"
p595
S'4:55 PM - 31 Jan 2018'
p596
tp597
a(S'So it doesn\'t end w/the #SteeleDossier. Shearer independently came up w/story of #PissingHookers kompromat and other material that overlaps w/Steele.\nIOW, "everyone but trump is a liar".\nAGAIN.\n\nhttps://www.theguardian.com/us-news/2018/jan/30/trump-russia-collusion-fbi-cody-shearer-memo\xc2\xa0\xe2\x80\xa6'
p598
S'4:45 PM - 31 Jan 2018'
p599
tp600
a(S'Pretty sad the FBI would want to conceal to the American People THE FISA ABUSES, which likely contributed to a special counsel & would allow a FAKE Russia Collusion Investigation to continue if the memo turns out to be true!! ARE THERE PATRIOTS AT THE UPPER-LEVELS OF FBI? https://twitter.com/JackBaileyUSA/status/958824205121974273\xc2\xa0\xe2\x80\xa6'
p601
S'4:22 PM - 31 Jan 2018'
p602
tp603
a(S'I remember Watergate and of course Clinton.   It seems to me that the collusion and vote rigging is far more serious.  Until 1990 America was at war (\xe2\x80\x9ccold\xe2\x80\x9d) with Russia'
p604
S'4:09 PM - 31 Jan 2018'
p605
tp606
a(S'Cody Shearer, a shadowy figure dubbed \xe2\x80\x9cMr. Fixer\xe2\x80\x9d for Bill and Hillary Clinton, and Clinton defender Sidney Blumenthal have suddenly emerged in the Trump-Russia collusion saga. http://www.washingtontimes.com/news/2018/jan/31/cody-shearer-sidney-blumenthal-emerge-russia-dossi/\xc2\xa0\xe2\x80\xa6 #Dossier #ChristopherSteele #ReleaseThe Memo'
p607
S'4:07 PM - 31 Jan 2018'
p608
tp609
a(S"What's funny is the Trump-Russia collusion BS because Hillary lost.  pic.twitter.com/P3OidhtAVx"
p610
S'5:27 PM - 31 Jan 2018'
p611
tp612
a(S'Ha ! Targeted by Andy for to prove F..n Russia Collusion that Never happened!? !!'
p613
S'5:22 PM - 31 Jan 2018'
p614
tp615
a(S'Crooked Schiff is headed to the slammer for perpetrating the DNC-funded Russia collusion hoax. #ReleaseTheMemopic.twitter.com/dZZhxEIO2Q'
p616
S'5:21 PM - 31 Jan 2018'
p617
tp618
a(S'They must be scared to go against our justice system!Perhaps theyare afraid Trump is a TRAITOR TO OUR COUNTRY WITH RUSSIA AND ALL HIS COLLUSION CRONIES! OFCOURSE,WE ARE AT WAR WITH RUSSIA!RUSSIA LOVES CHAOS AND TRUMP IS GOOD AT CHAOS!WRECKS EVERYTHING,PAVES THE WAY FOR RUSSIA! pic.twitter.com/1oVIZBvbTu'
p619
S'5:17 PM - 31 Jan 2018'
p620
tp621
a(S'Whatever Wray FBI director says but GOP and Trump is Hell bent on destroying FBI credibility as institution and malign it to extent to intimidate them to derail Mueller probe and give favourable report on Trump and his campaign committee collusion with Russia in US election.'
p622
S'5:13 PM - 31 Jan 2018'
p623
tp624
a(S"Literal proof of @realDonaldTrump collusion with Russia. You're the #Traitor. And 72% of America knows.pic.twitter.com/FG8PfOCy60"
p625
S'5:00 PM - 31 Jan 2018'
p626
tp627
a(S"These 2-Clowns sit there in collusion with Donald as he is in with russia. He is No Moral compass for the Dreamers.He's more like the Nightmare that stole blk people from africa,made them slaves to build this country. Now wants to target them every opportunity for his racist gend pic.twitter.com/HMdYrmtPbC"
p628
S'4:47 PM - 31 Jan 2018'
p629
tp630
a(S'People: \nWhat do you mean everyone pushing the Trump/ Russia collusion narrative lacks credibility?\n\nMe: pic.twitter.com/t8bGsUUJhA'
p631
S'4:46 PM - 31 Jan 2018'
p632
tp633
a(S'Observation on @TheBeatWithAri  : @DevinNunes / staff collusion with WH on Russia memo could put Nunes  in jeopardy of obstruction of justice indictment.'
p634
S'4:39 PM - 31 Jan 2018'
p635
tp636
a(S'Why Media Organizations Can\xe2\x80\x99t Let Go of the Fake Russia-Collusion Narrative https://www.theepochtimes.com/why-media-organizations-cant-let-go-of-the-fake-russia-collusion-narrative_2428201.html\xc2\xa0\xe2\x80\xa6 via @epochtimes'
p637
S'4:26 PM - 31 Jan 2018'
p638
tp639
a(S'And have we found the collusion yet?  I agree that Russia wanted POTUS to win but...just not seeing how DJT colluded with him.'
p640
S'4:25 PM - 31 Jan 2018'
p641
tp642
a(S'Oh he sold his soul  and went all in on destruction of security and rule of law using Nunes In collusion with 45, paid for by Koch brothers in tandem with Russia. Midterms can not come soon enough'
p643
S'4:22 PM - 31 Jan 2018'
p644
tp645
a(S"WATCH: MSNBC panel lays out how Trump's posture towards Russia shows collusion may be ongoing https://www.rawstory.com/2018/01/watch-msnbc-panel-lays-trumps-posture-towards-russia-shows-collusion-may-ongoing/#.WnJdlrhbuSY.twitter\xc2\xa0\xe2\x80\xa6"
p646
S'4:21 PM - 31 Jan 2018'
p647
tp648
a(S"I knew it was set up bcuz of BO's odd rush to go after Russia when he laid down in previous encounters w/ them - then we heard the Russia collusion excuse from Hillary & it was too obvious.  Just no idea it was THIS deep pic.twitter.com/dK6JPfj0Ri"
p649
S'4:19 PM - 31 Jan 2018'
p650
tp651
a(S'It\xe2\x80\x99s been a year, where is the collusion...oh, I see it, between Hillary and Putin, selling Russia our uranium and Billie Cigar Boy getting million dollar speaking fees IN RUSSIA!  The STINK from the Clinton Foundation worse than rotten fish!\nNothing like pay to play!'
p652
S'4:19 PM - 31 Jan 2018'
p653
tp654
a(S'Trump will do everything to help his bro Putin destroy our nation as long as DT gets bailouts for his businesses&stops Russia investigation! Why not force release DJT taxes you sycophantic slithering snake @SpeakerRyan & stop your secret collusion w TRMP? http://www.cnn.com/2018/01/31/politics/donald-trump-devin-nunes-memo/index.html\xc2\xa0\xe2\x80\xa6'
p655
S'4:02 PM - 31 Jan 2018'
p656
tp657
a(S'Collusion or not Russia has been attempting to interfered since 2008 not 2016'
p658
S'4:00 PM - 31 Jan 2018'
p659
tp660
a(S'Those indictments have nothing to do with Russia, collusion, or obstruction.'
p661
S'4:00 PM - 31 Jan 2018'
p662
tp663
a(S"I'll go with none of the above. It's an attempt, by #FakeNews, to keep to Trump Russia collusion conspiracy theory alive."
p664
S'4:24 PM - 31 Jan 2018'
p665
tp666
a(S'Ya I have no idea why people would believe propaganda outlets like politico when they could watch repeated testimony of intelligence agencies saying they found no evidence. Maybe the sheeple just need the msm to think for them.https://youtu.be/7bqzEpRR4n8\xc2\xa0'
p667
S'4:20 PM - 31 Jan 2018'
p668
tp669
a(S'And this doesn\xe2\x80\x99t even include his collusion with Russia @realDonaldTrump he\xe2\x80\x99ll be locked up for obstruction alone. \xe2\x80\x9cI fought the law and the law won\xe2\x80\x9d'
p670
S'4:20 PM - 31 Jan 2018'
p671
tp672
a(S"Trump isn't even hiding his deep affiliation with Russia, he's ushering them into the peoples White House. He's waste deep in collusion with our biggest foe. @GOP does nothing. Vote them out then impeach Trump.https://twitter.com/CREWcrew/status/958731802969018368\xc2\xa0\xe2\x80\xa6"
p673
S'4:18 PM - 31 Jan 2018'
p674
tp675
a(S'They have the same amount of evidence that it was aliens, as they do for Russia collusion. pic.twitter.com/EMW1xNhL2n'
p676
S'4:17 PM - 31 Jan 2018'
p677
tp678
a(S'He did Stand Down When Hillary told him to Bernie Sanders knew something was going on  the FBI Hillary the collusion with Hillary and Russia'
p679
S'4:16 PM - 31 Jan 2018'
p680
tp681
a(S'There is still no proof of Trump Russia collusion.'
p682
S'4:16 PM - 31 Jan 2018'
p683
tp684
a(S'You look like a fool tonight on the five and the only collusion everybody see so far is Democrats with Russia'
p685
S'4:14 PM - 31 Jan 2018'
p686
tp687
a(S"Couldn't condemn SOTU so  CNN goes with collusion, obstruction, Russia Russia Russia"
p688
S'4:12 PM - 31 Jan 2018'
p689
tp690
a(S'I so want to hear @maddow talk about the SECOND Trump/Russia dossier, as reported by @GuardianUShttps://goo.gl/V9jJUv\xc2\xa0'
p691
S'4:12 PM - 31 Jan 2018'
p692
tp693
a(S'A dossier which is corroborated by a second independently researched dossier https://www.theguardian.com/us-news/2018/jan/30/trump-russia-collusion-fbi-cody-shearer-memo?CMP=share_btn_tw\xc2\xa0\xe2\x80\xa6'
p694
S'4:12 PM - 31 Jan 2018'
p695
tp696
a(S"WATCH: MSNBC panel lays out how Trump's posture towards Russia shows collusion may be ongoing https://www.rawstory.com/2018/01/watch-msnbc-panel-lays-trumps-posture-towards-russia-shows-collusion-may-ongoing/#.WnJaUT2jgSs.twitter\xc2\xa0\xe2\x80\xa6"
p697
S'4:07 PM - 31 Jan 2018'
p698
tp699
a(S'This would be no problem if it wasnt for hillary selling URANIUM  to Russia. Buy Fake dossier from Russia. This will bring  all of you down\nObama/her responsible for collusion with Russia\nWe are smarter than Schiff says we are. No double  talk  will change it.'
p700
S'4:04 PM - 31 Jan 2018'
p701
tp702
a(S'Zzzzz Seriously, you people need to realize that there was no collusion between Trump & Russia. However, you might find it between Obama/HRC & Russia.'
p703
S'4:04 PM - 31 Jan 2018'
p704
tp705
a(S'And imagine if there had been evidence of collusion between Russia and Obama, imagine if Obama had been accused by over 20 women of sexual misconduct. Fox news would just be a bunch of white people screaming until they passed out.'
p706
S'4:03 PM - 31 Jan 2018'
p707
tp708
a(S'"ON MY TEAM" ARE YOU GOING TO BE LOYAL TO ME!TRUMP WANTS ANYTHING 2DO WITH RUSSIA 2BE GONE FROM EXISTENCE!DEPUTY AG NO WE\'RE NOT IN THE BUSINESS OF RUSSIAN COLLUSION IS WHAT HE SHOULD OF SAID!\n\nTrump asked Rosenstein if he was \'on my team\' @CNNPoliticshttp://cnn.it/2nvcq4P\xc2\xa0'
p709
S'4:02 PM - 31 Jan 2018'
p710
tp711
a(S"@SenateGOP @HouseGOP Lady Liberty's tears R caused by the corrupt, lying, divisiveness the DEMOCRATS R doing under the fraud of democracy! Collusion with Russia, Corruption of Dems candidate 4 POTUS, ignoring the Constitution DEMS have trampled on! That's her real tears!"
p712
S'4:02 PM - 31 Jan 2018'
p713
tp714
a(S'AMAZING rundown of Russia Collusion and the Trump Dossier https://youtu.be/a1U2RwdgYR8\xc2\xa0 via @YouTube'
p715
S'4:01 PM - 31 Jan 2018'
p716
tp717
a(S'NEWSFLASH: NOBODY cares about Trump/Russia Hoax. Not even #FakeNews who\'ve been caught on camera admitting it\'s a "Nothing Burger". We CARE about the Dem/Russia collusion with the FBI & DOJ. Let\'s all work together to get the right people in prison. #DrainTheSewerpic.twitter.com/AUoumLwTIv'
p718
S'4:01 PM - 31 Jan 2018'
p719
tp720
a(S'FBI has \'grave concerns\' over explosive Russia case memo -FakeNews! NOT "Russia" Memo; Memo is about FBI&Hilliary Collusion/favoritism and biased work against Trump election!!!'
p721
S'4:00 PM - 31 Jan 2018'
p722
tp723
a(S"come on lady, you are surely smart enough to know, that what they pleaded to had NOTHING whatsoever to do with Russia, meddling, or even Trump.  There has been plenty of Russia meddling, and collusion, but it hasn't been with TRUMP.  And even ppl who wont admit it, KNOW it,"
p724
S'4:06 PM - 31 Jan 2018'
p725
tp726
a(S'Don\'t forget repeatedly saying "there was no collusion, no collusion at all between Russia and my team. Dems colluded with Russia, it was all Dems.  There was no collusion from my team, no collusion. Enjoy your massive, bigly YUGE tax breaks!"'
p727
S'4:06 PM - 31 Jan 2018'
p728
tp729
a(S'@marthamaccallum muller was hired to look into Russia collusion not Russia meddling. Your reporter was wrong in his statement. If the fisa does what it says it kills the investigation into trump but also allows the fbi and don to clear house and start fresh. Fire the traitors'
p730
S'4:06 PM - 31 Jan 2018'
p731
tp732
a(S'After Giuliani claimed FBI (GOP) agents were going to rebel if Comey didn\xe2\x80\x99t say something about the damn emails! Those are the agents who should be investigated for possible collusion with Russia along with Nunes'
p733
S'4:04 PM - 31 Jan 2018'
p734
tp735
a(S"The @FreeBeacon trying to reignite the trump collusion dillusion.  Did @FreeBeacon realize most of Russia's involvement in America's election process involves the Dems? Hacking @DNC; Fusiin GPS; HRC's illegal private server. Y'all want to go after her, go for it.https://twitter.com/FreeBeacon/status/958821410453016577\xc2\xa0\xe2\x80\xa6"
p736
S'4:02 PM - 31 Jan 2018'
p737
tp738
a(S'@realDonaldTrump might also answer the hard hitting questions posed by @foxandfriends.https://politics.theonion.com/lawyers-confirm-trump-willing-to-answer-all-of-sean-han-1822607174?utm_content=Pol&utm_campaign=SF&utm_source=Facebook&utm_medium=SocialMarketing\xc2\xa0\xe2\x80\xa6'
p739
S'4:01 PM - 31 Jan 2018'
p740
tp741
a(S'Give it up. Only Russia collusion is with the dems! https://twitter.com/nbcnews/status/958801648826101761\xc2\xa0\xe2\x80\xa6'
p742
S'4:00 PM - 31 Jan 2018'
p743
tp744
a(S"#ENEMIESFOREIGNANDDOMESTIC WATCH: MSNBC panel lays out how Trump's posture towards Russia shows collusion may be ongoing https://www.rawstory.com/2018/01/watch-msnbc-panel-lays-trumps-posture-towards-russia-shows-collusion-may-ongoing/#.WnJYoRgeuAk.twitter\xc2\xa0\xe2\x80\xa6"
p745
S'4:00 PM - 31 Jan 2018'
p746
tp747
a.