(lp0
(S"Proof of Trump's collusion w/Russia. Twin Towers downed in Trump's hometown. Gift sent. (It's as lame as other claims, but a nice gesture.) pic.twitter.com/oCqrzstUOh"
p1
S'4:59 PM - 12 Sep 2017'
p2
tp3
a(S'TruthAnalysis | Hillary Clinton just accused Trump associates of collusion with Russia - The Washington Post https://apple.news/AfIn0qM0jQWKfu6EZ-0Ng2g\xc2\xa0\xe2\x80\xa6'
p4
S'4:57 PM - 12 Sep 2017'
p5
tp6
a(S'Russia collusion:\n\nTrump 1\nHillary 0'
p7
S'4:47 PM - 12 Sep 2017'
p8
tp9
a(S"I can't wait to find out more about Trump and What Happened with Russia. Junior already admitted to Collusion with the Russians."
p10
S'4:43 PM - 12 Sep 2017'
p11
tp12
a(S'No evidence of Trump collusion with Russia, but there\xe2\x80\x99s evidence Trudeau colludes with Allah http://debatepost.com/2017/07/11/no-evidence-of-trump-collusion-with-russia-but-theres-evidence-trudeau-colludes-with-allah/\xc2\xa0\xe2\x80\xa6'
p13
S'4:39 PM - 12 Sep 2017'
p14
tp15
a(S"Lol @funder - & who r you Scott Dworkin? I see in ur bio ur still hoping 4 some Trump-Russia collusion & haven't realized it's fantasy haha"
p16
S'4:39 PM - 12 Sep 2017'
p17
tp18
a(S'Congressman demands Russia-collusion probe \xe2\x80\x93 into Hillary \n\nhttp://po.st/9PScex\xc2\xa0'
p19
S'4:39 PM - 12 Sep 2017'
p20
tp21
a(S"I did an almost impossible thing to do for a Republican-beat Cryin' Chuck Schumer! Now collusion w/ Russia and Trump brought up again?"
p22
S'4:39 PM - 12 Sep 2017'
p23
tp24
a(S'The wild goose chase is the trump Russia collusion they are actually finding mass voter fraud looks like new halos hire was stolen by fraud'
p25
S'4:38 PM - 12 Sep 2017'
p26
tp27
a(S'Open Borders. Higher Taxes. High unemployment. Special prosecutor looking into her Russia/Collusion. Bill in the WH. Sect of State Chelsea'
p28
S'4:31 PM - 12 Sep 2017'
p29
tp30
a(S'If they really cared about election integrity they would join the Russia collusion investigation'
p31
S'4:30 PM - 12 Sep 2017'
p32
tp33
a(S"--> Anne Applebaum: The case for Trump-Russia collusion: We're getting very, very close - WAPO via SLC Tribune http://www.sltrib.com/opinion/commentary/2017/09/09/anne-applebaum-the-case-for-trump-russia-collusion-were-getting-very-very-close/\xc2\xa0\xe2\x80\xa6"
p34
S'4:30 PM - 12 Sep 2017'
p35
tp36
a(S"Now if only you'll confirm your collusion with Russia and the Trump campaign. We all know it. Have the balls to say it."
p37
S'4:28 PM - 12 Sep 2017'
p38
tp39
a(S"Hillary on Trump's collusion with Russia: 'I'm convinced of it' but not a shred of evidence. Full of shit, ears leak https://hotair.com/archives/2017/09/12/hillary-trumps-collusion-russia-im-convinced/\xc2\xa0\xe2\x80\xa6"
p40
S'4:27 PM - 12 Sep 2017'
p41
tp42
a(S"Investigate Hillary's Uranium One Collusion with Russia http://dlvr.it/PVk07j\xc2\xa0 http://ow.ly/PHx1N\xc2\xa0 #MAGA #PJNETpic.twitter.com/YTCCKJcxD1"
p43
S'4:25 PM - 12 Sep 2017'
p44
tp45
a(S'The facts also show NO collusion between Trump and Russia.'
p46
S'4:25 PM - 12 Sep 2017'
p47
tp48
a(S"But GOP don't want to see tax returns or cont. investigation into Trump/Russia collusion. Way to take a stand @GOP. Nothing 2 see here....."
p49
S'4:23 PM - 12 Sep 2017'
p50
tp51
a(S'WikiLeaks PLUS Trump PLUS Russia (Putin) EQUALED collusion, you do the math.'
p52
S'4:20 PM - 12 Sep 2017'
p53
tp54
a(S'#Traitor You are the one who sold 20% of Americas uranium to Russia and are guilty of collusion with Russia! Hang all traitors! #RapistBill'
p55
S'4:19 PM - 12 Sep 2017'
p56
tp57
a(S"For God's sake Senator we are investigating the collusion between our president and Russia, for the sake of our democracy. Give up this BS."
p58
S'4:19 PM - 12 Sep 2017'
p59
tp60
a(S"@RepSwalwell Thank you! it's always helpful when you join MSNBC for hot info on Russia/Trump collusion! Great Chris Matthews had you on!"
p61
S'4:18 PM - 12 Sep 2017'
p62
tp63
a(S'WH is corrupt. Trump/Russia collusion Impeach trump'
p64
S'4:17 PM - 12 Sep 2017'
p65
tp66
a(S"The tweets indicate that 45 followers don't read any of the info re: 45 Russia and collusion and Jr. You read, you know."
p67
S'4:17 PM - 12 Sep 2017'
p68
tp69
a(S"Trump dropped breadcrumbs all through his campaign that lead to his Russian collusion  WikiLeaks, Russia if you're listening,#ETC..."
p70
S'4:14 PM - 12 Sep 2017'
p71
tp72
a(S"Trump promotes violence and hate at his rallies and said he would pay people to harm others. Who's negative? Trump/Russia collusion impeach"
p73
S'4:12 PM - 12 Sep 2017'
p74
tp75
a(S'Hillary/Russia collusion & criminal corruption occurred as well w/ the uranium deal.'
p76
S'4:12 PM - 12 Sep 2017'
p77
tp78
a(S'Obama/Russia collusion happened on tv in front of our eyes before his reelection.'
p79
S'4:12 PM - 12 Sep 2017'
p80
tp81
a(S'Trump/Russia collusion has all but evaporated since there is no objective collusion yet found to this day.'
p82
S'4:11 PM - 12 Sep 2017'
p83
tp84
a(S'Hillary is saying what every other Intelligent American is saying! It absolutely appears 2 be collusion between the Trump Campaign & Russia!'
p85
S'4:10 PM - 12 Sep 2017'
p86
tp87
a(S"Special Counsel Mueller finds alarming signs of collusion bet. Trump's campaign and Russia prior & during elections. http://www.stltoday.com/opinion/editorial/editorial-mueller-finds-alarming-signs-and-sleazy-people-in-collusion/article_3eb6b7e5-68fc-5622-9f1d-197b991b3d79.amp.html\xc2\xa0\xe2\x80\xa6"
p88
S'4:10 PM - 12 Sep 2017'
p89
tp90
a(S'Trump/Russia connection, collusion. Impeach and imprison Trump'
p91
S'4:09 PM - 12 Sep 2017'
p92
tp93
a(S'Mueller is "going for the kill" on #Trump-Russia probe, Republicans believe\nNO COLLUSION TO\n$$ & OBSTRUCTION JUSTICE\nhttp://www.newsweek.com/mueller-trump-russia-investigation-president-663534\xc2\xa0\xe2\x80\xa6pic.twitter.com/spLxgoRvrr'
p94
S'4:07 PM - 12 Sep 2017'
p95
tp96
a(S"Opinion | The case for Trump-Russia collusion: We're getting very, very close http://wapo.st/2xRDBdy?tid=ss_tw&utm_term=.7251cfaafc45\xc2\xa0\xe2\x80\xa6pic.twitter.com/2x8omgTMra"
p97
S'4:06 PM - 12 Sep 2017'
p98
tp99
a(S'The case for Trump-Russia collusion: We\xe2\x80\x99re getting very, very close - The Washington Post https://www.washingtonpost.com/news/global-opinions/wp/2017/09/08/the-case-for-trump-russia-collusion-were-getting-very-very-close/?utm_term=.677247057e95\xc2\xa0\xe2\x80\xa6'
p100
S'4:05 PM - 12 Sep 2017'
p101
tp102
a(S"@realDonaldTrump Further proof of your collusion w/Russia. Couldn't have won without those Commie kleptocrats."
p103
S'4:04 PM - 12 Sep 2017'
p104
tp105
a(S'#Russia Sought A Broad #Reset With #Trump, Secret Document Shows | More #collusion and #treason. How very #Trumphttps://apple.news/AoC8tl5NZTLutlTfHA5oaxQ\xc2\xa0\xe2\x80\xa6'
p106
S'4:01 PM - 12 Sep 2017'
p107
tp108
a(S'Still doubting #Russia collusion?  https://twitter.com/sheeraf/status/907449274077548549\xc2\xa0\xe2\x80\xa6'
p109
S'4:01 PM - 12 Sep 2017'
p110
tp111
a(S'Hillary Clinton just accused Trump \xc2\xa0over collusion with\xc2\xa0Russia http://blogfactory.co.uk/2017/09/12/hillary-clinton-just-accused-trump-over-collusion-with-russia/\xc2\xa0\xe2\x80\xa6'
p112
S'3:59 PM - 12 Sep 2017'
p113
tp114
a(S'@ActonDavid @GeorgWebb @csthetruth \nLooks like the horse race is neck & neck. Awan Contra trumps Russia Collusion!\n\nhttps://conservativetribune.com/breaking-mueller-asked-to-resign/\xc2\xa0\xe2\x80\xa6'
p115
S'3:56 PM - 12 Sep 2017'
p116
tp117
a(S"You need to get out of your libtard bubble. There's no collusion,even someone as dumb as you had to have noticed how quiet MSM got on Russia pic.twitter.com/yMGmt6F6fQ"
p118
S'3:53 PM - 12 Sep 2017'
p119
tp120
a(S"When did they say it wasn't collusion with Russia. When they found stuff"
p121
S'3:52 PM - 12 Sep 2017'
p122
tp123
a(S'Workers and left forces Russia demand to stop policy of collusion bourgeois power Russia with ruling circles US imperialism against DPRK! https://twitter.com/PetrovVacheslav/status/907737816750284800\xc2\xa0\xe2\x80\xa6'
p124
S'3:51 PM - 12 Sep 2017'
p125
tp126
a(S'@POTUS @seanhannity Red Reset to Russia Collusion: Domestic Politics Damage Realist Foreign Policy | National Review http://www.nationalreview.com/article/451262/red-reset-russia-collusion-domestic-politics-damage-realist-foreign-policy\xc2\xa0\xe2\x80\xa6'
p127
S'3:47 PM - 12 Sep 2017'
p128
tp129
a(S"collusion was bet Clinton's&Russia Bill doubles his fees at Russian bank while Uranium 1 deal going down CF got 150mil 4 that scam wakeup"
p130
S'3:46 PM - 12 Sep 2017'
p131
tp132
a(S"Trump helped Russia expose the dishonesty in the Democrat Party! Why didn't the media expose it? Collusion (with Dems)!"
p133
S'3:45 PM - 12 Sep 2017'
p134
tp135
a(S'Everybody is missing the FB and Russia COLLUSION!'
p136
S'3:44 PM - 12 Sep 2017'
p137
tp138
a(S'Your mind is a muddled mess. You said there was collusion with Hillary, which is false. How does that preclude Russia from interfering?'
p139
S'3:43 PM - 12 Sep 2017'
p140
tp141
a(S'Yes we do know, russia, russia, russia, colljsion, collusion, collusion.'
p142
S'3:43 PM - 12 Sep 2017'
p143
tp144
a(S"Hey man, as long as you're willing to accept Trump's collusion with Russia when mueller proves it, sure."
p145
S'3:43 PM - 12 Sep 2017'
p146
tp147
a(S"You're saying there was no collusion between trump and Russia because they reported a differant story? How do you have fans? Do you?"
p148
S'3:42 PM - 12 Sep 2017'
p149
tp150
a(S"I'm glad you admit that there is evidence of collusion by Trumps and Russia.  Isn't that also evidence, Russian hacking of voting machines?"
p151
S'3:42 PM - 12 Sep 2017'
p152
tp153
a(S'But #MuellerIsComing 4  @realDonaldTrump &his RUSSIA TEAM. @GenFlynn @PaulManafort @DonaldJTrumpJr @jaredkushner ...Laundering?Collusion?'
p154
S'3:41 PM - 12 Sep 2017'
p155
tp156
a(S'I think she hopes no one will look at her collusion with Russia. There is more evidence of her collusion than Trump'
p157
S'3:39 PM - 12 Sep 2017'
p158
tp159
a(S"Now does @FoxNews get to call him guilty before there's been a trial or evidence shown like @CNN & @MSNBC do with Trump-Russia Collusion?"
p160
S'3:37 PM - 12 Sep 2017'
p161
tp162
a(S'But #MuellerIsComing 4  @realDonaldTrump &his RUSSIA TEAM. @GenFlynn @PaulManafort @DonaldJTrumpJr @jaredkushner ...Laundering?Collusion?'
p163
S'3:36 PM - 12 Sep 2017'
p164
tp165
a(S'But #MuellerIsComing 4  @realDonaldTrump &his RUSSIA TEAM. @GenFlynn @PaulManafort @DonaldJTrumpJr @jaredkushner ...Laundering?Collusion?'
p166
S'3:35 PM - 12 Sep 2017'
p167
tp168
a(S"Consider the source.  @gop isn't interested in Russia interference or @realDonaldTrump and campaign collusion."
p169
S'3:32 PM - 12 Sep 2017'
p170
tp171
a(S'But why not Russia? oh right, the collusion, the dossier! We arent supposed to mention Russia are we?'
p172
S'3:32 PM - 12 Sep 2017'
p173
tp174
a(S'@FaceVocalBand Today I shut off Facebook. Collusion with Russia and fake news. Shame on you. You sale out our Country!'
p175
S'3:31 PM - 12 Sep 2017'
p176
tp177
a(S'It would also be a denial of collusion between trump campaign and Russia, which jr has already admitted in a goddamn email'
p178
S'3:29 PM - 12 Sep 2017'
p179
tp180
a(S'Voter Fraud investigation has turned up more evidence in 2 months than the 8 months of Russia collusion investigation...'
p181
S'3:29 PM - 12 Sep 2017'
p182
tp183
a(S'DNC Corruption & collusion to oust B Sanders. Destruction of Emails, Sell uranium to Russia, Why is so difficult to understand Melendez https://twitter.com/RedNationRising/status/907725431566163968\xc2\xa0\xe2\x80\xa6'
p184
S'3:25 PM - 12 Sep 2017'
p185
tp186
a(S'the GOP can only win elections by cheating - see gerrymandering, Trump/Russia collusion, voter suppression.'
p187
S'3:25 PM - 12 Sep 2017'
p188
tp189
a(S'Lets give them some thing so they talk about\nTalk about Russia, Trump, Collusion  pic.twitter.com/ejPBFWcfZF'
p190
S'3:25 PM - 12 Sep 2017'
p191
tp192
a(S"Hillary accuse of collusion with Russia http://a.msn.com/01/en-us/AArPdy8?ocid=st\xc2\xa0\xe2\x80\xa6 She started that lie during her campaign but it didn't work out for her!"
p193
S'3:24 PM - 12 Sep 2017'
p194
tp195
a(S'But still doesnt take away from collusion with Russia right ?'
p196
S'3:23 PM - 12 Sep 2017'
p197
tp198
a(S"And still has found nothing. Meanwhile, doing business in Russia isn't collusion"
p199
S'3:22 PM - 12 Sep 2017'
p200
tp201
a(S"@jaredkushner @GOP - America sees your avarice & lies, database misuse, Russia meetings & collusion. We know. You won't get away with it."
p202
S'3:22 PM - 12 Sep 2017'
p203
tp204
a(S"Funny how I haven't heard that Harvey & Irma are somehow part of the Trump/Russia collusion theory. Yet."
p205
S'3:21 PM - 12 Sep 2017'
p206
tp207
a(S'@realDonaldTrump knows all about #Russia and #Collusion. #NotMyPresident'
p208
S'3:19 PM - 12 Sep 2017'
p209
tp210
a(S'His notes that were leaked, started this whole #Witchhunt into Russia Collusion, so to me that seems important. Truth will surface!'
p211
S'3:14 PM - 12 Sep 2017'
p212
tp213
a(S"@realDonaldTrump Yeah but how's that Russia collusion thing going? pic.twitter.com/8H6BitPRxH"
p214
S'3:13 PM - 12 Sep 2017'
p215
tp216
a(S"This is a key part of collusion question for me. Russia doesn't normally understand US politics as well as they did in 2016. What changed?"
p217
S'3:12 PM - 12 Sep 2017'
p218
tp219
a(S"AND COLLUSION with Russia!\nYes, I BELIEVE IT'S TRUE!"
p220
S'3:10 PM - 12 Sep 2017'
p221
tp222
a(S"It's like the Russia collusion, but with pedofilia..."
p223
S'3:10 PM - 12 Sep 2017'
p224
tp225
a(S"That's well and good but how about Russia Collusion by the resident of our WH? If it potentially affects their  they jump through hoops!"
p226
S'3:10 PM - 12 Sep 2017'
p227
tp228
a(S"Man you seriously need to get some help. The Russia collusion narrative is over. It didn't happen, you look like a psycho at this point."
p229
S'3:10 PM - 12 Sep 2017'
p230
tp231
a(S'Incoming "Trump and Russia collusion." accusations.'
p232
S'3:08 PM - 12 Sep 2017'
p233
tp234
a(S"Hillary on Trump's collusion with Russia: 'I'm convinced of it' - Hot Air https://hotair.com/archives/2017/09/12/hillary-trumps-collusion-russia-im-convinced/\xc2\xa0\xe2\x80\xa6"
p235
S'3:07 PM - 12 Sep 2017'
p236
tp237
a(S'Workers and left forces Russia condemn policy of collusion of bourgeois power of Russia with ruling circles imperialism US against the DPRK! https://twitter.com/tassagency_en/status/907597169783300097\xc2\xa0\xe2\x80\xa6'
p238
S'3:07 PM - 12 Sep 2017'
p239
tp240
a(S'Analysis | Hillary Clinton just accused Trump associates of collusion with Russia http://wapo.st/2y2DSeK?tid=ss_tw&utm_term=.a9e91080a011\xc2\xa0\xe2\x80\xa6'
p241
S'3:04 PM - 12 Sep 2017'
p242
tp243
a(S'Red Reset to Russia Collusion: Domestic Politics Damage Realist Foreign Policy | National Review http://www.nationalreview.com/article/451262/red-reset-russia-collusion-domestic-politics-damage-realist-foreign-policy\xc2\xa0\xe2\x80\xa6'
p244
S'3:00 PM - 12 Sep 2017'
p245
tp246
a(S'Deflection from #Russia #collusion https://twitter.com/rwpusa/status/907724215696150529\xc2\xa0\xe2\x80\xa6'
p247
S'2:59 PM - 12 Sep 2017'
p248
tp249
a(S"Hillary 'convinced' of Trump-Russia collusion - https://www.binkily.com/hillary-convinced-of-trump-russia-collusion/\xc2\xa0\xe2\x80\xa6"
p250
S'2:57 PM - 12 Sep 2017'
p251
tp252
a(S"It's a great book! Working for a president only elected by Electoral College thanks to collusion with Russia is truly sad. https://twitter.com/CraigRozniecki/status/907721730306736131\xc2\xa0\xe2\x80\xa6"
p253
S'2:53 PM - 12 Sep 2017'
p254
tp255
a(S'No evidence of any collusion between Trump and Russia re election. Even top Dems such as Feinstein have said this. No evidence no crime.'
p256
S'2:50 PM - 12 Sep 2017'
p257
tp258
a(S'Head\'s up. Seeing more Trump apologists shifting back to "collusion with Russia is OK." American Rule of Law disagrees vehemently. #Resist'
p259
S'2:49 PM - 12 Sep 2017'
p260
tp261
a(S'http://www.foxnews.com/politics/2017/09/12/white-house-doj-should-certainly-look-at-prosecuting-james-comey.html\xc2\xa0\xe2\x80\xa6 COMEY DIDNT HAVE ANY COLLUSION WITH RUSSIA. DISTRACTIONDISTRACTION FROM TRUMP&PUTIN.WHATS NEXT OBAMA SPYING ON TRUMP'
p262
S'2:48 PM - 12 Sep 2017'
p263
tp264
a(S'DoUbelieve the crime Boss? #LOSER  Analysis | Hillary Clinton just accused Trump associates of collusion with Russia http://a.msn.com/01/en-us/AArPdy8?ocid=st\xc2\xa0\xe2\x80\xa6'
p265
S'2:48 PM - 12 Sep 2017'
p266
tp267
a(S"Harvey, Irma or Trumpski's ridiculous voter fraud commission won't divert my attention from the real story: #Russia #Kompromat #collusion pic.twitter.com/gmO1lsuIP1"
p268
S'2:46 PM - 12 Sep 2017'
p269
tp270
a(S"When they were saying he was in collusion with Russia that's all you heard until that couldn't be prove now he's a white supremacist what ne"
p271
S'2:40 PM - 12 Sep 2017'
p272
tp273
a(S"When America elects Pres who won't stop his business but they're too busy investigating collusion with Russia .... #impeachment"
p274
S'2:38 PM - 12 Sep 2017'
p275
tp276
a(S'educate yourself before you tweet. No evidence of Russia collusion w/tromp but evidence of HRC collusion'
p277
S'2:34 PM - 12 Sep 2017'
p278
tp279
a(S"There's now more than circumstantial evidence>Trump-Russia collusion \nThanks> NUNES trying to muddy H20=but didn't\nhttp://politi.co/2mW2AY3\xc2\xa0"
p280
S'2:30 PM - 12 Sep 2017'
p281
tp282
a(S'Congressman demands Russia-collusion probe \xe2\x80\x93 into Hillary http://mobile.wnd.com/2017/09/congressman-demands-russia-collusion-probe-into-hillary/\xc2\xa0\xe2\x80\xa6'
p283
S'2:25 PM - 12 Sep 2017'
p284
tp285
a(S"In his case the word is hissed @seanspicer  will definitely be relevant to 45's impeachment process\nCollusion/Russia Emolument clause etc. https://twitter.com/OccupyDemocrats/status/907702140818350080\xc2\xa0\xe2\x80\xa6"
p286
S'2:21 PM - 12 Sep 2017'
p287
tp288
a(S'Impeach trump now for collusion with our enemy russia'
p289
S'2:20 PM - 12 Sep 2017'
p290
tp291
a(S'@SarahHuckabee who shouted "Lock her up?" Who collided with wickedleaks for HRC emails? Who did criminal Russia collusion? \n\nConnieDonnie https://twitter.com/proudresister/status/907683684727140352\xc2\xa0\xe2\x80\xa6'
p292
S'2:17 PM - 12 Sep 2017'
p293
tp294
a(S'#HillaryClinton just accused Trump associates of collusion with Russia http://notifyr.link/4453356\xc2\xa0'
p295
S'2:11 PM - 12 Sep 2017'
p296
tp297
a(S"I am not in denial.I know Hillary, Podesta colluded with Russia.Uranium one. now that's real collusion.These criminals need 2b behind bars"
p298
S'2:10 PM - 12 Sep 2017'
p299
tp300
a(S"Clinton jumps gun on specialcounsel probe, 'convinced' Trump team helpedRussia meddle-Did HRC start Russia collusion http://www.foxnews.com/politics/2017/09/12/clinton-jumps-gun-on-special-counsel-probe-convinced-trump-team-helped-russia-meddle.html\xc2\xa0\xe2\x80\xa6"
p301
S'2:02 PM - 12 Sep 2017'
p302
tp303
a(S"Collusion with Russia is definitely not being a traitor.It's being concerned w/ HC health.Thats where every1 goes for health reports,rite?"
p304
S'2:02 PM - 12 Sep 2017'
p305
tp306
a(S'Lol @DebraMessing , bigger question is why after 1yr is there NO facts or evidence of your Russia Collusion?? \n\nhttps://twitter.com/DebraMessing/status/907628911671992320\xc2\xa0\xe2\x80\xa6'
p307
S'1:57 PM - 12 Sep 2017'
p308
tp309
a(S'The ONLY collusion of RUSSIA and the election was thru Clinton. Her server selling secrets and selling out USA to RUSSIA & uranium mine!'
p310
S'1:55 PM - 12 Sep 2017'
p311
tp312
a(S'Congressman demands Russia-collusion probe \xe2\x80\x93 into Hillary http://truepundit.com/congressman-demands-russia-collusion-probe-into-hillary/\xc2\xa0\xe2\x80\xa6'
p313
S'1:53 PM - 12 Sep 2017'
p314
tp315
a(S'That would ruin their whole "waaahbutterymales" vibe. But they\'re ok w/collusion w/Russia in the Oval Office, etc.'
p316
S'1:47 PM - 12 Sep 2017'
p317
tp318
a(S'Yes and for collusion with Russia why aren\'t we investigating her and putting her behind bars where she can write a book "why am I here"'
p319
S'1:43 PM - 12 Sep 2017'
p320
tp321
a(S'WH Comey criticism = Big Russia collusion story about to drop. https://twitter.com/thehill/status/907705441903419392\xc2\xa0\xe2\x80\xa6'
p322
S'1:43 PM - 12 Sep 2017'
p323
tp324
a(S'Analysis | Hillary Clinton just accused Trump associates of collusion with Russia - The Washington Post https://apple.news/AfIn0qM0jQWKfu6EZ-0Ng2g\xc2\xa0\xe2\x80\xa6'
p325
S'1:42 PM - 12 Sep 2017'
p326
tp327
a(S"Also in the article lies more evidence of collusion btwn Russia &Trump campaign. This is scary. No wonder R's are not worried about 2018."
p328
S'1:41 PM - 12 Sep 2017'
p329
tp330
a(S'To be fair, CNN did say Americans are as dumb as shit & admitted to flogging Russia collusion story for ratings.'
p331
S'1:36 PM - 12 Sep 2017'
p332
tp333
a(S'Yeah and Trump won the popular vote in the vast majority is states and counties. Uranium 1 ring bell? Podesta and Russia is your collusion'
p334
S'1:34 PM - 12 Sep 2017'
p335
tp336
a(S'#DeadlineWH\nHow do you pretend there are at best nebulous Trump Russia connections both in collusion & connections\nLast\n2\n10\n30 yrs exist'
p337
S'1:31 PM - 12 Sep 2017'
p338
tp339
a(S'For the same reason they claim there is proof of collusion with Russia. Proof & fact have become defined by partisanship.'
p340
S'1:31 PM - 12 Sep 2017'
p341
tp342
a(S"What journalists and citizens do NOT YET know is the extent of your collusion with Russia. If there is none, it's not for lack of YOU trying"
p343
S'1:27 PM - 12 Sep 2017'
p344
tp345
a(S'Bahaha this tool still believes in the russia collusion conspiracy. Wow'
p346
S'1:25 PM - 12 Sep 2017'
p347
tp348
a(S'@FBlDirectorWray  IF YOU are telling PUBLIC,"YOU see NO RUSSIA Collusion/anything". CALL OFF Mueller&put a STOP to Paying OUR$$'
p349
S'1:25 PM - 12 Sep 2017'
p350
tp351
a(S"Yes, now that hurricanes are gone let's get focus back where it belongs-Trump collusion with Russia. Thanks SHS! http://thehill.com/homenews/administration/350290-trump-press-secretary-prosecuting-comey-should-be-looked-at#\xc2\xa0\xe2\x80\xa6"
p352
S'1:21 PM - 12 Sep 2017'
p353
tp354
a(S"Asked about russian interference,says there was no collusion.Bannon's nervous defense of Trump on Russia is telling http://wapo.st/2xVMmmW?tid=ss_tw-amp\xc2\xa0\xe2\x80\xa6"
p355
S'1:19 PM - 12 Sep 2017'
p356
tp357
a(S'We were talking about colluding with Russia. Just wanted to point out verifiable collusion.'
p358
S'1:18 PM - 12 Sep 2017'
p359
tp360
a(S'Dropped by to kiss the ring eh, Mad King?  Sell em any fighters? Now BACK to your collusion with Russia to STEAL the election, like RT said! pic.twitter.com/ey24zoehIF'
p361
S'1:18 PM - 12 Sep 2017'
p362
tp363
a(S"... and that includes his campaign's collusion with Russia #TrumpRussiahttps://twitter.com/washingtonpost/status/907694098668298241\xc2\xa0\xe2\x80\xa6"
p364
S'1:16 PM - 12 Sep 2017'
p365
tp366
a(S'Hmmm seems excessive but it will pretty much exclude the entire GOP since their collusion with Russia is so extensive.'
p367
S'1:14 PM - 12 Sep 2017'
p368
tp369
a(S'Mueller Is \xe2\x80\x98Going for the Kill\xe2\x80\x99 on Trump-Russia Investigation, Republicans Believe https://www.yahoo.com/news/mueller-apos-going-kill-apos-151555452.html?soc_src=hl-viewer&soc_trk=tw\xc2\xa0\xe2\x80\xa6 #RUSSIA #COLLUSION #COVERUP'
p370
S'1:13 PM - 12 Sep 2017'
p371
tp372
a(S"Great....omm, shouldn't you start fighting 2 help find more info n collusion f electoral college paid by russia 2 elect this moron? #treason"
p373
S'1:12 PM - 12 Sep 2017'
p374
tp375
a(S'I believe Sarah has it wrong. Trump fired Comey cuz he was delving into Trump/Russia collusion and the truth will be revealed soon'
p376
S'1:10 PM - 12 Sep 2017'
p377
tp378
a(S"They got more on him than Comey's FBI & Lynch DOJ has on Trump/ Russia collusion. Adam Schiff I'm sure will weigh in shortly"
p379
S'1:08 PM - 12 Sep 2017'
p380
tp381
a(S'Larry & David 2 of Dems biggest whiners.  Larry Trump won, no collusion w Russia but he did smoke crew that spend 2 Billion against him!'
p382
S'1:06 PM - 12 Sep 2017'
p383
tp384
a(S'Analysis | Hillary Clinton just accused Trump associates of collusion with Russia - Hillary was the one http://a.msn.com/01/en-us/AArPdy8?ocid=st\xc2\xa0\xe2\x80\xa6'
p385
S'1:04 PM - 12 Sep 2017'
p386
tp387
a(S"Why don't you ask her if there was Vlinton /Russia collusion Frank?"
p388
S'1:04 PM - 12 Sep 2017'
p389
tp390
a(S'So they attack comey as they cover up trumps collusion with Russia'
p391
S'1:03 PM - 12 Sep 2017'
p392
tp393
a(S"No worries Twitler..we haven't forgotten about you're collusion with Russia. This was just thrown out there to distract you."
p394
S'1:02 PM - 12 Sep 2017'
p395
tp396
a(S"reform, tax reform, DACA, North Korea, the ongoing investigation into collusion with Russia. And I'd submit to you that MOST DEMS AGREE!"
p397
S'1:00 PM - 12 Sep 2017'
p398
tp399
a(S'Why, is she under investigation for collusion with Russia? '
p400
S'12:59 PM - 12 Sep 2017'
p401
tp402
a(S'Congressman demands Russia-collusion probe \xe2\x80\x93 into Hillary @jeffsessions @realDonaldTrumphttp://mobile.wnd.com/2017/09/congressman-demands-russia-collusion-probe-into-hillary/\xc2\xa0\xe2\x80\xa6'
p403
S'12:57 PM - 12 Sep 2017'
p404
tp405
a(S'Red Reset to Russia Collusion: Domestic Politics Damage Realist Foreign Policy | National Review http://www.nationalreview.com/article/451262/red-reset-russia-collusion-domestic-politics-damage-realist-foreign-policy\xc2\xa0\xe2\x80\xa6'
p406
S'12:57 PM - 12 Sep 2017'
p407
tp408
a(S"Grandma's been in the vodka again - Hillary on Trump\xe2\x80\x99s collusion with Russia: \xe2\x80\x98I\xe2\x80\x99m convinced of it\xe2\x80\x99 https://hotair.com/archives/2017/09/12/hillary-trumps-collusion-russia-im-convinced/\xc2\xa0\xe2\x80\xa6"
p409
S'12:55 PM - 12 Sep 2017'
p410
tp411
a(S'Dont forget she blames bernie and his russia Collusion for her loss'
p412
S'12:54 PM - 12 Sep 2017'
p413
tp414
a(S'Russia collusion fail\nMust conjure up something else.\nLiberal media.  My god you people are disgusting.'
p415
S'12:51 PM - 12 Sep 2017'
p416
tp417
a(S'Analysis: Hillary \xe2\x80\x98convinced\xe2\x80\x99 of Trump-Russia collusion http://bayareane.ws/2wYHEHe\xc2\xa0'
p418
S'12:51 PM - 12 Sep 2017'
p419
tp420
a(S"Much more evidence, and much more dangerous, Trump's Russia collusion and lies! So use priority! https://twitter.com/FoxNews/status/907666751495839744\xc2\xa0\xe2\x80\xa6"
p421
S'12:50 PM - 12 Sep 2017'
p422
tp423
a(S'Keep in mind that Al Capone was brought down over taxes. Collusion w/Russia might be more exciting, but whatever gets Trump out works. 2/2'
p424
S'12:46 PM - 12 Sep 2017'
p425
tp426
a(S'Ironic that in the midst of their fraudulent presidential campaign & collusion with Russia, their baby making machine was apparently active.'
p427
S'12:41 PM - 12 Sep 2017'
p428
tp429
a(S"Only collusion with Russia is with the Clinton's n rule of law is laughable she hasn't met one she didn't break she's a joke"
p430
S'12:37 PM - 12 Sep 2017'
p431
tp432
a(S'@GOP @Senate @Congress @SpeakerRyan @SenMcConnell @SenMcCain @SenFeinstein @SenFranken Check Out The Russia Trump Lists Collusion Is HUGE!'
p433
S'12:37 PM - 12 Sep 2017'
p434
tp435
a(S'The hurricanes are history-back to the fake grind of the Russia collusion matter.  What a waste of time and effort.'
p436
S'12:35 PM - 12 Sep 2017'
p437
tp438
a(S'https://www.youtube.com/watch?v=xMuUMVJaNOM\xc2\xa0\xe2\x80\xa6\nMust See!  Mark Levin blows up the Russia collusion false narrative.'
p439
S'12:35 PM - 12 Sep 2017'
p440
tp441
a(S'Red Reset to Russia Collusion: Domestic Politics Damage Realist Foreign Policy | National Review http://www.nationalreview.com/article/451262/red-reset-russia-collusion-domestic-politics-damage-realist-foreign-policy\xc2\xa0\xe2\x80\xa6'
p442
S'12:34 PM - 12 Sep 2017'
p443
tp444
a(S"Breaking News: Mueller won't interview  Ted Cruz over Russia Collusion. Confident that Cruz didn't lend Trump a hand. (we won't forget Ted)."
p445
S'12:33 PM - 12 Sep 2017'
p446
tp447
a(S'Resorting to Twitter ad buys to push the already hilariously dead Russia collusion narrative? SAD! '
p448
S'12:33 PM - 12 Sep 2017'
p449
tp450
a(S'Clinton\'s description of Team Trump\'s collusion with Russia matches mine: "communciation" and "an understanding". https://www.washingtonpost.com/news/the-fix/wp/2017/09/12/clinton-just-accused-trump-associates-of-collusion-with-russia/\xc2\xa0\xe2\x80\xa6'
p451
S'12:32 PM - 12 Sep 2017'
p452
tp453
a(S'This makes me even more mad at the corruption and collusion of @GOP @realDonaldTrump & #presidentmercer with #Russia https://twitter.com/kaivanshroff/status/907612744861528064\xc2\xa0\xe2\x80\xa6'
p454
S'12:29 PM - 12 Sep 2017'
p455
tp456
a(S"Clinton, like majority of Americans, is 'convinced' there was collusion between Trump aides & Russia #TrumpRussia\nhttp://flip.it/CAfrlQ\xc2\xa0pic.twitter.com/pGuExVMk0q"
p457
S'12:29 PM - 12 Sep 2017'
p458
tp459
a(S"I don't know who brain washed you; however, they did a fine job. Show we evidence Trump is racist or in collusion with Russia."
p460
S'12:29 PM - 12 Sep 2017'
p461
tp462
a(S'YES!! Rep. Rohrabacher (R) says Congress should probe possible collusion between the Clinton Foundation and Russia.\n\nhttp://www.libertyheadlines.com/congressman-demands-russia-collusion-probe-hillary/?AID=7236\xc2\xa0\xe2\x80\xa6'
p463
S'12:26 PM - 12 Sep 2017'
p464
tp465
a(S"Yeah. What @PressSec doesn't say is @realDonaldTrump knows for a fact there was collusion with Russia. HRC can only speculate. https://twitter.com/abcpolitics/status/907683144144486400\xc2\xa0\xe2\x80\xa6"
p466
S'12:25 PM - 12 Sep 2017'
p467
tp468
a(S'Hillary "convinced" of Trump campaign collusion with Russia. https://www.usatoday.com/story/news/politics/2017/09/12/exclusive-hillary-clinton-trump-associates-russia-sanders-democrat-president-losing-election-2016/649864001/?utm_source=newsletter&utm_medium=email&utm_campaign=sendto_newslettertest&stream=top-stories\xc2\xa0\xe2\x80\xa6'
p469
S'12:23 PM - 12 Sep 2017'
p470
tp471
a(S'Trump ran the negative campaign, Sarah!! & yes he is aware of what went on during the campaign. Collusion with Russia!!!'
p472
S'12:23 PM - 12 Sep 2017'
p473
tp474
a(S'Dude, that is the least of your worries! Russia, money laundering, fraud, collusion, etc. Your plate is full.'
p475
S'12:22 PM - 12 Sep 2017'
p476
tp477
a(S'Russia collusion is a lie...I know things happen fast, catch up'
p478
S'12:20 PM - 12 Sep 2017'
p479
tp480
a(S'the evidence is overwhelming! for example jared once glanced in the direction of a map of russia! #collusion'
p481
S'12:16 PM - 12 Sep 2017'
p482
tp483
a(S'Analysis | Hillary Clinton accused Trump associates of collusion with Russia - LOSER ELITIST HILLARY OUT OF CONTROL! http://a.msn.com/01/en-us/AArPdy8?ocid=st\xc2\xa0\xe2\x80\xa6'
p484
S'12:15 PM - 12 Sep 2017'
p485
tp486
a(S"The case for Trump-Russia collusion: We're getting very, very close http://wapo.st/2gQxmDy?tid=ss_tw-amp\xc2\xa0\xe2\x80\xa6 #resist"
p487
S'12:15 PM - 12 Sep 2017'
p488
tp489
a(S'And if Trump is going to jail why has CNN and MSNBC stopped hourly "Russia Collusion" updates? Not hurricanes they stopped three weeks ago'
p490
S'12:14 PM - 12 Sep 2017'
p491
tp492
a(S'\xe2\x80\x98Biggest Loser\xe2\x80\x99 Hillary Tries to Resurrect \xe2\x80\x98Trump-Russia Collusion\xe2\x80\x99 Claim http://truthfeednews.com/biggest-loser-hillary-tries-to-resurrect-trump-russia-collusion-claim/\xc2\xa0\xe2\x80\xa6 via @truthfeednews'
p493
S'12:13 PM - 12 Sep 2017'
p494
tp495
a(S'CNN caters to everyone. Non- political. You want your minions to doubt them. Russia collusion is real. You know it. You want all eyes on Fox'
p496
S'12:12 PM - 12 Sep 2017'
p497
tp498
a(S"He did!  You idiots hated him too, remember?  You're not still thinking Russia collusion are ya?  Hahahaha"
p499
S'12:12 PM - 12 Sep 2017'
p500
tp501
a(S"You're right. The story was Russia, money laundering, collusion, and a man unfit to serve. But you guys missed all that."
p502
S'12:10 PM - 12 Sep 2017'
p503
tp504
a(S'Analysis: Hillary \xe2\x80\x98convinced\xe2\x80\x99 of Trump-Russia collusion http://bayareane.ws/2wYHEHe\xc2\xa0pic.twitter.com/q9u8usE9Ez'
p505
S'12:08 PM - 12 Sep 2017'
p506
tp507
a(S"Donald Trump uses his cellphone to call whomever he wants to just like he did when he called Russia's Prez! Collusion Corruption is Trump!!!"
p508
S'12:04 PM - 12 Sep 2017'
p509
tp510
a(S'WATCH: Miss America contestant gets asked about "Russia Collusion", then hits a HOME RUN with her response! https://ilovemyfreedom.org/watch-miss-america-contestant-gets-asked-russian-collusion-hits-home-run/\xc2\xa0\xe2\x80\xa6'
p511
S'12:03 PM - 12 Sep 2017'
p512
tp513
a(S"Trump's fired staffs are minefield of Russia collusion!!!!"
p514
S'12:02 PM - 12 Sep 2017'
p515
tp516
a(S'Hillary Clinton just accused Trump associates of collusion with Russia http://a.msn.com/01/en-us/AArPdy8?ocid=st\xc2\xa0\xe2\x80\xa6 Hillary claims to believe in the law/evidence'
p517
S'12:02 PM - 12 Sep 2017'
p518
tp519
a(S"Hillary's still running with the Russia collusion angle, so why not? https://twitter.com/Me__Unfiltered/status/907679213758631936\xc2\xa0\xe2\x80\xa6"
p520
S'12:00 PM - 12 Sep 2017'
p521
tp522
a(S'#BothPutOnGloves #ZeroSumGame #AllAmericansLose Hillary Clinton just accused Trump associates of collusion w Russia http://a.msn.com/01/en-us/AArPdy8?ocid=st\xc2\xa0\xe2\x80\xa6'
p523
S'11:59 AM - 12 Sep 2017'
p524
tp525
a(S'DNC murdered Seth Rich, let Pakistani IT sell state secrets. Fake Russia story is lame attempt to hide DNC HRC Comey Lynch collusion! Sad!'
p526
S'11:59 AM - 12 Sep 2017'
p527
tp528
a(S'Sounds like more Russia Collusion news is about to break.'
p529
S'11:53 AM - 12 Sep 2017'
p530
tp531
a(S"@EddyBee26 @axios . This Russia saga it's getting old and boring,  nothing there to confirm collusion or otherwise.  Enough already"
p532
S'11:53 AM - 12 Sep 2017'
p533
tp534
a(S'@realDonaldTrump Russia telling the truth is providing useful information to the voters not collusion too dumb to know no excuse'
p535
S'11:50 AM - 12 Sep 2017'
p536
tp537
a(S'Hillary believes there was collusion by  russia and the trump campaign she cant believe people might just be fed up with lying politicians'
p538
S'11:48 AM - 12 Sep 2017'
p539
tp540
a(S'This is definitely a witch hunt..There is no Russia collusion so he is searching for a crime.not what he was appointed to do..'
p541
S'11:43 AM - 12 Sep 2017'
p542
tp543
a(S"They have lied to us for long enough. Stealing our info after saying they didn't, ToC changes they lied about, and collusion with Russia."
p544
S'11:39 AM - 12 Sep 2017'
p545
tp546
a(S"Trump's campaign is handing over documents to #RobertMueller in investigation of collusion between Trump & Russia. https://twitter.com/thehill/status/907669161521897473\xc2\xa0\xe2\x80\xa6"
p547
S'11:38 AM - 12 Sep 2017'
p548
tp549
a(S'I thought their plan was revealed months ago on Infrastructure Week. Aka: Donald Jr Collusion With Russia Week.'
p550
S'11:37 AM - 12 Sep 2017'
p551
tp552
a(S'Red Reset to Russia Collusion: Domestic Politics Damage Realist Foreign Policy | National Review http://www.nationalreview.com/article/451262/red-reset-russia-collusion-domestic-politics-damage-realist-foreign-policy\xc2\xa0\xe2\x80\xa6'
p553
S'11:37 AM - 12 Sep 2017'
p554
tp555
a(S'Seth Rich dead man legacy destroyed by FOX in collusion with WH to divert Russia story. gets caught but you swallow only palatable garbage?'
p556
S'11:35 AM - 12 Sep 2017'
p557
tp558
a(S'Congressman Demands Russia-Collusion Probe \xe2\x80\x93 for HILLARY - Liberty Headlines http://www.libertyheadlines.com/congressman-demands-russia-collusion-probe-hillary/?AID=7236\xc2\xa0\xe2\x80\xa6'
p559
S'11:33 AM - 12 Sep 2017'
p560
tp561
a(S'Hillary Clinton just accused Trump associates of collusion with Russia https://www.washingtonpost.com/news/the-fix/wp/2017/09/12/clinton-just-accused-trump-associates-of-collusion-with-russia/\xc2\xa0\xe2\x80\xa6'
p562
S'11:31 AM - 12 Sep 2017'
p563
tp564
a(S"Yeah, he stands for racism, misogyny, sexual assault, defrauding students, collusion with Russia. Good thing he didn't have a private server"
p565
S'11:30 AM - 12 Sep 2017'
p566
tp567
a(S'Trey "glacial pace" Gowdy is currently trying to suppress evidence of Trump Russia collusion.'
p568
S'11:28 AM - 12 Sep 2017'
p569
tp570
a(S'Hilary fans are the last person who needs to be bringing up Russia.  If there was collusion with Russia it was with Clinton.'
p571
S'11:26 AM - 12 Sep 2017'
p572
tp573
a(S'They call "collusion" with Russia treason. But being paid by the Saudi regime is just part and parcel for an election campaign for Hillary.'
p574
S'11:26 AM - 12 Sep 2017'
p575
tp576
a(S"Sure mate, let's review the last high point of the same fine rhetorics: the Great Russia Collusion? That great Nothingburger."
p577
S'11:21 AM - 12 Sep 2017'
p578
tp579
a(S'Hillary Clinton sold uranium 25% of her uranium rights to Russia is that collusion with Russia ,you tell me https://twitter.com/washingtonpost/status/907633430518800384\xc2\xa0\xe2\x80\xa6'
p580
S'11:20 AM - 12 Sep 2017'
p581
tp582
a(S'Freudian slip? The whole "Russia collusion" story is "in Hillary\'s mind."'
p583
S'11:17 AM - 12 Sep 2017'
p584
tp585
a(S'Let\'s apply that logic to the theory of "no evidence of collusion with Russia."'
p586
S'11:17 AM - 12 Sep 2017'
p587
tp588
a(S'Proving collusion is key. If not, simply "Russia bad, Trump good--an unknowing & unwitting victim of Russia hack." That w/b their narrative.'
p589
S'11:13 AM - 12 Sep 2017'
p590
tp591
a(S'#OBAMAFORPRISON #TREASON #Wiretapping #DNCCORRUPTION #COLLUSION #Russia #URANIUMhttps://twitter.com/StockMonsterUSA/status/882222198009634817\xc2\xa0\xe2\x80\xa6'
p592
S'11:10 AM - 12 Sep 2017'
p593
tp594
a(S'#FOX59Morning Clinton says P.Trump was in collusion with Russia,where is her \nproof?  Why are we paying millions to Mueller?'
p595
S'11:10 AM - 12 Sep 2017'
p596
tp597
a(S'Congressman demands Russia-collusion probe \xe2\x80\x93 into Hillary http://truepundit.com/congressman-demands-russia-collusion-probe-into-hillary/\xc2\xa0\xe2\x80\xa6 #imwithher #cnn #maga'
p598
S'11:09 AM - 12 Sep 2017'
p599
tp600
a(S'C. If you want the real collusion w Russia #payforplay treasonous act, look no further than the Clintons #UraniumOnehttps://youtu.be/YaF8Bc9-gVQ\xc2\xa0'
p601
S'11:04 AM - 12 Sep 2017'
p602
tp603
a(S"All he's doing: on the verge of nuclear war w/NK, dumping our allies, put white supremacists in the WH, let Russia run the US, Collusion"
p604
S'11:04 AM - 12 Sep 2017'
p605
tp606
a(S"Hillary Clinton's Emails May Bring Down Trump As Focus Turns To Trump/Russia Hack Collusion via @politicususahttp://www.politicususa.com/2017/08/25/hillary-clintons-emails-bring-trump-focus-turns-trumprussia-hack-collusion.html\xc2\xa0\xe2\x80\xa6"
p607
S'11:04 AM - 12 Sep 2017'
p608
tp609
a(S'Hillary on Trump\xe2\x80\x99s collusion with Russia: \xe2\x80\x98I\xe2\x80\x99m convinced of it\xe2\x80\x99 https://hotair.com/archives/2017/09/12/hillary-trumps-collusion-russia-im-convinced/\xc2\xa0\xe2\x80\xa6'
p610
S'11:03 AM - 12 Sep 2017'
p611
tp612
a(S'Analysis | Hillary Clinton just accused Trump associates of collusion with Russia http://a.msn.com/01/en-us/AArPdy8?ocid=st\xc2\xa0\xe2\x80\xa6'
p613
S'11:02 AM - 12 Sep 2017'
p614
tp615
a(S'More evidence of NH voter fraud than Trump/Russia collusion.'
p616
S'11:01 AM - 12 Sep 2017'
p617
tp618
a(S'Congressman Demands Russia-Collusion Probe \xe2\x80\x93 for HILLARY - Liberty Headlines http://www.libertyheadlines.com/congressman-demands-russia-collusion-probe-hillary/?AID=7236\xc2\xa0\xe2\x80\xa6'
p619
S'11:00 AM - 12 Sep 2017'
p620
tp621
a(S'Then you should be extremely pissed off that the Russia collusion thing ended up that John Podesta and his brother took millions from Russia'
p622
S'11:00 AM - 12 Sep 2017'
p623
tp624
a(S"Ok, let's talk about the lack of evidence on that Russia collusion story..."
p625
S'10:59 AM - 12 Sep 2017'
p626
tp627
a(S"lol won't accomplish a thing & just a sad attempt to divert from Trumps collusion with Russia but go for it."
p628
S'10:58 AM - 12 Sep 2017'
p629
tp630
a(S"Mr. Acosta - ''tired'' was the incessant Russia Collusion narrative and ''poor' was CNN's judgement is ramming it down everyone's throat."
p631
S'10:55 AM - 12 Sep 2017'
p632
tp633
a(S'EVEN WP IS SELLING OLD FAKE NEWS!\n\nAnalysis | Hillary Clinton just accused Trump associates of collusion with Russia http://a.msn.com/01/en-us/AArPdy8?ocid=st\xc2\xa0\xe2\x80\xa6'
p634
S'10:55 AM - 12 Sep 2017'
p635
tp636
a(S"Congressman demands Russia-collusion probe into Hillary, Cites 'ample evidence' of payments to Clinton foundation http://po.st/R6tzaW\xc2\xa0"
p637
S'10:54 AM - 12 Sep 2017'
p638
tp639
a(S"The entire World KNOWS of Trump's business dealings and collusion with Russia. It is only Trump ignorant supporters that is being fooled."
p640
S'10:53 AM - 12 Sep 2017'
p641
tp642
a(S'Congressman Demands Russia-Collusion Probe Into Hillary http://joemiller.us/?p=161721\xc2\xa0'
p643
S'10:53 AM - 12 Sep 2017'
p644
tp645
a(S'What about collusion?\nCan Russia say US has done the same to them? US interference?'
p646
S'10:40 AM - 12 Sep 2017'
p647
tp648
a(S'\xe2\x80\x98Biggest Loser\xe2\x80\x99 Hillary Tries to Resurrect \xe2\x80\x98Trump-Russia Collusion\xe2\x80\x99 Claim http://truthfeednews.com/biggest-loser-hillary-tries-to-resurrect-trump-russia-collusion-claim/\xc2\xa0\xe2\x80\xa6 via @truthfeednews'
p649
S'10:38 AM - 12 Sep 2017'
p650
tp651
a(S'If the Awan IT sent Data to Pakistan and They turned it over to Wikileaks or Russia\n\nStill not Trump Collusion'
p652
S'10:33 AM - 12 Sep 2017'
p653
tp654
a(S"Analysis | Hillary Clinton just accused Trump associates of collusion with Russia http://a.msn.com/01/en-us/AArPdy8?ocid=st\xc2\xa0\xe2\x80\xa6 she wasn't presidential material."
p655
S'10:33 AM - 12 Sep 2017'
p656
tp657
a(S'Dems Make Up A Stupid Russia Collusion With Trump For 17 Months And Now One Of There Democrats Is Going Down For Real And Its HUSH! HUSH!!!!'
p658
S'10:32 AM - 12 Sep 2017'
p659
tp660
a(S'What about YOUR collusion wit Russia?'
p661
S'10:32 AM - 12 Sep 2017'
p662
tp663
a(S'Russia collusion is a nasty solution in search of a problem. Voter fraud should be settled & fixed & perps all jailed'
p664
S'10:31 AM - 12 Sep 2017'
p665
tp666
a(S'The case for Trump-Russia collusion: We\xe2\x80\x99re getting very, very close http://fb.me/2qX8WqgUx\xc2\xa0'
p667
S'10:30 AM - 12 Sep 2017'
p668
tp669
a(S'News post: "Hillary on Trump\xe2\x80\x99s collusion with Russia: \xe2\x80\x98I\xe2\x80\x99m convinced of it\xe2\x80\x99" http://ift.tt/2gZgZoa\xc2\xa0'
p670
S'10:22 AM - 12 Sep 2017'
p671
tp672
a(S'What else is new. Hillary blaming everyone & everything on her loss &  accusing President of Russian collusion. Hillary made up Russia story'
p673
S'10:17 AM - 12 Sep 2017'
p674
tp675
a(S'Congressman Demands Russia-Collusion Probe \xe2\x80\x93 for HILLARY -/// About time. Do it. http://www.libertyheadlines.com/congressman-demands-russia-collusion-probe-hillary/?AID=7236\xc2\xa0\xe2\x80\xa6'
p676
S'10:14 AM - 12 Sep 2017'
p677
tp678
a(S'how on earth did this dweeb end up here instead of an HRC admin. Lying collusion w Russia screw the rules.'
p679
S'10:13 AM - 12 Sep 2017'
p680
tp681
a(S'Russia Collusion, Sexual Assault, Racism Claims, & Money Laundering...\nFake, Fake, Fake, Fake pic.twitter.com/ca8YC81LGk'
p682
S'10:11 AM - 12 Sep 2017'
p683
tp684
a(S'Hillary Clinton just accused Trump associates of collusion with Russia http://www.msn.com/en-us/news/politics/analysis-hillary-clinton-just-accused-trump-associates-of-collusion-with-russia/ar-AArPdy8?ocid=ob-tw-enus-677\xc2\xa0\xe2\x80\xa6pic.twitter.com/BBuDgWfC9N'
p685
S'10:10 AM - 12 Sep 2017'
p686
tp687
a(S'Analysis | Hillary Clinton just accused Trump associates of collusion with Russia http://a.msn.com/01/en-us/AArPdy8?ocid=st\xc2\xa0\xe2\x80\xa6 It just never ends with her...'
p688
S'10:10 AM - 12 Sep 2017'
p689
tp690
a(S"corruption and collusion w Russia is NOT a 'Force of Nature'.  It's more a form of treason."
p691
S'10:08 AM - 12 Sep 2017'
p692
tp693
a(S"CONGRESSMAN DEMANDS RUSSIA-COLLUSION PROBE \xe2\x80\x93 INTO HILLARY...Cites 'ample evidence' of payments to Bill Clinton, f... http://www.wnd.com/2017/09/congressman-demands-russia-collusion-probe-into-hillary\xc2\xa0\xe2\x80\xa6"
p694
S'10:07 AM - 12 Sep 2017'
p695
tp696
a(S'Congressman demands Russia-collusion probe \xe2\x80\x93 into Hillary http://po.st/C6Sdmz\xc2\xa0 via @worldnetdaily'
p697
S'10:06 AM - 12 Sep 2017'
p698
tp699
a(S"You'd have to be like Baby Jane (Whatever Happened To) totally, delusional, not to believe there was and still is Trump-Russia collusion. https://twitter.com/DavidCornDC/status/907645428841283584\xc2\xa0\xe2\x80\xa6"
p700
S'10:06 AM - 12 Sep 2017'
p701
tp702
a(S'Hillary on Trump\xe2\x80\x99s collusion with Russia: \xe2\x80\x98I\xe2\x80\x99m convinced of\xc2\xa0it\xe2\x80\x99 https://hotair.com/archives/2017/09/12/hillary-trumps-collusion-russia-im-convinced/\xc2\xa0\xe2\x80\xa6'
p703
S'10:02 AM - 12 Sep 2017'
p704
tp705
a(S'partly depends what "this" means. trump may well be involved in obstruction of justice. If "this" means Russia collusion,we just don\'t know.'
p706
S'10:01 AM - 12 Sep 2017'
p707
tp708
a(S'No but collusion with agents of a foreign government is. We know Russia made active attempts to influence election, q is if they had US help'
p709
S'9:59 AM - 12 Sep 2017'
p710
tp711
a(S"Idea that would SO be payback - get @EricTrump indicted with you in the Russia collusion scandal! You'd have bragging rights for days!"
p712
S'9:57 AM - 12 Sep 2017'
p713
tp714
a(S"Mueller & Sessions now have the evidence debunking Russia Collusion. Let's see what they do...\nhttps://disobedientmedia.com/2017/09/breaking-decision-makers-have-been-informed-of-evidence-against-russia-hack/\xc2\xa0\xe2\x80\xa6"
p715
S'9:57 AM - 12 Sep 2017'
p716
tp717
a(S'Along with Russian hacking, Trump & co collusion with Russia, and Comey, Bernie helped bring HRC down.'
p718
S'9:56 AM - 12 Sep 2017'
p719
tp720
a(S"Mr. Tapper - No Trump/Russia Collusion tweets?  I'm sure you can squeeze one here and there, no?"
p721
S'9:56 AM - 12 Sep 2017'
p722
tp723
a(S"Hillary insists Trump associate's colluded with Russia. Meantime, 15 months of investigations, ZERO evidence of collusion."
p724
S'9:54 AM - 12 Sep 2017'
p725
tp726
a(S"HRC & Dem Pres authorized the sale of 20% of US uranium to Russia, now that's collusion"
p727
S'9:54 AM - 12 Sep 2017'
p728
tp729
a(S'Trump \xe2\x80\x98Innocent\xe2\x80\x99 on Russia Collusion: Miss America Contestant http://www.infowars.com/trump-innocent-on-russia-collusion-miss-america-contestant/\xc2\xa0\xe2\x80\xa6 via @realalexjones'
p730
S'9:52 AM - 12 Sep 2017'
p731
tp732
a(S"I would add Trump to that list.\n\nAnyone, who thinks Trump did not lead his campaign's collusion with Russia, is deluded about who Trump is. https://twitter.com/EdanClay/status/907645635452600321\xc2\xa0\xe2\x80\xa6"
p733
S'9:49 AM - 12 Sep 2017'
p734
tp735
a(S'Hillary goes there: Trump-Russia money ties, collusion http://dlvr.it/PmXBq7\xc2\xa0'
p736
S'9:48 AM - 12 Sep 2017'
p737
tp738
a(S'Analysis: Clinton just accused Trump associates of collusion with Russia http://wapo.st/2w4K8p1\xc2\xa0'
p739
S'9:43 AM - 12 Sep 2017'
p740
tp741
a(S'Congressman demands Russia-collusion probe \xe2\x80\x93 into Hillary http://po.st/UZMQRD\xc2\xa0 via @worldnetdaily'
p742
S'9:42 AM - 12 Sep 2017'
p743
tp744
a(S"The story about DJT Russia-collusion has never been proven, whereas Clinton's involvement with sale of Uranium-One leaving her 245M is clear"
p745
S'9:42 AM - 12 Sep 2017'
p746
tp747
a(S'HRC gets headlines for saying she believes there was Trump-Russia collusion. Well, there was: http://www.motherjones.com/politics/2017/07/the-trump-russia-conspiracy-is-now-very-simple/\xc2\xa0\xe2\x80\xa6'
p748
S'9:41 AM - 12 Sep 2017'
p749
tp750
a(S'@lajacks13 U R just falling into Trump Trap. Look into Shady Trump deals, Classified leaks,Russia collusion'
p751
S'9:35 AM - 12 Sep 2017'
p752
tp753
a(S"The case for Trump-Russia collusion: We're getting very, very close http://wapo.st/2gQxmDy?tid=ss_tw-amp\xc2\xa0\xe2\x80\xa6"
p754
S'9:35 AM - 12 Sep 2017'
p755
tp756
a(S'The fake news would be Russia collusion, pee pee tape & white supremacist '
p757
S'9:35 AM - 12 Sep 2017'
p758
tp759
a(S"@Evan_McMullin spreads conspiracy theories #about 'Russia collusion'  despite the fact that there is zero evidence of such collusion. Why?"
p760
S'9:29 AM - 12 Sep 2017'
p761
tp762
a(S"She's right. They did. Even a nobody like me can connect the tRump/Russia collusion dots. I pay attention - it's my patriotic duty to do so."
p763
S'9:29 AM - 12 Sep 2017'
p764
tp765
a(S'Heck ya go after that #NastyWoman Congressman Demands Russia-Collusion Probe \xe2\x80\x93 for HILLARY - Liberty Headlines http://www.libertyheadlines.com/congressman-demands-russia-collusion-probe-hillary/?AID=7236\xc2\xa0\xe2\x80\xa6'
p766
S'9:26 AM - 12 Sep 2017'
p767
tp768
a(S'Russia Sought A Broad Reset With Trump, Secret Document Shows -----Collusion https://apple.news/AoC8tl5NZTLutlTfHA5oaxQ\xc2\xa0\xe2\x80\xa6'
p769
S'9:25 AM - 12 Sep 2017'
p770
tp771
a(S'Retweeted All American Girl (@AIIAmericanGirI):\n\nCongressman Demands Russia-Collusion Probe Into Hillary... http://fb.me/3SKXn2SWW\xc2\xa0'
p772
S'9:25 AM - 12 Sep 2017'
p773
tp774
a(S'I think Hillary and her editors forgot to scrub that Russia Collusion crap!! Hahaha!! \nHow embarrassing!  #Outnumbered'
p775
S'9:23 AM - 12 Sep 2017'
p776
tp777
a(S'Hmmm, tell me again how collusion between the Trump Campaign and Russia is a fake story.'
p778
S'9:23 AM - 12 Sep 2017'
p779
tp780
a(S'Russia.  #collusion'
p781
S'9:23 AM - 12 Sep 2017'
p782
tp783
a(S'Russia in collusion with the trump family and subsequent cabinet members, took that election from Hillary. Plain and simple!'
p784
S'9:23 AM - 12 Sep 2017'
p785
tp786
a(S'People know what you are all about . You show it on twitter every day. Will always be tainted and remembered for your Russia collusion'
p787
S'9:22 AM - 12 Sep 2017'
p788
tp789
a(S"@OutnumberedFNC If Hillary has any evidence of @POTUS collusion with Russia besides her & Obama's collusion, show it or shut up."
p790
S'9:19 AM - 12 Sep 2017'
p791
tp792
a(S'Congressman demands Russia-collusion probe \xe2\x80\x93 into Hillary #TCOT #MAGAhttp://www.wnd.com/2017/09/congressman-demands-russia-collusion-probe-into-hillary/\xc2\xa0\xe2\x80\xa6'
p793
S'9:16 AM - 12 Sep 2017'
p794
tp795
a(S'GOP collusion with Russia? Did you receive donations?'
p796
S'9:15 AM - 12 Sep 2017'
p797
tp798
a(S'Congressman Demands Russia-Collusion Probe \xe2\x80\x93 for HILLARY http://www.libertyheadlines.com/congressman-demands-russia-collusion-probe-hillary/\xc2\xa0\xe2\x80\xa6 via @LibertyHeadline; glad she lost, now just STFU.'
p799
S'9:12 AM - 12 Sep 2017'
p800
tp801
a(S'The climate deniers\' approach to this topic would be: "Now is not the time to talk about Russia, Trump, & GOP collusion."'
p802
S'9:11 AM - 12 Sep 2017'
p803
tp804
a(S'No collusion with Russia - ridiculous.  Have to start out with assumption that Trump is a bad guy, who would break law to get Russian help.'
p805
S'9:09 AM - 12 Sep 2017'
p806
tp807
a(S'Finally! The collusion with Russia we have all bee... http://www.topbuzz.com/article/i6464860852938867210?app_id=1106&c=tw\xc2\xa0\xe2\x80\xa6'
p808
S'9:06 AM - 12 Sep 2017'
p809
tp810
a(S'Russia had no effect on election.  Can she name one thing that Russia did that effected even one vote, or even one instance of collusion?'
p811
S'9:06 AM - 12 Sep 2017'
p812
tp813
a(S"Ms. Reid - because you're soo insightful, right? Night after night of Trump/Russia Collusion like the rest of the world doesn't exist."
p814
S'9:05 AM - 12 Sep 2017'
p815
tp816
a(S'@HillaryClinton The only collusion with Russia was you and John Podesta!  More evidence of that than President trump and Russia.  The leaks'
p817
S'9:03 AM - 12 Sep 2017'
p818
tp819
a(S'Yes this story reeks of trump  / Russia collusion lies #TheViewhttps://twitter.com/Anocksoonamoon/status/907632062877888514\xc2\xa0\xe2\x80\xa6'
p820
S'8:55 AM - 12 Sep 2017'
p821
tp822
a(S'Hillary broke the law and deleting the emails after she was subpoenaed to turn them over there is proof of that no proof of Russia collusion'
p823
S'8:53 AM - 12 Sep 2017'
p824
tp825
a(S'Hillary Clinton just accused Trump associates of collusion with Russia https://www.washingtonpost.com/news/the-fix/wp/2017/09/12/clinton-just-accused-trump-associates-of-collusion-with-russia/\xc2\xa0\xe2\x80\xa6'
p826
S'8:52 AM - 12 Sep 2017'
p827
tp828
a(S"There's more evidence of #VoterFraud in New Hampshire than there is of #Collusion with Russia. @CNN @MSNBC are #FakeNews. @FoxNews is fair."
p829
S'8:49 AM - 12 Sep 2017'
p830
tp831
a(S'Congressional Republicans hope to pass legislation defunding the DOJ probe into Trump-Russia collusion. RETWEET if you OPPOSE these efforts. https://twitter.com/SethAbramson/status/902567595836137472\xc2\xa0\xe2\x80\xa6'
p832
S'8:46 AM - 12 Sep 2017'
p833
tp834
a(S'Congressman Demands Russia-Collusion Probe \xe2\x80\x93 for HILLARY - Liberty Headlines http://www.libertyheadlines.com/congressman-demands-russia-collusion-probe-hillary/?AID=7236\xc2\xa0\xe2\x80\xa6'
p835
S'8:43 AM - 12 Sep 2017'
p836
tp837
a(S'TRUMP collusion with Russia has caused these massive Hurricanes \n#Harvey2017\n#IrmaHurricane2017pic.twitter.com/bHIyJXSLL2'
p838
S'8:42 AM - 12 Sep 2017'
p839
tp840
a(S'Hillary Clinton just accused Trump associates of collusion with Russia\nhttp://wapo.st/2y2DSeK\xc2\xa0pic.twitter.com/9wiDKn1Uzi'
p841
S'8:39 AM - 12 Sep 2017'
p842
tp843
a(S'Opinion | The case for Trump-Russia collusion: We\xe2\x80\x99re getting very, very close http://fb.me/88kHRR6m6\xc2\xa0'
p844
S'8:37 AM - 12 Sep 2017'
p845
tp846
a(S"Brey will presumably be in charge of coordinating @FloridaGOP's collusion with Russia & recruitment of attempted murderers for party spots https://twitter.com/learyreports/status/907609440404295681\xc2\xa0\xe2\x80\xa6"
p847
S'8:35 AM - 12 Sep 2017'
p848
tp849
a(S'\xe2\x80\x98Biggest Loser\xe2\x80\x99 Hillary Tries to Resurrect \xe2\x80\x98Trump-Russia Collusion\xe2\x80\x99 Claim http://truthfeednews.com/biggest-loser-hillary-tries-to-resurrect-trump-russia-collusion-claim/\xc2\xa0\xe2\x80\xa6 via @truthfeednews #maga #trumptrain'
p850
S'8:34 AM - 12 Sep 2017'
p851
tp852
a(S"Hillary Clinton 'convinced' of collusion between Trump's team and Russia\n@realDonaldTrump @RepAdamSchiff @billmaher\nhttp://www.independent.co.uk/news/world/americas/us-politics/hillary-clinton-donald-trump-russia-links-us-presidential-campaign-2016-a7942871.html\xc2\xa0\xe2\x80\xa6pic.twitter.com/4s614r2GsC"
p853
S'8:34 AM - 12 Sep 2017'
p854
tp855
a(S'The Unconstitutionality of Rod J. Rosenstein the man who appointed Mueller to "investigate" Trump Russia collusion http://www.americanthinker.com/articles/2017/09/the_unconstitutionality_of_rod_j_rosenstein.html#.Wbf9i88ABSs.twitter\xc2\xa0\xe2\x80\xa6'
p856
S'8:31 AM - 12 Sep 2017'
p857
tp858
a.