(lp0
(S"Imagine in you will morons that can't think for themselves being so stupid to still believe in the fake Trump/Russia collusion pushed by the most corrupt politician in the history of our nation phony Hillary"
p1
S'3:59 PM - 26 Nov 2017'
p2
tp3
a(S'T-RUMP, even if you did some of good things you want to take credit for, it won\xe2\x80\x99t begin to make up for your collusion with PUTIN & Russia. I believe you are a traitor & taking orders directly from Putin..the only person you have never criticized & you have not imposed sanctions.'
p4
S'3:59 PM - 26 Nov 2017'
p5
tp6
a(S'But wait\xe2\x80\x94-why spend all that money when #Trump collusion with Russia is supposed to be the basis for impeachment, hmmm??? Tick-Tock. Tick-Tock. Liberals overplayed their hand and they\xe2\x80\x99re LOSING! #MAGA #RussiaGate #LiberalLogic'
p7
S'3:55 PM - 26 Nov 2017'
p8
tp9
a(S"No, Democrats and patriotic Republicans want to know the full extent of the Russia attack and the collusion with traitorous Americans.  Wouldn't you like to be in one of those categories?\n\nYou have Obama's ecomony and more scandals in the first 10 months than any other President. https://twitter.com/realDonaldTrump/status/934896989539586054\xc2\xa0\xe2\x80\xa6"
p10
S'3:55 PM - 26 Nov 2017'
p11
tp12
a(S'The real Russia collusion was between Hillary, Obama and Putin. Together they put Americans at risk by giving away nuclear bomb material URANIUM!! IN EXCHANGE FOR $$$ for the Democrat party..tick tock....'
p13
S'3:54 PM - 26 Nov 2017'
p14
tp15
a(S'In ur mind I guess.  Almost $100 mil spent investigating the Clintons, and still nothing! Keep up the fake narrative & you\xe2\x80\x99ll keep believing it. But Russia on the other hand, that sh7t is getting real! Collusion with hostile enemy and indightments! US has not seen the likes ever!'
p16
S'3:54 PM - 26 Nov 2017'
p17
tp18
a(S"Let's not forget:regardless of Trump's collusion,he has failed to take action against Russia for its intrusion."
p19
S'3:53 PM - 26 Nov 2017'
p20
tp21
a(S'Special Counsel Mueller has come up with nothing after a year of investigation. Indictments that were handed down had nothing to do with the campaign or Russia. I thought his scope of the investigation was concerning Russia collusion? Money spent on nothing burger!'
p22
S'3:52 PM - 26 Nov 2017'
p23
tp24
a(S'Russia collusion here. Better supbeona ronald mcdonald, colonel sanders.'
p25
S'3:50 PM - 26 Nov 2017'
p26
tp27
a(S"A smidgen? So far at least a dozen people have ties to Russia during the election. meetings, emails and phone calls. It's not Marsha Marsha Marsha it's collusion collusion collusion. I wouldn't care but all he's done is lie, Steel, pollute, and try to pass horrible legislation"
p28
S'3:49 PM - 26 Nov 2017'
p29
tp30
a(S"If you're asking about Trump-Russia collusion/conspiracy at this point, you either just woke up from a coma, or you're being intellectually dishonest."
p31
S'3:49 PM - 26 Nov 2017'
p32
tp33
a(S'Keep hoping for Clinton to be President.   You have no proof of collusion with Russia by Trump.   There is however interesting links between the Clintons and Russia.   Why not get off the partisan hook and do some real investigative journalism?   You could do a lot of good.'
p34
S'3:48 PM - 26 Nov 2017'
p35
tp36
a(S'Since the 1st day of your Fake Presidency, all you hear from T(rump) is phoney bragging about all your non-existent accomplishments. Your Russia connection will bring you down the way all your other bankruptcy failures led you to desperate collusion with foreign enemy power. SAD!'
p37
S'3:44 PM - 26 Nov 2017'
p38
tp39
a(S'The evidence is gathering like a storm cloud over the White House.  You are all going to fall.  Hard.  Russia is not phony.  Your collusion was real and there are witnesses who are talking.'
p40
S'3:41 PM - 26 Nov 2017'
p41
tp42
a(S"Your collusion with Russia is not phony! Guilty! And you don't have the economy booming, that was happing two years before you took office! And you haven't done anything, no major bills passed. You can't do anything even with complete Republican control of the government!"
p43
S'3:40 PM - 26 Nov 2017'
p44
tp45
a(S'You\xe2\x80\x99re the only one that\xe2\x80\x99s causing issues and you know Russia is a true thing because we know that they caused conspiracy and collusion'
p46
S'3:40 PM - 26 Nov 2017'
p47
tp48
a(S"America is going to be saying 'Merry Collusion With A Hostile Foreign Power' again. TRUMP IS A HITLER WANNA BE, MAKING SECRET DEALS WITH RUSSIA, JUST LIKE HITLER. https://www.dailykos.com/story/2017/11/24/1717111/-America-is-going-to-be-saying-Merry-Collusion-With-A-Hostile-Foreign-Power-again\xc2\xa0\xe2\x80\xa6"
p49
S'3:39 PM - 26 Nov 2017'
p50
tp51
a(S'Conspire with Russia. Conspiracy. Carries jail time. Collusion does not. https://twitter.com/brianklaas/status/934927108840787968\xc2\xa0\xe2\x80\xa6'
p52
S'3:33 PM - 26 Nov 2017'
p53
tp54
a(S'Hmmm...you should do more research than just this. @realDonaldTrump will be fine, so will Gen Flynn.  Gen Flynn was cleared by FBI; no Russia collusion.'
p55
S'3:33 PM - 26 Nov 2017'
p56
tp57
a(S'President Trump Dismisses Russia Investigation: \xe2\x80\x98Phony Democrat Excuse for Losing the Election\xe2\x80\x99 -Notice how he says this after Gen Flynn has defected to Muller to provide proof of collusion.'
p58
S'3:31 PM - 26 Nov 2017'
p59
tp60
a(S"America is going to be saying 'Merry #Collusion With A Hostile Foreign Power' again! #christmas #russia #trumphttps://www.dailykos.com/story/2017/11/24/1717111/-America-is-going-to-be-saying-Merry-Collusion-With-A-Hostile-Foreign-Power-again\xc2\xa0\xe2\x80\xa6"
p61
S'3:40 PM - 26 Nov 2017'
p62
tp63
a(S'Doesn\xe2\x80\x99t recognize his own voice ? He is losing his mind . ..another distracting news story away from the Russia collusion'
p64
S'3:31 PM - 26 Nov 2017'
p65
tp66
a(S'I see in the near future a liberal agenda to blame an #Eagles #Superbowl win on a #Trump #Russia #NRA #Collusion Theory #LiberalismIsAMentalDisorder'
p67
S'3:29 PM - 26 Nov 2017'
p68
tp69
a(S'RUSSIA collusion'
p70
S'3:29 PM - 26 Nov 2017'
p71
tp72
a(S"Fusion GPS (originators of the trump dossier) paid 3 journalists between june 2016 and february 2017 according to court documents.  Now it's getting interesting.  The collusion was between the clinton campaign, russia and THE MEDIA."
p73
S'3:27 PM - 26 Nov 2017'
p74
tp75
a(S'I will not get caught up on a whirlwind of indignation where my brain freeze at every distraction blowing our way.  I refused 2 get bent out of shape behind a former "comedian" meanwhile the man in the highest office may be in collusion with Russia as he erodes our democracy.'
p76
S'3:26 PM - 26 Nov 2017'
p77
tp78
a(S'Put aside collusion with Russia prior to the election, this looks like Trump colluding with Putin in plain sight to undermine our free press. \nAn American president takes an oath to defend our constitution, which includes a 1st Amendment. This is intolerable and infuriating. https://twitter.com/mollymckew/status/934569477865426944\xc2\xa0\xe2\x80\xa6'
p79
S'3:25 PM - 26 Nov 2017'
p80
tp81
a(S"Journalist Investigating Trump And Russia Says 'Full Picture Is One Of Collusion' https://n.pr/2zU3ePN\xc2\xa0 #dumptrump"
p82
S'3:25 PM - 26 Nov 2017'
p83
tp84
a(S"Luke Harding's book, Collusion, carefully documents Trump's Russia ties going back to the '80s.  Watch Harding's interview with the Canadian Broadcasting Corporation.  Necessary viewing to understand what this is all about.\n\nhttp://www.cbc.ca/player/play/1103191619991\xc2\xa0\xe2\x80\xa6"
p85
S'3:25 PM - 26 Nov 2017'
p86
tp87
a(S'#trump LOYAL\nto #Putin & #Russia\n#trump NOT LOYAL\nto #America #Congress\n@CIA & @FBI\n@GOP & @TheDemocrats\nBIPARTISAN #SANCTIONS\n@POTUS & @WhiteHouse\nREFUSE TO ENFORCE #RussiaSANCTIONS\n#trump GUILTY\n#COLLUSION & #TREASON\n\nCALL CONGRESS\n202-224-3121\nMUST ENFORCE\n#RussiaSanctionspic.twitter.com/QROnCi8tox'
p88
S'3:24 PM - 26 Nov 2017'
p89
tp90
a(S"Russia's involvement in swaying the election for you was verified by your intelligence agencies. Soon your collusion with Russia will be exposed by Mueller."
p91
S'3:24 PM - 26 Nov 2017'
p92
tp93
a(S'Actually, the Russia Russia talk (not phony) began long before your first day in office. Remember on your campaign when you asked Russia to publish HRC e-mails. I do. \nWin or lose the election, that and Russian campaign collusion is real. #Resign'
p94
S'3:22 PM - 26 Nov 2017'
p95
tp96
a(S"Commenting on his stupid tweets isn't going to make a difference, he expects it, that's his goal. The only way to get to him is to tweet to him what he hates: Russia collusion, Obamacare, Flake(y), etc. If all influential tweeters pound his feed w/ these, it'll get his attention."
p97
S'3:22 PM - 26 Nov 2017'
p98
tp99
a(S'Kenny just make time to visit Trump in jail for money laundering- collusion w Russia, nothing like organized crime relationships! Trump Ocean Resort Panama dirty money from drugs and human trafficking! SoHo Trump money laundering and scams to buyers, Flynn telling all! Big party!'
p100
S'3:21 PM - 26 Nov 2017'
p101
tp102
a(S"Baby Donald...how could Dems be bemoaning your collusion with  Russia when it was happening well before anyone knew you were Putin's best buddy?"
p103
S'3:20 PM - 26 Nov 2017'
p104
tp105
a(S"Actually, we heard about your & your team's treasonous collusion with RUSSIA, RUSSIA, RUSSIA to get you elected BEFORE you took office.\n\nAnd now Mueller's hearing even A LOT more about it... \nhttps://twitter.com/teapainusa/status/934824623379767302\xc2\xa0\xe2\x80\xa6"
p106
S'3:20 PM - 26 Nov 2017'
p107
tp108
a(S'Fusion GPS was paid to try and prove Hillary\xe2\x80\x99s made up Trump-Russia collusion story\n\n@ChuckGrassley @replouiegohmert @RepMattGaetz @RepDeSantis @DanaRohrabacherhttp://theduran.com/fusion-gps-was-paid-to-prove-hillarys-made-up-trump-russia-collusion-story/\xc2\xa0\xe2\x80\xa6'
p109
S'3:19 PM - 26 Nov 2017'
p110
tp111
a(S'Ha or your fake big crowds . Facts show diff. Hillary won popular vote by over three million fact! Fact 3/4 of Americans do not support you or your family. Fact you are under investigation by the FBI for collusion with Russia.'
p112
S'3:19 PM - 26 Nov 2017'
p113
tp114
a(S"You aren't going to get impeached because of collusion with Russia.\n\nYou're going to get indicted and impeached for obstruction of justice.\n\n#buckleupcheeto"
p115
S'3:18 PM - 26 Nov 2017'
p116
tp117
a(S'@POTUS ... The only \xe2\x80\x98booming\xe2\x80\x99 going on is from the #BabyCannon each time the fact of your perfidy and collusion with Russia is brought to light... h/t @benjaminwittes ...https://twitter.com/realdonaldtrump/status/934896989539586054\xc2\xa0\xe2\x80\xa6'
p118
S'3:17 PM - 26 Nov 2017'
p119
tp120
a(S"Ed the basement boy, please get a life that does more then follow Trump. Opposition research 'Collusion' isn't a crime.Paying Russian agent for a Fake Dossier is a crime. Receiving $$145 million in kickbacks  from Russia for U.S. Uranium CRIME!"
p121
S'3:17 PM - 26 Nov 2017'
p122
tp123
a(S"IF his party in Congress is backing up the President's crimes & will not impeach & the President is in collusion with a foreign power to destroy our democracy we have no protection if we can't indite him. He will dismantle democracy just like Putin did in Russia. https://twitter.com/tburages/status/934242558267473920\xc2\xa0\xe2\x80\xa6"
p124
S'3:17 PM - 26 Nov 2017'
p125
tp126
a(S'Picked up some required reading on #Trump/Russia. Collusion by @lukeharding1968.\nLooking forward to the read.pic.twitter.com/wrKz5wmOWW'
p127
S'3:16 PM - 26 Nov 2017'
p128
tp129
a(S'BWHAHAHAA thanks #Obama For the economy you haven\xe2\x80\x99t done ANY LEGISLATION! Also yes Russia Russia Russia... you know the collusion collusion collusion you and your family have with them with help of your admin... pic.twitter.com/HUppvDiIxI'
p130
S'3:16 PM - 26 Nov 2017'
p131
tp132
a(S'RUSSIA RUSSIA RUSSIA RUSSIA your collusion with RUSSIA is going to cause you and your family and your administration problems - Flynn turned on you. #MAGA resign go play golf'
p133
S'3:14 PM - 26 Nov 2017'
p134
tp135
a(S'Your a typical pathetic Libtard,stay off my thread Loser! BTW Killary and her pedophile buddy Podesta failed in spite of rigging,collusion with the press,and russia! \n#Lockthemallup'
p136
S'3:13 PM - 26 Nov 2017'
p137
tp138
a(S'1) You inherited a booming economy..thank you Obama! 2) Do not downplay collusion with Russia. TREASON is a serious offense and one not so easily brushed off with a wave of a hand or constant deflection. 3) You have failed more than you have succeeded during your brief tenure!'
p139
S'3:13 PM - 26 Nov 2017'
p140
tp141
a(S"In fairness to myself @realDonaldTrump, my excuse for us losing wasn't Russia Russia Russia it was Collusion Collusion Collusion. https://twitter.com/realDonaldTrump/status/934896989539586054\xc2\xa0\xe2\x80\xa6"
p142
S'3:12 PM - 26 Nov 2017'
p143
tp144
a(S'BUT, @realDonaldTrump didn\xe2\x80\x99t win the popular vote, loser!  Guilty if collusion with Russia and obstruction of justice. Lock him up!'
p145
S'3:12 PM - 26 Nov 2017'
p146
tp147
a(S'Wow in your dreams. You have done NOTHING towards helping America at anything but corruption & Collusion. Everything about you & Russia will be coming out soon.'
p148
S'3:11 PM - 26 Nov 2017'
p149
tp150
a(S'Yeah...He colluded with Russia, I mean all that evidence they have...Oh wait, that was HRC and her DNC cronies that they found evidence of collusion with Russia.'
p151
S'3:10 PM - 26 Nov 2017'
p152
tp153
a(S"The Economy and unemployment credit belong to @BarackObama. \n@realDonaldTrump's attempts to steal that credit because he has done nothing of his own, makes his Russia collusion all the worse. https://twitter.com/EdKrassen/status/934898655076724736\xc2\xa0\xe2\x80\xa6"
p154
S'3:09 PM - 26 Nov 2017'
p155
tp156
a(S'So desperate the Democrats are to find ties with Russia and Trump meanwhile there is all sorts of evidence implicating the Democrats with collusion with the Russians but nothing being done about it tells me a lot about how screwed up the Democrats have made our government today.'
p157
S'3:09 PM - 26 Nov 2017'
p158
tp159
a(S'Translation: "Since the first day I took office, all you hear is projection onto Democrats my fear about being taken down for my collusion with Russia. Despite my poor leadership the Obama economic boom continues and I have definitely done less than any other 10 month President."'
p160
S'3:09 PM - 26 Nov 2017'
p161
tp162
a(S'Yeah Russian hacking is more like Watergate or Trump collusion with Russia in terms of believable conspiracy theories... http://www.wired.co.uk/article/brexit-russia-influence-twitter-bots-internet-research-agency\xc2\xa0\xe2\x80\xa6'
p163
S'3:08 PM - 26 Nov 2017'
p164
tp165
a(S"...or blackmailed, by that adversarial nation (Russia?), to do the bidding for that adversarial nation's leadership (Putin?), to the detriment of the interests of the United States. Hopefully, the answer to why it seems as though there has been collusion, Mr. Mueller will answer."
p166
S'3:07 PM - 26 Nov 2017'
p167
tp168
a(S"CONFIRMED: Fusion GPS Paid Journalists Amid Trump-Russia 'Collusion' Hysteria http://thegatewaypundit.com/2017/11/confirmed-fusion-gps-paid-journalists-amid-trump-russia-collusion-hysteria/\xc2\xa0\xe2\x80\xa6"
p169
S'3:07 PM - 26 Nov 2017'
p170
tp171
a(S'Your Russia collusion is not relat d to the economy.'
p172
S'3:06 PM - 26 Nov 2017'
p173
tp174
a(S"Waa, Waa, Waa! You are such a big crybaby that it is an embarrassment to all Americans! You, your family, & your campaign cronies' collusion with Russia is not only a disgrace, but also, illegal. Mr. Mueller will find all the skeletons & you will be jailed. Then you can whine."
p175
S'3:06 PM - 26 Nov 2017'
p176
tp177
a(S'And I know there is no Trump/Russia collusion investigation.'
p178
S'3:05 PM - 26 Nov 2017'
p179
tp180
a(S"Mueller must be getting too close for comfort. There's nothing *phony* about the Russia/Trump collusion story. Your campaign had more contacts with Russian operatives than the last 5 presidents combined! You've done nothing but create controversy. #shutup"
p181
S'3:05 PM - 26 Nov 2017'
p182
tp183
a(S'No matter how much you scream and lie, you will be caught for your collusion with the Russians. Maybe your buddy Vladimir Putin, the dirty trickster, who got you elected, will give you asylum in Russia.'
p184
S'3:05 PM - 26 Nov 2017'
p185
tp186
a(S"'Mueller time'  a whole year of 'Mueller time' now. Trump Russia Collusion? \nIf you so desperately want rid of him..why not focus on real issues - that would be far more productive!"
p187
S'3:04 PM - 26 Nov 2017'
p188
tp189
a(S'I find it hilariously ironic that venues such as @MSNBC are now so devoid of anti-establishment sentiments on issues like warmongering, oil pipelines, or Clinton/Russia campaign collusion, these views & their proponents are sometimes crowded out & end up on the dreaded Fox News.'
p190
S'3:04 PM - 26 Nov 2017'
p191
tp192
a(S"No you haven't and no one is using your Russian collusion as an excuse. BUT you did collude and Russia did interfere so that needs to be fully out in the daylight. You don't nothing but help yourself and the rich at the expense of the less fortunate! #MuellerIsComing"
p193
S'3:04 PM - 26 Nov 2017'
p194
tp195
a(S'There is no trump /russia collusion investigation....Prince was what? what did blackwater do in SA RECENTLY ??? WHY WAS AL AWEED hung upside down ,beaten and torchered/'
p196
S'3:02 PM - 26 Nov 2017'
p197
tp198
a(S'IF you accomplish anything good, it will be forever tainted by your collusion with Russia against our nation.  Imagine what your descendants will ready about YOUR presidency in history books!'
p199
S'3:02 PM - 26 Nov 2017'
p200
tp201
a(S"I think what's happening here is two words. Fake news. Meullers investigation is going to get no one on trumps team for any collusion but they sure are going after a lot of obama ppl for russia ties."
p202
S'3:02 PM - 26 Nov 2017'
p203
tp204
a(S"Loser an liar.  The economy has been booming for several years.  Have you thanked President Obama yet?  The more you deny Russia collusion the more the trail appears to be leading to you and your staff.\n\nMAGA=Mueller Ain't Going Away"
p205
S'3:02 PM - 26 Nov 2017'
p206
tp207
a(S'The economy is still running on Obama\xe2\x80\x99s upswing, you have not passed ONE major piece of legislation and your collusion with Russia is going to put you and Jared behind bars. The only phony here is YOU. \n\nMueller\xe2\x80\x99s coming donny..\nFlynn is making you squirm right now isn\xe2\x80\x99t he???'
p208
S'3:00 PM - 26 Nov 2017'
p209
tp210
a(S'Choose your favorite:\n\nTrump - \xe2\x80\x9cRussia, Russia, Russia\xe2\x80\x9d\n\nJan Brady - \xe2\x80\x9cMarcia, Marcia, Marcia\xe2\x80\x9d\n\nMueller - \xe2\x80\x9cTrump is under arrest, arrest, arrest by the FBI\xe2\x80\x9d\n\nFederal Jury - \xe2\x80\x9cTrump is guilty, guilty, guilty of conspiracy, treason, collusion, money laundering, tax & cyber fraud.\xe2\x80\x9d'
p211
S'2:57 PM - 26 Nov 2017'
p212
tp213
a(S'This is no democrat excuse moron that\xe2\x80\x99s why mueller is investigating for Russia collusion be patient we will prove it https://twitter.com/realDonaldTrump/status/934896989539586054\xc2\xa0\xe2\x80\xa6'
p214
S'2:55 PM - 26 Nov 2017'
p215
tp216
a(S'Great Job  great President .   President Trump is your president all you lefties need to stop crying already.  Russia collusion is Clinton\xe2\x80\x99s. Economy just look at stock market (changes by the minute) has nothing to do with Obama.'
p217
S'2:53 PM - 26 Nov 2017'
p218
tp219
a(S'@TomFitton uranium one is the one russia collusion deal that made it through..what about the technology deal for Russia/China making new silicone valleys.and turning internet of to Russia.(.Why) Clinton&Obama trying give & sell are national security to Russia and China'
p220
S'2:51 PM - 26 Nov 2017'
p221
tp222
a(S'By now we know that if you talk about something, it means there is something there. You talk about the Russia collusion an awful LOT!!!'
p223
S'2:51 PM - 26 Nov 2017'
p224
tp225
a(S'I would be delighted to be proven wrong. But I don\xe2\x80\x99t think it assists our cause to indulge fantasies. If brexit is going to be stopped by evidence of Russia collusion, I think the evidence will need to be overwhelming, and be shown to have significantly influenced the ref result.'
p226
S'2:50 PM - 26 Nov 2017'
p227
tp228
a(S'Collusion with Russia has nothing to do with who won the election. What good things have you done'
p229
S'2:50 PM - 26 Nov 2017'
p230
tp231
a(S'O please only Russia Russia Russia Russia Russia collusion is right in your smug face hillary hillary hillary hillary o and hillary'
p232
S'2:48 PM - 26 Nov 2017'
p233
tp234
a(S'There is no collusion on Hillary but @realDonaldTrump colluded with Russia to get dirt on Hillary!!'
p235
S'2:45 PM - 26 Nov 2017'
p236
tp237
a(S'@realDonaldTrump lives rent free inside the heads of the political activists at #fakenews aka @cnn as they chase their Russia collusion conspiracy fantasy.'
p238
S'2:41 PM - 26 Nov 2017'
p239
tp240
a(S"it's to deflect the REAL RUSSIA COLLUSION WITH CLINTONS, OBAMA FBI MUELLER COVER UP URANIUM ONE BAD CROOKED DEAL"
p241
S'2:40 PM - 26 Nov 2017'
p242
tp243
a(S"Or tapes of him talking about collusion with Russia and he'll try to deny it's him. After all, P probably wore a wire..."
p244
S'2:40 PM - 26 Nov 2017'
p245
tp246
a(S'Russia, Russia, Russia.\nTrump. Trump. Trump.\nCollusion. Collusion. Collusion. \nJail. Jail. Jail. \n#Maga'
p247
S'2:40 PM - 26 Nov 2017'
p248
tp249
a(S'@SenateMajLdr @SenateGOP So why are you using our tax dollars to give to Mueller masquerade! Enough of this already! I dont know why you allowed this to begin with, and WHY DIDNT YOU LIMIT HIS POWER TO ONLY INVESTIGATE RUSSIA/TRUMP COLLUSION! YOU ALL KNOW BETTER!! https://twitter.com/yeritzalisbeth/status/932398359221911552\xc2\xa0\xe2\x80\xa6'
p250
S'2:39 PM - 26 Nov 2017'
p251
tp252
a(S'@RepAdamSchiff when are you going to tell us what you were able to find in your Russia Collusion Investigation!!!'
p253
S'2:37 PM - 26 Nov 2017'
p254
tp255
a(S"He never released his tax returns, pushed Putin's agenda for USA at every turn, voted against #RussiaSanctions and #MagnitskyAct. Sanders is up to his ears in Russia collusion."
p256
S'2:37 PM - 26 Nov 2017'
p257
tp258
a(S"@CNN  Fake news isn't talking about this facts rather they are busy chasing shadows and brainwashing their viewers with non existing Russia collusion. https://twitter.com/MarshaMarshaKy/status/934275824705994753\xc2\xa0\xe2\x80\xa6"
p259
S'2:37 PM - 26 Nov 2017'
p260
tp261
a(S'Was it spending a 1/3rd of your presidency golfing that helped the stock market? Or was it all the tweeting?  Cause I don\xe2\x80\x99t see any actual action on your part that makes the stock market go up. Unless they like presidents under investigation for collusion with Russia.'
p262
S'2:35 PM - 26 Nov 2017'
p263
tp264
a(S"Russia collusion HAS NOT been debunked. \n\nAnother lying fucking Trump supporter that can't deal with facts!"
p265
S'2:35 PM - 26 Nov 2017'
p266
tp267
a(S"U haven't passed anything, or contributed shit 2 economy. You've only signed destructive EO's ruining what was great abt America. \n& it's still not a Democratic probe. It's a federal probe into your collusion w Russia. Plans on signing extended sanctions bill against Russia yet?"
p268
S'2:33 PM - 26 Nov 2017'
p269
tp270
a(S"lost the popular vote, immigration reform tied up in courts, failed at healthcare reform twice, no infrastructure bill, Russia and China securing trade and diplomatic deals world wide, no tax bill yet, evidence mounts of collusion by your staff with Russia. Russia's plan?"
p271
S'2:32 PM - 26 Nov 2017'
p272
tp273
a(S'Can see that your afraid Flynn has flipped on you. Anytime Mueller starts getting close you start saying Russia collusion is fake.   The history books are not going to be kind to you. You will always be remember as the President tainted by Russia.'
p274
S'2:31 PM - 26 Nov 2017'
p275
tp276
a(S"God isn't real. Collusion with Russia is"
p277
S'2:31 PM - 26 Nov 2017'
p278
tp279
a(S"It's immaterial what has happened with the economy, almost all of it is Obama's credit. Russia, and your collusion, is important. You should not be president, you didn't legitimately win on any level. And America is the worse because of Trump."
p280
S'2:31 PM - 26 Nov 2017'
p281
tp282
a(S'There was no Russia collusion. Except for the democrats. Wake up or don\xe2\x80\x99t, you\xe2\x80\x99re wrong.'
p283
S'2:31 PM - 26 Nov 2017'
p284
tp285
a(S"When Hillary pays millions to collude with Russians they call it opposition research. When Trump's team talks it's called collusion. Geez I thought Russia was our deadly enemy and she sold 20% weapon grade uranium. Spare me they hypocrisy!"
p286
S'2:30 PM - 26 Nov 2017'
p287
tp288
a(S'So you\xe2\x80\x99re saying indirectly that there\xe2\x80\x99s actually no Russia Collusion since Hillary won the popular vote. Except if the colluding Russians didn\xe2\x80\x99t know that to win the US Presidency is to win the electoral vote. Make sense.'
p289
S'2:27 PM - 26 Nov 2017'
p290
tp291
a(S'Always trying to deflect the collusion you had with Russia. It will come out sooner or later. Only cry baby & whiner here is you.'
p292
S'2:26 PM - 26 Nov 2017'
p293
tp294
a(S'Because...there was no collusion with Russia.'
p295
S'2:24 PM - 26 Nov 2017'
p296
tp297
a(S'Everyone knows the Russia collusion story is bullshit but you Ben.'
p298
S'2:24 PM - 26 Nov 2017'
p299
tp300
a(S'Shut up... your team was in collusion with Russia... why don\xe2\x80\x99t you stop lying an work on getting things done'
p301
S'2:23 PM - 26 Nov 2017'
p302
tp303
a(S'Your collusion with Russia makes you a traitor and Putin\xe2\x80\x99s booty boy. Been fitted for handcuffs yet?'
p304
S'2:23 PM - 26 Nov 2017'
p305
tp306
a(S'Obama got the economy humming...you\xe2\x80\x99re literally the worst President.  Ever.  And in collusion with Russia.  #Sad #TrumpRussia'
p307
S'2:22 PM - 26 Nov 2017'
p308
tp309
a(S"I'm not a Democrat and I find the facts, yes FACTS, about your collusion with Russia to be true. The economy was booming when you took office and you've done less than nothing for 10 months. #FakePresident"
p310
S'2:21 PM - 26 Nov 2017'
p311
tp312
a(S"That's good since there was no Trump/Russia collusion."
p313
S'2:18 PM - 26 Nov 2017'
p314
tp315
a(S'Russia collusion is real.'
p316
S'2:18 PM - 26 Nov 2017'
p317
tp318
a(S'Taking credit for President Obama spearheading the recovery from the last Republican administration is disgusting. So is your collusion with RUSSIA RUSSIA RUSSIA. America will NEVER be great while you are in office.'
p319
S'2:16 PM - 26 Nov 2017'
p320
tp321
a(S"Are you suggesting Russians hacked the voting booths and alter the results to make Trump win? I don't get the Russia thing really. Care to elaborate on said collusion?"
p322
S'2:16 PM - 26 Nov 2017'
p323
tp324
a(S'I\xe2\x80\x99m pretty sure the economy has nothing to do with your collusion with Russia to win the election https://twitter.com/realdonaldtrump/status/934896989539586054\xc2\xa0\xe2\x80\xa6'
p325
S'2:14 PM - 26 Nov 2017'
p326
tp327
a(S"You didn't read the article then, its not collusion,  its conspiracy.  And yes there is evidence that trump campaign aided and abetted Russia in ways that violate election code and constitute criminal activity."
p328
S'2:14 PM - 26 Nov 2017'
p329
tp330
a(S"Yeah but how's that Russia collusion thing going? pic.twitter.com/Vhs4erRF1E"
p331
S'2:13 PM - 26 Nov 2017'
p332
tp333
a(S'You\xe2\x80\x99re underperforming Trump. And you & the Republican Party will be solely responsible when it all bottoms out! And your entire family will be in prison for corruption and collusion with Russia! pic.twitter.com/r2Tp1WwiiP'
p334
S'2:13 PM - 26 Nov 2017'
p335
tp336
a(S"You. Don't. Have. The. Economy. Booming. Period. Obama. Did. That. \n\nYou have literally done nothing but play golf, defend white supremacists and tweet lies. \n\nAnd lie about your indisputable collusion with Russia."
p337
S'2:11 PM - 26 Nov 2017'
p338
tp339
a(S'I want to know why NATO is gearing up to go to war with Russia and if this is why we are being turned against them.  Is this false collusion claim intended to anger us enough to agree to war?'
p340
S'2:11 PM - 26 Nov 2017'
p341
tp342
a(S"Sorry, imaginary beings don't get to pick our leaders. American citizens do. There's plenty of evidence Russia interfered with our election and the evidence of Trump's collusion is mounting. You'd have to be willfully blind and ignorant not to see that."
p343
S'2:09 PM - 26 Nov 2017'
p344
tp345
a(S'besides uranium one there is two other major obama & clinton russia deals that almost happened..why they wanted russia to have hold of all are national wealth and security.major Russia collusion.turning over internet and setting up new silicone valley in russia'
p346
S'2:08 PM - 26 Nov 2017'
p347
tp348
a(S'If there\xe2\x80\x99s no Russia connection, you should welcome an investigation and go about your business instead of ranting about it. If there was collusion, it explains your fawning over Putin.'
p349
S'2:06 PM - 26 Nov 2017'
p350
tp351
a(S'Note how this article about Trump\'s attack on CNN (et al) throws in the utterly irrelevant & absurd charge of "collusion" because it happened on the day Russia passed its own FARA law (AFTER US required RT to register, something the article fails to note)  http://www.newsweek.com/trumps-cnn-fake-news-attacks-could-come-back-haunt-him-obama-lawyer-says-722651\xc2\xa0\xe2\x80\xa6'
p352
S'2:06 PM - 26 Nov 2017'
p353
tp354
a(S'Hey, @realdonaldtrump, if Russia\'s meddling in the 2016 election is "fake" & there\'s no collusion, you don\'t have anything to worry about w regard to the #TrumpRussia investigation, right? #MuellerTimehttps://twitter.com/realDonaldTrump/status/934896989539586054\xc2\xa0\xe2\x80\xa6'
p355
S'2:06 PM - 26 Nov 2017'
p356
tp357
a(S'There was also Collusion/Conspiring within your Staff with Russia (possibly you too). You know it, we know it. Soon we will find out all the details. Enjoy your Million Dollar Weekends on us while you can. #YoullBeGoneSoon'
p358
S'2:05 PM - 26 Nov 2017'
p359
tp360
a(S"We hear Russia, Russia, Russia, because you colluded with Russia, to win the election, and then obstructed justice to try to cover up your collusion. The economy was already booming, when you took over from President Obama, and all you've done in 10 months is wreak havoc."
p361
S'2:04 PM - 26 Nov 2017'
p362
tp363
a(S"We don't want your collusion with Russia to make America great. Economy don't mean anything compared to your ties to Russia. Mueller is getting closer and everyone is tired of your lies. You have done nothing in 10 months despite you lying and say you did."
p364
S'2:03 PM - 26 Nov 2017'
p365
tp366
a(S'Oh but didn\xe2\x80\x99t you guys say the economy will crash? Why would Russia want a strong US economy and Strong Military...I\xe2\x80\x99m assuming no critical thinking was applied to the Russian collusion bs.'
p367
S'2:03 PM - 26 Nov 2017'
p368
tp369
a(S'Never have there been so many contacts between trump campaign and transition team with RUSSIANS! Collusion and puppet of the Kremlin. What a joke of a pres. When are you gonna fess up? Jared is also in bed with RUSSIA! trump crime family is run by Putin.'
p370
S'2:03 PM - 26 Nov 2017'
p371
tp372
a(S'Russia, russia, russia, russia, russia, russia, secret meetings, russia, money laundering, russia, trump Moscow. Russia, felix sater, russia, fertilizer king. Russia, bank of Cyprus, russia, shell companies, russia, wikileaks, russia, compromised. Collusion'
p373
S'2:01 PM - 26 Nov 2017'
p374
tp375
a(S'@realDonaldTrump @sixpat1 Only if \xe2\x80\x98Done more\xe2\x80\x99 = played more golf than any other president. Nice try downplaying collusion with Russia. https://twitter.com/realdonaldtrump/status/934896989539586054\xc2\xa0\xe2\x80\xa6'
p376
S'2:01 PM - 26 Nov 2017'
p377
tp378
a(S"That's because there is none. But wait till next week when that FBI agent spills the beans to Congress about the uranium one deal. America was being blackmailed by Russia? The FBI agent has documents videos and tapes. And the real Russian collusion with hildebeast & bummer"
p379
S'2:01 PM - 26 Nov 2017'
p380
tp381
a(S'Collusion. Russia. Cheat. Collusion. Russia. Loser (by 3 million votes). Collusion. Russia. Self enrichment. Russia. Collusion.'
p382
S'2:01 PM - 26 Nov 2017'
p383
tp384
a(S'Like this??? https://www.usatoday.com/story/news/politics/2017/11/26/fbi-didnt-tell-u-s-targets-russian-hackers-hunted-emails/895634001/\xc2\xa0\xe2\x80\xa6  I cannot believe the incompetency, collusion, and ignorance, practiced by ALL levels of govt in 2015-2016 that allowed Russia to steal the election.'
p385
S'1:59 PM - 26 Nov 2017'
p386
tp387
a(S"Oh, TRAITOR, does that mean some big RUSSIA story is about to break?  Flynn has already flipped so it's only a matter of time before the truth about your COLLUSION is revealed!"
p388
S'1:58 PM - 26 Nov 2017'
p389
tp390
a(S"Fam We *KNOW* @realDonaldTrump is a #Traitor\n#collusion w\\ #Russia to #HackTheVote\n#MoneyLaundering w\\Russia for Decades\n#EmolumentsClause violations that boggle the Mind\n&a world tour cozying up to the world's worst #dictators\n\nNow #Threats?\n#25thThe45thhttps://m.dailykos.com/stories/2017/11/13/1715140/-Trump-warns-that-people-will-die-unless-the-Russian-investigation-and-sanctions-are-dropped?detail=emaildkre\xc2\xa0\xe2\x80\xa6"
p391
S'1:58 PM - 26 Nov 2017'
p392
tp393
a(S"There's Russia Russia Russia collusion and you're also a predator pic.twitter.com/gWCYglXDy1"
p394
S'1:58 PM - 26 Nov 2017'
p395
tp396
a(S"It's not an excuse for losing an election, but your collusion with Russia is exemplary of your disregard for our way of life and our democracy. You are not a good American despite your effort to paint yourself as a patriot."
p397
S'1:57 PM - 26 Nov 2017'
p398
tp399
a(S'I don\xe2\x80\x99t know any Dems using Russia as an excuse for Hillary\xe2\x80\x99s loss. Russia\xe2\x80\x99s interference with our fragile democracy & possible collusion w/your campaign are a separate matter, not an excuse, asshole. U should have concerns too, but you\xe2\x80\x99re more worried about Putin\xe2\x80\x99s feelings. https://twitter.com/realdonaldtrump/status/934896989539586054\xc2\xa0\xe2\x80\xa6'
p400
S'1:57 PM - 26 Nov 2017'
p401
tp402
a(S'The economy has been growing for years and the collusion with Russia is established as fact'
p403
S'1:56 PM - 26 Nov 2017'
p404
tp405
a(S'I\xe2\x80\x99m reading between the lines here... what ur trying to tell us is ur admitting to collusion with Russia & something big is about to drop in the news(probably tapes) so now ur trying to brainwash ur Maga\xe2\x80\x99s into believing it\xe2\x80\x99s ok cause the economy(obamas) is doing good?'
p406
S'1:56 PM - 26 Nov 2017'
p407
tp408
a(S"How in the world could you think you have anything to do with the economy at this point? What have you done besides nothing!! By the way Donnie - Russia is not a phony excuse and you know it. It's called collusion!  #DonTheCon #TrumpLies #TrumpTreason"
p409
S'1:56 PM - 26 Nov 2017'
p410
tp411
a(S'President Donald J. Trump: Trump-Russia collusion narrative is a \xe2\x80\x9cphony Democrat excuse\xe2\x80\x9d that stems from their loss in the 2016 election. pic.twitter.com/jrbT4kIwRC'
p412
S'1:55 PM - 26 Nov 2017'
p413
tp414
a(S"LMAO  I'm stunned there are still Morons that believe the Russia-Trump Collusion Hoax!"
p415
S'1:55 PM - 26 Nov 2017'
p416
tp417
a(S"You can't get RUSSIA off your brain, because you are GUILTY of collusion."
p418
S'1:55 PM - 26 Nov 2017'
p419
tp420
a(S"It is true however that news outlets cover negative and untrue stories about Trump. Just like the so called collusion with Russia which doesn't exist."
p421
S'1:55 PM - 26 Nov 2017'
p422
tp423
a(S'The economy is due to Obama. You haven\xe2\x80\x99t done anything in 10 months except golf, tweet and make us the laughing stock of the world. Your collusion with Russia will be proven soon.'
p424
S'1:54 PM - 26 Nov 2017'
p425
tp426
a(S'What angers me the most about ppl pushing the "Trump/Russia" conspiracy is they focus more on how WikiLeaks obtained Podesta emails&ignore what was in them (DNC rigging, MSM collusion, HC Public Face+Private Face, Spirit Cooking, Wall Street Speeches, knowing Saudis support ISIS) pic.twitter.com/IxRHHcyXB9'
p427
S'1:54 PM - 26 Nov 2017'
p428
tp429
a(S'Collusion is a media and political made up crime. The crime if collusion only exists in tax fraud cases. It is a faux narrative that cannot exists in criminal law as being used. The reason is the crime if conspiracy with Russia dies not exist.'
p430
S'1:53 PM - 26 Nov 2017'
p431
tp432
a(S'How\xe2\x80\x99s Russia? #Collusion'
p433
S'1:53 PM - 26 Nov 2017'
p434
tp435
a(S"The same dumb stuff as usual. There is NO big Russia news. Except Clinton and Obama's collusion of course."
p436
S'1:52 PM - 26 Nov 2017'
p437
tp438
a(S'Bullshit, bullshit, bullshit.  Your collusion with Russia looks pretty damn real.  Your presidency is a disaster.  You do not even make a great puppet for Master Putin.'
p439
S'1:52 PM - 26 Nov 2017'
p440
tp441
a(S'Lol. Who are you a troll? Lol. Blah blah blah blah blah blah blah blah blah blah Russia Russia Russia Russia. Blah blah blah blah Russia Russia Russia. Tired of this fake BS collusion which is no proof. Deal with it.'
p442
S'1:52 PM - 26 Nov 2017'
p443
tp444
a(S'You want truth on Russia collusion with the United States well obama was yet everyone attacks Trump! Anyone who does your a ducking moron and shouldn\xe2\x80\x99t be allowed to vote! https://www.facebook.com/ForAmerica/videos/1582906448434374/\xc2\xa0\xe2\x80\xa6'
p445
S'1:50 PM - 26 Nov 2017'
p446
tp447
a(S'Didn\xe2\x80\x99t FBI director start Mueller and special counsel to investigate Russia collusion? Don\xe2\x80\x99t think it was Democrats.'
p448
S'1:48 PM - 26 Nov 2017'
p449
tp450
a(S'Susan Sarandon is an idiot! Hope she\xe2\x80\x99s happy with the Moron in the WH! Hillary would at least work for America, not tweet & play golf daily while collecting taxpayers money & certainly would not be in collusion with Russia!'
p451
S'1:48 PM - 26 Nov 2017'
p452
tp453
a(S'McGuirk either knows this or is wilfully ignorant of Director @Comey\xe2\x80\x99s congressional testimony. The formal @FBI inquiry into Trump-Russia collusion as part of Russian interference in the US election began July 2016.'
p454
S'1:48 PM - 26 Nov 2017'
p455
tp456
a(S'Mueller will do it and still find Trump Russia collusion.'
p457
S'1:48 PM - 26 Nov 2017'
p458
tp459
a(S'"Hillary Clinton killed Seth Rich to cover up something bad!"\n\nOh, Trump fired everyone that was investigating his collusion with Russia? Oh that\'s just mainstream media making that up!"'
p460
S'1:46 PM - 26 Nov 2017'
p461
tp462
a(S'Says the guy who supported and supports the Russia collusion pic.twitter.com/qEtbvQhMYO'
p463
S'1:45 PM - 26 Nov 2017'
p464
tp465
a(S'Being a racist, egotistical, pathological liar and for collusion with Russia? You can moan and whine about "muh msm agenda" but he\'s actively trying to stop investigation.'
p466
S'1:45 PM - 26 Nov 2017'
p467
tp468
a(S'Trump accomplishments:  collusion with Russia-destroy democracy, support hate groups-be a racist, sexually assault women-brag about it, be a liar-5+ Times a day, pull US out of treaties-destroy world trust in America, remove regs/treaty to protect climate-destroy class mate...'
p469
S'1:44 PM - 26 Nov 2017'
p470
tp471
a(S'The story about your collusion with Russia broke in July of 2016, 4 months BEFORE the election. Alas, it cannot be an excuse for losing it. Despite this, you continue to do nothing but peddle lies, conspiracy theories, & hate. That\'s all you\'ve "accomplished" after 10 months. https://twitter.com/realdonaldtrump/status/934896989539586054\xc2\xa0\xe2\x80\xa6'
p472
S'1:43 PM - 26 Nov 2017'
p473
tp474
a(S"You're going to hear a lot about Russia and collusion when they put you in jail! Economy was doing better without you. At least Americans could sleep with Obama in charge!"
p475
S'1:43 PM - 26 Nov 2017'
p476
tp477
a(S"Majority of People Talk About General Flynn Cooperating w/ Mueller About Collusion w/ Russia but What if Flynn Has Knowledge Outside of Politics....Example: Flynn Could Have Been a Middle Man Illegal Business Activities in Russia Involving Trump and/or Trump's Family"
p478
S'1:41 PM - 26 Nov 2017'
p479
tp480
a(S'And collusion with Russia has nothing to do with his victory.'
p481
S'1:41 PM - 26 Nov 2017'
p482
tp483
a(S'Even if and that is a huge IF President Trump colluded with Russia ppl need to understand that collusion is not a crime. Freakin idiots'
p484
S'1:41 PM - 26 Nov 2017'
p485
tp486
a(S'"Since the first day I took office, all I tweet are distractions for collusion with Russia, Russia, Russia. Despite this, I have fooled my supporters into thinking that I\'m not riding the coattails of my predecessor because this is still his economy. Thanks Obama!" Fixed it.'
p487
S'1:40 PM - 26 Nov 2017'
p488
tp489
a(S'The russia collusion is nothing to do with the dems. You are going down and you will take the country with you if it protects your damaged ego USA beware of the danger !!!'
p490
S'1:40 PM - 26 Nov 2017'
p491
tp492
a(S'Nyet! Whether Russia was the reason or not, your collusion is the problem, not the election result.'
p493
S'1:40 PM - 26 Nov 2017'
p494
tp495
a(S'You have heard a clear and steady stream of evidence and facts regarding your collusion with Russia and inability to represent the US with grace and dignity. The name \xe2\x80\x9cTrump\xe2\x80\x9d will be disgraced forever.'
p496
S'1:37 PM - 26 Nov 2017'
p497
tp498
a(S'MSM just wants to keep the focus off of your accomplishments by making up fake Russia stories.  How about some REAL Russia collusion with the Clintons and #UraniumOne?'
p499
S'1:37 PM - 26 Nov 2017'
p500
tp501
a(S'That is why the whole Trump Russia Collusion is fake and a flat out lie by the biased fake mainstream media.'
p502
S'1:36 PM - 26 Nov 2017'
p503
tp504
a(S'Russia, Russia, Russia. Collusion, collussion, collusion.  Flynn, Flynn, Flynn.  Flipping, flipping, flipping.'
p505
S'1:36 PM - 26 Nov 2017'
p506
tp507
a(S'For a guy who thinks the Russia collusion is fake, you seem awfully loud towards them. Most innocent people just cooperate with authorities and listen to their lawyer, which is to shut up until it is over. Grow up and quit dragging your country down.'
p508
S'1:36 PM - 26 Nov 2017'
p509
tp510
a(S"As usual you are true to yourself. You take credit for what Obama did. Continue like this... Your head is so big that you can hardly pass into a door!\nBut the facts are there. You're a liar that did collusion with Russia.\nYou are and continue to be the laughingstock of the world"
p511
S'1:35 PM - 26 Nov 2017'
p512
tp513
a(S'The economy has nothing to do with your collusion with Russia.'
p514
S'1:35 PM - 26 Nov 2017'
p515
tp516
a(S'I agree, and I get so tired of democrats lying about Russia collusion. Please fire Jeff Sessions and replace him with someone who will shut the Mueller probe down completely once and for all! @realDonaldTrump @POTUS'
p517
S'1:35 PM - 26 Nov 2017'
p518
tp519
a(S'Curt, she may have meant "new war" like the no-fly zone Hills wanted in Syria. War with Russia. But now that I see all of the massive collusion between her, Bill, payoffs with Russian banks and stockholders, I may have been off on that. Not war but more slimy corporate deals.'
p520
S'1:33 PM - 26 Nov 2017'
p521
tp522
a(S'What Trump\xe2\x80\x99s Endorsement of Roy Moore Tells Me About His Likely Collusion with Russia https://forwardprogressives.com/what-trumps-endorsement-of-roy-moore-tells-me-about-his-likely-collusion-with-russia/\xc2\xa0\xe2\x80\xa6'
p523
S'1:33 PM - 26 Nov 2017'
p524
tp525
a(S'Over 1300 false statements. You\xe2\x80\x99re a liar. Putin\xe2\x80\x99s puppet. Money launderer. Pee pee tape. Russia collusion. I trust our intelligence community, not you.'
p526
S'1:32 PM - 26 Nov 2017'
p527
tp528
a(S'You\xe2\x80\x99re full of. The economy is booming still from President Obama. Mueller doesn\xe2\x80\x99t seem to think Russia collusion phony. Neither does Flynn. Think that\xe2\x80\x99s got you and Jr worried'
p529
S'1:32 PM - 26 Nov 2017'
p530
tp531
a(S'#TrumpDossier #Trump #TrumpRussia #Putin #TrumpCrimeFamily #TrumpResign #ResistTrump #RESISTANCE #Collusion #conspiracy #MoneyLaundering #MuellerTime #DonaldTrump #DonJr #Mueller #25thAmendment #ImpeachTrump #DutyToWarn #MALIGNANTNARCISSIST #Russia #EmolumentsClause #Emolumentspic.twitter.com/XzRy2FiAXT'
p532
S'1:32 PM - 26 Nov 2017'
p533
tp534
a(S'Must be some big news coming about Trump Russia collusion. https://twitter.com/realdonaldtrump/status/934896989539586054\xc2\xa0\xe2\x80\xa6'
p535
S'1:32 PM - 26 Nov 2017'
p536
tp537
a(S'You are the one who can\xe2\x80\x99t move on from the election and Mueller constantly reminds us the impending full disclosure of the collusion on your administrations part. Russia Russia Russia is more real now more than ever. Thank you @BarackObama'
p538
S'1:32 PM - 26 Nov 2017'
p539
tp540
a(S'Trump is a fraud no doubt impeachment is near long live Robert muller and those who are uncovering the truth about the collusion and ties to Russia in the end they will follow the money trail you trump traitors are screwed cant wait pic.twitter.com/Bh2vVia6Kl'
p541
S'1:17 PM - 26 Nov 2017'
p542
tp543
a(S"And he doesn't even need to try to hide his collusion with Russia any more!  Did he meet that Russian yacht over the weekend?"
p544
S'1:17 PM - 26 Nov 2017'
p545
tp546
a(S"Although @SusanSarandon allegedly did'nt cast a vote for @realDonaldTrump, her wasted @DrJillStein vote was just as much a vote for #Trump.\nWould that make her complicit with #Russia #collusion?"
p547
S'1:16 PM - 26 Nov 2017'
p548
tp549
a(S"The illegetimant president was bummer not trump. So quit the BS about Russian collusion. Half America voted for Trump without Russia. Remember the election was rigged by DNC. That's why they were SO SURE she would win. Thank God she lost. America would of been dead had she won"
p550
S'1:15 PM - 26 Nov 2017'
p551
tp552
a(S'#TrumpDossier #Trump #TrumpRussia #Putin #TrumpCrimeFamily #TrumpResign #ResistTrump #RESISTANCE #Collusion #conspiracy #MoneyLaundering #MuellerTime #DonaldTrump #DonJr #Mueller #25thAmendment #ImpeachTrump #DutyToWarn #MALIGNANTNARCISSIST #Russia #EmolumentsClause #Emolumentspic.twitter.com/STodclA0BY'
p553
S'1:14 PM - 26 Nov 2017'
p554
tp555
a(S'https://narativ.org/2017/05/28/the-pied-piper/\xc2\xa0\xe2\x80\xa6 Levashov may have worked for the #FSB and #Trump \xe2\x80\x93 but he was used to a lavish lifestyle and was by no means cheap or free. His payment may now provide investigators with their first hard clue of #collusion between #Trump-Russia'
p556
S'1:12 PM - 26 Nov 2017'
p557
tp558
a(S'What Trump\xe2\x80\x99s Endorsement of Roy Moore Tells Me About His Likely Collusion with Russia https://forwardprogressives.com/what-trumps-endorsement-of-roy-moore-tells-me-about-his-likely-collusion-with-russia/\xc2\xa0\xe2\x80\xa6'
p559
S'1:11 PM - 26 Nov 2017'
p560
tp561
a(S"In Obama and Clinton and the DNC. That who's behind all the Russia collusion. Lets not forget the last 2 FBI Directors."
p562
S'1:09 PM - 26 Nov 2017'
p563
tp564
a(S'Hilarious! Must be a bot, even libs know the Trump/Russia collusion is dead.'
p565
S'1:09 PM - 26 Nov 2017'
p566
tp567
a(S'HA- NOT! the investigation of the sale to Russia of a U.S. uranium company puts ALL Dems in "a somewhat precarious position." it\'s just getting warmed up. Also, don\'t you question Hillary\'s wealth & 145Mil in donations?  Reverse that role & say it was Trump. That\'s Collusion'
p568
S'1:06 PM - 26 Nov 2017'
p569
tp570
a(S'Hillary selling uranium to Russia shows collusion then doing pay for play with them.Making millions off of middle east countries that support and fund terrorist.Her crimes are many'
p571
S'1:01 PM - 26 Nov 2017'
p572
tp573
a(S"I think you speak of republicans. Let's see, pedophile.Roy Moore.Russia collusion POTUS.calling negative press 'fake', propaganda'fox news'"
p574
S'1:01 PM - 26 Nov 2017'
p575
tp576
a(S'this is called "Collusion with Russia"'
p577
S'12:59 PM - 26 Nov 2017'
p578
tp579
a(S'Especially Mueller\xe2\x80\x99s 3 Ring circus called the Russia investigation on Trump collusion..... still nothing there so when the f*ck is he gonna move on?'
p580
S'12:58 PM - 26 Nov 2017'
p581
tp582
a(S'the only collusion is Hillary and Russia.Democrats have colluded with Russia every election there in.The proof is out there'
p583
S'12:58 PM - 26 Nov 2017'
p584
tp585
a(S'@realDonaldTrump is a lying liar who lies for a living. Plus theres \nRUSSIA COLLUSION RUSSIA COLLUSION RUSSIA COLLUSION RUSSIA COLLUSION RUSSIA COLLUSION RUSSIA COLLUSION RUSSIA COLLUSION RUSSIA COLLUSION RUSSIA COLLUSION'
p586
S'12:55 PM - 26 Nov 2017'
p587
tp588
a(S"TRUMP's COLLUSION w/PUTIN TO SHUT OUT OR SHUT DOWN CNN WILL PROVE DISASTROUS FOR HIMWHILE IN RUSSIA IF A CNN REPORTER DIES MYSTERIOUSLY DT WOULD BE IMPLICATED\nhttp://www.palmerreport.com/politics/cnn-putin-trump/6254/\xc2\xa0\xe2\x80\xa6 via @PalmerReport"
p589
S'12:55 PM - 26 Nov 2017'
p590
tp591
a(S'QUOTE:  \xe2\x80\x9cThe Clintons made millions, Russia took one-fifth of US uranium and together they now are working with their crooked partners in the FBI and Deep State to pin false Russia collusion charges on current President Donald Trump.\n\nYou can\xe2\x80\x99t make this stuff up!\xe2\x80\x9d'
p592
S'12:53 PM - 26 Nov 2017'
p593
tp594
a(S'Exactly and Mark Burnett at Apprentice but as bad as that stuff is Trump wants it to distract us from obstruction and collusion with Russia and cases like this, https://pl.scribd.com/doc/310835987/Donald-Trump-Lawsuit\xc2\xa0\xe2\x80\xa6'
p595
S'12:53 PM - 26 Nov 2017'
p596
tp597
a(S'An update on the "Witchhunt" against President Trump and the "Russia Collusion" Issue?... http://fb.me/19ni6uhJm\xc2\xa0'
p598
S'12:52 PM - 26 Nov 2017'
p599
tp600
a(S'And the only proven Russia collusion is Hillary and Russia, sooooooo stop spreading falsities and misinformation'
p601
S'12:49 PM - 26 Nov 2017'
p602
tp603
a(S"Find me 1 person in prison anywhere in the United States for 'collusion' with Russia."
p604
S'12:48 PM - 26 Nov 2017'
p605
tp606
a(S'Democrats and Never Ttumpers are far more concerned with imaginary Trump-Russia conspiracy theories than the actual collusion prominent Democrats engaged in with real Soviets back when it truly mattered during the Cold War. https://twitter.com/20committee/status/934814364464332800\xc2\xa0\xe2\x80\xa6'
p607
S'12:45 PM - 26 Nov 2017'
p608
tp609
a(S'Rollo - preference: you provide meaningful responses vs. assumptions !  Remember saying about "assume", i.e.  hyphen after:  "ass - u - me".  Yes, I\'m upset about you & others not willing to listen to facts. + willingness to ignore serious issues re: Treason & Collusion w/Russia.'
p610
S'12:44 PM - 26 Nov 2017'
p611
tp612
a(S'Democrats and their media sock-puppets still pushing Russia collusion fiction & refuse to tackle this evidence: http://conta.cc/2AroSLO\xc2\xa0'
p613
S'12:42 PM - 26 Nov 2017'
p614
tp615
a(S'Dems stuck listening about Russia nothings with trump while gag order is being lifted showing real Russia uranium collusion/pay for play/treason. Imran awan scandal but dems have some cool stories'
p616
S'12:38 PM - 26 Nov 2017'
p617
tp618
a(S"You're very creative with the excuses.\nRussia IS the enemy. Sanctions were imposed as punishment for interfering in our election. Trump has been trying to create an HRC/Russia connection that isn't there. Why would he blame her for collusion if Russia was good?"
p619
S'12:38 PM - 26 Nov 2017'
p620
tp621
a(S'You want to know who would be in the street with guns shooting Democrats if Hillary had been the one to win an election by collusion with Russia?? Add that to the "Uranium One" horseshit and they would be at war already....\n\nThe hypocrisy in #MAGA base is astounding.'
p622
S'12:33 PM - 26 Nov 2017'
p623
tp624
a(S'So far we have nothing to go on to prove ANY Democrat was involved in collusion with Russia. If so, they did a piss poor job because Democrats lost. That being said, NO ONE was suggesting party lines define guilt. Except you interpreted that it seems. Guilt is not party guided.'
p625
S'12:27 PM - 26 Nov 2017'
p626
tp627
a(S'The fake news created stories, makes up misleading news. The real collusion is Hillary and Obama with Russia, the prolonged effort by the left shows everyone in the establishment is in panic mode, Lies will not work in America any more. The ppl believe in Trump. So does God.'
p628
S'12:25 PM - 26 Nov 2017'
p629
tp630
a(S'This is the real collusion! It was the DNC and MSM who were caught colluding, not "Russia! Russia! Russia!" @POTUS @seanhannity @fox newshttps://twitter.com/PinoPinig19/status/934728837396664320\xc2\xa0\xe2\x80\xa6'
p631
S'12:23 PM - 26 Nov 2017'
p632
tp633
a(S"FBI Didn't Tell US Targets as Russian Hackers Hunted Emails https://www.newsmax.com/Newsfront/fbi-comey-russian-hackers/2017/11/26/id/828075/\xc2\xa0\xe2\x80\xa6 #Newsmax via @Newsmax_Media #FBI #Russia #Comey #Collusion"
p634
S'12:22 PM - 26 Nov 2017'
p635
tp636
a(S"Millions your supporters NOW listen to FLYNN'S collusion w/Russia by YOU &your campaign.Don't know why Sekulow says no evidence exists when we've seen it.We are NOT blind!This borders on TREASON by YOU.We REGRET our vote 4 you."
p637
S'12:21 PM - 26 Nov 2017'
p638
tp639
a(S'Soros is the real collusion that is "undermining the fabric of Western civilization," not Putin\'s Russia. \nNigel Farage calls for Soros\' Open Society to be investigated over political collusion and subversion\nEmpire exposed: Billions for subversion, sabotage and strife https://twitter.com/Stella_Basham/status/934879205376102401\xc2\xa0\xe2\x80\xa6'
p640
S'12:21 PM - 26 Nov 2017'
p641
tp642
a(S"Russia doesn't care about the collusion - they want what they want and they are getting it."
p643
S'12:20 PM - 26 Nov 2017'
p644
tp645
a(S'He has done nothing wrong. A year of investigation has turned up nothing showing collusion between trump and Russia but hy all means ignore the fact that bill & hillary both have russian ties #Uranium1 is a fact. Trumpbis not the criminal'
p646
S'12:18 PM - 26 Nov 2017'
p647
tp648
a(S"Trump is under investigation for obstruction and collusion with Russia\n\nDon't get sidetracked.\n\nAccess Hollywood grow a pair and release everything you have. \n\n@TIME  tell the world Trump lying you didn't call him."
p649
S'12:14 PM - 26 Nov 2017'
p650
tp651
a(S"Journalist Investigating Trump And Russia Says 'Full Picture Is One Of Collusion' http://fb.me/8Fj5eniwR\xc2\xa0"
p652
S'12:13 PM - 26 Nov 2017'
p653
tp654
a(S'Read your own question you asked what proof Russia meddled in election , I SAD FBI CIA and 98 senators said they did and sanctioned Russia. As for second issue of collusion, Mueller investigating that, but Trump refusing to sanction Russia not looking good'
p655
S'12:12 PM - 26 Nov 2017'
p656
tp657
a(S'The same reason that if it\'s somehow proven that he directed the collusion with Russia in his campaign, he\'s not going to jail. That "gravitas of the office" bullshit.'
p658
S'12:11 PM - 26 Nov 2017'
p659
tp660
a(S"You would think there's more proof here than Russia collusion by Trump. Special prosecutor? https://twitter.com/ScottPresler/status/934832551650381824\xc2\xa0\xe2\x80\xa6"
p661
S'12:10 PM - 26 Nov 2017'
p662
tp663
a(S'#TrumpDossier #Trump #TrumpRussia #Putin #TrumpCrimeFamily #TrumpResign #ResistTrump #RESISTANCE #Collusion #conspiracy #MoneyLaundering #MuellerTime #DonaldTrump #DonJr #Mueller #25thAmendment #ImpeachTrump #DutyToWarn #MALIGNANTNARCISSIST #Russia #EmolumentsClause #Emolumentspic.twitter.com/pRqVakdIrc'
p664
S'12:02 PM - 26 Nov 2017'
p665
tp666
a(S'Yes. DT is president because he was installed by Russia changing votes   E-mail hacking & posting false stories on social media. DT & Campaigns Collusion & Coordination (AKA Treason) https://twitter.com/frank_schaeffer/status/934870531660230656\xc2\xa0\xe2\x80\xa6'
p667
S'11:58 AM - 26 Nov 2017'
p668
tp669
a(S'Thanks @brianstelter.  This is what I was looking for.  No mention however if the call Trump had with Putin.  This is relevant.  Trump\xe2\x80\x99s tweet about CNNi helps Putin sell his new law domestically in Russia. You could call it \xe2\x80\x9ccollusion\xe2\x80\x9d \xe2\x80\x94 payback for Putin\xe2\x80\x99s past help.'
p670
S'11:54 AM - 26 Nov 2017'
p671
tp672
a(S"If you still have any doubts about Trump, his campaign, and collusion with Russia, listen to this NPR Fresh Air podcast, in which Terry Gross interviews Guardian reporter Luke Harding. It's all you need to know. https://www.ottoradio.com/podcast/fresh-air/-how-russia-helped-trump-win-the-white-house--836?place=discovery\xc2\xa0\xe2\x80\xa6"
p673
S'11:50 AM - 26 Nov 2017'
p674
tp675
a(S"It's CNN's job to report true news & Trump's job to not advertise for enemy collusion by sending messages in a campaign speech to our enemy entity to cyber-spy for @HillaryClinton lost classified & secret emails. I wonder if that message was intended to accept Russia's offer?"
p676
S'11:45 AM - 26 Nov 2017'
p677
tp678
a(S'#Russia\n#Collusion'
p679
S'11:45 AM - 26 Nov 2017'
p680
tp681
a(S"@realDonaldTrump Trumpy, I'm beginning to find hope in the fact Mueller is getting closer and closer to the center, the hub of the Russia/Trump collusion. You!!!!"
p682
S'11:45 AM - 26 Nov 2017'
p683
tp684
a(S"@realDonaldTrump  You need to resign. Sexual harassment..collusion with Russia..a plethora of other alligations..you wouldn't make it pass a micky d's background  #LockTrumpUp"
p685
S'11:42 AM - 26 Nov 2017'
p686
tp687
a(S"The only Russian collusion was HILLARY & uranium deal. Oh yeah OBAMA spent millions of tax payers dollars to interfere w/ Russia's election. U probably didn't even know that"
p688
S'11:38 AM - 26 Nov 2017'
p689
tp690
a(S'C\xe2\x80\x99mon, when Cernovich and Stone are behind allegations against 2 vocal advocates against Trump\xe2\x80\x99s collusion with Russia, can we really take it at face value?'
p691
S'11:37 AM - 26 Nov 2017'
p692
tp693
a(S'No it\xe2\x80\x99s not a coincidence, it\xe2\x80\x99s further proof of collusion with Russia. You know he knew in advance the the puppet master was going to do this'
p694
S'11:36 AM - 26 Nov 2017'
p695
tp696
a(S'Does Hillary\xe2\x80\x99s Russia collusion count ? https://twitter.com/foxbusiness/status/934819045034962944\xc2\xa0\xe2\x80\xa6'
p697
S'11:29 AM - 26 Nov 2017'
p698
tp699
a(S"You poor thing. You'd like more PMs who commit crimes like treason, abuse of power, obstruction of justice, money laundering, collusion with Russia, corruption, pedophilia, rape, domestic violence, extreme Christian terrorism, white supremacy & Constitutional violations? pic.twitter.com/rfK9joiAUb"
p700
S'11:29 AM - 26 Nov 2017'
p701
tp702
a(S"Guess you missed young George P. 's plea bargain regarding collusion with Russia?"
p703
S'11:22 AM - 26 Nov 2017'
p704
tp705
a(S"Collusion: Secret Meetings, Dirty Money, and How Russia Helped Donald Trump Win (Unabridged) by Luke Harding\nMuch better background than what I've seen in the news. This clues us into what Mueller and Comey know. https://itunes.apple.com/us/audiobook/collusion-secret-meetings-dirty-money-how-russia-helped/id1313985346\xc2\xa0\xe2\x80\xa6"
p706
S'11:16 AM - 26 Nov 2017'
p707
tp708
a(S"Trumps treasonous campaign collusion w/Russia changing GOP platform to favor Russia over Ukraine & DT obvious obstruction of justice now won't enforce sanctions against Russia interference in our election! Trump is a Traitor & should be Impeached GOP would not hesitate if a Dem"
p709
S'11:15 AM - 26 Nov 2017'
p710
tp711
a(S"James Comey caused ppl not 2 vote for Clinton. This email BS tipped favor to Trump. Comey didn't mention Trump/Russia Collusion in July 2016"
p712
S'11:14 AM - 26 Nov 2017'
p713
tp714
a(S'Let this sink in, as we listen to the Mueller Russia collusion investigation https://twitter.com/theoptionoracle/status/934839590753411073\xc2\xa0\xe2\x80\xa6'
p715
S'11:11 AM - 26 Nov 2017'
p716
tp717
a(S"The Russia collusion investigation is going to end in either Trump literally losing the presidency, or literally years of CNN protractedly eating crow, bit by bit.\n\nThe future is bright and I can't fucking wait. https://twitter.com/CNNPR/status/934559957713932290\xc2\xa0\xe2\x80\xa6"
p718
S'11:09 AM - 26 Nov 2017'
p719
tp720
a(S'5/5 Rather Browder excoriates Fusion GPS (Glen Simpson) &calls out Obama 4 sycophantic \xe2\x80\x9cpuckering up\xe2\x80\x9d to Putin during failed Russian Reset. He also says Carter Page was a \xe2\x80\x9cnobody\xe2\x80\x9d in Russia (a wannabe poser). Hence purported Trump/Russian \xe2\x80\x9ccollusion\xe2\x80\x9d w Page seems specious at best'
p721
S'11:05 AM - 26 Nov 2017'
p722
tp723
a(S"Give me a break it's been over a year now, no collusion has been found between President Trump and Russia! Are you seriously still holding on to that, that's pretty desperate. However, there is collusion between Hillary and Russia. Hoping she'll be prosecuted."
p724
S'11:04 AM - 26 Nov 2017'
p725
tp726
a(S'Collusion with Russia \xe2\x80\x9cI just don\xe2\x80\x99t see it\xe2\x80\x9d per every republican '
p727
S'11:01 AM - 26 Nov 2017'
p728
tp729
a(S'Here is the real collusion that America should worry about. The corrupt media willing to sell their souls to the devil just to have access. Russia has nothing on our own in-house fake news agents lying to America every day! https://twitter.com/AnnaApp91838450/status/934635379096989696\xc2\xa0\xe2\x80\xa6'
p730
S'11:01 AM - 26 Nov 2017'
p731
tp732
a(S'Dear @POTUS UR A #LIAR #CHARLATAN #FRAUD #RUSSIA LOVING #USA #HATING #PIECEOFSHIT http://lockhimupnow.org\xc2\xa0 #COLLUSION pic.twitter.com/xMHdnuGlai'
p733
S'11:00 AM - 26 Nov 2017'
p734
tp735
a(S'The only thing anyone should watch with DeVos in it is the trial scene where she is shipped off to prison for her part in the collusion with russia!'
p736
S'10:58 AM - 26 Nov 2017'
p737
tp738
a(S'No surprise. At this point, for most Americans, collusion eith Russia is a given.'
p739
S'10:56 AM - 26 Nov 2017'
p740
tp741
a(S"Sorry @FareedZakaria no account of a trump win is complete without discussing the media's role and collusion with Russia. To present this without, condemns us to repeat the failure."
p742
S'10:55 AM - 26 Nov 2017'
p743
tp744
a(S"By cheating Americans?  You cannot bring anything back, Let's focus on your COLLUSION WITH RUSSIA."
p745
S'10:55 AM - 26 Nov 2017'
p746
tp747
a(S'The only embarrassment is you voting for clintons! Now that\xe2\x80\x99s an embarrassment! How\xe2\x80\x99s that Russia  collusion with Trump going now? You voted & stand for a murderer, sellout, Benedict Arnold, cover up rape and wouldn\xe2\x80\x99t help anybody with anything unless they can get money.'
p748
S'10:54 AM - 26 Nov 2017'
p749
tp750
a(S'Ha ha ha! Steyer is a Left loon, in my humble opinion! He\xe2\x80\x99s hanging on to Russia Collusion lie, criticized firing lying Comey and he\xe2\x80\x99s from California! 3 strikes. Apologies to Conservative minority in CA.'
p751
S'10:52 AM - 26 Nov 2017'
p752
tp753
a(S'People Please remember to Watch what they Do Gerrymandering Collusion Obstruction of Justice Distraction Russia Tax Cuts for the Rich Net. Neutrality Rules.CORRUPTION MONEY LAUNDERING FLYNN MANAFORT TRUMPJR. KUSHNER LIES. KEEP 2018 & 2020.'
p754
S'10:49 AM - 26 Nov 2017'
p755
tp756
a(S'By the rules of the electoral college he won. I don\xe2\x80\x99t agree with the electoral college but it is still the the law of the land. Until it changes stop saying that he lost. Or we have absolute proof of his collusion with Russia.'
p757
S'10:46 AM - 26 Nov 2017'
p758
tp759
a(S'Tracy, your first video I listened to was in regards to the "what if" Mueller was placed as special counsel to actually investigate the corruption and not the Russia/Trump collusion! Your logic made so much sense then and it still does! Thank you for keeping us informed!'
p760
S'10:45 AM - 26 Nov 2017'
p761
tp762
a(S'Uh. Wow this was a lot of wasted breathe.  You have no proof of campaign collusion between @realDonaldTrump and Russia.  Get over it you Nazi.'
p763
S'10:43 AM - 26 Nov 2017'
p764
tp765
a(S'I have more evidence that Sandy Hook was a hoax than all of you leftist kooks have about Russia collusion with Trump.'
p766
S'10:42 AM - 26 Nov 2017'
p767
tp768
a(S"How's that Russia Trump collusion investigation going pic.twitter.com/HIceqUdv0T"
p769
S'10:42 AM - 26 Nov 2017'
p770
tp771
a(S'Hey it worked for Russia collusion right?'
p772
S'10:40 AM - 26 Nov 2017'
p773
tp774
a(S"Pedophile is better?  Let's focus on your COLLUSION with Russia!"
p775
S'10:40 AM - 26 Nov 2017'
p776
tp777
a(S'Evidence of Trump-Russia collusion already exists, Watergate prosecutors say http://www.newsweek.com/trump-russia-collusion-watergate-jared-kushner-emails-data-cambridge-analytica-710084\xc2\xa0\xe2\x80\xa6'
p778
S'10:30 AM - 26 Nov 2017'
p779
tp780
a(S"Hillary single handedly brought Russia into this mess bcuz of her mile long history w Russia .  She's like a pig rolling in Russia shit .  Which is fine, I guess but accuse ur opponent of the collusion YOU are guilty of is .. well she won't get away w it"
p781
S'10:29 AM - 26 Nov 2017'
p782
tp783
a(S'I heard it was an alt-right Nazi republican Russia collusion that made him step down. But at least he is being replaced by another icon, Jerry Nadler.'
p784
S'10:22 AM - 26 Nov 2017'
p785
tp786
a(S'#Trump #Russia #TrumpRussia #Collusion https://twitter.com/SethAbramson/status/934707667284742144\xc2\xa0\xe2\x80\xa6'
p787
S'10:16 AM - 26 Nov 2017'
p788
tp789
a(S"Journalist Investigating Trump And Russia Says 'Full Picture Is One Of Collusion' https://n.pr/2zU3ePN\xc2\xa0"
p790
S'10:14 AM - 26 Nov 2017'
p791
tp792
a(S'@realDonaldTrump @GenMhayden What assault upon truth??? There is no truth in what the msm have been spewing 24/7, for months..ad nauseum....Russia..Russia..colluded with Trump!! Yet REFUSE to report the real Russian collusion #UraniumOne #fakedossier #Clintonfoundation.'
p793
S'10:14 AM - 26 Nov 2017'
p794
tp795
a(S'Bad news for you girl..\nAll sexual harassment charges against Trump were dropped..\nAll the Russia collusion stories were just a cover-up for the Democrats..\n*Yawn!!*'
p796
S'10:13 AM - 26 Nov 2017'
p797
tp798
a(S'The real Russia collusion!!!!'
p799
S'10:13 AM - 26 Nov 2017'
p800
tp801
a(S'Robert Mueller called to say that I was PROBABLY the lead suspect in collusion with Russia and I would have to interview and mugshot. I said probably is no good and took a pass. Thanks anyway.'
p802
S'10:11 AM - 26 Nov 2017'
p803
tp804
a(S"Gorka Rejects Russia Collusion as 'Pure Fantasy' https://www.newsmax.com/Politics/gorka-russia-collusion-pure-fantasy/2017/11/25/id/828046/?ns_mail_uid=102088154&ns_mail_job=1765931_11252017&s=al&dkt_nbr=0105022te7jx\xc2\xa0\xe2\x80\xa6 via @Newsmax Some USA citizens have become spineless brainwashed cry babies.Get a clue! Real men/women still think for themselves/country."
p805
S'10:07 AM - 26 Nov 2017'
p806
tp807
a(S"Thanks for responding...no one ever...election was reg...Russian collusion all myth against President Trump...Clintons and Obama collide with Russia...but again who's up to grab truthful honesty answer"
p808
S'10:05 AM - 26 Nov 2017'
p809
tp810
a(S'Facts, this is all leading back to tRump and his family with their collusion with Russia and money laundering.  Stay tuned Vonna, your going to get your little mind blown.. pic.twitter.com/rTFUluZEmM'
p811
S'10:04 AM - 26 Nov 2017'
p812
tp813
a(S"Putin signs media 'foreign agents' law\nhttp://www.cnn.com/2017/11/25/world/russia-foreign-agents-law-media/index.html\xc2\xa0\xe2\x80\xa6 You do realize that Putin is setting up people of the media 2 be charged with collusion. Why haven't the sanctions been carried out on Russia; does trump hate US media enough 2 put them in danger of imprisonment/death"
p814
S'10:00 AM - 26 Nov 2017'
p815
tp816
a(S'Collusion? \xe2\x80\x9cShow my home videos and I will plug your show\xe2\x80\x9d \xe2\x80\x94- come on Dan, be less petty. Think of bigger picture. Russia and Collusion. LOL https://twitter.com/bungdan/status/930833145867333632\xc2\xa0\xe2\x80\xa6'
p817
S'10:00 AM - 26 Nov 2017'
p818
tp819
a(S"@SenKamalaHarris TAKE Action to 'Impeach' Trump. STOP his con game! Russia HATES US & supported Trump cause they knew it would divide & weaken us every day. Impeach for collusion, conflicts of interest & obstruction of justice, NOW! Every day more divided and weaker. Just do it."
p820
S'9:59 AM - 26 Nov 2017'
p821
tp822
a(S"Read @SethAbramson's thread yesterday and you'll see this crystal clear.Abramson's a CNN contributor who helped solve the Russia collusion puzzle"
p823
S'9:56 AM - 26 Nov 2017'
p824
tp825
a(S"I know you only watch Fox News & the like, so I wanted to keep you up to date with what the rest of us are learning about your collusion with Russia. You're SO busted!! #TraitorTrump #TrumpTreasonhttps://washingtonmonthly.com/2017/11/24/a-trumprussia-confession-in-plain-sight/\xc2\xa0\xe2\x80\xa6"
p826
S'9:56 AM - 26 Nov 2017'
p827
tp828
a(S'Are you talking about Bill Clinton??\nbecause he was the most recent sexual Predator president I remember..\nAnd the only Russia collusion I recall involved Crooked Hillary..'
p829
S'9:53 AM - 26 Nov 2017'
p830
tp831
a(S'Yes    Russia collusion.'
p832
S'9:50 AM - 26 Nov 2017'
p833
tp834
a(S'RT CONNORFORTRUMP: Gorka: \xe2\x80\x98Pure Fantasy\xe2\x80\x99 to Think \xe2\x80\x98Trump Campaign Was in Bed with Vlad\xe2\x80\x99 \n\nCLARION:\n\nTHE RUSSIA COLLUSION STORY IS AN EVIL CONTRIVED PROPAGANDA MYTH\n\nEVEN THE DEM / LIBTURDS KNOW THIS BUT THEY CLING TO IT LIKE IT IS THEIR LAST DYING B\xe2\x80\xa6 http://feedproxy.google.com/~r/breitbart/~3/jZuOlNr2H6A/\xc2\xa0\xe2\x80\xa6'
p835
S'9:50 AM - 26 Nov 2017'
p836
tp837
a(S'The players in the Trump/Russia collusion scandal.  http://www.cnn.com/2017/03/29/politics/russia-investigation-cast-of-characters/index.html\xc2\xa0\xe2\x80\xa6'
p838
S'9:45 AM - 26 Nov 2017'
p839
tp840
a(S"The media cast aside any remaining shred of credibility when it decided to use all means necessary to oust our duly elected president, including unending, unhinged coverage of the fake Russia collusion and the burying of actual scandals on the Democrats' side."
p841
S'9:43 AM - 26 Nov 2017'
p842
tp843
a(S'I am ordering my copy today!\n\nCollusion: Secret Meetings, Dirty Money, and How Russia Helped Donald Trump Win https://www.amazon.com/dp/0525562516/ref=cm_sw_r_tw_apa_UXVgAbPETXW89\xc2\xa0\xe2\x80\xa6pic.twitter.com/ilBk6pDmeE'
p844
S'9:42 AM - 26 Nov 2017'
p845
tp846
a(S'It\xe2\x80\x99s all about Russia\xe2\x80\x99s interference with our election and his treasonous collusion.  It\xe2\x80\x99s tins for his reign to end.'
p847
S'9:42 AM - 26 Nov 2017'
p848
tp849
a(S"It's amazing how DENSE the left is.... Barack Obama's Collusion with Russia Caught on Camera! pic.twitter.com/X49mgGmhWV"
p850
S'9:40 AM - 26 Nov 2017'
p851
tp852
a(S'No. It has been proven Hillary paid Russian operatives to create a dossier to destroy Trump. There is zero proof of Trump /Russia collusion that affected the election. Please feel free to show me some when Democrats in Congress admit there is none yet?'
p853
S'9:39 AM - 26 Nov 2017'
p854
tp855
a(S'They\xe2\x80\x99ll believe any crazy conspiracy theory except Trump campaign collusion with Russia.'
p856
S'9:36 AM - 26 Nov 2017'
p857
tp858
a(S'Fox\'s Wallace: "More evidence of Dem collusion with Russia than GOP"\nhttp://thehill.com/homenews/media/357514-foxs-wallace-more-evidence-of-dem-collusion-with-russia-than-gop\xc2\xa0\xe2\x80\xa6'
p859
S'9:33 AM - 26 Nov 2017'
p860
tp861
a(S'The Plot Thickens=> Fusion GPS Was Hired To Prove Trump-Russia Collusion After Alleged DNC Hack\n#TCOT #MAGA #PJNET #RedNationRisinghttp://www.thegatewaypundit.com/2017/11/plot-thickens-fusion-gps-hired-prove-trump-putin-collusion-alleged-dnc-hack/\xc2\xa0\xe2\x80\xa6'
p862
S'9:28 AM - 26 Nov 2017'
p863
tp864
a(S'Hey, Dumbo. @MSNBC is the most important TV source for news about your collusion with Russia & your sexual assaults on women. https://twitter.com/realDonaldTrump/status/934551607596986368\xc2\xa0\xe2\x80\xa6'
p865
S'9:25 AM - 26 Nov 2017'
p866
tp867
a(S'between the ideas of @PreetBharara & @JillWineBanks about russia possibly arranging 4 manafort in drumpf campaign [wine-banks] & russia recruiting & vouching for flynn to turkey, sounds like collusion to me.  question is: were drumpf, jared or other campaign members involved?? https://twitter.com/PreetBharara/status/934654562325139456\xc2\xa0\xe2\x80\xa6'
p868
S'9:25 AM - 26 Nov 2017'
p869
tp870
a(S'Russia tells Trump Jr we have information that will hurt Clinton lets meet Jr says back I love it they meet this is collusion & both confess.'
p871
S'9:24 AM - 26 Nov 2017'
p872
tp873
a(S'Notorious Russian Hacker Of DNC Just Uncovered In Extensive Activity via @forbes http://www.forbes.com/sites/charlestiefer/2017/11/23/notorious-russian-hacker-of-dnc-just-uncovered-in-extensive-activity/#13e90c6334e8\xc2\xa0\xe2\x80\xa6 #RUSSIA #COLLUSION #COVERUP'
p874
S'9:22 AM - 26 Nov 2017'
p875
tp876
a(S"There's not a single Democrat being criminally investigated for collusion with Russia. Also did you hear about the elections in VA and NJ? I suggest you look into that."
p877
S'9:21 AM - 26 Nov 2017'
p878
tp879
a(S"I'm willing to bet that NOBODY accusing Hillary of being a warmonger would every day shake with fear that she might drop nukes to distract from her collusion with Russia (which she would NEVER do)!!"
p880
S'9:19 AM - 26 Nov 2017'
p881
tp882
a(S'More lies from Donald Trump. Lied when he promised to release tax returns, lied when you denied harassing 14 women, lied about Russia collusion. Why should we believe your lies about Doug Jones?'
p883
S'9:17 AM - 26 Nov 2017'
p884
tp885
a(S"Kushner resignation won't save him. That little Weisel tried to establish a back channel with Russia. He's in on the collusion up past his eyeballs. Mueller has him by the short hairs."
p886
S'9:16 AM - 26 Nov 2017'
p887
tp888
a(S'Fake news. The investigation is about Russia influence in elections. Manafort charges occurred before campaign BUT Dem Podesta brothers charges about Russian collusion during election. Flynn and son charges regarding Turkey before campaign. There was no Trump collusion. Sorry. https://twitter.com/bonnie_219/status/934828057096945664\xc2\xa0\xe2\x80\xa6'
p889
S'9:14 AM - 26 Nov 2017'
p890
tp891
a(S'Gorka: \xe2\x80\x98Pure Fantasy\xe2\x80\x99 to Think \xe2\x80\x98Trump Campaign Was in Bed with Vlad\xe2\x80\x99 \n\nCLARION:\n\nTHE RUSSIA COLLUSION STORY IS AN EVIL CONTRIVED PROPAGANDA MYTH\n\nEVEN THE DEM / LIBTURDS KNOW THIS BUT THEY CLING TO IT LIKE IT IS THEIR LAST DYING BREATH\n\nRETWEET\nhttp://feedproxy.google.com/~r/breitbart/~3/jZuOlNr2H6A/\xc2\xa0\xe2\x80\xa6'
p892
S'9:10 AM - 26 Nov 2017'
p893
tp894
a(S'Had more followers than the real black lives matter account. Forget about potential trump collusion, Russia doesn\xe2\x80\x99t even need that. They can start what amounts to a civil war in our country without trumps idiocy.'
p895
S'9:07 AM - 26 Nov 2017'
p896
tp897
a(S'Justifying giving her debate questions?? Pushing phony Russia collusion?? Dossier?? Brazile is ALMOST as corrupt & delusional as HRC. Embarrassments'
p898
S'9:07 AM - 26 Nov 2017'
p899
tp900
a(S'Tillerson also received the Russian Order Of Friendship award from Putin, who pinned it on his chest. And Tillerson is like others in Trump cabinet w/ ties to Russia. Trump was groomed by Putin for all that we see. Read the book \xe2\x80\x9cCOLLUSION\xe2\x80\x9d'
p901
S'9:07 AM - 26 Nov 2017'
p902
tp903
a(S'#IBelieve in FULL justice thus, for the proven collusion that Hillaries campaign paid Fusion, who in turn, used her money to pay Russia for dirt on Trump. Hypocrites! I want dems to stop this hollowed hysteria over Russia when we have twice as much proof is was DEMS that colluded'
p904
S'9:05 AM - 26 Nov 2017'
p905
tp906
a(S'Thanks!  I just checked OANN website itself and latest was a 24th piece on Russia collusion\nhttps://twitter.com/slickstweetz/status/934827584465932289\xc2\xa0\xe2\x80\xa6'
p907
S'9:05 AM - 26 Nov 2017'
p908
tp909
a(S'Collusion with Russia, supporting an alleged pedophile, walking in on 15 year old naked contest members, saying he wanted to grab pussy while still married (unethical), plays golf too much (we don\xe2\x80\x99t wanna pay for that shit), calling nazis very fine people, not doing much for PR'
p910
S'8:57 AM - 26 Nov 2017'
p911
tp912
a(S'I wonder if people realize that collusion with Russia was a money making scheme to undermine our government from various angles, & have Trump & Putin profit, among others?'
p913
S'8:56 AM - 26 Nov 2017'
p914
tp915
a(S'Putin Russia collusion Mueller'
p916
S'8:54 AM - 26 Nov 2017'
p917
tp918
a(S'Ask Hillary about RUSSIA, only collusion so far has been with the DNC paying Fusion One, Russia $12M fr FAKE Dossier!'
p919
S'8:53 AM - 26 Nov 2017'
p920
tp921
a(S"@realDonaldTrump Hey Donny, takes one Sexual Predator/pedophile/pervert to know another. Keep pushing Moore and you'll be facing an ethics committee investigation with him by your side as well as going to jail for the Russia collusion. Keep tweeting dumb@$$. Digging UR own prison"
p922
S'8:53 AM - 26 Nov 2017'
p923
tp924
a(S"Hillary won't shut up, sexual accusations are rampant, Russia collusion ... https://youtu.be/6HmW_29fEu8\xc2\xa0 via @YouTube"
p925
S'8:52 AM - 26 Nov 2017'
p926
tp927
a(S'#10: Collusion: Secret Meetings, Dirty Money, and How Russia Helped Donald Trump Win\xe2\x80\xa6 https://goo.gl/fb/Uwz9WD\xc2\xa0 #FREE http://goo.gl/ok7Tdd\xc2\xa0'
p928
S'8:50 AM - 26 Nov 2017'
p929
tp930
a(S"There's is no way Nhell \nRobert Mueller R Rossinsten has any business\nHeading A Russia Investigating \nWith His InvolvementN The Uranium1 Deal\nAs Director Of FBI\n\nThere Part Of The Russia Collusion \nIt will all come out with FBI Undercover Agent\nNow that the GAG ORDER IS LIFTED"
p931
S'8:49 AM - 26 Nov 2017'
p932
tp933
a(S"Obama was a failure. Them ember when NK threatened movie theaters causing them to close and pull a dumb movie and Obama did nothing? Hillary sold Russia 20% of US Uranium. How's that for more collusion? Put down your tin foil hat!"
p934
S'8:46 AM - 26 Nov 2017'
p935
tp936
a(S"BTW, since you now know DEM pols and officials lied to you, are you going to start reviewing all the other crap they've been spewing: including the Russia/collusion hoax? You are a fraud who takes dinner at T. Podesta's house. Thank God for @wikileaks. Journalism is dead."
p937
S'8:39 AM - 26 Nov 2017'
p938
tp939
a(S'I think he has been looking at Clinton Found, and more the whole time, It is a Witch Hunt and they have found the Witches of DC & more.\nThink, the whole "Trump Russia" ""COLLUSION"" MATTER makes for great convincing cover to expose all other rabbit holes. Thnx 2 Demtards'
p940
S'8:39 AM - 26 Nov 2017'
p941
tp942
a(S"AMERICA called to say that #LIARinChief was PROBABLY going to be impeached, but I'll be convicted and in prison for obstruction of justice and collusion with Russia. I said probably is no good and took a pass. #AmericaDeservesBetter #FAKEprez #Trussia #RESIGNnow"
p943
S'8:38 AM - 26 Nov 2017'
p944
tp945
a(S'That\xe2\x80\x99s because Sarah baked the pie using Russian sugar. I guess that means collusion with Russia?'
p946
S'8:37 AM - 26 Nov 2017'
p947
tp948
a(S'Will #Mueller start offering immunity to the real #Russia #collusion culprits? His partners in crime?'
p949
S'8:36 AM - 26 Nov 2017'
p950
tp951
a(S'A brilliant look at the entire debacle known as "the Russia collusion."\nGo to his ( @Debradelai ) timeline and read all twenty-two (22) for a complete understanding of how it has all played out.'
p952
S'8:33 AM - 26 Nov 2017'
p953
tp954
a(S'Fusion GPS hired by Hillary & DNC to create the Trump-Russia collusion to cover for fake DNC hack story. http://theduran.com/fusion-gps-was-paid-to-prove-hillarys-made-up-trump-russia-collusion-story/\xc2\xa0\xe2\x80\xa6'
p955
S'8:32 AM - 26 Nov 2017'
p956
tp957
a(S'Mueller was appointed to search for Russian ties in trumps campain committee. Mueller is following the breadcrumbs left behind while linking trumps campaign committee and possibly trump himself with collusion with russia. pic.twitter.com/O1Cw9rbS9V'
p958
S'8:30 AM - 26 Nov 2017'
p959
tp960
a(S"Then come back tomorrow and reread everything and see what I've told you can be supported with facts from numerous places on the Russia Collusion Hoax. If you want to ignore the birth of one of the most dirty, illegal political games against the American people in an election, ok"
p961
S'8:30 AM - 26 Nov 2017'
p962
tp963
a(S"TIME FOR MUELLER TO INVESTIGATE PAUL RYAN AND MITCH MCCONNELL TO SEE IF THEY ARE PART OF THE trump AND RUSSIA COLLUSION IT'S AWFUL FUNNY THERE IS NOT 1 WIKILEAKS EMAIL ON 1 REPUBLICAN IS trump AND PUTIN BLACKMAILING THE GOP IS THAT WHY trump IS NOT WORRIED ABOUT BEING IMPEACHED"
p964
S'8:30 AM - 26 Nov 2017'
p965
tp966
a(S"Yes, OBAMA was.\nCut the deficit by $800M\nLilly Led better Act\nBrought home troops\nNot one scandal\nWe see how you'd praise OBAMA'S Presidency over DJT's endless scandals, $80M spent at his own golf courses, giving States Secrets to Russia. The Collusion &  grabbing.\n\n#Impeach45"
p967
S'8:29 AM - 26 Nov 2017'
p968
tp969
a(S"Konstantin Rykov laid the broad framework of @realDonaldTrump's #collusion with Russia out in two @facebook posts last year. Click the translation to read them:\n\n#1\nhttps://www.facebook.com/konstantin.rykov/posts/10210621124674610\xc2\xa0\xe2\x80\xa6"
p970
S'8:29 AM - 26 Nov 2017'
p971
tp972
a(S'RT hotfunkytown: DonnaWR8 The Russia collusion was a diversion from the criminality of Clinton, Obama, Comey and Mueller dealings with Russia.'
p973
S'8:26 AM - 26 Nov 2017'
p974
tp975
a(S'Hillary is the real Russia collusion so look no farther than the fake DNC paid for Dossier and Uranium One!!! pic.twitter.com/g5UYA9WlId'
p976
S'8:25 AM - 26 Nov 2017'
p977
tp978
a(S'@realdonaldtrump Mueller is now heading a corrupt investigation into Trump on Russia collusion after being appointed by Rosenstein.  This madness was orchestrated under Attorney General Jeff Sessions who recused himself from Russia related investigations.'
p979
S'8:25 AM - 26 Nov 2017'
p980
tp981
a(S'Tick Tock ~ Tick Tock \nThe FBI was aware of Russian efforts 2influence then-SOS  Hillary Clinton 2approve the sale of a mining company that controlled 20% of U.S. uranium resources 2A Russian Co.Robert Mueller was director of the FBI at the time\n\nThis is the REAL RUSSIA Collusion'
p982
S'8:24 AM - 26 Nov 2017'
p983
tp984
a(S'https://www.youtube.com/watch?v=l2G360HrSAs\xc2\xa0\xe2\x80\xa6\n\nLook Bamster\'s commie pal Van Jones speaks the truth back in June. Russia Collusion Hoax a "nothing burger." How is it you don\'t have a clue on any of this?'
p985
S'8:21 AM - 26 Nov 2017'
p986
tp987
a(S'Fusion GPS was paid to try and prove Hillary\xe2\x80\x99s made up Trump-Russia collusion story http://theduran.com/?p=24542\xc2\xa0 via @theduran_com'
p988
S'8:20 AM - 26 Nov 2017'
p989
tp990
a(S"I've given you plenty of facts. You have no inclination to look at the facts and find out more yourself. The Russia Collusion Hoax is a massive failed political operation. \n\nFrom Fusion GPS meeting with the woman lawyer from Russia not allowed in US and specially approve by DOJ."
p991
S'8:17 AM - 26 Nov 2017'
p992
tp993
a(S'The Plot Thickens=> Fusion GPS Was Hired To Prove Trump-Russia Collusion After Alleged DNC Hack http://www.thegatewaypundit.com/2017/11/plot-thickens-fusion-gps-hired-prove-trump-putin-collusion-alleged-dnc-hack/\xc2\xa0\xe2\x80\xa6'
p994
S'8:15 AM - 26 Nov 2017'
p995
tp996
a(S"I guess I'm naturally cautious when perusing the media. It's shocking though when people don't see through a narrative that always needs a hard sell -Trump-Russia collusion for example."
p997
S'8:14 AM - 26 Nov 2017'
p998
tp999
a(S'Has anyone read this? If so, what did you think?\n\nCollusion: Secret Meetings, Dirty Money, and How Russia Helped Donald Trump Win\n\nhttp://amzn.to/2iUpRdc\xc2\xa0'
p1000
S'8:13 AM - 26 Nov 2017'
p1001
tp1002
a(S"Gorka Rejects Russia Collusion as 'Pure Fantasy' https://www.newsmax.com/Politics/gorka-russia-collusion-pure-fantasy/2017/11/25/id/828046/\xc2\xa0\xe2\x80\xa6 via @Newsmax"
p1003
S'8:11 AM - 26 Nov 2017'
p1004
tp1005
a(S"Libtards are hilarious. They keep talking about Trump Russia collusion when there's evidence of #HillaryRussia collusion.  http://amp.nationalreview.com/corner/453092/scandals-collide-dossier-dnc-server-perkins-coie?utm_source=PANTHEON_STRIPPED&utm_medium=PANTHEON_STRIPPED\xc2\xa0\xe2\x80\xa6"
p1006
S'8:08 AM - 26 Nov 2017'
p1007
tp1008
a(S'Yeah. Russia listing US media outlets in Russia as foreign agents had nothing to do with US listing Russian media outlets in US as foreign agents...all apart of Trump/Russia collusion. /smh'
p1009
S'8:07 AM - 26 Nov 2017'
p1010
tp1011
a(S"While you are at it please ask what Comey did when he reviewed Hillary's emails and saw Hillary&Barack conspiring w/DNC to tamper with US elections by cheating Bernie's voters of his nomination and framing Trump w/Russia collusion via DNC, GPS Fusion &FBI.\nhttps://twitter.com/JudicialWatch/status/934616450479869952\xc2\xa0\xe2\x80\xa6"
p1012
S'8:04 AM - 26 Nov 2017'
p1013
tp1014
a(S'This First Published On 11/12/2017\xe2\x95\x91Adam Schiff continues with Russia dossier/collusion investigation https://hedgeaccordingly.com/2017/11/adam-schiff-continues-with-russia-dossiercollusion-investigation.html\xc2\xa0\xe2\x80\xa6'
p1015
S'8:04 AM - 26 Nov 2017'
p1016
tp1017
a(S'Maybe cuz it makes no sense worsening ties with Russia. Congress has already passed ridiculous sanctions over unproven claims of collusion. Meddling has been going on for a 100 years. But selling them Uranium, paying them for dossier, using the media as HRC puppets=Collusion'
p1018
S'8:04 AM - 26 Nov 2017'
p1019
tp1020
a(S'Amazing how Democrats are all in favor of "Due Process" when one of their own turns out to be a rapist.  They have been chasing Trump on Russia with zero evidence for a year and trying to impeach him for collusion of which they have zero evidence. https://twitter.com/BasedMonitored/status/934808555873595392\xc2\xa0\xe2\x80\xa6'
p1021
S'8:02 AM - 26 Nov 2017'
p1022
tp1023
a(S'Haha\n"So?"\nRussia hacked America:"So?"\nRussia bots swayed voters:"So?"\ntRumpRussia collusion: "So?"\ntRump Russia meetings: "So?"\ntRump business ties: "So?"\ntRumpRussian loans:"So?"\ntRump won\'t release taxes: "So?"\nrRump lies: "So?"\nSlow on Russian sanctions: "So?"\n\nNot American'
p1024
S'8:02 AM - 26 Nov 2017'
p1025
tp1026
a(S'Because: Russia Collusion and #treason'
p1027
S'7:59 AM - 26 Nov 2017'
p1028
tp1029
a(S'That could be, which is why I took a screenshot of that. It\xe2\x80\x99s like how everyone is saying Trump \xe2\x80\x98colluded\xe2\x80\x99 with Russia, when collusion is a technical term for antitrust cases. People should take the time to use the correct terms.'
p1030
S'7:58 AM - 26 Nov 2017'
p1031
tp1032
a(S"Mueller must go to stop this madness. By now he should have stumbled on to Uranium One and the collusion between Russia and those in Obama's administration orchestrated by #HillaryClinton who took bribes for the sell of 20% of Americas uranium! instead focused on Manafort & Flynnpic.twitter.com/4eiB45UFgf"
p1033
S'7:58 AM - 26 Nov 2017'
p1034
tp1035
a(S'Absolute proof of collusion. High time Russia did something for us. https://twitter.com/Bobby_Axelrod2k/status/934811548098248705\xc2\xa0\xe2\x80\xa6'
p1036
S'7:54 AM - 26 Nov 2017'
p1037
tp1038
a(S'#6: Collusion: Secret Meetings, Dirty Money, and How Russia Helped Donald Trump Win: Collusion\xe2\x80\xa6 https://goo.gl/fb/9ByDoW\xc2\xa0 #FREEhttp://goo.gl/iusH4F\xc2\xa0'
p1039
S'7:53 AM - 26 Nov 2017'
p1040
tp1041
a(S"Absolutely no evidence of collusion...except the admissions of Don Jr, Kushner and Popodopolous that they tried to collude with Russia. \n\nThey lied it ever happened. But now that they admit it did, let's believe nothing came of it.\n\n#TrumpRussia"
p1042
S'7:52 AM - 26 Nov 2017'
p1043
tp1044
a(S'They spread Trumps lies, racism and  white supremacy. Don\xe2\x80\x99t you get what a liar this man is? \n- Biggest Inaugural ever?\n- Mexico will pay for the wall\n- GOP TAX plan is good for middle class\n- Russia Collusion'
p1045
S'7:50 AM - 26 Nov 2017'
p1046
tp1047
a(S"I liked a @YouTube video http://youtu.be/6HmW_29fEu8?a\xc2\xa0 Hillary won't shut up, sexual accusations are rampant, Russia collusion garbage"
p1048
S'7:50 AM - 26 Nov 2017'
p1049
tp1050
a(S'Yes let\xe2\x80\x99s focus on Russia collusion especially when it was democrats that colluded'
p1051
S'7:49 AM - 26 Nov 2017'
p1052
tp1053
a(S'What Trump\xe2\x80\x99s Endorsement of Roy Moore Tells Me About His Likely Collusion with Russia https://forwardprogressives.com/what-trumps-endorsement-of-roy-moore-tells-me-about-his-likely-collusion-with-russia/\xc2\xa0\xe2\x80\xa6'
p1054
S'7:47 AM - 26 Nov 2017'
p1055
tp1056
a(S'Bob Mueller is a bigger DANGER to our democracy than Vladimir Putin ever was\n\nYet Dirty Bob has audacity to investigate Russia "collusion"'
p1057
S'7:45 AM - 26 Nov 2017'
p1058
tp1059
a(S'Special counsel Robert Mueller stands on reputation that belies a record including fumbles http://www.latimes.com/politics/la-na-pol-mueller-record-20171122-story.html\xc2\xa0\xe2\x80\xa6 BEGINNING OF END FOR CORRUPT, DEEP STATE MUELLER has no case of Russia collusion, except for DEMS'
p1060
S'7:42 AM - 26 Nov 2017'
p1061
tp1062
a(S'Wow. #Trump and the #GOP are careening towards #fascism. #Russia seems super out of the closet re: Trump. Collusion, treason, the usual. Sad https://twitter.com/renato_mariotti/status/934585619132682242\xc2\xa0\xe2\x80\xa6'
p1063
S'7:40 AM - 26 Nov 2017'
p1064
tp1065
a(S'typical bitchy voxer response. "hate speech, racism, bigotry", low testosterone beta flailing arms and hating on people who believe news outside of MSM narratives. Meanwhile, likely believes "Russia collusion", "Hillary will win" and "WMDs exist."'
p1066
S'7:36 AM - 26 Nov 2017'
p1067
tp1068
a(S'With all proof showing hacking of voting machines & his collusion w/Russia why is Trump allowed to continue as Pres?  He obviously works for Putin. Trump is a serious danger to America & our democracy.Trump w/Putin is attacking USA from inside our own government. #Impeach45 #SPYS'
p1069
S'7:36 AM - 26 Nov 2017'
p1070
tp1071
a(S'hey numbnuts we are standing in the mess known as trump administration who is destroying our country in collusion w/russia Shame on you and you unpatriotic views, so you are a traitor too? You should try loving the country instead of destroying it and the ideals it holds sacred'
p1072
S'7:35 AM - 26 Nov 2017'
p1073
tp1074
a(S'No because they are a bunch of hypocrites.  Just like the Russia Fake Collusion.  You see the REAL Russia Collusion with @HillaryClinton and @BarackObama an they look the other way. They just want their power back so they could keep hiding all their sexual predators and criminals'
p1075
S'7:34 AM - 26 Nov 2017'
p1076
tp1077
a(S'Mueller must go and the contrived Trump collusion with Russia investigation brought to an end.'
p1078
S'7:34 AM - 26 Nov 2017'
p1079
tp1080
a(S'Collusion. @realDonaldTrump admires Putin and wishes he controlled US the way Putin controls Russia, no media interference, complete corruption, raping of country to enrich self and friends. Trump should have run for president of Russia. But Putin kills opposition'
p1081
S'7:32 AM - 26 Nov 2017'
p1082
tp1083
a(S'In June 2010 Bill Clinton Met with Putin - In July 2010 Ten Russian Agents Were Released by Obama Without Charges and Given a Russian Heroes Welcome http://www.thegatewaypundit.com/2017/11/in-june-2010-bill-clinton-met-with-putin-in-july-2010-ten-russian-agents-were-released-by-obama-without-charges-and-given-back-to-russia/\xc2\xa0\xe2\x80\xa6 CLEARLY THE DEMS WERE THE ONES IN CRIMINAL COLLUSION w RUSSIA - ESPECIALLY CLINTONS'
p1084
S'7:31 AM - 26 Nov 2017'
p1085
tp1086
a(S"The best evidence for the Russia collusion narrative is Trump's Twitter account. It's clearly managed by a Russian who speaks English as his second language."
p1087
S'7:31 AM - 26 Nov 2017'
p1088
tp1089
a(S'At the end of this which hunt worthy of the Mccarthy era, no one will serve a day in prison for do called collusion with Russia. It\xe2\x80\x99s simply not a crime nor is there evidence of coordination. Only party who paid funds to a Russian agent was the Clinton campaign. Fact.'
p1090
S'7:30 AM - 26 Nov 2017'
p1091
tp1092
a.