(lp0
(S"WaPo Reporter Caught On Hidden Camera Being A Bit Too Honest; Admits 'No Evidence' Of Trump-Russia Collusion - https://www.therussophile.org/wapo-reporter-caught-on-hidden-camera-being-a-bit-too-honest-admits-no-evidence-of-trump-russia-collusion-2.html/\xc2\xa0\xe2\x80\xa6pic.twitter.com/lzgEeCKEDx"
p1
S'3:59 PM - 25 Jan 2018'
p2
tp3
a(S"You've been peddling the DNC paid for, Trump / Russia collusion farce, for over a year. You attack the office of the President and cause major discourse in America. Now the GOP is fighting back and you don't like it? Taste of your own medicine, HYPOCRIT"
p4
S'3:59 PM - 25 Jan 2018'
p5
tp6
a(S'What about @JamesComeyFBI courage in speaking out against @realDonaldTrump and his collusion with Russia.'
p7
S'3:58 PM - 25 Jan 2018'
p8
tp9
a(S'MSM is downplaying #SecretSociety as a joke but takes serious @POTUS asking Russia to find Hillary\xe2\x80\x99s emails as evidence of collusion. #releasethememo'
p10
S'3:58 PM - 25 Jan 2018'
p11
tp12
a(S'You see no problem with members in the fbi saying in text \xe2\x80\x9c but we cannot take that risk\xe2\x80\x9d. Trump has denied collusion, to date, zero collusion has been found. Russia didn\xe2\x80\x99t follow me into the voting booth, nor did they sway my vote. Hillary was/is a dumpster fire.'
p13
S'3:58 PM - 25 Jan 2018'
p14
tp15
a(S'A lot of people changed their votes because of Trump/Russia collusion in fake news, Fact!'
p16
S'3:57 PM - 25 Jan 2018'
p17
tp18
a(S'Key players in Russia collusion are as follows: Hillary,Barack,Comey and John McCain'
p19
S'3:57 PM - 25 Jan 2018'
p20
tp21
a(S'Your idea of a State Visit with trump needs reminding\ni.e. The Duke of Windsor and his visit with Hitler. \nTrump is an admirer of Hitler. He is in collusion with Russia and emulates fascism and totalitarian rule. \nHistory will remind you if you choose to keep a state visit.'
p22
S'3:57 PM - 25 Jan 2018'
p23
tp24
a(S'Wow!  Talk about fake news trump (no cap)  and republicans will say any lie to divert attention from trumps collusion and money laundering with Russia!'
p25
S'3:54 PM - 25 Jan 2018'
p26
tp27
a(S'Another narrative change for Dems!  No collusion.  No obstruction but maybe we can get trumps 1990 bank accounts and see if he was colluding w Russia for a possible run in 2016!'
p28
S'3:54 PM - 25 Jan 2018'
p29
tp30
a(S'How Trump\xe2\x80\x99s People Tried to Cover Up Collusion with Russia - Newsweek https://apple.news/A1fF876bBQLGk6wowOluFxQ\xc2\xa0\xe2\x80\xa6'
p31
S'3:53 PM - 25 Jan 2018'
p32
tp33
a(S"In case you haven't noticed, the Russia collusion narrative has completely blown up.  You will not be able to hide that from your viewer forever. the sooner you start outing some truth, the better chance you preserve what little credibility you have left."
p34
S'3:53 PM - 25 Jan 2018'
p35
tp36
a(S'You mean about the Russia collusion case that has fallen apart .The Dems have pushing for a http://year.It\xc2\xa0 must be traumatic for the liberals.The good news is I think there is counseling for them'
p37
S'3:49 PM - 25 Jan 2018'
p38
tp39
a(S'"There is real malfeasance at the FBI and the charge of collusion with Russia is just an illusion"--\nDick Morris'
p40
S'3:49 PM - 25 Jan 2018'
p41
tp42
a(S'Every President should be accountable, but unfortunately not all are. That\xe2\x80\x99s why we have Investigations going on right now. So far, #POTUS has had nothing showing any collusion with Russia or any wrongdoing or believe me the Dems/Libs would have already tried 2 have him impeached'
p43
S'3:49 PM - 25 Jan 2018'
p44
tp45
a(S'I had a great laugh 2day while listening 2 @benshapiro\xe2\x80\x99s pod & witnessing his delusion when he said: \n\xe2\x80\x9cTrump thinks Mueller wants 2 interview him on Russia collusion, but Trump is unaware that Mueller is about 2 play him\xe2\x80\x9d \nlike if Ben knows more of what\xe2\x80\x99s going on than trump LOL'
p46
S'3:49 PM - 25 Jan 2018'
p47
tp48
a(S'You do realize all this Russia collusion could be revealed to be nothing more than a smear campaign  and Obama and HRC could be proven of treason. I\xe2\x80\x99m curious as to how you feel about these possible issues.'
p49
S'3:48 PM - 25 Jan 2018'
p50
tp51
a(S'Dutch MSM #Nieuwsuur is going full force for the Trump / Russia collusion conspiracy theory. Their timing raises eyebrows and their lack of reporting about the other things that are going on are even more troubling. #ReleaseTheMemo #paralleluniverse'
p52
S'3:45 PM - 25 Jan 2018'
p53
tp54
a(S"Still waiting for a shred of EVIDENCE of Trump/Russia collusion and @RepAdamSchiff has the brass to say R's are desperate!!"
p55
S'3:44 PM - 25 Jan 2018'
p56
tp57
a(S'How about the DNC Russia collusion always blame the other side..'
p58
S'3:44 PM - 25 Jan 2018'
p59
tp60
a(S'Enough of the media, FBI, DOJ Russia collusion BS. #ReleaseTheMemo ! Then President Trump can use the SOTU to publicly burn down this entire farce.'
p61
S'3:42 PM - 25 Jan 2018'
p62
tp63
a(S'LMAO and you claim that Fox news and its viewers are conspiracy theorists eh mr. girly boy? Fact: it has been over a year since the election, and absolutely NO proof on Russia Collusion with the Trump Campaign. also, why not report on the Clinton Foundation ripping off Haiti?'
p64
S'3:41 PM - 25 Jan 2018'
p65
tp66
a(S'LOL. First, a correction: two people haven\xe2\x80\x99t been convicted of anything. Second, a chance for you to redeem yourself: Did you mean \xe2\x80\x9cindicted?\xe2\x80\x9d Cuz that\xe2\x80\x99s different from \xe2\x80\x9cconvicted,\xe2\x80\x9d sage. Third, were they indicted for COLLUSION WITH RUSSIA???'
p67
S'3:41 PM - 25 Jan 2018'
p68
tp69
a(S'Russia collusion is a fake narrative. A year of investment proves this. Nobody cares about your trolling efforts anymore, trolls are now being down ranked...congrats'
p70
S'3:40 PM - 25 Jan 2018'
p71
tp72
a(S"Jon, she obviously believes this Russia collusion is real despite there being zero evidence. \n\nI'd say she definitely believes in conspiracy theories."
p73
S'3:40 PM - 25 Jan 2018'
p74
tp75
a(S"Imagine Mueller's final report saying insufficient evidence of Russia - Trump collusion during 2016 election - - -  but recommending impeachment/prosecution for alleged lies to Mueller at the interview.\nNo sane lawyer would have the President testify."
p76
S'3:39 PM - 25 Jan 2018'
p77
tp78
a(S'#UPDATE \nDay 370, still waiting on my check from Russia for voting for  @realDonaldTrump.  #ReleaseTheMemo #Collusion #ImARussianBot'
p79
S'3:39 PM - 25 Jan 2018'
p80
tp81
a(S'Analysis: It\xe2\x80\x99s looking more and more like there is a coordinated effort from the Democrats to discredit President Trump by inventing "Trump-Russia collusion".'
p82
S'3:38 PM - 25 Jan 2018'
p83
tp84
a(S'So Uranium one is fake? Does that apply to russia collusion?'
p85
S'3:35 PM - 25 Jan 2018'
p86
tp87
a(S'Same thing about \xe2\x80\x9cRussia collusion\xe2\x80\x9d. No evidence, whatsoever. Mueller had a whole year and failed to find evidence. Russia collusion is also debunked.'
p88
S'3:35 PM - 25 Jan 2018'
p89
tp90
a(S'The only Russia collusion was what was cooked up by you and your fellow traitors at the FBI & DOJ. A firing squad would be too good for you all.'
p91
S'3:34 PM - 25 Jan 2018'
p92
tp93
a(S"It's literally just an attempt to trip him up and grab him for a process crime since the Russia collusion investigation keeps amounting to nothing else."
p94
S'3:30 PM - 25 Jan 2018'
p95
tp96
a(S'#New \xe2\x80\x9cJaw-Dropping\xe2\x80\x9d Text From Peter Strzok Reveals Shocking Admission About Trump - #https://youtu.be/fKs6HpOl-eU  Strzok, top FBI agent sent text to mistress Page saw zero evidence of any Trump/Russia collusion.'
p97
S'3:30 PM - 25 Jan 2018'
p98
tp99
a(S'How about the whole Russia collusion BS cuomo?? Lotsa facts there... a special counsel without an underlying crime is BS'
p100
S'3:28 PM - 25 Jan 2018'
p101
tp102
a(S'Yes. Until direct evidence of collusion comes out, this narrative pushed by MSM/Intel community is dangerous. Russia did try to \xe2\x80\x9cmeddle\xe2\x80\x9d but all the evidence presented so far paints a sad and pathetic attempt. PACs and Dark money are the real villains, this is to distract.'
p103
S'3:28 PM - 25 Jan 2018'
p104
tp105
a(S'#JUST IN!! PETER STRZOK ADMITS "NO TRUMP-RUSSIA COLLUSION" IN NEW TEXT MESSAGE - #https://youtu.be/M_Xl92QN5gM'
p106
S'3:28 PM - 25 Jan 2018'
p107
tp108
a(S'Were reporters paid by Fusions GPS to report on the Russia-Collusion narrative?'
p109
S'3:28 PM - 25 Jan 2018'
p110
tp111
a(S'Yall keep beating a damn horse with this russia stuff over a year of investigation, wasting thousands if not millions of dollars and have 0 and i mean 0 evidence of collusion, all it brought up to light was democrats dirty dishes! Lol #ReleaseTheMemo #FindTheTexts #SecretSociety'
p112
S'3:27 PM - 25 Jan 2018'
p113
tp114
a(S'Says the people pushing an alleged Russia Collusion conspiracy, with zero evidence, for over a year....'
p115
S'3:27 PM - 25 Jan 2018'
p116
tp117
a(S'If there really is nothing to the Trump-Russia collusion theory, it poses something of an existential crisis for those who bought into the theory as their best hope for removing the elected president. http://thefederalist.com/2018/01/25/what-to-expect-from-the-house-intel-memo-on-surveillance-abuse/\xc2\xa0\xe2\x80\xa6'
p118
S'3:27 PM - 25 Jan 2018'
p119
tp120
a(S'AND Nunes is supposed to be RECUSED from Trump-Russia probe?\n\nWho believes Trump-Russia Collusion isn\'t at the base of #BenedictNunes attempt to "take down" Our FBI- so that @realDonaldTrump CAN CONTEST whatever Mueller produces because of BIAS?\n#JUSTICENEEDEDNOW\n#StandByTheFBIhttps://twitter.com/jrubinblogger/status/956549138740543488\xc2\xa0\xe2\x80\xa6'
p121
S'3:25 PM - 25 Jan 2018'
p122
tp123
a(S'Wikikeaks didnt interfere,  they informed. \nThe only collusion with Russia was by your despicable candidate in gathering a lie filled dossier. https://twitter.com/SenSchumer/status/956576384444456960\xc2\xa0\xe2\x80\xa6'
p124
S'3:25 PM - 25 Jan 2018'
p125
tp126
a(S'The only Russian Collusion was Clinton\xe2\x80\x99s and Russia'
p127
S'3:23 PM - 25 Jan 2018'
p128
tp129
a(S'@CNNPolitics @MSNBC @NBCPolitics @CBSNews @ABCPolitics @nytimes @Washington post @DNC The Trump Russia Collusion is your Delusion. You all must be wetting your pants #ReleasetheMemo #WeThePeopleAreFurious #FakeNewsAwards @realDonaldTrump'
p130
S'3:22 PM - 25 Jan 2018'
p131
tp132
a(S'You realize the only one proven to have anything to do with any sort of collusion with Russia is the amDens and Hillary campaign.\nThis is a fact- reluctantly admitted by Clinton camp .\nThe only conspiracy theorists are the likes of you and the rest of the drones.'
p133
S'3:22 PM - 25 Jan 2018'
p134
tp135
a(S"It's amazing how this Trump Russia collusion talk has done a 180 now it's a Obama Hillary Russia collusion investigation."
p136
S'3:22 PM - 25 Jan 2018'
p137
tp138
a(S'MSM & Dems are too desperate to keep the fake Russia collusion story. America is winning with Democrats voting no on tax cuts & yes on Schumer Shutdown which put priority on illegals over Americans. Dems losing & MSM is trying to be a lifeline.  Minority\xe2\x80\x99s moving to GOP. #MAGA'
p139
S'3:20 PM - 25 Jan 2018'
p140
tp141
a(S"Interesting that he doesn't go after any report of H collusion with Russia. He thinks his scope is Trump. No his scope is Russia not Trump"
p142
S'3:19 PM - 25 Jan 2018'
p143
tp144
a(S'Tho both gerrymanders and everything to do with the Trump/Russia #Collusion should be both impeachable and criminal offenses\xe2\x80\xa6 \xc2\xac.\xc2\xac https://twitter.com/TheDailyShow/status/956383628493316097\xc2\xa0\xe2\x80\xa6'
p145
S'3:18 PM - 25 Jan 2018'
p146
tp147
a(S'CNN may have a little more credibility on the Russia collusion story if it used a reporter not seeking to protect his Obama colleagues who set this hoax in motion.'
p148
S'3:18 PM - 25 Jan 2018'
p149
tp150
a(S'He did give it away. There was at least attempt of collusion by twit Jr. Still not a negative word and very few words about Russia.'
p151
S'3:17 PM - 25 Jan 2018'
p152
tp153
a(S'What???? No Russia Collusion?'
p154
S'3:16 PM - 25 Jan 2018'
p155
tp156
a(S'Those lying GOP hypocrites already knew that been trying to defend trumps Russian collusion obstruction of justice $ laundering as well as ignoring Russia undermining of our democracy! Is there anyone who doubts that If that was Democrats GOP would be calling them traitors!'
p157
S'3:16 PM - 25 Jan 2018'
p158
tp159
a(S'Senate clown admits Russia Collusion farce is baseless https://twitter.com/MarkWarner/status/956581851212152834\xc2\xa0\xe2\x80\xa6'
p160
S'3:15 PM - 25 Jan 2018'
p161
tp162
a(S'@RealJamesWoods Here is the truth. If people feel 1 meeting in Trump Tower and 1 email is supportive of launching an investigation against our Pres for Russia collusion, then how can they deny interest in the most curious fact pattern mankind has ever seen (FBI, Strok, texts...)?'
p163
S'3:15 PM - 25 Jan 2018'
p164
tp165
a(S'first the Russia Collusion Farce and now the Bots farce.\nall quackery and nonsense https://twitter.com/theblaze/status/956349687417790464\xc2\xa0\xe2\x80\xa6'
p166
S'3:12 PM - 25 Jan 2018'
p167
tp168
a(S'Taking a moment to address your COMMENT.. conspiracy theories about #ReleaseTheMemo .. you who cries Russia RUSSIA Russia conspiracy theories collusion with Trump.. BAHAHA.. #ReleaseTheMemo'
p169
S'3:12 PM - 25 Jan 2018'
p170
tp171
a(S'Sorry brah.  Literally 0 chance.   And you will have wasted months of time talking about Russia collusion.  I hope you can handle that realization'
p172
S'3:12 PM - 25 Jan 2018'
p173
tp174
a(S'Or Trump/ Russia Collusion https://twitter.com/VonSteever/status/956665159367479301\xc2\xa0\xe2\x80\xa6'
p175
S'3:12 PM - 25 Jan 2018'
p176
tp177
a(S"I think the Trump campaign, was a BAND of people thrown together....ALL looking to BENEFIT from connections made.\nSome campaign people's MOTIVES are questionable. (Flynn, Manafort, Kushner)\nQuestionable FINANCIAL dealings...& Russia connected BANKS. \nCollusion...NO.\nJust GREED."
p178
S'3:11 PM - 25 Jan 2018'
p179
tp180
a(S'#SpecialReport\nLol. Schumer Russia Russia Russia...youre the conspiracist. WHERES YOUR RUSSIA COLLUSION PROOF?\n#releasethememo'
p181
S'3:10 PM - 25 Jan 2018'
p182
tp183
a(S'Prosecutors are urging a federal judge to set a May trial date for Paul Manafort and his  associate Rick Gates, Their trial is for things that are NOT Russia?Trump collusion. Mueller is FISHING for anything yet STILL nothing on Russiagate.'
p184
S'3:09 PM - 25 Jan 2018'
p185
tp186
a(S"Ah...yeah it's proven she didn't and it has yet to be proven that Trump DIDN'T have collusion with Russia."
p187
S'3:09 PM - 25 Jan 2018'
p188
tp189
a(S'Man...working hard here to find ANYTHING on potus to cover up  just how corrupt doj, state dept, dems,dnc, clintons, schultz, and more are so corrupt. #please #theyallarecorrupt #ReleaseTheDocuments #ReleaseTheMemo\n#russia\n#Collusion\n#IsThatAllYouGot ?'
p190
S'3:09 PM - 25 Jan 2018'
p191
tp192
a(S'@AdamSchiffCA is the worst  memebef if Government we have he hates Trump and accused him of Russia Collusion prior to any evidence he\xe2\x80\x99s involved in corruption and treason pic.twitter.com/Wl4nMNu6HX'
p193
S'3:08 PM - 25 Jan 2018'
p194
tp195
a(S"Sloppy and baseless but he hasn't read it?  Seriously Mr. Werner? That sounds like the Russia/Trump collusion narrative you're pushing.  It's sloppy (cause you got caught) and baseless (cause there's no evidence)."
p196
S'3:07 PM - 25 Jan 2018'
p197
tp198
a(S"You're right, they shouldn't push conspiracies like the phony Russia collusion."
p199
S'3:07 PM - 25 Jan 2018'
p200
tp201
a(S'LMFAO!!! ...did you REALLY just hashtag "Trump/Russia collusion"???? Lol!\nLemme tell ya a secret...it wasn\'t "Russia." ......it was Bigfoot. Santy Clause helped. and the Tooth Fairy. Oh, and the Easter Bunny. Lolol\nNah, it was El Chupa Cabra! pic.twitter.com/S4BtJiNcdA'
p202
S'3:07 PM - 25 Jan 2018'
p203
tp204
a(S"Who's winning? Not Tiger.... however it's all you're covering today. You following the @CNN Russia Collusion news model? Force feed us your POV?"
p205
S'3:07 PM - 25 Jan 2018'
p206
tp207
a(S'As I remember it, Mueller was supposed to investigate "Russian collusion"...not necessarily with Trump...but just what happened with Russia. He has wide swath to go anywhere investigation take him...so why doesn\'t he get into the FBI corruption? https://twitter.com/MarkSimoneNY/status/956384268388839424\xc2\xa0\xe2\x80\xa6'
p208
S'3:06 PM - 25 Jan 2018'
p209
tp210
a(S"it was proven the collusion was made up by Obama to get the president impeached.Meuller has never worked on Russia.He gathered info to get the president http://impeached.It\xc2\xa0's all in the fisa http://memo.It\xc2\xa0's shocking whats in it we have the right to know"
p211
S'3:06 PM - 25 Jan 2018'
p212
tp213
a(S"Just like how he totally shattered Fox's narrative on Uranium One, NFL players kneeling, Russia collusion, Obama wiretap claims, gay marriage, climate change and birtherism, brought down the GOP, and now Meryl Streep is president. https://twitter.com/MattGertz/status/956630671841267712\xc2\xa0\xe2\x80\xa6"
p214
S'3:06 PM - 25 Jan 2018'
p215
tp216
a(S'When will CNN come clean and say, "There was NO Trump-Russia Collusion" ?'
p217
S'3:06 PM - 25 Jan 2018'
p218
tp219
a(S"Those aren't conspiracies, Jake  Why do you insist on ignoring the evidence pouring out of multiple investigations or Strzok's text that there is NO Russia/Trump collusion."
p220
S'3:06 PM - 25 Jan 2018'
p221
tp222
a(S'U do realize there is no Trump Russia collusion or have u not read the text exchanges?'
p223
S'3:05 PM - 25 Jan 2018'
p224
tp225
a(S'Hired to discover Trump / Russia collusion, Mueller is trying to make a case for obstruction  \xe2\x80\x94  the last refuge of special prosecutors who failed to find evidence of what he was hired to investigate. https://www.westernjournal.com/dick-morris-meullers-bait-switch-tactics/?utm_source=email&utm_medium=deepsix&utm_content=2018-01-24&utm_campaign=can\xc2\xa0\xe2\x80\xa6'
p226
S'3:05 PM - 25 Jan 2018'
p227
tp228
a(S'I\'m a realist about Russia. Putin is all about power. But the Trump/Russian collusion thing is a fabrication. As Peter Stryk said "There\'s no THERE there."'
p229
S'3:05 PM - 25 Jan 2018'
p230
tp231
a(S'Following the conclusion of the FBI Mueller Investigation should Trump be found to have been in collusion with Russia, obstructed justice, and/or worse then any Republican who attacked the Federal Bureau of Investigations should resign or be voted out. #UnAmerican'
p232
S'3:05 PM - 25 Jan 2018'
p233
tp234
a(S'That "collusion" drafted like a false graphic, is not treasonous as trump\'s Collusion with Russia.'
p235
S'3:03 PM - 25 Jan 2018'
p236
tp237
a(S'If you learned your skills from trump you\'d have 47 million followers. \nAnd wanna talk about conspiracies, look no farther than the dems and "Russia collusion" .'
p238
S'3:02 PM - 25 Jan 2018'
p239
tp240
a(S"They were k monitoring Russia that's how the collusion was undercovered. Trump staffers meeting with Russian operatives and showing up in intercepted reports back to Moscow. Including proposing to use Russian communications equipment to bypass NSA."
p241
S'3:02 PM - 25 Jan 2018'
p242
tp243
a(S'No oligarchs in Russia.  No collusion in American election.  Ignore the man (Putin) behind the curtain.'
p244
S'3:01 PM - 25 Jan 2018'
p245
tp246
a(S'So many crimes going on over the last decade+. Uranium One, Benghazi, Clinton private server with classified information, Bill Clinton sexual harassment/rapes, DNC takeover by Clinton, Clinton foundation pay to play & Clinton Russia Collusion to name a few!\n\n#SecondSpecialCounsel'
p247
S'3:00 PM - 25 Jan 2018'
p248
tp249
a(S'Yeah, they interpreted the text message evidence incorrectly where as with the russia collusion investigation, they don\xe2\x80\x99t even have any evidence to begin with...\n\nBut guess which probe has lasted for over a year?\n\n#MAGA'
p250
S'2:59 PM - 25 Jan 2018'
p251
tp252
a(S'Even MSM has stopped screaming about Russia collusion! It was put out there to cover up the real enemy... Sorry to let you know... Oops! NOT FOREIGN!'
p253
S'2:56 PM - 25 Jan 2018'
p254
tp255
a(S"Forget Russia collusion.  How about obstruction of justice?  Ultimately that is what he will go down for and it's all recorded."
p256
S'2:56 PM - 25 Jan 2018'
p257
tp258
a(S'But CNN intentionally pushing the Russia Collusion narrative for ratings is not dangerous....'
p259
S'2:55 PM - 25 Jan 2018'
p260
tp261
a(S"I didn't see that but it is consistent with the slow moving of the goalpost.  We went from no Russian help to no meetings to no collusion to no info exchanged to collusion is legal to it's okay if Russia helped.  The scariest part is that some Americans still support him. WOW."
p262
S'2:54 PM - 25 Jan 2018'
p263
tp264
a(S'Please share this with any Trump supporters that can read...\nHow Trump\xe2\x80\x99s People Tried to Cover Up Collusion with Russia - Newsweek https://apple.news/A1fF876bBQLGk6wowOluFxQ\xc2\xa0\xe2\x80\xa6'
p265
S'2:53 PM - 25 Jan 2018'
p266
tp267
a(S'Well Russia collusion is conspiracy theory too'
p268
S'2:53 PM - 25 Jan 2018'
p269
tp270
a(S'@MZHemingway \nIf there really is nothing to the Trump-Russia collusion theory, it poses something of an existential crisis for those who bought into the theory as their best hope for removing the elected president. http://thefederalist.com/2018/01/25/what-to-expect-from-the-house-intel-memo-on-surveillance-abuse/\xc2\xa0\xe2\x80\xa6'
p271
S'2:53 PM - 25 Jan 2018'
p272
tp273
a(S'Pics of \xe2\x80\x9cCollusion with Russia\xe2\x80\x9d pic.twitter.com/co9JNvYzC7'
p274
S'2:53 PM - 25 Jan 2018'
p275
tp276
a(S"You mean conspiracies like, oh I don't know. They pee pee tapes? Pffft... The whole Russia Collusion theory is a conspiracy theory FFS! https://twitter.com/jaketapper/status/956660743495147522\xc2\xa0\xe2\x80\xa6"
p277
S'2:53 PM - 25 Jan 2018'
p278
tp279
a(S'God help America!\nTrump/Russia Collusion is neither Victory nor Loss to any individual American. \nBut a disaster for the United States!'
p280
S'2:52 PM - 25 Jan 2018'
p281
tp282
a(S"@CNN  you and your Russia collusion Obsession has now become a laughingstock everybody I speak to thanks you guys have lost your freaking mind why don't you start recording real news and maybe gain just a hint of your credibility back"
p283
S'2:51 PM - 25 Jan 2018'
p284
tp285
a(S'They won\xe2\x80\x99t. They will be seeing many going to jail. Russia, Money Laundering, Sedition, Obstructing Justice, Perjury, Sexual Deviants, Collusion with a Foreign Enemy, Creating Fake FBI Memos etc etc. Economy, look for cover.'
p286
S'2:51 PM - 25 Jan 2018'
p287
tp288
a(S'#russia #collusion #conspiracy #ReleaseTheMemohttps://twitter.com/jacobawohl/status/956659991343058944\xc2\xa0\xe2\x80\xa6'
p289
S'2:51 PM - 25 Jan 2018'
p290
tp291
a(S'How can the liberal media and Adam Shitt constantly proclaim that all this is a distraction from the Trump Russia collusion and that this is all just a right wing wing conspiracy which is based on no facts or evidence. Bill, How Is it that their noses aren\xe2\x80\x99t 10 feet long?'
p292
S'2:50 PM - 25 Jan 2018'
p293
tp294
a(S'If There Is a Coordinated Effort To Discredit The Trump-Russia Investigation Is That Collusion and Obstruction Of Justice? https://apple.news/AIoGmVG8xQvm63pknOUA1Dg\xc2\xa0\xe2\x80\xa6'
p295
S'2:49 PM - 25 Jan 2018'
p296
tp297
a(S'CNN spends last year 24/7 on Russia collusion, ha ha, what a waste of time!'
p298
S'2:49 PM - 25 Jan 2018'
p299
tp300
a(S"So u made up the @realDonaldTrump Russia collusion BS story it's nice to know who the traitors to the United States are u r leading the revolt against your own country or r you not an American"
p301
S'2:49 PM - 25 Jan 2018'
p302
tp303
a(S'The Dems and Deep State with big help from MSM, ginned up the whole Russia collusion (which is not even a crime.) It was to distract the Trump team from discovering the extent of the FISA abuse and spying Obama FBI & DOJ did before & after campaign'
p304
S'2:48 PM - 25 Jan 2018'
p305
tp306
a(S'\xe2\x80\x9cObstruction\xe2\x80\x9d is going to be the new \xe2\x80\x9ccollusion\xe2\x80\x9d as MUH RUSSIA narrative collapses around the left. https://twitter.com/jaketapper/status/956658931094388738\xc2\xa0\xe2\x80\xa6'
p307
S'2:48 PM - 25 Jan 2018'
p308
tp309
a(S"I predict the Trump Russia Collusion won't go away until after the midterms. Dem. voters in disbelief & frustation would abandon the voting booth in droves and Dems would lose BIG, once truth is known. Even now, the Dems deny there is a conspiracy against President Trump."
p310
S'2:48 PM - 25 Jan 2018'
p311
tp312
a(S"Poor Pencil Neck Schiff.  He staked his entire existence on Trump Russia collusion, only to see it wind down to zilch.  Now, he's searching and scraping for relevance.  He's been influenced too much by his long lost cousin, the pencil neck Antifa professor. pic.twitter.com/V3rMUQfScY"
p313
S'2:48 PM - 25 Jan 2018'
p314
tp315
a(S'Funny how eager CNN is willing to debunk something when it disturbs their preferred narrative. They have spent a year on Trump/Russia collusion with no evidence at all. #FakeNews'
p316
S'2:47 PM - 25 Jan 2018'
p317
tp318
a(S'Robert Mueller oversaw the FBI during Sec Clintons and Obamas sale of American Uranium to Russia. We have to Import Uranium. Why are we selling it to Russia? You talk Russian collusion yet Mueller, who knew about it, was complicit.\nBrad Manning was military too. You trust him??'
p319
S'2:47 PM - 25 Jan 2018'
p320
tp321
a(S'Absolutely! The only thing more ridiculous than the Trump Russia collusion fairy-tail, is anthropogenic climate change. Both causes use the exact same MO, lies, deception and the complete ignoring of facts and history'
p322
S'2:47 PM - 25 Jan 2018'
p323
tp324
a(S'I love this line we all waiting for Donald Trump the saying under oath "I did not have collusion or treasonous relationship with Russia" Ramesh Ponnuru. @MTPDailyTweets'
p325
S'2:46 PM - 25 Jan 2018'
p326
tp327
a(S'2 convictions over nothing to do with Russia collusion. Great job Mueller. You still have Jack Sh*t'
p328
S'2:46 PM - 25 Jan 2018'
p329
tp330
a(S'Maybe a Russia collusion narrative that wastes a bunch of money for nothing. https://twitter.com/EdKrassen/status/956658582526808064\xc2\xa0\xe2\x80\xa6'
p331
S'2:46 PM - 25 Jan 2018'
p332
tp333
a(S'How Trump\xe2\x80\x99s people tried to cover up collusion with Russia http://www.newsweek.com/how-trumps-people-tried-cover-collusion-russia-790942\xc2\xa0\xe2\x80\xa6'
p334
S'2:46 PM - 25 Jan 2018'
p335
tp336
a(S'But the \xe2\x80\x9cRussia collusion\xe2\x80\x9d theory isn\xe2\x80\x99t embarrassing? Really?! pic.twitter.com/lLfyIrYIVE'
p337
S'2:45 PM - 25 Jan 2018'
p338
tp339
a(S'How lame is it that you guys had to come up with something similar to #TheResistance ? First you "persist" & then you have red wave rising. If you persisted in more truth than you\'d want to know the truth about Trump\'s collusion with Russia. Instead you all call it fake news. pic.twitter.com/uirNIifZVr'
p340
S'2:45 PM - 25 Jan 2018'
p341
tp342
a(S'Was referring to Trump Russia collusion. How far back and what they find.'
p343
S'2:45 PM - 25 Jan 2018'
p344
tp345
a(S'I\xe2\x80\x99m usually watching CNN from 8 to 11 where they are working on conspiracy theories of how Trump colluded with Russia even though their own Democratic Party Diane Feinstein James clapper has said they still have not found any collusion'
p346
S'2:44 PM - 25 Jan 2018'
p347
tp348
a(S"I predict the Trump Russia Collusion won't go away until after the midterms. Dem. voters in disbelief & frustation would abandon the voting booth in droves and Dems would lose BIG, once truth is known. Even now, the Dems deny there is a conspiracy against President Trump."
p349
S'2:44 PM - 25 Jan 2018'
p350
tp351
a(S'They will try, but it won\xe2\x80\x99t work so they will go back to reporting on Russia collusion! LOSERS!'
p352
S'2:44 PM - 25 Jan 2018'
p353
tp354
a(S'Agreed. Living through the past year+ in the US we have all seen the ridiculous conspiracies concocted by the Dems and the media of Russia/Trump collusion that never happened. It has eroded any shred of trust the public had in their elected officials and the MSM.'
p355
S'2:44 PM - 25 Jan 2018'
p356
tp357
a(S'Top FBI agent admitted via text that there was probably no Russia collusion https://fb.me/7bHmuzbqs\xc2\xa0'
p358
S'2:43 PM - 25 Jan 2018'
p359
tp360
a(S'"As a former prosecutor I understand fully the power of allegations in the public domain," McCaskill wrote.\n\nLike Trump-Russia collusion, or has it morphed to obstruction of justice now.'
p361
S'2:43 PM - 25 Jan 2018'
p362
tp363
a(S'@CNN you fucking hacks, there is no  collusion between @realDonaldTrump and Russia. Could your network say #russianinvestigation more???? #CNNisFakeNews'
p364
S'2:42 PM - 25 Jan 2018'
p365
tp366
a(S"Mueller:  did you ever look at Russia on a map?  That's collusion."
p367
S'2:42 PM - 25 Jan 2018'
p368
tp369
a(S'The only thing patently false and more ridiculous than the Trump -Russia collusion fairytale is anthropogenic climate change.'
p370
S'2:40 PM - 25 Jan 2018'
p371
tp372
a(S'Much like the Russia collusion theory!!!!'
p373
S'2:40 PM - 25 Jan 2018'
p374
tp375
a(S'Kinda like 24/7 365+ of Trump Russia collusion, to include hour long specials on CNN.  You mean like that rush to judgement?!?!?!'
p376
S'2:40 PM - 25 Jan 2018'
p377
tp378
a(S'NO interview unless the specific Russia collusion is seen! https://twitter.com/GeraldoRivera/status/956325362765574144\xc2\xa0\xe2\x80\xa6'
p379
S'2:39 PM - 25 Jan 2018'
p380
tp381
a(S'? I would assume from your bio and timeline that you would agree that MAGA/Trump supporters who promote Deep State conspiracies targeting Democrats are the ones who are the real \xe2\x80\x9cdeep state\xe2\x80\x9d, if you will.  CNP/Evangelicals/Alt-Right/Russia collusion'
p382
S'2:37 PM - 25 Jan 2018'
p383
tp384
a(S'Ucant impeach Trump bcuzUdidnt vote4 him, Ubelieve lies abt Russia collusion, he fired Comey. DACA, the Wall, U think hes racist, U cant. pic.twitter.com/y8oj0QplzK'
p385
S'2:36 PM - 25 Jan 2018'
p386
tp387
a(S'How Trump\xe2\x80\x99s People Tried to Cover Up Collusion with Russia - Newsweek https://apple.news/A1fF876bBQLGk6wowOluFxQ\xc2\xa0\xe2\x80\xa6'
p388
S'2:36 PM - 25 Jan 2018'
p389
tp390
a(S"2 guilty pleas for what? Not for colluding with Russia. 1 guilty pleas for lying to the FBI and the other one is for crimes that occurred years ago. Nothing to do with Russia collusion. Because there is no Russian collusion it's all a big lie. You are being lied to."
p391
S'2:36 PM - 25 Jan 2018'
p392
tp393
a(S"From earlier: @USSC's @America4Aliens says the big question for Robert Mueller's Russia investigation is shaping up to be obstruction of justice, not collusion http://ab.co/2DHkmdd\xc2\xa0pic.twitter.com/EK8WMwsict"
p394
S'2:35 PM - 25 Jan 2018'
p395
tp396
a(S'No, YOU said that HRC \xe2\x80\x9ccolluded\xe2\x80\x9d with Russia. Since she is not the president, one can only guess that the result of that \xe2\x80\x9ccollusion\xe2\x80\x9d is that Russia helped her lose.'
p397
S'2:34 PM - 25 Jan 2018'
p398
tp399
a(S'What this guy does is worse than Russia , where are the investigations of collusion with the Democratic party.'
p400
S'2:33 PM - 25 Jan 2018'
p401
tp402
a(S'What planet you living on? DNC Russia relationship is established. Putin did not want Trump. Collusion on Dem side and treasonous subversion will be declassified soon. Respectfully, an NSA analyst.'
p403
S'2:32 PM - 25 Jan 2018'
p404
tp405
a(S'I never said he didn\xe2\x80\x99t have ties to Russia.\nI said it has nothing to do with collusion.\nThe goal here is to use this to create innuendo and speculation.\nMission accaonplished'
p406
S'2:32 PM - 25 Jan 2018'
p407
tp408
a(S'The only logical reason that so many Republicans only, are dissing our intelligence agencies, is that they are dirty in some ways. From giving information, taking information from Russia or taking Rubles for their campaigns, they are trying to protect their own selves, collusion! https://twitter.com/alt_fedemployee/status/956508546677596160\xc2\xa0\xe2\x80\xa6'
p409
S'2:31 PM - 25 Jan 2018'
p410
tp411
a(S'It was NOT collusion. Trump did not COLLUDE with Russia. Say it with me: He CONSPIRED with Russia. He and his co-conspirators belong in prison for #Treason. \n#TrumpConspired\n#TrumpConspired\n#TrumpConspired'
p412
S'2:31 PM - 25 Jan 2018'
p413
tp414
a(S'But no, let\xe2\x80\x99s concentrate and spend all our time investigating Trump / Russia collusion....'
p415
S'2:29 PM - 25 Jan 2018'
p416
tp417
a(S'But by all means let\xe2\x80\x99s focus on some stupid Russia collusion theory and let that slide'
p418
S'2:29 PM - 25 Jan 2018'
p419
tp420
a(S'Does that apply to the fictional Russia collusion?'
p421
S'2:29 PM - 25 Jan 2018'
p422
tp423
a(S'Desperate for what? The proper administration of justice? It matters to serious people. I highly doubt evidence of collusion between Russia and the Trump campaign exists. If you didnt know that going in...I have a bridge etc.'
p424
S'2:29 PM - 25 Jan 2018'
p425
tp426
a(S'Skepticism of the Russia-collusion conspiracy does *not* equate with support for the POTUS/government http://ift.tt/2DP7VfE\xc2\xa0'
p427
S'2:29 PM - 25 Jan 2018'
p428
tp429
a(S'There is a lot more out there that it\xe2\x80\x99s true than there was collusion with Russia! Just your his glasses won\xe2\x80\x99t let you see it clearly'
p430
S'2:27 PM - 25 Jan 2018'
p431
tp432
a(S'FBI agent sent \xe2\x80\x98jaw-dropping\xe2\x80\x99 text about no Russia collusion \xe2\x80\x93 senator http://www.infowars.com/fbi-agent-sent-jaw-dropping-text-about-no-russia-collusion-senator/\xc2\xa0\xe2\x80\xa6 via @realalexjones'
p433
S'2:27 PM - 25 Jan 2018'
p434
tp435
a(S'LOL - Aside from genuine cranks, is there ANYONE left denying the Trump / Russia "collusion" narrative is a hoax?'
p436
S'2:24 PM - 25 Jan 2018'
p437
tp438
a(S"Wait, what? You've been talking about a Russia collusion conspiracy theory for over year. Pathetic."
p439
S'2:23 PM - 25 Jan 2018'
p440
tp441
a(S'Given the evidence uncovered, it would require more critical thinking skills to pick a ripe avocado than recognize that the Russia-Trump collusion story is more likely to be a criminal conspiracy perpetrated by Hillary and her supporters. #ReleaseTheMemo'
p442
S'2:23 PM - 25 Jan 2018'
p443
tp444
a(S'The only arrow left now in Mueller\xe2\x80\x99s arsenal is to wound @POTUS for firing his buddy Jim Comey with obstruction of justice. It\xe2\x80\x99s at best a very weak case. Look for lawyers to submit written answers with a very short testimony, limited only to the non-existent Russia collusion.'
p445
S'2:23 PM - 25 Jan 2018'
p446
tp447
a(S'@realDonaldTrump @FoxNews @TeaPartyOrg @theblaze #GlenBeck is #Nailing it on blaze TV now explainkng #kerry #russia #clinton #obama #connection #collusion go now GREAT ALL FACTS TIMELINE DEMS #LIED #STOLE$$\n#PLOTTED AGAINST USA W #LYNCH #HOLDER #COMEY #CLAPPER ALL TIES TOGETHER!!'
p448
S'2:22 PM - 25 Jan 2018'
p449
tp450
a(S'Russia is definitely a foe of the United States but this Russian collusion nonsense and Russian bot nonsense is just that nonsense and James Comey knows he has to keep up the front because the house of cards is collapsing release the memo'
p451
S'2:22 PM - 25 Jan 2018'
p452
tp453
a(S'Just the 1st one in that TIME article is already wrong. 1-it\xe2\x80\x99s not a lie 4 Trump to say every Dem said there was no collusion. Maybe it\xe2\x80\x99s every Dem he talked to. No one but Trump knows. At worst, it\xe2\x80\x99s an exaggeration. 2-The Dems WERE colluding w/Russia over Uranium One & dossier.'
p454
S'2:22 PM - 25 Jan 2018'
p455
tp456
a(S'Trump/Russia collusion never happened, thus the ZERO evidence of such being uncovered. Trump is just saying \xe2\x80\x9cyeah, I\xe2\x80\x99ll meet, whatever...if my lawyers say yeah, then yeah\xe2\x80\x9d because it\xe2\x80\x99s what most sane people would do who are being baselessly attacked and lied about\n\n#TheFive'
p457
S'2:21 PM - 25 Jan 2018'
p458
tp459
a(S'Friendly reminder to those who are *still actively working to take Trump down. When God is for u, who can be against u? God will take what was meant to harm you and use it for your good. Example: Trump/Russia collusion is now #ObamaGate/#FISAGate including FBI/DOJ  corruption '
p460
S'2:21 PM - 25 Jan 2018'
p461
tp462
a(S"Oh wow, you mean Democrats were strategizing to keep the focus on Trump's collusion with Russia during the campaign.  That is truly despicable!"
p463
S'2:20 PM - 25 Jan 2018'
p464
tp465
a(S'Guess the Russia collusion is a joke too? Your reporter Van Jones said it was a nothing burger, and both of those agents said nothing there.'
p466
S'2:20 PM - 25 Jan 2018'
p467
tp468
a(S'The only thing that will make Trump\xe2\x80\x99s base turn on him is if he does something that has a shred of decency, sense, or humanity to it. He probably won\xe2\x80\x99t lose support anytime soon.\n\n#evangelicals #trump #GOP #russia #mueller #stormydaniels #DACA #Dreamers #climate #collusion'
p469
S'2:19 PM - 25 Jan 2018'
p470
tp471
a(S"I don't believe there was ever collusion. If voters were affected by Facebook memes, ads & Twitter posts, perhaps those people should not vote. If Mueller finds actual collusion & @POTUS counting on Russia 4 him 2 get elected he will need 2 go immediately. #TheFive"
p472
S'2:18 PM - 25 Jan 2018'
p473
tp474
a(S"Cheesy sleight of hand & #ButWhatAbout attempt @SenRonJohnson & @GOP. Don't undermine the integrity of our justice system, focus on the most significant threat to our democracy in decades - Mueller's investigation into this administration's collusion with Russia. #MuellerTimehttps://twitter.com/SenRonJohnson/status/956000589346951174\xc2\xa0\xe2\x80\xa6"
p475
S'2:17 PM - 25 Jan 2018'
p476
tp477
a(S'So when @realDonaldTrump asks Russia to find emails it\'s a joke but NOT collusion...and when 2 FBI agents are sending PERSONAL texts about a "meeting of the secret society" it\'s NOT a joke but the TRUTH?!?!?!No, just NO!!!You CAN\'T have it BOTH WAYS @HouseGOP @SenateGOP ...'
p478
S'2:17 PM - 25 Jan 2018'
p479
tp480
a(S'I can\xe2\x80\x99t believe you have the balls to retweet this! Lol you didn\xe2\x80\x99t sell the \xe2\x80\x9cRussia Collusion\xe2\x80\x9d narrative then, and you certainly can\xe2\x80\x99t do it now! #traitor #SecretSocietySedition #ReleaseThe Memohttps://twitter.com/comey/status/956352301572206592\xc2\xa0\xe2\x80\xa6'
p481
S'2:16 PM - 25 Jan 2018'
p482
tp483
a(S'Again. \n1) Russia hacks everyone in the world. That is known.\n2) Still Zero evidence of collusion.\n3) what kind of idiot was Hillary to have a server in her house if the intrusion was this powerful?\n- interesting read if, it\xe2\x80\x99s even true (could be as fake as Steele\xe2\x80\x99s Dossier) https://twitter.com/trbrtc/status/956627401357787137\xc2\xa0\xe2\x80\xa6'
p484
S'2:16 PM - 25 Jan 2018'
p485
tp486
a(S'The same OBSTRUCTIONIST DEMS who did not bother to read the Memo, but amazingly don\xe2\x80\x99t want it released because the AMER PPL are too STUPID. The same DEMS who with the MSM pushed a LIE abt TRUMP/RUSSIA Collusion? THE FIX WAS IN w/ DEMS & MSM TO HIDE the truth from the Amer ppl.'
p487
S'2:15 PM - 25 Jan 2018'
p488
tp489
a(S'The whole release his taxes is nothing but a feeble attempt at distracting from the failed Trump/Russia collusion narrative and the fact that it\xe2\x80\x99s backfired big time and some dirty crooked Dems are looking at jail time & the unemployment line! pic.twitter.com/DMo1ygDxGX'
p490
S'2:15 PM - 25 Jan 2018'
p491
tp492
a(S"Just amazing how this Trump Russia collusion story turned 180 degrees and now it looks like it's an Obama Hillary Russia collusion story."
p493
S'2:15 PM - 25 Jan 2018'
p494
tp495
a(S'Gullible? No evidence of Trump-Russia collusion after a year of investigation, democrats still spew that nonsense.  That is being gullible.   Let\xe2\x80\x99s see what the evidence is when they #ReleaseTheMemo'
p496
S'2:14 PM - 25 Jan 2018'
p497
tp498
a(S'You\xe2\x80\x99ve been pushing trump Russia collusion for a yr despite zero evidence'
p499
S'2:13 PM - 25 Jan 2018'
p500
tp501
a(S'You are talking about the Russia collusion, right?'
p502
S'2:09 PM - 25 Jan 2018'
p503
tp504
a(S"This is where our partnership with Russia and China will be important - they have no more interest in being controlled by a NWO than we SHOULD - as we move away from the collusion BS - we'll be able to partner up..."
p505
S'2:08 PM - 25 Jan 2018'
p506
tp507
a(S"Don't forget..FBI knew of hacking, Trump campaign collusion wih Russia and hid that from Amercans but went after HRC instead. ##NeverEverTrustaRepublicanhttps://twitter.com/pwnallthethings/status/956514292441939968\xc2\xa0\xe2\x80\xa6"
p508
S'2:07 PM - 25 Jan 2018'
p509
tp510
a(S'"Mr. Mueller appears to be investigating - whether Mr. Trump obstructed justice while in office & whether there was collusion between Trump campaign and Russia -there is currently a larger body of public evidence tying president to a possible crime of obstruction" by @nytimes .'
p511
S'2:07 PM - 25 Jan 2018'
p512
tp513
a(S"yeah, except if it's true -that DOJ, FBI, Comey, Clapper, DNI, Lynch, Rice, Wasserman Schultz, DNC, Hillary, Obama ALL conspired to derail Trump's candidacy w/illegally obtained warrant & dossier, then derail his presidency w/fake Russia collusion crime - it's not a conspiracy."
p514
S'2:06 PM - 25 Jan 2018'
p515
tp516
a(S"Our bad actors convinced the GCHQ (Britain's NSA) that Trump had to be watched... they may have even suggested that he be taken out.  WMD's was the reason we invaded Iraq... turns out they had no WMDs. Turns out there is no Russia Collusion."
p517
S'2:06 PM - 25 Jan 2018'
p518
tp519
a(S'@CNNBreakingTR RUSSIA COLLUSION REACHING DEEP INTO WHITE HOUSE @wolfblitzer REPORTING!!!!! Wolf has the smoked gun. It\xe2\x80\x99s over folks. @wolfblitzer solved the mystery!!!!'
p520
S'2:06 PM - 25 Jan 2018'
p521
tp522
a(S'Conspiracy theories, huh?  Sure seems to be A LOT of those going around now. You know, like the whole Dem crafted "Russia/Trump Collusion" conspiracy.'
p523
S'2:05 PM - 25 Jan 2018'
p524
tp525
a(S'BULLCHIT. The propagans CNN chits out is un-American. Explain why when socialists get caught, emails and texts always vanish? Lois Learner, Benghazi, Hillary, and now this! And let me tell YOU about Russian collusion. Selling or uranium to Russia, hillary'
p526
S'2:03 PM - 25 Jan 2018'
p527
tp528
a(S"I think if they prosecute for a crime, it will be for his businesses not for collusion with Russia. But I don't care how he goes, as long as he goes."
p529
S'2:01 PM - 25 Jan 2018'
p530
tp531
a(S'Waarom? Het gaat om de pointe: Geen enkele discussie in politiek en media over keiharde bewijzen van buitenlandse be\xc3\xafnvloeding Clinton. Maar wel al ruim een jaar lang headlines over Trump-Russia collusion zonder flinter bewijs. So much voor de waakhond van de democratie.'
p532
S'2:01 PM - 25 Jan 2018'
p533
tp534
a(S'This is a diversion, a smoke screen from the Dutch anti-Trump media.\nDutch journalists and intel working with the FBI  \'scam\' probes into Russia  "collusion".\n@TheLastRefuge2 @DaveNYviii @prayingmedichttps://twitter.com/eelcobvr/status/956620675569025034\xc2\xa0\xe2\x80\xa6'
p535
S'2:01 PM - 25 Jan 2018'
p536
tp537
a(S'Collusion isn\xe2\x80\x99t a crime, but conspiracy to defraud the United States is. I bet you\xe2\x80\x99re one of those people who thinks the fbi is bad and Russia is our friend.'
p538
S'2:00 PM - 25 Jan 2018'
p539
tp540
a(S'The rumors for months has been that foreign intelligence services also have proof of collusion between trump & Russia, this is the tip of the iceberg https://twitter.com/eurabist/status/956629853784150017\xc2\xa0\xe2\x80\xa6'
p541
S'2:00 PM - 25 Jan 2018'
p542
tp543
a(S'No the Hillary cultists who believe in Russia collusion are the slow learners. \n\nYou were just a late adopter. Better late than never'
p544
S'1:59 PM - 25 Jan 2018'
p545
tp546
a(S"CNN panel dismisses any criticism of the horribly corrupted Obama FBI which colluded with the horribly corrupted Obama DOJ to hide Hillary's crimes and to make Trump lose the election with the bogus Russia collusion story. http://bit.ly/2DMYpJS\xc2\xa0"
p547
S'1:58 PM - 25 Jan 2018'
p548
tp549
a(S'And end the charade of Trump/Russia collusion or obstruction and ensure this FBI targeting of Trump never happens to another citizen! https://twitter.com/benshapiro/status/956486546227650560\xc2\xa0\xe2\x80\xa6'
p550
S'1:58 PM - 25 Jan 2018'
p551
tp552
a(S'SC Mueller is shifting from the phony "Russia Collusion Gambit" to "OBSTRUCTION!"\nVox sees Three potential problems for an obstruction case against Trump, but there is a FOURTH...Comey\'s handling of Hillary\'s emails. https://www.vox.com/2018/1/25/16868268/trump-obstruction-of-justice-mueller?utm_campaign=vox&utm_content=entry&utm_medium=social&utm_source=twitter\xc2\xa0\xe2\x80\xa6 #mtpDaily #maga #thefive #maga #tcot'
p553
S'1:57 PM - 25 Jan 2018'
p554
tp555
a(S"It will astonish the public when this administration and it's supporter's level of corruption and collusion with Russia is revealed. MSM should start dripping some evidence so the public can begin to grasp it. People should stick up on anxiety meds now. #Muellertime"
p556
S'1:57 PM - 25 Jan 2018'
p557
tp558
a(S"Forget all the crying about Russian collusion.  We're becoming more like Russia without their help. Putin has to be ecstatic."
p559
S'1:57 PM - 25 Jan 2018'
p560
tp561
a(S'It\xe2\x80\x99s pretty amazing how everything is called Russia investigation or collusion. The charges so far are lying and money laundering. Haha. Now let\xe2\x80\x99s try and get obstruction cuz the Russia shit is not there.'
p562
S'1:56 PM - 25 Jan 2018'
p563
tp564
a(S'Once #CrookedHillary is in prison (where she belongs) and the truth comes out about the Russia/DNC/MSM collusion, the #ImWithHer crowd will quickly fall in behind @IvankaTrump to help make her the first female @PotUS.'
p565
S'1:53 PM - 25 Jan 2018'
p566
tp567
a(S'"I WILL NOT SIT DOWN!\nI WILL NOT SHUT UP!\nI WILL NOT COMPLY!\nI AM AN AMERICAN!\nAND, I AM SICK OF THE CORRUPTION IN DC!" ~U.S. Freedom Army\n#ReleaseTheMemo #FBICorruption\n#Russia #Collusion #hoax\n#Trump #Patriots #MAGAhttps://twitter.com/USFreedomArmy/status/956026868112732161\xc2\xa0\xe2\x80\xa6'
p568
S'1:52 PM - 25 Jan 2018'
p569
tp570
a(S'Fantastic proposal- besides "right to carry law"we need to provide weapons/ammunition to every K12& college student in US. Since we all know - axiom - MORE GUNS=GREATER SAFETY (Russia Collusion=HOAX,Environ Warming=HOAX; Round Earth= HOAX; Black is Black=HOAX)'
p571
S'1:51 PM - 25 Jan 2018'
p572
tp573
a(S'\xe2\x80\x9cHe would\xe2\x80\x99ve won, anyway, cuz he\xe2\x80\x99s just so great, duh. So who cares \xe2\x80\x98bout collusion with Russia?\xe2\x80\x9d In other news, murdering someone who is really old not a crime, they\xe2\x80\x99d die soon, anyhow. Inevitable. pic.twitter.com/Xtsjho8PnO'
p574
S'1:51 PM - 25 Jan 2018'
p575
tp576
a(S'You\xe2\x80\x99re NOT investigating Russia! Otherwise you would be interviewing Hillary Obama Comey ALL of Obama\xe2\x80\x99s security agencies that he used to spy on the opposition party, @realDonaldTrump ! That\xe2\x80\x99s the REAL collusion! #liar #partisianhack #biased #Hypocrite #fakenews'
p577
S'1:50 PM - 25 Jan 2018'
p578
tp579
a(S"Why not Judge Jeanine if they're no collusion he didn't get help from Russia to influence our election  he shouldn't have nothing to worry about when talking to an FBI agent like Robert Muller he should just be able to tell the truth he didn't have nothing to do with anything"
p580
S'1:49 PM - 25 Jan 2018'
p581
tp582
a(S'You sure know alot about Russian elections. But my reference to \xe2\x80\x9cRussia\xe2\x80\x9d was the Trump-Russia collusion story. Now, tell me about the US elections, do you think Trump is in office illegaly? If so, why?'
p583
S'1:48 PM - 25 Jan 2018'
p584
tp585
a(S'I like how there has been a years worth of an investigation but yet no evidence of any collusion between trump or russia.'
p586
S'1:45 PM - 25 Jan 2018'
p587
tp588
a(S'The lead FBI investigator into Trump-Russia "collusion" said he thought "there was no there there" but that it "could lead to impeachment." And Dems are telling u this isn\'t evidence of wrongdoing.\n\nDemocrats think you\'re stupid. Just ask @RepAdamSchiffhttps://news.grabien.com/story-rep-schiff-we-cant-release-fisa-memo-because-american-people\xc2\xa0\xe2\x80\xa6'
p589
S'1:45 PM - 25 Jan 2018'
p590
tp591
a(S'But when it comes to the Russia collusion investigation, don\xe2\x80\x99t stick to the facts? Strange journalistic creed. https://twitter.com/theleadcnn/status/956635697011740678\xc2\xa0\xe2\x80\xa6'
p592
S'1:45 PM - 25 Jan 2018'
p593
tp594
a(S'And not a damn administration thing to show for it cuz its all a witch hunt based on lies. #ReleaseTheMemo is the real evidence of dem/russia collusion.'
p595
S'1:44 PM - 25 Jan 2018'
p596
tp597
a(S"My biggest concern isn't Russia, it's the enemy from within. The only collusion was our own government subversives undermining a Presidency. #ReleaseTheDocument #FISAabuse #ReleaseTheTexts #ReleaseTheMemo #Strzok #Page"
p598
S'1:44 PM - 25 Jan 2018'
p599
tp600
a(S"Despite your graph there is STILL NO EVIDENCE OF TRUMP RUSSIA COLLUSION. You can't even say exactly what Trump supposedly did. MEANWHILE #ReleaseTheMemo What are you afraid of Cooper? Transparency?"
p601
S'1:43 PM - 25 Jan 2018'
p602
tp603
a(S'Then investigate corrupt democrats and collusion with Russia to sabotage the 2016 election and you will find your obstructionist democrats!'
p604
S'1:42 PM - 25 Jan 2018'
p605
tp606
a(S'How Trump\xe2\x80\x99s people tried to cover up collusion with Russia http://www.newsweek.com/how-trumps-people-tried-cover-collusion-russia-790942\xc2\xa0\xe2\x80\xa6'
p607
S'1:41 PM - 25 Jan 2018'
p608
tp609
a(S"Collusion with Russia definitely transpired..we still see those russian bots with the old 'hate liberals' and everything trump messages trying to troll oil:) ..note trump is corrupt and liar to the core.. he  was in it to make a dime with the russians.. not to win..but  he won:)"
p610
S'1:40 PM - 25 Jan 2018'
p611
tp612
a(S"I'd vote for someone who's demonstrated a real commitment to getting at the heart of child trafficking, who dishonest corporate media hates, who BOTH corrupt parties undermine at every turn, who globalists attack, who's a friend to Wikileaks, who calls BS on 'Russia collusion'."
p613
S'1:40 PM - 25 Jan 2018'
p614
tp615
a(S'Skepticism of the Russia-collusion conspiracy does *not* equate with support for the POTUS/government http://ift.tt/2DP7VfE\xc2\xa0'
p616
S'1:40 PM - 25 Jan 2018'
p617
tp618
a(S'Discussing removal of sanctions, collusion, money laundering, are all crimes... Flynn ,Sessions , page & Papadopoulus all meet with & discussed sanctions. Don jr. (by own admission) took meeting at Trump tower under pretense of colluding w/ Russia'
p619
S'1:39 PM - 25 Jan 2018'
p620
tp621
a(S"today's news from the Dutch can at least let us answer: \nIf we KNOW Russia was hacking and Congress is not investigating, it can only be because of a coverup for collusion."
p622
S'1:38 PM - 25 Jan 2018'
p623
tp624
a(S'You only shut the government down to distract from our investigations of the most corrupt party ever and the worst scandal in my lifetime of 77 years. So glad your party used this RUSSIA thing of Collusion and it came back to bite you in the rear end. KARMA at work. AMEN https://twitter.com/SenSchumer/status/956570795798654979\xc2\xa0\xe2\x80\xa6'
p625
S'1:38 PM - 25 Jan 2018'
p626
tp627
a(S'Trump-Russia collusion allegation is clearly a witch-hunt to deflect that the FBI was complicit with ObamaGate https://twitter.com/chuckrossdc/status/956639765855686658\xc2\xa0\xe2\x80\xa6'
p628
S'1:38 PM - 25 Jan 2018'
p629
tp630
a(S'Not really Chris. People were screaming Russia collusion with much less.'
p631
S'1:36 PM - 25 Jan 2018'
p632
tp633
a(S"You'll have better luck investigating the Illuminati than you will with your witch hunt about Trump and Russia collusion, obstruction, mental instability too many diet sodas, or whatever else you can dredge up from your swamp."
p634
S'1:35 PM - 25 Jan 2018'
p635
tp636
a(S'Top FBI agent admitted via text that there was probably no Russia collusion https://www.conservativeinstitute.org/government-corruption/probably-no-russia-collusion.htm?utm_medium=jmg&utm_source=push&utm_campaign=cna\xc2\xa0\xe2\x80\xa6'
p637
S'1:35 PM - 25 Jan 2018'
p638
tp639
a(S"I can't believe that the 2002 pageant is going to link him to Russia in such a way that it will prove collusion to such a degree to get him for treason."
p640
S'1:34 PM - 25 Jan 2018'
p641
tp642
a(S'@TheLeadCNN there is no greater conspiracy theory than Trump/Russia collusion @jaketapper #FakeNews #FakeJake'
p643
S'1:34 PM - 25 Jan 2018'
p644
tp645
a(S'At its worst, the memo could reveal a potential FBI cover-up and corruption scandal unlike anything we\'ve ever seen in this country. At best, it could show a clear bias by FBI agents investigating the phony "Russia collusion" scandal.'
p646
S'1:34 PM - 25 Jan 2018'
p647
tp648
a(S"If you don't understand the difference between asking to declassify  memos for the public to view that may contain evidence that Russia collusion narrative is nonsense , and sending classified information via email over an unencrypted server I don't know what to tell you."
p649
S'1:34 PM - 25 Jan 2018'
p650
tp651
a(S'Missing FBI texts\nObama/Clinton/Russia collusion\nand the "Silent Coup" against Trump escalates. \n\nThis preview is just the beginning of a BOMBSHELL free episode! \n\nWatch the full (FREE) episode at CRTV ===>\nhttps://www.crtv.com/video/ep404--the-silent-coup-against-trump-escalates?utm_source=twitter-crtv&utm_medium=organic&utm_campaign=levin-free-episodes&utm_term=levin&utm_content=levin-ep-404-link-012518-twitter-crtv\xc2\xa0\xe2\x80\xa6pic.twitter.com/yYUR2ocvc3'
p652
S'1:34 PM - 25 Jan 2018'
p653
tp654
a(S'TRUTH! Sara Carter is a Gem of a Reporter: "No Evidence of Trump or Trump Team Collusion and Russia or Russia Hacking" [Video] https://100percentfedup.com/truth-sara-carter-is-a-gem-of-a-reporter-no-evidence-of-trump-or-trump-team-collusion-and-russia-or-russia-hacking-video/\xc2\xa0\xe2\x80\xa6 via @100percFEDUP'
p655
S'1:33 PM - 25 Jan 2018'
p656
tp657
a(S'... and now that it is CLEAR, the whole Russia-Trump collusion story was fiction (and used to commit the fraud/felony of FISA warrants), the Clinton Foundation can pay reimbursement costs for our wasted tax-dollars.'
p658
S'1:32 PM - 25 Jan 2018'
p659
tp660
a(S'So if illegals voted that wouldnt be cosidered collusion? Welp you just went full retard. Also a foreign entity voting in a election to favor one side over the other is exactly collusion and vote manipulating. Russia didnt influence my vote for trump. Your crooked Candidate did.'
p661
S'1:32 PM - 25 Jan 2018'
p662
tp663
a(S'#Russian #Bots Just Being Used As Scapegoats To Conceal Their Crimes Anyone Screaming #Russia Collusion #RussiaBots Should Be Removed From Office They Are Outing Themselves As Being Involved In The #Treasonous Agenda Being Imposed On These Countries. And Are Being Paid to Do So'
p664
S'1:31 PM - 25 Jan 2018'
p665
tp666
a(S'Media: What\xe2\x80\x99s the definition of collusion?\nTRUMP: People keep saying it wasn\xe2\x80\x99t me in my campaign ads and that it was Putin in a Trump mask. If Putin was in a Trump mask in my ads I didn\xe2\x80\x99t know about it. I never tried to buy the country of Russia. No collusion.'
p667
S'1:31 PM - 25 Jan 2018'
p668
tp669
a(S'Not surprised these two FBI agents were using Putin gag-gifts because they knew this whole Russia collusion thing was a big joke - a hoax'
p670
S'1:30 PM - 25 Jan 2018'
p671
tp672
a(S'When you say the memo is an \xe2\x80\x9cexistential crisis\xe2\x80\x9d for those pushing Russia collusion does that mean CNN will disband?'
p673
S'1:26 PM - 25 Jan 2018'
p674
tp675
a(S"@NicolleDWallace If you guys try to lynch President Trump for anything other than the Russia/Collusion charges and help entrap him on some bogus charge because you hate him so much the American citizens will make the 1968 protests look like child's play and you will suffer."
p676
S'1:25 PM - 25 Jan 2018'
p677
tp678
a(S'How bad America is in the eyes of the World.  Laughing stock.  Illegitimate president put in by Russia .  Collusion Collusion Collusion.\nSex offender/ pu**y grabber in White House.  Shame on the Administration. pic.twitter.com/NzSV9d6jPk'
p679
S'1:25 PM - 25 Jan 2018'
p680
tp681
a(S"Attorney General Jeff Sessions Sat Down With Special Counsel Mueller's Office https://www.buzzfeed.com/zoetillman/attorney-general-jeff-sessions-sat-down-with-special\xc2\xa0\xe2\x80\xa6. There was no damned collusion between Trump & Russia. It was Hillary/Obama/ DNC/ FBI who colluded to oust this administration. Sessions Sid not speak to Russia about election."
p682
S'1:25 PM - 25 Jan 2018'
p683
tp684
a(S'He sees "collusion" as Russia having helped him win. \nHis fragile ego can\'t handle that truth. \n #DeadlineWH'
p685
S'1:25 PM - 25 Jan 2018'
p686
tp687
a(S'Top FBI agent admitted via text that there was probably no Russia collusion\nhttps://www.conservativeinstitute.org/government-corruption/probably-no-russia-collusion.htm?utm_medium=jmg&utm_source=push&utm_campaign=ap\xc2\xa0\xe2\x80\xa6'
p688
S'1:25 PM - 25 Jan 2018'
p689
tp690
a(S"Trump's sowing seeds of mistrust in the FBI and discrediting his own Intelligent service to cover up for something he's very worried about, if everyone who work in the FBI can't be trusted then nobody can be trusted, Trump's missions is destroy FBI will destroy Russia's collusion"
p691
S'1:24 PM - 25 Jan 2018'
p692
tp693
a(S'THERE IS MORE EVIDENCE OF COLLUSION BETWEEN MEMBERS OF THE FBI AGAINST TRUMP THAN EVIDENCE OF COLLUSION BETWEEN TRUMP AND RUSSIA!! DOJ recovers missing text messages between anti-Trump FBI agents Strzok and Page http://fxn.ws/2DCEVbz\xc2\xa0 #FoxNews'
p694
S'1:24 PM - 25 Jan 2018'
p695
tp696
a(S'Is that your Russia/Trump collusion hat?  Double duty? https://twitter.com/joncoopertweets/status/956622433808801792\xc2\xa0\xe2\x80\xa6'
p697
S'1:23 PM - 25 Jan 2018'
p698
tp699
a(S"Seems like Nunez got in trouble over a joke.  The secret society invention could lead him to jail. He doesn't know what else to do to discredit the FBI.Trump's GOP is getting creative on how to cover up Trump's/Russia collusion. So similar to Nixon's..."
p700
S'1:23 PM - 25 Jan 2018'
p701
tp702
a(S"They are all the same. MAGA. lock her up. No Russia collusion. Build the wall. More MAGA. I'm the greatest President in all the world. And MAGA!"
p703
S'1:22 PM - 25 Jan 2018'
p704
tp705
a(S'Actually I don\xe2\x80\x99t know. Just a country lawyer. I thought this was about collusion with Russia to influence an election. No?'
p706
S'1:22 PM - 25 Jan 2018'
p707
tp708
a(S'Who Were Christopher Steele\xe2\x80\x99s \xe2\x80\x98Salacious & Unverified\xe2\x80\x99 DNC-Funded Sources Alleging Russia Collusion?: Editorial\xe2\x80\xa6 https://goo.gl/fb/EPcPjT\xc2\xa0'
p709
S'1:21 PM - 25 Jan 2018'
p710
tp711
a(S"@realDonaldTrump The Robert Mueller investigation was started because of allegations of Russia collusion. Collusion isn't illegal & if it were there's no proof . Why in heavens sake is the investigation continuing? It's proof it's a witch hunt. Investigate @HillaryClinton"
p712
S'1:21 PM - 25 Jan 2018'
p713
tp714
a(S'Tucker Carlson Tonight Fox News 1/24/18 - The FISA Act was used by corrupt Obama to 1: keep corrupt Hillary out of jail 2: make Trump lose the election with the sham Russia collusion narrative https://youtu.be/sJfYBjtTtOw\xc2\xa0 via @YouTube'
p715
S'1:21 PM - 25 Jan 2018'
p716
tp717
a(S'But but Trump mental fitness, Russia collusion '
p718
S'1:21 PM - 25 Jan 2018'
p719
tp720
a(S'Laughable!!! Russia is a fake made up by your side. The real collusion is on the dem side PLEASE quit watching #fakenews'
p721
S'1:20 PM - 25 Jan 2018'
p722
tp723
a(S'Yeah okay.  Kind of like Russia collusion.'
p724
S'1:20 PM - 25 Jan 2018'
p725
tp726
a(S'And what about the wingnut Russia collusion conspiracy theories that you and your party won\xe2\x80\x99t shut up about?'
p727
S'1:19 PM - 25 Jan 2018'
p728
tp729
a(S'How would you know, you are complacent. Most of your money comes from russia, remember? Money laundering, collusion, obstruction. All in your wheelhouse.'
p730
S'1:18 PM - 25 Jan 2018'
p731
tp732
a(S'How Trump\xe2\x80\x99s People Tried to Cover Up Collusion with Russia - Newsweek https://apple.news/A1fF876bBQLGk6wowOluFxQ\xc2\xa0\xe2\x80\xa6'
p733
S'1:18 PM - 25 Jan 2018'
p734
tp735
a(S"@seanhannity So a text between the FBI lover's about a secret society' against all things Trump was 'just a joke' BUT Trump jokingly asking Russia about Hillary's missing emails was proof of 'collusion' or something?"
p736
S'1:17 PM - 25 Jan 2018'
p737
tp738
a(S'It is true that the Trump Regime has been so chaotic. Every day he is attacking, instead of fixing our issues.  His lies will bury him.\nRemember one of the first things this Republican Congress tried to remove was the Ethics Committee.\nOil deals for Russia, with NRA COLLUSION.'
p739
S'1:17 PM - 25 Jan 2018'
p740
tp741
a(S'The Social Network #6thDistrict #ads #bots #campaigns #Collusion @realDonaldTrump @facebook #GeorgiaSixthDistrict #Russia #Twitter pic.twitter.com/HV0BVK3KQA'
p742
S'1:17 PM - 25 Jan 2018'
p743
tp744
a(S'We will be vindicated. Literally no collusion so now Muller on to whether he obstructed justice by legally firing FBI director. The claimed reason is he fired Comey because he would find out about Russia collusion but Muller/Congress can\xe2\x80\x99t find collusion so.... pic.twitter.com/LburxaosVZ'
p745
S'1:16 PM - 25 Jan 2018'
p746
tp747
a(S'And not one has anything to do with Russia collusion.'
p748
S'1:16 PM - 25 Jan 2018'
p749
tp750
a(S'ROFL!!!! Coming from a MSM that has 90+% negative coverage of the president and constantly pushing narratives that have been destroyed repeatedly. Where\xe2\x80\x99s the Russia Collusion? Where\xe2\x80\x99s the crashing stock market? Where are the concentration camps? So pathetic. https://twitter.com/johnjharwood/status/956502452609658880\xc2\xa0\xe2\x80\xa6'
p751
S'1:15 PM - 25 Jan 2018'
p752
tp753
a(S'Sen Warner looks so foolish..Russia Russia Russia, but fails to investigate the real collusion by Hilliary...'
p754
S'1:15 PM - 25 Jan 2018'
p755
tp756
a(S'The NRA fights any gun control, facilitates school shootings, supports bump stocks used for mass murder and oh yes, assisted in the Russia collusion during the 2016 election. So un-American! #resist'
p757
S'1:12 PM - 25 Jan 2018'
p758
tp759
a(S'How @realDonaldTrump\xe2\x80\x99s People Tried to Cover Up Collusion with Russia - Newsweek https://apple.news/A1fF876bBQLGk6wowOluFxQ\xc2\xa0\xe2\x80\xa6'
p760
S'1:11 PM - 25 Jan 2018'
p761
tp762
a(S'Syrian/Russian collusion in violating sanctions #putin #olgino #trolls #fsb #putin #oligarchs #russia #syria #assad #cyberspetsnas #fakenewshttp://ow.ly/zT4530hYCvS\xc2\xa0'
p763
S'1:10 PM - 25 Jan 2018'
p764
tp765
a(S'A joke that caused Americans 7 millions tax dollars and growing! This is what we can call a bad deal! They play with your money then tax you for it again! Democrats started this Russia collusion story and is fair that they pay back the American people the 7 millions dollars! pic.twitter.com/4zrNXM9Bw2'
p766
S'1:08 PM - 25 Jan 2018'
p767
tp768
a(S'It is very hard to believe anyone including the media is still talking about or believing in Trump/Russia collusion. They are desperate.'
p769
S'1:08 PM - 25 Jan 2018'
p770
tp771
a(S'Says the Russia collusion crowd lol'
p772
S'1:08 PM - 25 Jan 2018'
p773
tp774
a(S'It\xe2\x80\x99s so funny how you all keep going back to same Democratic talking points. We are talking Trump/ Russia here.  No evidence of collusion. But there IS evidence FBI wanted to setup Trump and obtained FISA warrant based on false info to overturn presidency.'
p775
S'1:05 PM - 25 Jan 2018'
p776
tp777
a(S'Bulk of Dems (especially youth) are no better than the bulk of Reps in that they are sheep - you throw a name out there, they will vote. Putin for Dem nominee? Suddenly Russia collusion hoax never happened!'
p778
S'1:05 PM - 25 Jan 2018'
p779
tp780
a(S'Because #Trump nor anyone in the Trump campaign notified law enforcement of #Russia #DNC theft & b/c the entire Trump team initially lied about interactions w/ #Russians during the #CyberAttack spell #collusion & #ObstructionOfJustice. #TrumpRussiaCoverup #TrumpRussiaCollusion'
p781
S'1:02 PM - 25 Jan 2018'
p782
tp783
a(S"I guarantee Trump got the trump card ready 2 use he always does especially when he knows he's innocent from any collusion whatsoever with Russia he knows that nothing lying Mueller can do about it  it's way over his pay rate and nothing stronger than being innocent which Trump is"
p784
S'1:02 PM - 25 Jan 2018'
p785
tp786
a(S'This is a joke to see our own FBI make up stories and destroy evidences to make a case about Russia collusion that doesn\xe2\x80\x99t exist! How bad is this going to get with all the evidence all over the place! Government don\xe2\x80\x99t want the people to panic that there is corruption in the FBI! pic.twitter.com/NXokv1Fe2D'
p787
S'1:01 PM - 25 Jan 2018'
p788
tp789
a(S' like Russia Collusion. Why is mainstream downplaying that!!! Because there never was any!!!'
p790
S'1:01 PM - 25 Jan 2018'
p791
tp792
a(S'Explains the Mueller announcement about him questioning Trump.. MSM in full "Russia collusion" mode. Already trying to discredit Nunez and his memo.. Predictable! #RelaseTheMemo'
p793
S'12:59 PM - 25 Jan 2018'
p794
tp795
a(S'Stop talking about the emails . She lost . Who the f**k cares ? And those text messages are old . And isn\xe2\x80\x99t there one that says Trump is not guilty of collusion with Russia..even though this person doesn\xe2\x80\x99t like Trump ? There is no conspiracy . Calm down'
p796
S'12:59 PM - 25 Jan 2018'
p797
tp798
a(S'Russia Russia Russia. Only collusion with Russia was with the DemonRats. Obama sure gave, Putin a lot of flexibility . Should interrogate him on what he meant by that'
p799
S'12:59 PM - 25 Jan 2018'
p800
tp801
a(S'I am sure you are wondering why among many opinions, all of a sudden, the one that seems to count the most is that of a person objecting to the release of the memo. And look, those claiming about pod persons, blots, Russia collusion non-stop, are your friend the Democrats, note!'
p802
S'12:57 PM - 25 Jan 2018'
p803
tp804
a(S'Dude, the TEXT messages, prove there was no Trump Russia collusion, they also prove that the DEMS w/ the DNC colluded to BUY a fake dossier, CREATE a narrative of Trump Russia, and use it to invalidate his presidency-YOU bought a lie, from DEMS who are known liars.'
p805
S'12:56 PM - 25 Jan 2018'
p806
tp807
a(S'everything he has found has been in the media, 3 charges that had nothing to with collusion except with the democrats, FB accepted 100K from Russia for political ads, illegal, fake dossier, Uranium one deal'
p808
S'12:54 PM - 25 Jan 2018'
p809
tp810
a(S'Conspiracy theories don\xe2\x80\x99t have government intell to back them up. Like Russia, ZERO proof of collusion lol. Oh wait! The one trump jr. Meeting right ?!?  get a clue. Intel committed releasing his testimony soon, you\xe2\x80\x99ll see, no \xe2\x80\x9cthere there\xe2\x80\x9d like the russia investigation'
p811
S'12:53 PM - 25 Jan 2018'
p812
tp813
a(S'Sloppy, careless, no grounding in facts sounds like the ridiculous Trump-No Russia Collusion witch hunt. #ReleaseTheMemo #SecretSociety'
p814
S'12:52 PM - 25 Jan 2018'
p815
tp816
a(S"Now that you think of it, it wouldn't be pass her to get the Russians to rig the election to lose to Trump, only to plant evidence and whine about collusion afterwards while simultaneously running an anti-Russia fear campaign.\n\nOh but wait she won the popular vote..."
p817
S'12:50 PM - 25 Jan 2018'
p818
tp819
a(S'if Costa doesn\xe2\x80\x99t win in a landslide Russia will need to be looked at for collusion in this voting as well.'
p820
S'12:49 PM - 25 Jan 2018'
p821
tp822
a(S'Jesus. Did you miss the MULTIPLE times I said trump and his crew are all corrupt AF? I\xe2\x80\x99m sure there\xe2\x80\x99s evidence of all kinds of shit. What there is no evidence for is COLLUSION between trump and Russia. But that doesn\xe2\x80\x99t stop Dems and the media from going full McCarthy, does it?'
p823
S'12:48 PM - 25 Jan 2018'
p824
tp825
a(S'After journalists pushing the collusion/Russia narrative for 18 months it would short out their higher faculties to change course and publish this overwhelming set of facts'
p826
S'12:48 PM - 25 Jan 2018'
p827
tp828
a(S'Trump is Ready to Testify on Charges of Collusion with Russia - http://Novinite.com\xc2\xa0 - Sofia News Agencyhttp://www.novinite.com/view_news.php?id=187363\xc2\xa0\xe2\x80\xa6'
p829
S'12:46 PM - 25 Jan 2018'
p830
tp831
a(S'Why not? They blamed Trump for collusion with Russia based on rumor.'
p832
S'12:46 PM - 25 Jan 2018'
p833
tp834
a(S'The FBI & Democrats in Congress and their fake, made up Russia collusion story against a sitting president, is a bigger threat to our Country than Russia ever was! #ReleaseTheMemohttps://twitter.com/Tejas_Marine/status/956515864815300609\xc2\xa0\xe2\x80\xa6'
p835
S'12:45 PM - 25 Jan 2018'
p836
tp837
a(S'@ShepNewsTeam Hey Shepard. You are such a dem. You coverage@if news is so slanted against Trump. Davos is going in and all you want to talk about is Mueller\xe2\x80\x99s ridiculous Russia collusion investigation.'
p838
S'12:45 PM - 25 Jan 2018'
p839
tp840
a(S'Give it up Mr Comey. You remind me of BAGHDAD BOB continuing the phony Russia Collusion distraction. The SPOTLIGHT is now on you and your cohorts and when the FISA MEMO goes public..... OH LORDY LORDY then all hell breaks loose on the inner cabal illegally spying on americans.'
p841
S'12:45 PM - 25 Jan 2018'
p842
tp843
a(S'How much evidence is there for Russia collusion -- which you are paid to hype every day.'
p844
S'12:44 PM - 25 Jan 2018'
p845
tp846
a(S"I read her to be saying that collusion is a hoax, not that Russia intervened in the election.  (DIsclaimer: she is terrible and lies constantly; I just don't think that in this specific instance she's denying the fact that Russia tried to help Trump.)"
p847
S'12:44 PM - 25 Jan 2018'
p848
tp849
a(S'For more than a year, @foxnews\' & HomoNazism\'s Joe Goebbels, redux, the Big Lyin\' #BrokebackShepard has lied & concocted & has spewed hyperbolic bullshit about an imagined @realDonaldTrump/Russia "collusion." Why, Goodness gracious me! He is dead-set, a weapon of mass distraction'
p850
S'12:43 PM - 25 Jan 2018'
p851
tp852
a(S"'It was in the office of Comey\xe2\x80\x99s deputy, Andrew McCabe, where agents discussed an \xe2\x80\x9cinsurance policy\xe2\x80\x9d in the event that Trump won. Reports indicated that the Russia collusion probe was that insurance policy.\n\nThe text was from Peter Strzok, the top investigator on the Trump case.'"
p853
S'12:43 PM - 25 Jan 2018'
p854
tp855
a(S'Donald Trump\xe2\x80\x99s campaign and transition team were spied on by the Obama Admin because of a totally fake and unproven dossier. \n\nYet they STILL couldn\xe2\x80\x99t find Trump Russia collusion. \n\nIt\xe2\x80\x99s time to #ReleaseTheMemo.'
p856
S'12:43 PM - 25 Jan 2018'
p857
tp858
a(S'And zero evidence of Trump and Russia collusion. This is why most Americans don\xe2\x80\x99t believe mainstream media'
p859
S'12:43 PM - 25 Jan 2018'
p860
tp861
a(S'@POTUS guilty of collusion with Russia? Prove it!'
p862
S'12:42 PM - 25 Jan 2018'
p863
tp864
a(S'With the fizzle of the big old Trump-Russia collusion story, followed by the but-who-cares? pivot to the Comey firing, dems are looking like Slim Pickens wooping it up, waiving their cowboy hats, riding a dud A-Bomb down to oblivion. At least Slim\xe2\x80\x99s bomb went off. Here, no.'
p865
S'12:41 PM - 25 Jan 2018'
p866
tp867
a(S'Makes as much sense as the whole Russia collusion investigation!'
p868
S'12:41 PM - 25 Jan 2018'
p869
tp870
a(S'1) I say NO to an interview with @realDonaldTrump, Mueller has no evidence of Russia collusion, how do I know this? As desperate as the left is for collusion had their been 1 small trace of collusion this investigation would have been over already, that is how desperate they are.'
p871
S'12:39 PM - 25 Jan 2018'
p872
tp873
a(S'It is obama - clinton collusion stupid!!!!\nRussia is just a distraction...side show!!!!'
p874
S'12:38 PM - 25 Jan 2018'
p875
tp876
a(S'Trump has FAILED to "Make America Great Again"!\n\nUnder @realDonaldTrump \'s presidency, Americans DISTRUST our Government because of HIS Collusion with RUSSIA.\n\nTRUMP has filled every Department w/ UNQUALIFIED, INEPT, CROOKED people who are DISMANTLING our Nation!\n.\n#CrookedTrumphttps://twitter.com/axios/status/955401360832425984\xc2\xa0\xe2\x80\xa6'
p877
S'12:38 PM - 25 Jan 2018'
p878
tp879
a(S"If you have proof trump russia collusion you might want to give it to Robert Mueller he's been looking for awhile now ."
p880
S'12:38 PM - 25 Jan 2018'
p881
tp882
a(S'To refresh your memory: \xe2\x80\x9cUm, there is no evidence of collusion with Russia. That\xe2\x80\x99s fact. Not right wing propaganda.\xe2\x80\x9d\n\nSo which is it? A fact or your supposition?'
p883
S'12:36 PM - 25 Jan 2018'
p884
tp885
a(S'Senator Chuck Grassley Readies to Release Transcript Regarding Trump Tower Russia Meeting\nDay by day the #Demonrats lose hope that there was ever any Russian collusion with the Trump administration or campaign http://lsh.re/1MT9S\xc2\xa0'
p886
S'12:36 PM - 25 Jan 2018'
p887
tp888
a(S"And you know why? Because people like you don't learn, or just don't want to realize the truth.  Instead of trying to understand what drives people outside of NY, LA, DC, & SF, you patronize Trump supporters and play your Russia collusion alternate reality game. pic.twitter.com/TMfUTIJr5T"
p889
S'12:36 PM - 25 Jan 2018'
p890
tp891
a(S"can we agree there's also zero available evidence of Trump's collusion with Russia to win the 2016 election?"
p892
S'12:35 PM - 25 Jan 2018'
p893
tp894
a(S'Democrats wake up every morning hoping that some evidence will turn up showing collusion between President Trump and Russia.   And every night they go to bed disappointed that they fell for a hoax.  Now the tables have turned....BUT GOP has evidence....Mountains of it'
p895
S'12:35 PM - 25 Jan 2018'
p896
tp897
a(S'As the cookie crumbles... all the dominos are being set up from Hillary emails, Obama, Uranium 1, FAKE collusion w/ Russia, FBI, DOJ, DHS, FISA, NSA, THE SECRET society, FEMA FRAUD, Hillary Foundation/Haiti millions, and So much more.... http://ussanews.com/News1/2018/01/25/breaking-justice-department-has-located-all-missing-strzok-page-text-message/\xc2\xa0\xe2\x80\xa6'
p898
S'12:34 PM - 25 Jan 2018'
p899
tp900
a(S'Cool. Now show us the concrete, definitive Russia collusion evidence.'
p901
S'12:34 PM - 25 Jan 2018'
p902
tp903
a(S'More empty BullSh\xe2\x80\x99t. Either the FBI & DOJ is good at what they do, they suck at what they do or they are corrupt. This circus has gone on for over a year and still NO EVIDENCE of Trump/Russia collusion. So the FBI & DOJ suck at what they do. They suck so bad that they got caught'
p904
S'12:33 PM - 25 Jan 2018'
p905
tp906
a(S'Rep. Adam Schiff Puts End To Question Of Donald Trump Russia Collusion |... https://youtu.be/BS7qGx7t0x4\xc2\xa0 via @YouTube'
p907
S'12:33 PM - 25 Jan 2018'
p908
tp909
a(S'U r doing \xe2\x80\x9cThe What About\xe2\x80\x9d spin-off. Trying to divert attention. Even if there is a memo u r searching for - does that mean we stop investigating Trump\xe2\x80\x99s collusion with Russia? Apparently Congress can multi task.'
p910
S'12:32 PM - 25 Jan 2018'
p911
tp912
a(S"And this.. Trump called for Russia to hack HRC emails publicly on national television during elections. Collusion. Go ahead and try to deny he did it.. we'll send you the television clip of him doing just that."
p913
S'12:31 PM - 25 Jan 2018'
p914
tp915
a(S'As an ordinary citizen he is forbidden from bargaining on account of the US.  That is what sparked the Russia collusion BS from the start! #ReleaseTheMemo #Lockhimup'
p916
S'12:31 PM - 25 Jan 2018'
p917
tp918
a(S"Too bad you have been uninterested in the truth!  You held hearings into the Trump/Russia collusion and you have presented ZERO evidence of anything.  ACTUALLY more collusion exists between the FBI/DOJ/FusionGPS/Russia.  Don't be surprised by what happens next! #LARP"
p919
S'12:31 PM - 25 Jan 2018'
p920
tp921
a(S"@ShepNewsTeam The idiot on @FOX still talking SERIOUSLY about Russia, collusion, MONEY LAUNDERING... #SHEPARDFAKER Why is he still on FOX? He's so SICKENING, it's painful to watch. He's a proud member of #AmericanPravda #ReleaseTheMemo"
p922
S'12:30 PM - 25 Jan 2018'
p923
tp924
a(S'@ShepNewsTeam FISA Memo. The US  citizens have listened for one year about Russia Collusion, FBI, and Donald Trump. It is time that the public gets a look a what congress believes. What\xe2\x80\x99s the big secret?  A lot of stuff is being leaked out of Muellers, let\xe2\x80\x99s get real reports.'
p925
S'12:30 PM - 25 Jan 2018'
p926
tp927
a(S'@ShepNewsTeam I guess you\xe2\x80\x99ve finally given up on the whole \xe2\x80\x9cRussia Collusion\xe2\x80\x9d nonsense, since you\xe2\x80\x99ve migrated to spending the majority of your time harping on an equally ridiculous \xe2\x80\x9cobstruction of justice\xe2\x80\x9d allegation. Wish I could say I\xe2\x80\x99m surprised. I\xe2\x80\x99m not.'
p928
S'12:29 PM - 25 Jan 2018'
p929
tp930
a(S'\xe2\x80\x9cPresident Trump insists there was no collusion between his campaign and Russia, so why\xc2\xa0the attempts to derail\xc2\xa0the Mueller investigation?\xe2\x80\x9d pic.twitter.com/LmeMcUrF0Q'
p931
S'12:29 PM - 25 Jan 2018'
p932
tp933
a(S'While collusion itself may not be a crime, I just have a two points about this:\n\n1) There was collusion with the Trump campaign and Russia. This is a fact.\n\n2) Many members of the trump campaign have lied about their secret meetings with Russians. Conspiracy is a crime.'
p934
S'12:28 PM - 25 Jan 2018'
p935
tp936
a(S'It is no longer trump/Russia. It is now Horowitz vs. Mueller #Collusion #ReleaseTheMemos'
p937
S'12:27 PM - 25 Jan 2018'
p938
tp939
a(S'yea....@RepPeteKing the fbi injected its self into a political campaign used a fake dossier to spy on an opposition candidate before and after an election. fed the world a fake russia collusion story stemming from said dossier, do you support sending rouge fbi cronies to prison ? https://twitter.com/save__america/status/956374859776495616\xc2\xa0\xe2\x80\xa6'
p940
S'12:27 PM - 25 Jan 2018'
p941
tp942
a(S'Wonder why they stopped pushing the RUSSIA,RUSSIA,RUSSIA narrative and moved to obstruction?  If they could put Trump in jail Russian collusion it would have been leaked 50x already.'
p943
S'12:25 PM - 25 Jan 2018'
p944
tp945
a(S'In light of all that is going on with the FBI I believe that Mueller should recuse himself from the Trump-Russia collusion investigation.'
p946
S'12:23 PM - 25 Jan 2018'
p947
tp948
a(S"Cartoon - MSM Ignores Elephants in the Newsroom - Release the FISA Memo & Trump's economic Boom - so they can provide their preferred topic of Trump - Russia collusion!\nhttps://godfatherpolitics.com/media-ignoring-the-elephants-in-the-newsroom/\xc2\xa0\xe2\x80\xa6 via @ConstitutionNat"
p949
S'12:23 PM - 25 Jan 2018'
p950
tp951
a(S'Logical fallacy. Not affirming that the traitor Obama was born in the USA is not spreading conspiracy theories.\n\nSpreading the fake news about supposed Trump Russia collusion however'
p952
S'12:23 PM - 25 Jan 2018'
p953
tp954
a(S'\xe2\x80\x98He just says it on #TV\xe2\x80\x99: #MSNBC\xe2\x80\x99s #Mika explains how #Trump may have #confessed Russian #collusion to reporters\n#Russia\nhttps://www.rawstory.com/2018/01/just-says-tv-msnbcs-mika-explains-trump-may-confessed-russian-collusion-reporters/\xc2\xa0\xe2\x80\xa6pic.twitter.com/tVgLFjBecd'
p955
S'12:23 PM - 25 Jan 2018'
p956
tp957
a(S"Don't forget somehow motivating the FBI to begin investigating a campaign opponent that she was highly favored to beat, for collusion with Russia, at the same time as motivating other FBI officials to help her get away with a private email server that would eventually hurt her."
p958
S'12:23 PM - 25 Jan 2018'
p959
tp960
a(S"CHECK OUT BACKGROUND IMAGE: \nRUSSIAN ARCHITECTURE W/ US FLAG OVERLAY!\nTRAITOROUS, GLOBALIST #DEEPSTATE #MOCKINGBIRD DECEIVER Shepard Smith @ShepNewsTeam \nHe's a Russia-Collusion-Pushing\nPOS  pic.twitter.com/KssnBlivSL"
p961
S'12:22 PM - 25 Jan 2018'
p962
tp963
a(S"What does @DNC have: Russi, Russia, Russia\n(btw, proven to be a collusion by #ObamaGate minions.)\nWhat does the @GOP have, via @POTUS:\nJobs, Jobs, Jobs\n(btw, stats prove this!)\nI'm going with the positive results @GOP, JOBS, instead of the lying slanders of the @DNC"
p964
S'12:22 PM - 25 Jan 2018'
p965
tp966
a(S'Why isnt he following collusion between democratic party candidates and russia?  That is what he is investigating isnt it?'
p967
S'12:19 PM - 25 Jan 2018'
p968
tp969
a(S"Collusion isn't even a crime. The Trump team connections with Russia are being investigated and have led to 2 Russia related indictments. \nThe evidence of obstruction is in relation to him firing Comey. The matter needs to be fully probed, as it is right now."
p970
S'12:19 PM - 25 Jan 2018'
p971
tp972
a(S'@Comey exonerated @HillaryClinton before the #interview assuming she was in the clear ... now on the other hand @BobSMueller started with a premise @realDonaldTrump #campaign was involved in #Russia #Collusion in #US #Election 2016 heading into the possible interview - @FoxNews'
p973
S'12:19 PM - 25 Jan 2018'
p974
tp975
a(S"To be clear: Collusion is not a legal term and meaningless as such. Trumps advisers likely told him there is no collusion meaning it doesn't mean anything. TREASON however is what is evident, Trump Family, Campaign directly working with Russia to rig the USA Presidential Election pic.twitter.com/O0pd942tFG"
p976
S'12:19 PM - 25 Jan 2018'
p977
tp978
a(S'Is this akin to going from "Russia hacked our election and colluded with Trump" to "No collusion, but Russia hacked our election" to "Russia bought some Facebook ads" to "Okay, no collusion or interference, but there was obstruction"?'
p979
S'12:18 PM - 25 Jan 2018'
p980
tp981
a(S'Citations , or leave Twitter. Your tinfoil maga hat prevents you from,A. Knowing what collusion is. B. That the proof is already there for collusion. He asked Russia for help, they offered help, he accepted their help; in return he has refused to implement the sanctions. https://twitter.com/dbongino/status/956354963118198784\xc2\xa0\xe2\x80\xa6'
p982
S'12:17 PM - 25 Jan 2018'
p983
tp984
a(S"The Mueller investigation was supposed to look into Russia collusion. What happened to that? Now it's obstruction of justice."
p985
S'12:16 PM - 25 Jan 2018'
p986
tp987
a(S"'The memo reportedly addresses an issue that is at least as significant as election meddling by Russia and suspected but unproven Trump-campaign collusion in it, namely: election meddling by the intelligence and law-enforcement arms of govt and Clinton-campaign collusion in it.'"
p988
S'12:16 PM - 25 Jan 2018'
p989
tp990
a(S"@JohnKerry R U fing kidding? Yet Dem's worried abt @realDonaldTrump collusion What is wrong with FBI, DOJ and democrat party's @SenSchumer thinks its bad to speak of a #ReleaseTheMemo This is why he knows the whole lot of you are worse than anything Russia can do #ObamaGate"
p991
S'12:15 PM - 25 Jan 2018'
p992
tp993
a(S"http://townhall.com/tipsheet/KatiePavlich/2018/01/25/not-lost-n2439716\xc2\xa0\xe2\x80\xa6 the real collusion is how our law enforcement agency has lost its credibility with a Russian scandle remember the 60's U.N. threats from Russia we will destroy you from within!!"
p994
S'12:15 PM - 25 Jan 2018'
p995
tp996
a(S"Haha\nDems and media will claim Nunes memo is based on scant details which you can't see and conclusions from people you don't know; but this is the same as Russia collusion which is based on those same things. Ergo accept Russia-Trump accept Nunes; reject Nunes, reject R-T."
p997
S'12:14 PM - 25 Jan 2018'
p998
tp999
a(S"The same guy that talked of an \xe2\x80\x98insurance plan\xe2\x80\x99 to end Trump\xe2\x80\x99s Presidency, and took part in the Mueller/Russia frame job on Trump, knew the collusion charges were BS. \n\nGood to know\n\n\xe2\x80\x9cFBI's Strzok allegedly dismissed Mueller probe: 'no big there there'\xe2\x80\x9d http://fxn.ws/2DzCUNx\xc2\xa0"
p1000
S'12:13 PM - 25 Jan 2018'
p1001
tp1002
a(S'Like the Russia collusion conspiracy theories that are hurting the presidency.'
p1003
S'12:13 PM - 25 Jan 2018'
p1004
tp1005
a(S"You're right about one thing, it's not about party. It's about America. Corruption + the proven collusion w/Russia + Obama admin is hurting every American citizen + has been for years. You're credibility is gone. WE are awake + working to save our country. #ReleaseThe Memo #MAGA"
p1006
S'12:11 PM - 25 Jan 2018'
p1007
tp1008
a(S'Yes, we all know that the entire Russia Collusion Probe was born out of anfake dossier. #ShutDownMuellerNow #ReleaseTheMemo'
p1009
S'12:10 PM - 25 Jan 2018'
p1010
tp1011
a(S'BREAKING: UK SPIES STARTED MUELLER PROBE TO UNDERMINE TRUMP WITHOUT EVIDENCE OF RUSSIA COLLUSION https://youtu.be/kB23fKS6Hi8\xc2\xa0'
p1012
S'12:10 PM - 25 Jan 2018'
p1013
tp1014
a(S'How Trump\xe2\x80\x99s People Tried to Cover Up Collusion with Russia - Newsweek https://apple.news/A1fF876bBQLGk6wowOluFxQ\xc2\xa0\xe2\x80\xa6'
p1015
S'12:10 PM - 25 Jan 2018'
p1016
tp1017
a(S'President Trump pushed-back against the mainstream media\xe2\x80\x99s never-ending Trump-Russia collusion conspiracy theory Wednesd http://ihe.art/hOsSCjd\xc2\xa0'
p1018
S'12:09 PM - 25 Jan 2018'
p1019
tp1020
a(S'Conspiracy theory like collusion with Russia?  You\xe2\x80\x99ve been postulating Russian collusion by Trump for a long time, but suddenly conspiracy theories are damaging to the US.  You have made yourself useless with your dishonesty, conspiracy theories, and distortion.'
p1021
S'12:08 PM - 25 Jan 2018'
p1022
tp1023
a(S'Ordy\'s Handcrafted Talking Stick: "Because generally they\'re PRAVDA west."\n\nDo you have any proof of this? Oh, and speaking of Russia, California and collusion:\n\nhttps://www.nytimes.com/2017/11/21/us/politics/dana-rohrabacher-putin-trump-kremlin-under-fire.html?mtrref=www.google.com&gwh=F646D04522BFC064EB38EA16DD814FB9&gwt=pay\xc2\xa0\xe2\x80\xa6pic.twitter.com/j2gkk32VbZ'
p1024
S'12:07 PM - 25 Jan 2018'
p1025
tp1026
a(S'@FoxNews #Russia - poor Shep  flogs #Russia Collusion endlessly. But going nowhere.'
p1027
S'12:05 PM - 25 Jan 2018'
p1028
tp1029
a(S'@RepPeteKing "From what I have personally seen, heard and observed in the Committee  investigation and read in the media about the Mueller Investigation,  there is thus far no credible evidence of any collusion whatever." -- Rep. Peter King \n\n#Russia #Trump #Collusion pic.twitter.com/3lrJJUacEU'
p1030
S'12:04 PM - 25 Jan 2018'
p1031
tp1032
a(S"It's clear that the Trump-Russia collusion narrative was frantically developed by the 'secret society' as a diversion attempt to hide their criminal plot. Trump unexpectedly won and they freaked out."
p1033
S'12:02 PM - 25 Jan 2018'
p1034
tp1035
a(S'Gen Flynn will be exonerated from this witch hunt when the whole Mueller BS Russia collusion story blows up in Mueller\xe2\x80\x99s face - 99 page FISA denial for two FISA warrants tells the complete story - FISA Judge Contreras\xe2\x80\x99 denial should be made Public!!!!'
p1036
S'12:02 PM - 25 Jan 2018'
p1037
tp1038
a(S'Trump has denied any collusion between his 2016 presidential campaign and Russia, and he told the Times that "even if there was, it\'s not a crime."\nHe will never admit even with his hand stuck in the Cookie jar never he\xe2\x80\x99ll condemn Russia http://hill.cm/NFbOLHA\xc2\xa0?amp=1'
p1039
S'12:02 PM - 25 Jan 2018'
p1040
tp1041
a(S'McCain Revenge Helped Set Up Trump  famous anti-Trump Dossier, lies and all, come into public view? #JohnMcCain played key role outing inflammatory document that created phony Trump-Russia collusion illusion. It could be right out of John le Carr\xc3\xa9\nhttps://www.westernjournal.com/dick-morris-mccains-revenge-how-he-helped-set-up-trump/?utm_source=Twitter&utm_medium=PostTopSharingButtons&utm_content=2018-01-25&utm_campaign=websitesharingbuttons\xc2\xa0\xe2\x80\xa6'
p1042
S'12:02 PM - 25 Jan 2018'
p1043
tp1044
a(S'DemocRats are losing their minds and it\xe2\x80\x99s hilariously divine! They have thrown everything they got, true or mostly made up, at POTUS45 and like a boomerang it comes back to hit them. Russia? FBI collusion w/Hillary, Uranium One, FusionGPS and more. '
p1045
S'12:01 PM - 25 Jan 2018'
p1046
tp1047
a(S'TP MSM STOOGES LIE! The Deep State conspiracy has NOT been "debunked"! The Strzok obstruction theory does NOT hinge on this statement!Theres MORE evidence than of Clinton/Obama obSTRZOCKtion than Trump-Russia collusion. https://thinkprogress.org/ron-johnson-secret-society-conspiracy-theory-based-on-a-joke-68af94ce8030/\xc2\xa0\xe2\x80\xa6 via @thinkprogress'
p1048
S'11:59 AM - 25 Jan 2018'
p1049
tp1050
a(S"FACTS trump opinion!  There's NO evidence of Trump collusion with Russia, zero. On the other hand OIG investigation uncovered FBI collusion, illegal FISA spying on a Candidate, President Elect, & sitting President, apparently those missing texts will be key testimony. Facts=truth"
p1051
S'11:56 AM - 25 Jan 2018'
p1052
tp1053
a(S'"Trump/Russia collusion" and the Mueller probe is a fraud and hoax sold to the American people. A bold faced lie built on a foundation of corruption coming straight out from the bowels of the Obama administration. Aided, abetted, and perpetuated by a corrupt and compliant media.'
p1054
S'11:53 AM - 25 Jan 2018'
p1055
tp1056
a(S"But I thought investigations took time? Ha, I digress...I'm willing to concede Russia 'may' have stolen the emails. But the collusion story is 100% fiction"
p1057
S'11:52 AM - 25 Jan 2018'
p1058
tp1059
a(S'If there is no collusion with Russia can there be obstruction of justice ?'
p1060
S'11:52 AM - 25 Jan 2018'
p1061
tp1062
a(S'Case for obstruction is dead, collusion is dead\nRussia bubble bursting\nAnd media will simply try to ignore how rouge gov agents abused spy authority in first place.'
p1063
S'11:52 AM - 25 Jan 2018'
p1064
tp1065
a(S'I rather doubt the "Russia collusion" / Mueller gig is the only thing DOJ does.  Probably a very small %.  It just gets the most media  (including social) attention.'
p1066
S'11:51 AM - 25 Jan 2018'
p1067
tp1068
a(S'Just like the Russia collusion hunt.'
p1069
S'11:51 AM - 25 Jan 2018'
p1070
tp1071
a(S"Things America cares about according to @realDonaldTrump \n1. Trump Income Taxes\n2. Trump still running his Businesses\n3. Ivanka and Jared in the WH \n4. Trump affair with #PornStar\n5. Trump golfing\n6. Trump's collusion with Russia"
p1072
S'11:50 AM - 25 Jan 2018'
p1073
tp1074
a(S"Because there was no Russia collusion except at CNN! THAT'S WHY!"
p1075
S'11:49 AM - 25 Jan 2018'
p1076
tp1077
a(S'No questions on Russia ...just his friend Comey.....sorry James getting fired is not crime....especially when U hid from country no collusion....'
p1078
S'11:47 AM - 25 Jan 2018'
p1079
tp1080
a(S'-at least on one part of "Russia-trump" @TomSteyer . There are about three: Intimidation of law enforcement (like firing Comey), collusion with Russia to win the presidency and money laundering, Russian money in trump\'s real-estate empire. We\'ve never experienced such treachery https://twitter.com/TomSteyer/status/956212969741914112\xc2\xa0\xe2\x80\xa6'
p1081
S'11:46 AM - 25 Jan 2018'
p1082
tp1083
a(S'How Trump\xe2\x80\x99s People Tried to Cover Up Collusion with Russia - Newsweek https://apple.news/A1fF876bBQLGk6wowOluFxQ\xc2\xa0\xe2\x80\xa6'
p1084
S'11:46 AM - 25 Jan 2018'
p1085
tp1086
a(S'This idiot is supposedly doing work for the American people and they refuse to share with us His Budget?  Time to let him go. and stop this BS  #wethepeople know the truth. there was no @realDonaldTrump /Russia collusion https://twitter.com/JudicialWatch/status/956528836459589632\xc2\xa0\xe2\x80\xa6'
p1087
S'11:45 AM - 25 Jan 2018'
p1088
tp1089
a(S'Aww, child. The "secrete society" was already debunked. That isn\'t collusion with Russia.'
p1090
S'11:43 AM - 25 Jan 2018'
p1091
tp1092
a(S"The awkward question for Team Trump: 'How do you define collusion?' https://www.yahoo.com/news/m/dfaee16d-9d23-331b-9e1d-73546e6d0268/the-awkward-question-for-team.html?.tsrc=fauxdal\xc2\xa0\xe2\x80\xa6\n\nSo how many people had how many meeting with the Russians during the campaign?? How does an American business man take Ms Universe to Russia??"
p1093
S'11:43 AM - 25 Jan 2018'
p1094
tp1095
a(S'We shall see. Strzok & Page also talked about "insurance" in the event Trump was elected. Life insurance? Car insurance? Can\'t believe criticism is coming from a man who salivated for @ 2 yrs over fake Russia Collusion. Dismissed! http://www.businessinsider.com/peter-strzok-lisa-page-text-srelease-doj-lingering-question-2017-12\xc2\xa0\xe2\x80\xa6'
p1096
S'11:43 AM - 25 Jan 2018'
p1097
tp1098
a(S"The Detroit Cast discusses:\xc2\xa0 more details of Robert Mueller's investigation into the Russia-collusion issue and President Trump stating that he's looking forward to testifying under oath; FBI agent Peter Strzok and lawyer Lisa Page\xe2\x80\xa6 http://detroitcast.com/archive/detroit-cast-986/\xc2\xa0\xe2\x80\xa6pic.twitter.com/Z3lwlp02vh"
p1099
S'11:42 AM - 25 Jan 2018'
p1100
tp1101
a(S'@lajacks13 another example of wrong commentary. DJT is the only one pushing the collusion theory. Russia interference and Trump campaign cooperation is the issue that started all this with #liestold'
p1102
S'11:42 AM - 25 Jan 2018'
p1103
tp1104
a(S'How Trump\xe2\x80\x99s People Tried to Cover Up Collusion with Russia - Newsweek https://apple.news/A1fF876bBQLGk6wowOluFxQ\xc2\xa0\xe2\x80\xa6'
p1105
S'11:42 AM - 25 Jan 2018'
p1106
tp1107
a(S"never a glitch, just lies from the Trump's Propaganda machine, Hannity, Fox, Congressmen, & Senators  that should be investigated by the FBI \n(our Guardian angles) for Putin/Russia collusion https://twitter.com/StephenMilIer/status/956589734230478848\xc2\xa0\xe2\x80\xa6"
p1108
S'11:41 AM - 25 Jan 2018'
p1109
tp1110
a(S'Russia collusion debunked.  Obstruction failed. Racist charge bombed.  Sex allegations fizzled. Okay, what can we try next?  Emoluments!  #Yawn.'
p1111
S'11:41 AM - 25 Jan 2018'
p1112
tp1113
a(S"Apples & oranges. Do you know there's a diff in Russian compromising machines & Trump-Russia collusion? Big difference! Collusion has been proven false & contrived by Obama-Clinton cabal. Obama was in charge of Russia tampering."
p1114
S'11:41 AM - 25 Jan 2018'
p1115
tp1116
a(S"President Tramp is not gonna talk to Mueller regarding Russia collusion. He's lying, he ain't that damn stupid.. If he is that stupid, his lawyers won't let him"
p1117
S'11:40 AM - 25 Jan 2018'
p1118
tp1119
a(S'yup I dont even know why they use collusion, collusion plus Russia against the election equals a conspiracy already'
p1120
S'11:36 AM - 25 Jan 2018'
p1121
tp1122
a(S'Holy SHIT I just found out that the classic Shaggy song "It Wasn\'t Me" was written about Trump\'s collusion with Russia!!!'
p1123
S'11:36 AM - 25 Jan 2018'
p1124
tp1125
a(S'I\xe2\x80\x99m so sick of the Trump Russia collusion bullshit.\nAnd I think most Americans are, also.  Focus on the REAL corruption..........#ReleaseTheMemos '
p1126
S'11:35 AM - 25 Jan 2018'
p1127
tp1128
a(S'I watched it live. Tremendous praise from European economic leaders. Meanwhile back in the USA, out of curiosity, I flipped to CNN who was running commercials and MSNBC was talking over the Davos video about Russia collusion. LOL'
p1129
S'11:35 AM - 25 Jan 2018'
p1130
tp1131
a(S'This man is no slouch! He will find out if there is collusion with Russia in the Trump administration and his campaign! He has honour and integrity, there will not be any duplicity or alternative facts here! https://twitter.com/JimHWhitelaw/status/943897935762329600\xc2\xa0\xe2\x80\xa6'
p1132
S'11:33 AM - 25 Jan 2018'
p1133
tp1134
a(S'#RT Louise Mensch\xe2\x80\x99s new conspiracy theory: Kremlin used gay \xe2\x80\x98kompromat\xe2\x80\x99 against US conservative pundit: These days, when America\xe2\x80\x99s political extremes clash online the results can often be unedifying. And Trump-Russia collusion conspiracy\xe2\x80\xa6 http://dlvr.it/QCm1Yq\xc2\xa0 #SVNmagazinepic.twitter.com/QQTDlFTWIQ'
p1135
S'11:33 AM - 25 Jan 2018'
p1136
tp1137
a(S'Funny how liberals say there\xe2\x80\x99s "no evidence" related to the FISA memo are the same ones that keep pushing the Russia collusion narrative WITH NO EVIDENCE!'
p1138
S'11:32 AM - 25 Jan 2018'
p1139
tp1140
a.