(lp0
(S"via @npr: Journalist Investigating Trump And Russia Says 'Full Picture Is One Of Collusion' http://n.pr/2zUlqIL\xc2\xa0"
p1
S'3:59 PM - 21 Nov 2017'
p2
tp3
a(S'Liberal Logic Always Accuse the other party of whatever you are guilty of, ie HRC Russia collusion https://twitter.com/SteveBannen/status/933039383212589057\xc2\xa0\xe2\x80\xa6'
p4
S'3:58 PM - 21 Nov 2017'
p5
tp6
a(S"https://www.washingtontimes.com/news/2016/jul/17/benghazi-us-military-unprepared-to-aid-americans-d/\xc2\xa0\xe2\x80\xa6\n\nWell now finally the truth comes out in 2016, but I blame Romney for not hammering Obama on this and Obama's russia collusion caught on tape, weak Republicans allowed Obama's second term, but we have Trump & he don't take no crap."
p7
S'3:57 PM - 21 Nov 2017'
p8
tp9
a(S"Do you ppl even read what you're writing anymore? Do see even see how ridiculous it sounds? You libs have 0 proof of any POTUS/RUSSIA collusion. @seanhannity just devoured @donnabrazile she couldn't do anything but lib talking points. While Sean had proof. LOL"
p10
S'3:55 PM - 21 Nov 2017'
p11
tp12
a(S'WTH? They say there was no collusion. Why was there so much communication with our sworn enemy, Russia. This is all Trump\xe2\x80\x99s fault. https://twitter.com/marshall_cohen/status/933105412978511874\xc2\xa0\xe2\x80\xa6'
p13
S'3:52 PM - 21 Nov 2017'
p14
tp15
a(S"There is no evidence of collusion with Russia, and I'm still waiting to hear all these lies that he has said"
p16
S'3:52 PM - 21 Nov 2017'
p17
tp18
a(S'Where are the Republicans calling for ethics investigations for their reps who engaged in collusion with Russia & coverup of the White House collusion? // Pelosi calls for ethics investigation into alleged Conyers sexual harassment - The Washington Post https://apple.news/AReOpSOWSTHClARuqC-in5Q\xc2\xa0\xe2\x80\xa6'
p19
S'3:51 PM - 21 Nov 2017'
p20
tp21
a(S".@POTUS \nCOMPROMISED.\nListen to the interview or read it here.\n\nJournalist Investigating Trump And Russia Says 'Full Picture Is One Of Collusion' https://n.pr/2zU3ePN\xc2\xa0"
p22
S'3:49 PM - 21 Nov 2017'
p23
tp24
a(S'Would someone please explain to me how this relates to an investigation of Trump/Russia campaign collusion? I\xe2\x80\x99m baffled... https://twitter.com/wsj/status/933115010016038913\xc2\xa0\xe2\x80\xa6'
p25
S'3:47 PM - 21 Nov 2017'
p26
tp27
a(S'Obvious by now: Russia collusion involved Obama, Hillary, Comey, Mueller, Rosenstein & McCabe -- Puppet Masters -- http://Sott.net\xc2\xa0https://www.sott.net/article/368294-Obvious-by-now-Russia-collusion-involved-Obama-Hillary-Comey-Mueller-Rosenstein-McCabe\xc2\xa0\xe2\x80\xa6'
p28
S'3:46 PM - 21 Nov 2017'
p29
tp30
a(S'Investigation into trump-Russia collusion begins to probe role of Kushner https://www.wsj.com/articles/special-counsel-mueller-probes-jared-kushners-contact-with-foreign-leaders-1511306515\xc2\xa0\xe2\x80\xa6'
p31
S'3:45 PM - 21 Nov 2017'
p32
tp33
a(S'THIS is the story: RUSSIA! We cannot let Trump distract us. Mueller is NEVER distracted, but WE THE PEOPLE need to be laser focused on acts of treason, collusion & obstruction of justice. The rule of law must prevail over these undermining of our political system. Stay FOCUSED. pic.twitter.com/dNArcfSjLx'
p34
S'3:41 PM - 21 Nov 2017'
p35
tp36
a(S'Well, GOP, you are officially fully the party of Donald Trump. Morally bereft, and by association condoning financial scams, Russia collusion, child molestation, sexual harassment, violent racism,  possible animal torture, and other heinous deeds to numerous to count. Congrats!'
p37
S'3:39 PM - 21 Nov 2017'
p38
tp39
a(S'What will the committee do for her? These committees are partisan, the investigation will drag on for a long time and nothing will come out of it. It will be another circus just like this Russia "collusion" investigation that couple of committees are investigating.'
p40
S'3:38 PM - 21 Nov 2017'
p41
tp42
a(S'A special counsel just for this, sounds appropiate.  This is not related to Collusion with Russia so Mueler can handle this.'
p43
S'3:37 PM - 21 Nov 2017'
p44
tp45
a(S'Be sure to check out Russia on Trial: Debating Evidence on Collusion. @TheBeatWithAri @AriMelber will air on Friday at 6pm est 5pm cst! #TheBeat #arimelberfans #beatniks'
p46
S'3:34 PM - 21 Nov 2017'
p47
tp48
a(S'Did I miss something today?? Was evidence produced showing Trump/Russia collusion??? https://twitter.com/reallyamerican1/status/933107589784788998\xc2\xa0\xe2\x80\xa6'
p49
S'3:34 PM - 21 Nov 2017'
p50
tp51
a(S"Lol\nMueller's team apparently probing whether Kushner & Team Trump's actions during transition violated  Logan Act \n\n| Russia collusion?\nWSJ\nhttps://www.wsj.com/articles/special-counsel-mueller-probes-jared-kushners-contact-with-foreign-leaders-1511306515\xc2\xa0\xe2\x80\xa6"
p52
S'3:30 PM - 21 Nov 2017'
p53
tp54
a(S'Evidence of Trump-Russia collusion already exists, Watergate prosecutors say http://www.newsweek.com/trump-russia-collusion-watergate-jared-kushner-emails-data-cambridge-analytica-710084\xc2\xa0\xe2\x80\xa6'
p55
S'3:28 PM - 21 Nov 2017'
p56
tp57
a(S'What more evidence of Trump-Russia collusion do you need? http://www.chicagotribune.com/news/opinion/commentary/ct-trump-russia-collusion-wikileaks-20171114-story.html\xc2\xa0\xe2\x80\xa6'
p58
S'3:27 PM - 21 Nov 2017'
p59
tp60
a(S"Journalist Investigating Trump And Russia Says 'Full Picture Is One Of Collusion' https://n.pr/2zU3ePN\xc2\xa0"
p61
S'3:39 PM - 21 Nov 2017'
p62
tp63
a(S'You and @AlanDersh want people to think that since the special counsel has not yet said that they have found evidence of collusion btw Russia ans Trump, then they never will say it. That strategy can only work for so long...'
p64
S'3:27 PM - 21 Nov 2017'
p65
tp66
a(S'You and Trump Are useless and guilty of collusion with Russia. Enjoy prison!!!! pic.twitter.com/m581ZbLKEv'
p67
S'3:26 PM - 21 Nov 2017'
p68
tp69
a(S'Has Mueller Abandoned The Trump/Russia Collusion Investigation? https://www.investors.com/politics/editorials/trump-russia-dossier-robert-mueller-investigation/\xc2\xa0\xe2\x80\xa6 via @IBDeditorials'
p70
S'3:26 PM - 21 Nov 2017'
p71
tp72
a(S'Please talk sense into POTUS? What is this bowing down to Russia about? No wonder people believe the Collusion story? Still no sanctions?'
p73
S'3:24 PM - 21 Nov 2017'
p74
tp75
a(S'Proof? Huh any proof of collusion with russia? NONE get over it you LOST thank God for true Americans!!!'
p76
S'3:22 PM - 21 Nov 2017'
p77
tp78
a(S'Soon you will discover that the Russia collusion happened with the Clintons and previous administration. When that happens learn from it ok?'
p79
S'3:22 PM - 21 Nov 2017'
p80
tp81
a(S"Apply that same question to the bullshit Russia collusion investigation, why don't ya? Gee, hypocrite much? https://twitter.com/Caprica1026/status/932391712923836417\xc2\xa0\xe2\x80\xa6"
p82
S'3:20 PM - 21 Nov 2017'
p83
tp84
a(S"#TheResistance\nGee, this is startling!\n\nA southern #fundamentalist #evangelical says he would not believe #JesusChrist on #Trump #Russia #Collusion\n\nSomehow that hurts my head!\n\nA self-proclaimed #Christian trusts #Trump over #Jesus\n\nWhat's wrong with this picture?"
p85
S'3:16 PM - 21 Nov 2017'
p86
tp87
a(S"So you supported racism,bigotry and hate. Not to mention his administration's collusion with Russia. Good job."
p88
S'3:15 PM - 21 Nov 2017'
p89
tp90
a(S'I have plenty of dirty ties between Rohrabacher and Russia connections. Including his attempt to get Julian Assange a pardon by Trump. And covering up the Trump-Russia by his own collusion! https://twitter.com/NatashaBertrand/status/933110433476759552\xc2\xa0\xe2\x80\xa6'
p91
S'3:14 PM - 21 Nov 2017'
p92
tp93
a(S"You have now pardoned three turkeys, and you will need to pardon at least two more, when Mueller gets to the bottom of your collusion with Russia and all of your family's associated criminal activity."
p94
S'3:12 PM - 21 Nov 2017'
p95
tp96
a(S'They should investigate as hard as they are investigating trump for his collusion with Russia.'
p97
S'3:11 PM - 21 Nov 2017'
p98
tp99
a(S"Yeah but how's that Russia collusion thing going? pic.twitter.com/MExptK1pgP"
p100
S'3:10 PM - 21 Nov 2017'
p101
tp102
a(S'What treason?  Firing Comey was totally within his right.  No evidence so far of criminal collusion with Russia'
p103
S'3:07 PM - 21 Nov 2017'
p104
tp105
a(S'No, most people do buy it because you literally have to be blind to not see collusion with Russia.'
p106
S'3:06 PM - 21 Nov 2017'
p107
tp108
a(S"Yeah but how's that Russia collusion thing going? pic.twitter.com/2DLFtc5ZLj"
p109
S'3:06 PM - 21 Nov 2017'
p110
tp111
a(S'-\nThis information stemmed from a dossier that was leaked to the public. The \n#Democrats are still using this Trump-Russia dossier to prove their point of \n#collusion, even though the dossier has been proven to be all but unverified \n#rumors and #inaccuracies..'
p112
S'3:01 PM - 21 Nov 2017'
p113
tp114
a(S'Again, have u seen any Russia collusion with Trump... No. Doesn\xe2\x80\x99t exist, can\xe2\x80\x99t obstruct a fake story.'
p115
S'3:01 PM - 21 Nov 2017'
p116
tp117
a(S"#Futures #ES_F #daytrading How We Can Be Certain That Mueller Won't Prove Trump-Russia Collusion? http://www.zerohedge.com/news/2017-11-15/how-we-can-be-certain-mueller-wont-prove-trump-russia-collusion\xc2\xa0\xe2\x80\xa6 @RamosTrader Follow Us"
p118
S'3:00 PM - 21 Nov 2017'
p119
tp120
a(S'Mueller can\xe2\x80\x99t impeach only present, and without actual Russia Collusion (collusion not crime BTW) no impeachment.'
p121
S'2:59 PM - 21 Nov 2017'
p122
tp123
a(S"Journalist Investigating Trump and Russia Says 'Full Picture Is One of Collusion' - Fresh Air \xe2\x80\xa2 #ANTITRUMPMVMThttps://www.npr.org/2017/11/21/565654507/journalist-investigating-trump-and-russia-says-full-picture-is-one-of-collusion\xc2\xa0\xe2\x80\xa6"
p124
S'2:59 PM - 21 Nov 2017'
p125
tp126
a(S"It maybe true that if it weren't for Russia, that @HillaryClinton would be president.\n\nHowever, if Hillary's campaign hadn't bought the primary through collusion with the DNC, then @SenSanders would be president, in spite of Russia!"
p127
S'2:57 PM - 21 Nov 2017'
p128
tp129
a(S'And which, when you consider the event, is such a weird fucking thing to say. \n\nTrump at WH Egg Roll: "And you know what the Easter Bunny cannot do - he cannot prove collusion with Russia, period."'
p130
S'2:57 PM - 21 Nov 2017'
p131
tp132
a(S'Ninguem ja presta real atencao ao que o Loser Trump diz Nem vale a pena sequer saber, nao significam nada... Nem os seus subordinados lhe prestam grande atencao... Irrelevante , em vesperas de impeachment e com possivel indictment por collusion com a Russia'
p133
S'2:52 PM - 21 Nov 2017'
p134
tp135
a(S'He is talking about the hyper-partisan FBI. And Bob Mueller, the old crook that pretends to be an upright guy with ethics, who is an attack dog against OUR president. You know, THEIR Special Counsel who is (ahem)"investigating" OUR president for the Russia collusion that HRC did.'
p136
S'2:52 PM - 21 Nov 2017'
p137
tp138
a(S'.\n@POTUS will ignore any & all transgressions if it means that he may get his so-called #TaxCutsBill through\n.\n#Unfit #Incompetent #Unqualified #Bankrupt #Russia #Corrupt #Collusion https://twitter.com/genebsperling/status/933087788894896128\xc2\xa0\xe2\x80\xa6'
p139
S'2:52 PM - 21 Nov 2017'
p140
tp141
a(S'I would like to report treasonous activity by POTUS @realDonaldTrump! Collusion with an evil former KGB spy & dictator of Russia! Just doing my duty as a patriot! '
p142
S'2:50 PM - 21 Nov 2017'
p143
tp144
a(S"Ze willen graag NYT'tje spelen en dromen over sappige Russia-collusion, die er niet is. Sneu."
p145
S'2:50 PM - 21 Nov 2017'
p146
tp147
a(S"Russia doesn't want the whole Putin/trump money laundering,collusion&Russia corruption!Make sure Manafort&? Don't stow away on Russia boat! https://twitter.com/ProudResister/status/933021206105677824\xc2\xa0\xe2\x80\xa6"
p148
S'2:50 PM - 21 Nov 2017'
p149
tp150
a(S"@jaketapper Now the president's Russia collusion strategy, and all the Russia meeting denials, have been made clear: If you deny it, it didn't happen."
p151
S'2:47 PM - 21 Nov 2017'
p152
tp153
a(S'lol you are a funny one. and trump is still your president. and the only proven collusion with russia is between clinton and russia with the sale of 20% of our uranium.'
p154
S'2:43 PM - 21 Nov 2017'
p155
tp156
a(S"People still seek information from this discredited and ridiculous source?  Wow.  How's your Russia Collusion Conspiracy Theory working?  \n\nSad how little respect you have for your audience."
p157
S'2:42 PM - 21 Nov 2017'
p158
tp159
a(S'Yeah well Muller is dropping his investigation because there is no collusion between Trump and Russia!'
p160
S'2:41 PM - 21 Nov 2017'
p161
tp162
a(S"Journalist Investigating Trump And Russia Says 'Full Picture Is One Of Collusion' http://one.npr.org/i/565654507:565741035\xc2\xa0\xe2\x80\xa6"
p163
S'2:40 PM - 21 Nov 2017'
p164
tp165
a(S'Even though everyone has debunked Russia collusion via President Trump, Adam Sciff said this: pic.twitter.com/rN3zSux5s3'
p166
S'2:33 PM - 21 Nov 2017'
p167
tp168
a(S"I'm sure the bogus #RobertMueller probe is already looking into these pardons, and will manage to link them to Trump-Russia collusion. #turkeypardonpic.twitter.com/HyPhvo9MtW"
p169
S'2:29 PM - 21 Nov 2017'
p170
tp171
a(S'Terry Gross interviews British journalist and Guardian reporter Luke Harding about the collusion between Russia and Trump. Listen to the parts about Putin. He played Trump like a maestro plays a violin. https://www.npr.org/2017/11/21/565654507/journalist-investigating-trump-and-russia-says-full-picture-is-one-of-collusion\xc2\xa0\xe2\x80\xa6'
p172
S'2:29 PM - 21 Nov 2017'
p173
tp174
a(S'Evidence of Trump-Russia collusion already exists, Watergate prosecutors say http://fb.me/6GTKLJ6JF\xc2\xa0'
p175
S'2:26 PM - 21 Nov 2017'
p176
tp177
a(S'First and very probably his last. @GOP @WhiteHouse #Russia #SexualPredatorTrump #Collusion'
p178
S'2:25 PM - 21 Nov 2017'
p179
tp180
a(S'DNC party of Corruption Greed Degenerates pedophiles KKK hypocrites RUSSIA collusion ISIS  just saying'
p181
S'2:23 PM - 21 Nov 2017'
p182
tp183
a(S"Only moral,legal& ethical clouds: Obama presidency #UraniumOne, Clinton emails, illegal wiretaps/unmasking...Russia collusion seems to be only by Clinton via #FakeDossier No cloud over POTUS who won presidency fair n sq. #ElectorialLandslide It's all good. Suck it up."
p184
S'2:23 PM - 21 Nov 2017'
p185
tp186
a(S'Hillary denies collusion with Russia, deleting confidential emails, and selling uranium illegally....you agree with her b/c she denies....correct?'
p187
S'2:21 PM - 21 Nov 2017'
p188
tp189
a(S"Skin no she just got the money from it after she decided it was okay to give some to Russia there's your Russian collusion"
p190
S'2:20 PM - 21 Nov 2017'
p191
tp192
a(S"Wow! And just wow again! White male privilege is something! These dudes were likely in collusion with Russia. I mean that's TREASON! But they get #Thanksgivinghttps://twitter.com/cnnpolitics/status/933092724449755137\xc2\xa0\xe2\x80\xa6"
p193
S'2:18 PM - 21 Nov 2017'
p194
tp195
a(S'Same as Russia Collusion effect'
p196
S'2:18 PM - 21 Nov 2017'
p197
tp198
a(S"Why are you covering LEOs here when you hate them? Someone needs to be fired for this. Get back to Russia Collusion, Trump being mentally insane, calling ALL Conservatives NAZIS. Get back to your routine. You're slipping here."
p199
S'2:18 PM - 21 Nov 2017'
p200
tp201
a(S'What? No Collusion with Russia? Shocking.'
p202
S'2:12 PM - 21 Nov 2017'
p203
tp204
a(S'Collusion between Trump and Russia not found - US Government Committee    -- http://www.fort-russ.com/2017/11/collusion-between-trump-and-russia-not.html\xc2\xa0\xe2\x80\xa6'
p205
S'2:10 PM - 21 Nov 2017'
p206
tp207
a(S'#10: Collusion: Secret Meetings, Dirty Money, and How Russia Helped Donald Trump Win http://xcalifor.com/\xc2\xa0 #ebook #freeebooks'
p208
S'2:09 PM - 21 Nov 2017'
p209
tp210
a(S'\xe2\x80\x9cIn the Trump-Russia collusion story, you don\xe2\x80\x99t find any Russians.  Where you find the Russians is with the Clintons.  Where you find the Russians is with the Democrats.\xe2\x80\x9d - Rush Limbaugh'
p211
S'2:09 PM - 21 Nov 2017'
p212
tp213
a(S"#OrangeImpostor should have been investigated before his election.\nWhile we are it I'd like to see his tax returns and I'd like to see the investigation into his collusion with Russia sped up. #OrangeImpostor is tearing our country further apart everyday he remains in office."
p214
S'2:09 PM - 21 Nov 2017'
p215
tp216
a(S'"planted by Russia"  yeah "Russia" also colluded with MSM to elevate PiedPiper -- in addition to the DNC/HRC collusion with MSM we read about in their own emails #PutinTrutherNutjob'
p217
S'2:08 PM - 21 Nov 2017'
p218
tp219
a(S'Trump-hating media ignore what really stinks in Russia collusion http://ift.tt/2AlK31W\xc2\xa0'
p220
S'2:06 PM - 21 Nov 2017'
p221
tp222
a(S'I keep saying that the Russia collusion story is a scam. Somebody needs to connect the dots back to the Sea Island meeting March 2016. NeverTrump strategy changes. Immediately following foreign policy changes. Manafort popadop page hired. Media start yapping.'
p223
S'2:04 PM - 21 Nov 2017'
p224
tp225
a(S"Thing cont trending up.  Hysteria bbl will deflate as voters become inured to Trump riffing on Tweeter.  GOP gain seats in senate w/ 23 Dems, 2 indy Dem caucusers & only 8 GOP running.  No Russia collusion. House doesn't change hands in good economy."
p226
S'2:04 PM - 21 Nov 2017'
p227
tp228
a(S'That should tell you something...there is no Russia collusion with Pres Trump. https://twitter.com/AnnaApp91838450/status/932948097629638656\xc2\xa0\xe2\x80\xa6'
p229
S'2:04 PM - 21 Nov 2017'
p230
tp231
a(S"First you don't use God's name in vain. \nPresident Trump is not going anywhere for 7 years. \nMueller is on the side of truth. Focusing now on Hillary. \nThere NEVER was any Trump/Russia collusion."
p232
S'2:00 PM - 21 Nov 2017'
p233
tp234
a(S"Many Republicans are hoping that if they keep calling the Russia collusion 'fake news' that Trump won't be charged by Mueller who is a Republican. Sounds like a plan."
p235
S'1:58 PM - 21 Nov 2017'
p236
tp237
a(S'Nothing is off limits to Mueller in the Russia collusion investigation, not even a pardoned turkey! pic.twitter.com/0tvibXTMQs'
p238
S'1:58 PM - 21 Nov 2017'
p239
tp240
a(S'@seanhannity Donna Brazil give\xe2\x80\x99s Trump credit for cracking the blue wall in the same breath says Hillary lost because of Russia collusion? She is a hack'
p241
S'1:56 PM - 21 Nov 2017'
p242
tp243
a(S'Collusion: Secret Meetings, Dirty Money, and How Russia Helped Donald Trump Win http://fb.me/2n1uERYdJ\xc2\xa0'
p244
S'1:55 PM - 21 Nov 2017'
p245
tp246
a(S"Journalist Investigating Trump And Russia Says 'Full Picture Is One Of Collusion' https://www.npr.org/2017/11/21/565654507/journalist-investigating-trump-and-russia-says-full-picture-is-one-of-collusion\xc2\xa0\xe2\x80\xa6"
p247
S'1:54 PM - 21 Nov 2017'
p248
tp249
a(S"I'm so tiered of the hypocrisy from the left and spineless Republicans allowing it to happen. Hillary was paid millions by Russia to sell our Uranium. However; Mueller thought that was just fine. Mueller wants collusion? THATS real collusion! #LockHerUp"
p250
S'1:54 PM - 21 Nov 2017'
p251
tp252
a(S'@SebGorka @FiveRights For one year we have been hearing about "Trump Russia Collusion" only to find out Steele sold the Dem\'s a 99c candy wrapped in a large empty reb bow tied box....'
p253
S'1:52 PM - 21 Nov 2017'
p254
tp255
a(S"@19kfish You poor thing. You can't seem to shake that Trump/Russia collusion myth off your mind."
p256
S'1:51 PM - 21 Nov 2017'
p257
tp258
a(S'"Hillary Clinton is the crook" Lewandowski drops HAMMER on CNN Chris Cuomo over Russia collusion - YouTube https://www.youtube.com/watch?v=CalyaKtIkHE&feature=em-uploademail\xc2\xa0\xe2\x80\xa6'
p259
S'1:50 PM - 21 Nov 2017'
p260
tp261
a(S'Btw, per the Constitution, Trump is in violation of emoluments clause and collusion with Russia is also unConstitutional. And we won\xe2\x80\x99t even talk about his obstruction of justice. He makes Nixon look squeaky clean. BTW, read it and sweep, Trump played you.  https://www.google.com/amp/thehill.com/blogs/pundits-blog/the-military/338172-yes-trump-is-privatizing-the-va%3famp\xc2\xa0\xe2\x80\xa6'
p262
S'1:47 PM - 21 Nov 2017'
p263
tp264
a(S"Journalist Investigating Trump And Russia \n \nSays:    'Full Picture Is One Of Collusion'\n\nHis  BOOK:\n \nCollusion: Secret Meetings, Dirty Money, \n \nand How Russia Helped Donald Trump\n\n#HighCrimesMisdemeanors\n.@cspanwj .@TeenVogue\n.@PoliticusSarah #p2"
p265
S'1:44 PM - 21 Nov 2017'
p266
tp267
a(S'Agree about not wanting a Lib, but allegations need investigated ... sort of like that false Russia collusion bullshit...'
p268
S'1:44 PM - 21 Nov 2017'
p269
tp270
a(S"a good listen! #TrumpRussiaCollusion Journalist Investigating Trump And Russia Says 'Full Picture Is One Of Collusion' https://n.pr/2zU3ePN\xc2\xa0"
p271
S'1:44 PM - 21 Nov 2017'
p272
tp273
a(S'Oh look it Meuller gives up trying to proveTrump russia collusion'
p274
S'1:43 PM - 21 Nov 2017'
p275
tp276
a(S'Donna, you\xe2\x80\x99re not coming up with evidence of Trump/Russia collusion. You\xe2\x80\x99re looking pretty bad.'
p277
S'1:41 PM - 21 Nov 2017'
p278
tp279
a(S'So this week ALONE we have to think about \n\nbill to raise taxes on the middle class\n\nunthinkably unqalified nominee for a lifetime appointment to the bench\n\nbreach in the keystone pipeline\n\nthe potential end of net neutrality\n\ntreasonous collusion with russia\n#ThanksgivingWeek'
p280
S'1:41 PM - 21 Nov 2017'
p281
tp282
a(S'Once again Donna Brazile rants on @seanhannity and lies her a$$ off spewing the Russia collusion nonsense STILL blaming the election on Russia without any specific evidence. Why does Sean give this lying liberal hack airtime?'
p283
S'1:40 PM - 21 Nov 2017'
p284
tp285
a(S'@seanhannity where is your proof of Clinton\xe2\x80\x99s collusion?  Facebook admitted that Russia bought ads and put them on there'
p286
S'1:40 PM - 21 Nov 2017'
p287
tp288
a(S'Even without all of the Russia collusion, this man is completely morally bankrupt. This man is a sexual criminal pardoning the disgusting behavior of another sexual criminal. He is not my president. He should be no ones president.'
p289
S'1:38 PM - 21 Nov 2017'
p290
tp291
a(S"Nope never hacked as that's been proven false! The DNC & Hillary killed Seth because HE leaked emails to WikiLeaks FACT! Dems had to use Russia as a excuse to why they lost 2016 when they rigged it for HRC to win. BTW the real collusion is with BHO, HRC, Comey, Eric Holder fact!"
p292
S'1:32 PM - 21 Nov 2017'
p293
tp294
a(S'What if the members of Congress on the Ethics Committee investigating sexual harassment are also on the Secret Sexual Harassment Settlement Slush Fund list?\n\nIt would be like a Special Counsel investigating "Russian Collusion" that colluded with Russia.\n\n#DrainTheSwamp'
p295
S'1:32 PM - 21 Nov 2017'
p296
tp297
a(S'Aww leave @maddow alone. She\xe2\x80\x99s still searching for Trumps Russia collusion. '
p298
S'1:32 PM - 21 Nov 2017'
p299
tp300
a(S'As Russia Collusion theory, collapses further, many reps will be in a bad spot.'
p301
S'1:28 PM - 21 Nov 2017'
p302
tp303
a(S'Agree ! Why they keep on digging on Trump  Russia collusion that dont exist ! They should prosecute Crooked Hillary for betraying America !'
p304
S'1:27 PM - 21 Nov 2017'
p305
tp306
a(S"Can't decide if there's more hazard to USA from collusion with Russia by has-been loser who'll never run for office again, and current POTUS. Tough call. Really tough call. "
p307
S'1:26 PM - 21 Nov 2017'
p308
tp309
a(S'Devin Nunes: No credible evidence of Russia-Trump collusion http://conservativenews24.com/2017/06/04/devin-nunes-no-credible-evidence-russia-trump-collusion/\xc2\xa0\xe2\x80\xa6'
p310
S'1:24 PM - 21 Nov 2017'
p311
tp312
a(S"Did Trump & Team with GOP's help compromise our Gov't & elections? Convoluted plot of the Trump-Russia collusion slowly unfolds https://shar.es/1MfPhS\xc2\xa0 via @BigNewsNetwork  Sounds like they did! #TrumpRussia #ImpeachTrump & #VoteOutGOP #Resist"
p313
S'1:21 PM - 21 Nov 2017'
p314
tp315
a(S"We totally agree with and endorse this call\n\nPortraying an avowed #Assad propagandists & warcrimes denier & applauder as an 'independent investigative journalist' is a lie & collusion with the cover up of deliberate slaughter of innocents by Assad & Russia\n\nWhat is the motive? https://twitter.com/TheSyriaCmpgn/status/932701012493848578\xc2\xa0\xe2\x80\xa6"
p316
S'1:20 PM - 21 Nov 2017'
p317
tp318
a(S'You mean like focusing on who\xe2\x80\x99s leaking info on Trump collusion w Russia as opposed to the crime itself? Like that?'
p319
S'1:20 PM - 21 Nov 2017'
p320
tp321
a(S'Obama Administration: "There\'s no collusion between Russia and Syria."'
p322
S'1:17 PM - 21 Nov 2017'
p323
tp324
a(S"via @npr: Journalist Investigating Trump And Russia Says 'Full Picture Is One Of Collusion' http://n.pr/2zUlqIL\xc2\xa0"
p325
S'1:17 PM - 21 Nov 2017'
p326
tp327
a(S'Trump/Russia collusion was discredited? You should let the DOJ know so they can stop investigating him and everyone connected!'
p328
S'1:17 PM - 21 Nov 2017'
p329
tp330
a(S"Yeah but how's that Russia collusion thing going? pic.twitter.com/mdgZ186h4T"
p331
S'1:17 PM - 21 Nov 2017'
p332
tp333
a(S'Another Dead Russian Horse. Dems are still clinging to their manufactured Russian/Collusion crap. Liberals around the planet are blaming Russia for election loses.  msm involved in keeping lies alive. It\xe2\x80\x99s not working! '
p334
S'1:17 PM - 21 Nov 2017'
p335
tp336
a(S"This doesn't make sense. The ads were by US or British set to look Ruskia. US can mimick Russian IPs.\nAmerican Patriot Daily \xe2\x80\x93 Robert Muller Just Got His Hands On This Evidence Of Collusion With Russia http://www.americanpatriotdaily.com/uncategorized/robert-muller-just-got-his-hands-on-this-evidence-of-collusion-with-russia/\xc2\xa0\xe2\x80\xa6"
p337
S'1:12 PM - 21 Nov 2017'
p338
tp339
a(S'I think it\xe2\x80\x99s awesome that @lukeharding1968 wrote the SECOND book on Trump-Russia. @hackamericabook was first sold on 23/9/16 & in book stores since 7/10/16 & been selling like crazy ever since. cc @VintageAnchor @MartyMossCoane #Collusion https://twitter.com/vintageanchor/status/931319755394506752\xc2\xa0\xe2\x80\xa6'
p340
S'1:12 PM - 21 Nov 2017'
p341
tp342
a(S'Good job! Gotta work with Russia, gotta work with Putin. That ain\xe2\x80\x99t collusion, just plain old common sense.'
p343
S'1:10 PM - 21 Nov 2017'
p344
tp345
a(S'I question the intelligence of the whole bunch including the GOP itself. Imagine setting up the biggest collusion meeting with Russia in trump Tower one floor away from Trump himself and expecting no one would notice? GOP moronically supports him till Mueller makes charges.'
p346
S'1:09 PM - 21 Nov 2017'
p347
tp348
a(S'#MichaelIsikoff of Yahoo News pushing to discredit #U1 informant Campbell.\nAlso pushed Trump/Russia collusion propaganda last year.\n\nConnections to whom and via what/whom?  @chiIIumhttps://twitter.com/PoliticalShort/status/933052229006667776\xc2\xa0\xe2\x80\xa6'
p349
S'1:09 PM - 21 Nov 2017'
p350
tp351
a(S'"they have not been able to verify or corroborate the substantive allegations of collusion between Russia and the Trump campaign outlined in the Trump dossier." https://twitter.com/Jim_in_Colo/status/933079644282134529\xc2\xa0\xe2\x80\xa6'
p352
S'1:08 PM - 21 Nov 2017'
p353
tp354
a(S'Has Mueller Abandoned The Trump/Russia Collusion Investigation? https://www.investors.com/politics/editorials/trump-russia-dossier-robert-mueller-investigation/\xc2\xa0\xe2\x80\xa6 via @IBDeditorials'
p355
S'1:08 PM - 21 Nov 2017'
p356
tp357
a(S'Convoluted plot of the Trump-Russia collusion slowly unfolds \xe2\x80\x94 Big News Network https://buff.ly/2itnrlm\xc2\xa0pic.twitter.com/K5tgTHoJJg'
p358
S'1:07 PM - 21 Nov 2017'
p359
tp360
a(S'These are the real bad things that we should punish him for.\n\nNot the stupid racism-crying or the Russia collusion(until there are facts) https://twitter.com/thehill/status/933009359323455488\xc2\xa0\xe2\x80\xa6'
p361
S'1:06 PM - 21 Nov 2017'
p362
tp363
a(S'Just like Putin denies interference...\n\nJust like Trump denies collusion...\n\nJust like Jared denies withholding docs...\n\nJust like Trump Jr denies meeting with Russians...\n\nJust like Sessions denies remembering anything related to Russia until it pops up in the media...\n\n#Patternhttps://twitter.com/kylegriffin1/status/933071858458603520\xc2\xa0\xe2\x80\xa6'
p364
S'1:06 PM - 21 Nov 2017'
p365
tp366
a(S'They have the nerve to call. @Cernovich a conspiracy theorist but wapo has been the biggest promoter of the trump/Russia collusion conspiracy theory.'
p367
S'1:05 PM - 21 Nov 2017'
p368
tp369
a(S'The more bullshit comes out of Trump, the more people look away from Russia collusion.'
p370
S'1:04 PM - 21 Nov 2017'
p371
tp372
a(S'One is on taxes in 2005 the other is for not registered as a lobbyists\nBoth nothing to do with the lies that Obama & Hillary fabric on Russia collusion\nLollll'
p373
S'1:01 PM - 21 Nov 2017'
p374
tp375
a(S'NPR News: Journalist Investigating Trump And Russia Says \xe2\x80\x98Full Picture Is One Of Collusion\xe2\x80\x99 http://ift.tt/2iD5ErY\xc2\xa0 See more articles to help you with your writing at my blog:http://ift.tt/2b7Qk0T\xc2\xa0'
p376
S'1:01 PM - 21 Nov 2017'
p377
tp378
a(S"You know what else isn't normal? Is the same ones claiming Russia is our enemy and blaming others for collusion with them sold them 20% of our uranium!"
p379
S'1:00 PM - 21 Nov 2017'
p380
tp381
a(S"@realDonaldTrump more sanctions against NK, but still no sanctions, which were approved months ago, against Russia. Yea, no signs of collusion here. McMaster's right. U are a dope. Actually a dope is a Rhodes Scholar compared to u. Can't wait til u & ur whole gang gets taken down"
p382
S'12:57 PM - 21 Nov 2017'
p383
tp384
a(S'Lavar Bell vs @realDonaldTrump is #FakeNews to distract from his collusion with Russia & the disastrous #TaxPlan #TheSwamp he promised to drain is pushing to pass. Don\xe2\x80\x99t fall for it! #StayAlert #StayFocused & tell your Reps to #VoteNoOnTheGOPTaxBill'
p385
S'12:57 PM - 21 Nov 2017'
p386
tp387
a(S'Man FUSION GPS - is ILLEGAL -  PAYING FOR A DOSSIER that came from RUSSIA  is COLLUSION w PAYMENT --  Like u have to stop ok?  There is a bunch of SEX stuff being covered up the SAUDIS were busted /  WEINER busted PEDOPHILA/MANY DEMS and Hollywood  ENOUGH http://www.businessinsider.com/the-clintons-putin-and-uranium-2015-4?op=1\xc2\xa0\xe2\x80\xa6'
p388
S'12:54 PM - 21 Nov 2017'
p389
tp390
a(S'oh, heard good piece today by author of Collusion.Said KGB always looks for STOOGES like u to groom and they have been working on u since 1987 & ur all expense PAID by them to Russia w/ Ivana, the real FLOTUS ..... hahahahaaaaaa,'
p391
S'12:53 PM - 21 Nov 2017'
p392
tp393
a(S"The far right is defending pedophilia & collusion with Russia. You are putting your country first at this important time in history. That's what's happening."
p394
S'12:52 PM - 21 Nov 2017'
p395
tp396
a(S'Trump wasn\xe2\x80\x99t at those meetings...and ppl can have meetings with whoever they want it is not a crime.  And the whole Russia collusion thing has backfired in your faces....I\xe2\x80\x99d stop while I was ahead if I were you'
p397
S'12:51 PM - 21 Nov 2017'
p398
tp399
a(S"President Trump has pardoned a turkey, which he'll be doing a lot of once the Russia collusion scandal is over."
p400
S'12:50 PM - 21 Nov 2017'
p401
tp402
a(S'Washington Post \xe2\x80\x94 a boring far-left propaganda blog for Jeff Bezos which has promoted blatantly false conspiracy theories, such as the discredited \xe2\x80\x9cTrump/Russia collusion\xe2\x80\x9d hoax \xe2\x80\x94  was the source of another shitty article on Tuesday. https://twitter.com/farhip/status/933064897805549568\xc2\xa0\xe2\x80\xa6'
p403
S'12:49 PM - 21 Nov 2017'
p404
tp405
a(S'Nothing is off limits to Mueller in the Russia collusion investigation, not even a pardoned turkey. Political Cartoon by A.F. Branco \xc2\xa92017.\nRead more at http://comicallyincorrect.com/2017/11/21/grilled-turkey/#a4ZbWSqJ7951Thtv.99\xc2\xa0\xe2\x80\xa6pic.twitter.com/BpljvTyy1C'
p406
S'12:45 PM - 21 Nov 2017'
p407
tp408
a(S'It\xe2\x80\x99s well known on Capital Hill there was collusion with Russia! GOP members were in on it! Trump was the ring leader of this Circus pic.twitter.com/oWNH1V87iN'
p409
S'12:45 PM - 21 Nov 2017'
p410
tp411
a(S"Journalist Investigating Trump And Russia Says 'Full Picture Is One Of Collusion' http://dld.bz/guT9S\xc2\xa0"
p412
S'12:42 PM - 21 Nov 2017'
p413
tp414
a(S"you haven't said a peep about Russia buying 20% of our uranium ????? or collusion between the Russians & Clinton's!! dossier????"
p415
S'12:42 PM - 21 Nov 2017'
p416
tp417
a(S'Dems should be charged first for Fake Russia dossier. That is collusion!'
p418
S'12:41 PM - 21 Nov 2017'
p419
tp420
a(S'BOOM .@ericgarland   \xe2\x80\x9cCollusion\xe2\x80\x9d by Luke Harding......\xe2\x80\x9dSecret Meetings, Dirty Money, and how Russia Helped Donald Trump Win.\xe2\x80\x9d   #MuellerTime'
p421
S'12:40 PM - 21 Nov 2017'
p422
tp423
a(S"At least now we can break the horizon on understanding where a 'collusion' happened between -not just the US and Russia- but China too. That's your missing piece. Walts plans were directly to involve China back in those days but LO! Russia got there first\n How and Y??"
p424
S'12:39 PM - 21 Nov 2017'
p425
tp426
a(S'@ezraklein on @realdonaldtrump-Russia collusion: There may be no smoking gun "but there sure is a lot of smoke." Great analysis.  https://buff.ly/2Als3od\xc2\xa0pic.twitter.com/Plr1OzBOaF'
p427
S'12:35 PM - 21 Nov 2017'
p428
tp429
a(S'Has Mueller Abandoned The Trump/Russia Collusion Investigation? https://www.investors.com/politics/editorials/trump-russia-dossier-robert-mueller-investigation/\xc2\xa0\xe2\x80\xa6 via @IBDeditorials'
p430
S'12:34 PM - 21 Nov 2017'
p431
tp432
a(S'Wow imagine that NBC is still holding on to the Russia collusion/delusion stories know wonder your ratings are plummeting'
p433
S'12:29 PM - 21 Nov 2017'
p434
tp435
a(S'Remember how hard they were going on Trump Russia collusion & now you hear almost nothing of it because theyve come out and said there has been no Trump Russian collusion  your people are even saying that Youre being indoctrinated with anti Trump propaganda And your phone for it'
p436
S'12:26 PM - 21 Nov 2017'
p437
tp438
a(S'same with Russia collusion but turns out it was them who were in Russias pockets...they investigated and uncovered their own collusion..'
p439
S'12:25 PM - 21 Nov 2017'
p440
tp441
a(S'Well pardoning turkey Trump will be not possible in the  collusion with Russia'
p442
S'12:20 PM - 21 Nov 2017'
p443
tp444
a(S'Session  Resign\nRosenstein in PrisonHe setup Trump to get Mueller special counsel to hide evidence on Dems/Russia Collusion'
p445
S'12:19 PM - 21 Nov 2017'
p446
tp447
a(S"Journalist Investigating Trump And Russia Says 'Full Picture Is One Of Collusion' http://aggregatejournal.com/articles/journalist-investigating-trump-and-russia-says-full-picture-one-collusion\xc2\xa0\xe2\x80\xa6"
p448
S'12:19 PM - 21 Nov 2017'
p449
tp450
a(S"OMG the collusion with Russia that's transparent"
p451
S'12:17 PM - 21 Nov 2017'
p452
tp453
a(S'Collusion alert lol. The US and Russia could do great work together.'
p454
S'12:16 PM - 21 Nov 2017'
p455
tp456
a(S'NPR News: Journalist Investigating Trump And Russia Says \xe2\x80\x98Full Picture Is One Of Collusion\xe2\x80\x99 http://ift.tt/2iEWEmf\xc2\xa0 See more articles to help you with your writing at my blog:http://ift.tt/2b7Qk0T\xc2\xa0'
p457
S'12:16 PM - 21 Nov 2017'
p458
tp459
a(S'Practicing for all of his Russia collusion perpetra(i)tors...'
p460
S'12:16 PM - 21 Nov 2017'
p461
tp462
a(S'Has Mueller Abandoned The Trump/Russia Collusion Investigation? http://russia.trendolizer.com/2017/11/has-mueller-abandoned-the-trumprussia-collusion-investigation.html\xc2\xa0\xe2\x80\xa6pic.twitter.com/ruJQJWwB6t'
p463
S'12:13 PM - 21 Nov 2017'
p464
tp465
a(S'Live comes at you fast...Isikoff of Yahoo News and David Corn of Mother Jones have a book coming out on the "Trump-Russia-Collusion" story, so the FBI informant could hurt reviews, reputations and book sales before March 2018 publication date. Panicking?  https://www.amazon.com/Russian-Connection-Vladimir-Attacked-Presidency-ebook/dp/B075WVX3MS/ref=sr_1_1?ie=UTF8&qid=1511295011&sr=8-1&keywords=Isikoff+Corn\xc2\xa0\xe2\x80\xa6https://twitter.com/PoliticalShort/status/933052229006667776\xc2\xa0\xe2\x80\xa6'
p466
S'12:13 PM - 21 Nov 2017'
p467
tp468
a(S'Russia hoax Russian collusion with Oprah- discussing the USSS did'
p469
S'12:10 PM - 21 Nov 2017'
p470
tp471
a(S'RealAlexJones: The deep state is considering a cyber #falseflag to blame on Russia to salvage the anti-Trump \xe2\x80\x9cRussian collusion\xe2\x80\x9d narrative... https://www.infowars.com/exclusive-deep-state-planning-false-flag-cyber-attack-to-blame-russia/\xc2\xa0\xe2\x80\xa6 #infowars #russiagate'
p472
S'12:10 PM - 21 Nov 2017'
p473
tp474
a(S'It amazes me people still accuse Trump of collusion with Russia. Zero evidence of any collusion and people still believe this.'
p475
S'12:07 PM - 21 Nov 2017'
p476
tp477
a(S'I DONT CARE! YOUR BOSS IS FUCKING US ALL OVER! #FCC #NetNeutrality #EPA #KXL #NorthKorea Emoluments #Russia #Collusion #Putin #Yemen'
p478
S'12:05 PM - 21 Nov 2017'
p479
tp480
a(S'Michael Isikoff of Yahoo News first published a story back in Sept 2016 attempting to push "Trump/Russia collusion" propaganda. Now Isikoff is pushing stories attempting to smear the FBI informant involved in the real collusion regarding Hillary/Russia/Uranium One...interesting https://twitter.com/PoliticalShort/status/933052229006667776\xc2\xa0\xe2\x80\xa6'
p481
S'12:05 PM - 21 Nov 2017'
p482
tp483
a(S'1st off, Manafort railroaded on a law that\'s been enforced very few times - 99% of time is let slide, purely a political doing. Nothing related to Russia. Collusion "confusing  term"and it\'s been a year, still waiting? But why face facts and truth? Steele dossier #fabrication'
p484
S'12:00 PM - 21 Nov 2017'
p485
tp486
a(S'Journalist Investigating Trump And Russia Says Full Picture Is One Of Collusion https://www.npr.org/2017/11/21/565654507/journalist-investigating-trump-and-russia-says-full-picture-is-one-of-collusion?utm_medium=RSS\xc2\xa0\xe2\x80\xa6'
p487
S'12:00 PM - 21 Nov 2017'
p488
tp489
a(S"Journalist Investigating Trump And Russia Says 'Full Picture Is One Of Collusion' http://bit.ly/2hTAMWZ\xc2\xa0"
p490
S'11:59 AM - 21 Nov 2017'
p491
tp492
a(S'New story on NPR: Journalist Investigating Trump And Russia Says \'Full Picture Is One Of Collusion\' http://ift.tt/2zb8drB\xc2\xa0 "The constellation of Russian connections circling around Planet Trump is quite extraordinary," says Guardian reporter Luke Harding. His new book is Collu\xe2\x80\xa6 pic.twitter.com/97VUmJMCrY'
p493
S'11:58 AM - 21 Nov 2017'
p494
tp495
a(S"New story on NPR: Journalist Investigating Trump And Russia Says 'Full Picture Is One Of Collusion' http://ift.tt/2zb8drB\xc2\xa0"
p496
S'11:57 AM - 21 Nov 2017'
p497
tp498
a(S'No story here.  Comey says himself no Russia collusion.  Also admits he sent stuff to have investigation started.  Comey not credible yet you defend his firing.  Think further.'
p499
S'11:55 AM - 21 Nov 2017'
p500
tp501
a(S'"#Russia" -- #ObamaGate | #FBImWithHer #Comey | #Mueller\nPaul Sperry: Here are some of the biggest myths of the Russian-collusion story\nhttps://nypost.com/2017/11/19/here-are-some-of-the-biggest-myths-of-the-russian-collusion-story/\xc2\xa0\xe2\x80\xa6\n| #tcot #PJNET'
p502
S'11:55 AM - 21 Nov 2017'
p503
tp504
a(S"New story on NPR: Journalist Investigating Trump And Russia Says 'Full Picture Is One Of Collusion' http://ift.tt/2mPvlu0\xc2\xa0http://ift.tt/2mPvlu0\xc2\xa0"
p505
S'11:54 AM - 21 Nov 2017'
p506
tp507
a(S'"#Russia" -- #ObamaGate | #Mueller\n@IBDeditorials: Has Mueller Abandoned The Trump/Russia Collusion Investigation?\nhttps://www.investors.com/politics/editorials/trump-russia-dossier-robert-mueller-investigation/\xc2\xa0\xe2\x80\xa6\n| #tcot #PJNET'
p508
S'11:53 AM - 21 Nov 2017'
p509
tp510
a(S"New story on NPR: Journalist Investigating Trump And Russia Says 'Full Picture Is One Of Collusion' http://ift.tt/2iEivKC\xc2\xa0"
p511
S'11:53 AM - 21 Nov 2017'
p512
tp513
a(S'"his is the ONLY RUSSIA-AMERICAN POLITICIAN collusion there is" There is also the Hillary & Bill Clinton, , Podesta Group & Fake War Hero, Real Traitor, Songbird John McCain Russian Collusion.'
p514
S'11:47 AM - 21 Nov 2017'
p515
tp516
a(S'Check out this book on Goodreads: Collusion: Secret Meetings, Dirty Money, and How Russia Helped Donald Trump Win http://ow.ly/o1eF30gEXmS\xc2\xa0'
p517
S'11:45 AM - 21 Nov 2017'
p518
tp519
a(S"@TrishIntel Connect the dots! The Dems made the Uranium One deal to get millions from Russia to fill the Clinton (DNC) coffers for Hillary's run. The Trump/Russia collusion was promoted to divert attention from the Dems scheme and try to impeach Trump before the truth came out."
p520
S'11:44 AM - 21 Nov 2017'
p521
tp522
a(S"Don't believe me????\n\nhttps://www.youtube.com/watch?v=0mgQaFlo_p8\xc2\xa0\xe2\x80\xa6\n\nHe said it. This is the ONLY RUSSIA-AMERICAN POLITICIAN collusion there is 100000000% of. Gnaw on that."
p523
S'11:43 AM - 21 Nov 2017'
p524
tp525
a(S"You're right Tami, it's not. But collusion with Russia is."
p526
S'11:42 AM - 21 Nov 2017'
p527
tp528
a(S'The deep state is considering a cyber #falseflag to blame on Russia to salvage the anti-Trump \xe2\x80\x9cRussian collusion\xe2\x80\x9d narrative... https://www.infowars.com/exclusive-deep-state-planning-false-flag-cyber-attack-to-blame-russia/\xc2\xa0\xe2\x80\xa6 #infowars #russiagate Crushing ferrets since 1776! Undiluted Ferret Crushing since 1776! Undiluted Ferret Crushing since 1776! \xe2\x80\xa6'
p529
S'11:35 AM - 21 Nov 2017'
p530
tp531
a(S'All the times Jared Kushner has failed to tell Congress something important https://www.vox.com/policy-and-politics/2017/11/20/16670484/jared-kushner-russia-scandal-wikileaks?utm_campaign=vox&utm_content=entry&utm_medium=social&utm_source=twitter\xc2\xa0\xe2\x80\xa6 #trump #kushner #russia #putin #liarinchief #collusion'
p532
S'11:32 AM - 21 Nov 2017'
p533
tp534
a(S"Yes, he's investigating the allegations. Now, link where I said it was a fact that there was trump-russia collusion."
p535
S'11:25 AM - 21 Nov 2017'
p536
tp537
a(S'This video ad deals a strong blow to the Democrat liars about Russia collusion:  http://conta.cc/2z4huSg\xc2\xa0'
p538
S'11:24 AM - 21 Nov 2017'
p539
tp540
a(S"Link up where I said it was a fact there was trump russia collusion. We both know you can't."
p541
S'11:21 AM - 21 Nov 2017'
p542
tp543
a(S'The Orange buffoon wants to switch everyone attention from his criminal Russia collusion to Hillary, but it will not work! https://www.dailykos.com/story/2017/11/8/1713576/-Rex-Tillerson-reassigns-hundreds-of-State-Department-employees-to-search-for-Hillary-Clinton-dirt\xc2\xa0\xe2\x80\xa6'
p544
S'11:20 AM - 21 Nov 2017'
p545
tp546
a(S'Dude, you\xe2\x80\x99re the obsessed one. Someone brings up your and your family\xe2\x80\x99s Russia collusion and you yell \xe2\x80\x9cBut, Hillary!\xe2\x80\x9d #SadLittleMan'
p547
S'11:19 AM - 21 Nov 2017'
p548
tp549
a(S'Michael Isikoff of Yahoo News first published a story back in Sept 2016 attempting to push "Trump/Russia collusion" propaganda. Now Isikoff is pushing stories attempting to smear the FBI informant involved in the real collusion regarding Hillary/Russia/Uranium One...interesting pic.twitter.com/gAITSBHl4R'
p550
S'11:19 AM - 21 Nov 2017'
p551
tp552
a(S'WAPO joins Newsweek as lamestream news descends into tabloid obscurity. What\'s next, "Bigfoot spotted at White House, proof of collusion with Russia"? https://twitter.com/dbongino/status/933048108157677568\xc2\xa0\xe2\x80\xa6'
p553
S'11:17 AM - 21 Nov 2017'
p554
tp555
a(S'$1000 to the charity of your choice if Trump-Russia collusion is proven.'
p556
S'11:17 AM - 21 Nov 2017'
p557
tp558
a(S'He is probably cleaning out the FBI of any reports implicating him. All while investigating the bogus Russia collusion.'
p559
S'11:15 AM - 21 Nov 2017'
p560
tp561
a(S'Does no one else find this now 30-year relationship, along w/the numerous praises of Russian & Putin by Trump during his campaign, plus the now-verified lies, indicative of some sort of collusion in addition 2 the already-confirmed interference by Russia in the election? https://twitter.com/scorpion_here/status/932946681720602624\xc2\xa0\xe2\x80\xa6'
p562
S'11:15 AM - 21 Nov 2017'
p563
tp564
a(S'@TMCountryman @BrookeBCNN "That cloud" w/Russia is by design by the corrupt prior admin/directors; to include people like u Tom. That\'s EXACTLY why you\'re gone. If this admin were allowed to be \'chummy\' w/RU, there\'s a higher probability that they\'d divulge ALL the past collusion'
p565
S'11:13 AM - 21 Nov 2017'
p566
tp567
a(S'The fact that people are still defending Trump & his PROVEN collusion with Russia, his blatant nepotism & Conflict of Interest, his Tax Evasion, MULTIPLE SEXUAL ASSAULT charges ect....proves they have SOLD their souls 2 the devil & will accept ANY heinous act he commits on us ALL'
p568
S'11:10 AM - 21 Nov 2017'
p569
tp570
a(S'Has Mueller Abandoned The Trump/Russia Collusion Investigation? https://www.investors.com/politics/editorials/trump-russia-dossier-robert-mueller-investigation/\xc2\xa0\xe2\x80\xa6 via @IBDeditorials'
p571
S'11:08 AM - 21 Nov 2017'
p572
tp573
a(S'Yes, he pled guilty to purgery for lying to the FBI, not got collusion with Russia. There is a yuge difference.'
p574
S'11:08 AM - 21 Nov 2017'
p575
tp576
a(S'Liberal deep state still angling to blame a false flag attack on Russia to salvage their Russia Collusion lies. Ignore all CNN, MSM narratives about Russia.'
p577
S'11:06 AM - 21 Nov 2017'
p578
tp579
a(S'Obvious by now: Russia collusion involved Obama, Hillary, Comey, Mueller, Rosenstein & McCabe -- http://Sott.net\xc2\xa0http://fb.me/2hT2Fdtsu\xc2\xa0'
p580
S'11:06 AM - 21 Nov 2017'
p581
tp582
a(S"Yeah.  Why don't you do that RIGHT AFTER you finish investigating the Russia collusion?!"
p583
S'11:02 AM - 21 Nov 2017'
p584
tp585
a(S'The deep state is considering a cyber #falseflag to blame on Russia to salvage the anti-Trump \xe2\x80\x9cRussian collusion\xe2\x80\x9d narrative... https://www.infowars.com/exclusive-deep-state-planning-false-flag-cyber-attack-to-blame-russia/\xc2\xa0\xe2\x80\xa6 #infowars #russiagate'
p586
S'11:01 AM - 21 Nov 2017'
p587
tp588
a(S'4 minutes and 38 seconds total combined coverage of this, vs. over 1000 hours on the Trump-Russia collusion stories. http://fb.me/76Lk73ZPi\xc2\xa0'
p589
S'11:00 AM - 21 Nov 2017'
p590
tp591
a(S'He widely praises conservative moves from the president and criticizes giveaways. He defended Trump like no one did during the heights of the Russia Collusion story. \n\nHe does criticize Trump or, rather, his advisers for non-conservative stances. As he says, not a pom-pom boy. '
p592
S'10:58 AM - 21 Nov 2017'
p593
tp594
a(S"President Trump pardons a turkey: Follow live @CNNPolitics http://cnn.it/2mSgOxQ\xc2\xa0 I wonder who's going to pardon him when it comes time to answer up for Russia collusion, and money laundering schemes."
p595
S'10:57 AM - 21 Nov 2017'
p596
tp597
a(S'@realDonaldTrump can you say collusion with Russia'
p598
S'10:57 AM - 21 Nov 2017'
p599
tp600
a(S"Please provide proof of Trump Russia collusion.  I'll wait."
p601
S'10:57 AM - 21 Nov 2017'
p602
tp603
a(S"If Muller expanded his investigation, the prison cell is going to be pretty full. On the other hand,  what was his mission? To prove or disprove Trump Russia collusion. There is none. He's done. Let the next guy go after Obama cartel"
p604
S'10:55 AM - 21 Nov 2017'
p605
tp606
a(S'We know the DNC And hillary are the Russia\xe2\x80\x99s collusion! No doubt at all! Mueller part of it!'
p607
S'10:53 AM - 21 Nov 2017'
p608
tp609
a(S'The peeps who believed Russia collusion! '
p610
S'10:52 AM - 21 Nov 2017'
p611
tp612
a(S"We need you Barry, PLEASE COME BACK AND HELP THE RESISTANCE.  Supreme Court please mandate 3 terms for future President's, especially intelligent one that are competent to be President. Mueller speed it up. Collusion Russia sucks. #loveeveryonehttps://twitter.com/BarackObama/status/932685522820042754\xc2\xa0\xe2\x80\xa6"
p613
S'10:49 AM - 21 Nov 2017'
p614
tp615
a(S'@RepTedDeutch Your penchant for more investigations is going to lead to an independent counsel for the Hillary/Russia collusion investigation and cause the Democrats to lose more Congressional and Senate seats. Please stop stirring the pot or you may find yourself in it soon.'
p616
S'10:41 AM - 21 Nov 2017'
p617
tp618
a(S'Mindset gripping our politics? You, chuck, control the mindset yet you talk about ridiculous Trump Russia election collusion for months'
p619
S'10:39 AM - 21 Nov 2017'
p620
tp621
a(S"FBI investigated potential collusion of Obama Admin & Russian Nuclear Officials for years & INTENTIONALLY didn't find any so there's nothing to report to Congress thus facilitating the sale of 20% Ur to Russia. With new intelligence, Mueller can plot to exonerate themselves.#MAGAhttps://twitter.com/DonnaWR8/status/923499644763688960\xc2\xa0\xe2\x80\xa6"
p622
S'10:39 AM - 21 Nov 2017'
p623
tp624
a(S'Although the turkeys have been pardoned, they still can be prosecuted under state law   and therefore seek immunity in exchange for information regarding collusion between the Trump camp and Russia.'
p625
S'10:37 AM - 21 Nov 2017'
p626
tp627
a(S'"@FBI and @TheJusticeDept officials told congressional investigators they have not been able to verify or corroborate the substantive allegations of collusion between #Russia and the @Trump campaign outlined in the #ChristopherSteele #Dossier."https://twitter.com/PoliticalShort/status/932730849618825218\xc2\xa0\xe2\x80\xa6'
p628
S'10:35 AM - 21 Nov 2017'
p629
tp630
a(S'But collusion with Russia, obstruction of justice and sexual assaults are. https://twitter.com/TomiLahren/status/932784429323378688\xc2\xa0\xe2\x80\xa6'
p631
S'10:28 AM - 21 Nov 2017'
p632
tp633
a(S'\xe2\x80\x9cCollusion\xe2\x80\x9d by Luke Harding is a must read for Mueller\xe2\x80\x99s team. Trump/Russia followers should read, too. https://twitter.com/strykermcguire/status/933011045878239233\xc2\xa0\xe2\x80\xa6'
p634
S'10:26 AM - 21 Nov 2017'
p635
tp636
a(S'NSA Director Decides to Settle the Score: Admits Trump/Russia Election Collusion - http://theproudliberal.org/nsa-director-decides-to-settle-the-score-admits-trumprussia-election-collusion/\xc2\xa0\xe2\x80\xa6'
p637
S'10:24 AM - 21 Nov 2017'
p638
tp639
a(S"BBC News - Google to 'derank' Russia Today and Sputnik http://www.bbc.co.uk/news/technology-42065644\xc2\xa0\xe2\x80\xa6 This despite the fact that @RT revenue spend had gone up not down as Google allege .This is obviously political. So who has got at Google they already said no evidence of RT/Putin collusion"
p640
S'10:23 AM - 21 Nov 2017'
p641
tp642
a(S'Nothing is off limits to Mueller in the Russia collusion investigation, not even a pardoned turkey. \nRead more at http://comicallyincorrect.com/2017/11/21/grilled-turkey/#GggTWOVzBCOOU4eI.99\xc2\xa0\xe2\x80\xa6https://twitter.com/DRDJMPHD/status/933021617235550208\xc2\xa0\xe2\x80\xa6'
p643
S'10:17 AM - 21 Nov 2017'
p644
tp645
a(S'Silly Trumpzi. There was no collusion by the Clintons.  Unlike your treasonous F\xc3\xbchrer, none of the contents of the GOP-funded Russia dossier became public until AFTER the election was over. pic.twitter.com/AmHrXKiEaW'
p646
S'10:17 AM - 21 Nov 2017'
p647
tp648
a(S'He\'s trying to convince Americans that his collusion w/ Russia to steal the election was "in our best interests."  When he said if he lost the election was rigged, he knew it was rigged in his favor & the only way to beat him was to rig even better than his campaign #impeachtrump'
p649
S'10:15 AM - 21 Nov 2017'
p650
tp651
a(S'Sara A. Carter                              REAL AMERICAN JOURNALIST     Revealing ...                                 REAL RUSSIA COLLUSION Pulitzer Prize !!!  https://saraacarter.com/2017/11/21/treasure-trove-of-documents-tying-russia-to-uranium-one/\xc2\xa0\xe2\x80\xa6'
p652
S'10:13 AM - 21 Nov 2017'
p653
tp654
a(S'The only Russia collusion is with Uranium One!'
p655
S'10:12 AM - 21 Nov 2017'
p656
tp657
a(S'Yes! He should have never been appointed SC for Russia Collusion when he was the bagman that delivered the Uranium 2 Russia 4 #Hillary & #Obama\n#MAGA'
p658
S'10:11 AM - 21 Nov 2017'
p659
tp660
a(S'OMG! Does the turkey that\xe2\x80\x99s pardoned know he\xe2\x80\x99ll have to be forever grateful and thanking @realDonaldTrump, stroking his ego??? While he\xe2\x80\x99s under investigation for collusion with Russia and a true sexual predator!'
p661
S'10:11 AM - 21 Nov 2017'
p662
tp663
a(S'Deputy AG Rod Rosenstein @Rod_Rosenstein hired Mueller for two reasons: to harass and persecute President Trump, and to destroy evidence of their corruption associated with Hillary Clinton Uranium one deal. They from the beginning that there was no Russia collusion.'
p664
S'10:10 AM - 21 Nov 2017'
p665
tp666
a(S"Trump is working for our Country out of love for the country & the people. His full salary is going to charity & he's paying own legal fees in Russia collusion BS probe."
p667
S'10:09 AM - 21 Nov 2017'
p668
tp669
a(S"You didn't ask for proof of collusion with Russia. That is not my understanding of the ability of Mueller to find criminal activity if he is in the course of the investigation."
p670
S'10:09 AM - 21 Nov 2017'
p671
tp672
a(S'This First Published On 11/12/2017\xe2\x95\x91Adam Schiff continues with Russia dossier/collusion investigation https://hedgeaccordingly.com/2017/11/adam-schiff-continues-with-russia-dossiercollusion-investigation.html\xc2\xa0\xe2\x80\xa6'
p673
S'10:06 AM - 21 Nov 2017'
p674
tp675
a(S'.@realDonaldTrump: Sorry Trumpy!That\xe2\x80\x99s not going to shut down and NYAG Schneiderman just like firing Comey didn\xe2\x80\x99t stop the Russia investigation looking into your collusion with Putin to win the election. Face it: you are a traitorous Russian stooge AND a corrupt fraud and LOSER! https://twitter.com/dearauntcrabby/status/933018759400390656\xc2\xa0\xe2\x80\xa6'
p676
S'10:05 AM - 21 Nov 2017'
p677
tp678
a(S"I can just picture this guy - in complete denial of Trump's collusion with Russia - standing with his pro-Trump sign on the road to Mar-a-Lago as Abramovich's limo drives by."
p679
S'10:05 AM - 21 Nov 2017'
p680
tp681
a(S"The Russia collusion  are  a fact!\nThis is something totally unrelated.\nIt's only in delusional minds that everything are democrat conspiracies against them."
p682
S'10:03 AM - 21 Nov 2017'
p683
tp684
a(S'#UraniumOneDeal Should have never happen in the first place. Knowing Russia and NK are sleeping together and you give that man Yellow cake uranium.\nSeriously? \nThere is your collusion as well.'
p685
S'10:01 AM - 21 Nov 2017'
p686
tp687
a(S'#Salajuoni: key players of #Trump-#Russia #Collusion https://twitter.com/FaberBooks/status/932597649739599877\xc2\xa0\xe2\x80\xa6'
p688
S'10:01 AM - 21 Nov 2017'
p689
tp690
a(S'I am confused that the Mueller investigation hasn\xe2\x80\x99t been recalled once they found out it was the Dems w the collusion w Russia!'
p691
S'10:01 AM - 21 Nov 2017'
p692
tp693
a(S"The Case For Trump's Russia Collusion Is Made; We're Just Filling In The Details\nby Shaun D Mullen\nhttps://www.tremr.com/161kilnfarm/the-case-for-trumps-russia-collusion-is-made-were-just-filling-in-the-details\xc2\xa0\xe2\x80\xa6"
p694
S'10:00 AM - 21 Nov 2017'
p695
tp696
a(S"Killer crocodiles??!! Does @TuckerCarlson know about this?! Would be a great thing to lead with next time more evidence of Trump's Russia collusion comes out. #SeeNoEvilpic.twitter.com/NQCmq2oBlb"
p697
S'10:00 AM - 21 Nov 2017'
p698
tp699
a(S'For me it was the key role he played in Flynn firing (which set to motion these Trump/Russia collusion investigation).  I suspect pence knew Flynn lied to him about Russia sanctions, but still went on TV to back Flynns claim.  Then he called for his resignation.'
p700
S'9:57 AM - 21 Nov 2017'
p701
tp702
a(S"Still waiting on the Dems pressing Russia Collusion.  Wasting tax payers money.  Looks like that's the dem conspiracy."
p703
S'9:56 AM - 21 Nov 2017'
p704
tp705
a(S'There is no #collusion with #Russia@ How many times do I have to lie about this until you all believe me?!? Now, please be distracted by your choice of #NFL anthem protests, #LavarBall feud, #NorthKorea rhetoric, #UraniumOne, #BorderWall or my latest insult hurling at #MSM. Win!https://twitter.com/RVAwonk/status/932967939178991617\xc2\xa0\xe2\x80\xa6'
p706
S'9:54 AM - 21 Nov 2017'
p707
tp708
a(S'Collusion with Russia still OK?'
p709
S'9:54 AM - 21 Nov 2017'
p710
tp711
a(S'RUSSIA COLLUSION!  pic.twitter.com/AalLKBbMYj'
p712
S'9:53 AM - 21 Nov 2017'
p713
tp714
a(S'Marie Harf is a one sided liberal mess. She says "there is no evidence #hillaryclinton had anything to do with the Iranian deal" really Marie? You who constantly accuse @POTUS of Russia collusion? Why don\'t u & #juanwilliams help the homeless! Get a life! U r a mess!'
p715
S'9:53 AM - 21 Nov 2017'
p716
tp717
a(S'@OutnumberedFNC Funny how #MarieHarf  Didn\xe2\x80\x99t hesitate to jump on the #Russia investigation or blame @POTUS for collusion but can\xe2\x80\x99t hold a civilized conversation about #CrookedHillary'
p718
S'9:51 AM - 21 Nov 2017'
p719
tp720
a(S'CBS News reports that Don Jr. met with a Russian ally at an NRA event in May 2016. More evidence of collusion, not just between #TrumpRussia, but the NRA and Russia as well. #GunSense #GunControl'
p721
S'9:48 AM - 21 Nov 2017'
p722
tp723
a(S'What was hillary\xe2\x80\x99s collusion with russia? Uranium? Cmon man. Because u dont like her, and neither do i btw, doesnt mean we cant mock goodman for his hypocrisy. Oh, re uranium: https://www.mediamatters.org/video/2017/11/14/fox-news-shepard-smith-debunks-uranium-one-lie-peddled-his-own-network/218557\xc2\xa0\xe2\x80\xa6'
p724
S'9:46 AM - 21 Nov 2017'
p725
tp726
a(S'Treasure Trove of Documents Tying Russia to Uranium One https://saraacarter.com/2017/11/21/treasure-trove-of-documents-tying-russia-to-uranium-one/\xc2\xa0\xe2\x80\xa6\n#Collusion #Russians #ClintonCrimeSyndicate #LockHerUp'
p727
S'9:46 AM - 21 Nov 2017'
p728
tp729
a(S"Google plans to 'de-rank' Russia Today and Sputnik to combat misinformation https://www.theguardian.com/technology/2017/nov/21/google-de-rank-russia-today-sputnik-combat-misinformation-alphabet-chief-executive-eric-schmidt?CMP=share_btn_tw\xc2\xa0\xe2\x80\xa6 #Trump #Russia #Putin #Brexit #Collusion"
p730
S'9:45 AM - 21 Nov 2017'
p731
tp732
a(S'This is actually a Liberal Russian account spreading false information We have proof of the collusion between Russia and Hillary/DNC. $9M worth! https://twitter.com/MollyMcKew/status/933020174885752832\xc2\xa0\xe2\x80\xa6'
p733
S'9:43 AM - 21 Nov 2017'
p734
tp735
a(S'The real Russia collusion has been exposed. The Clinton campaign conspired with Russia on #UraniumOne and paid for the fake Trump Russia dossier. pic.twitter.com/OFCk3Sc3FW'
p736
S'9:43 AM - 21 Nov 2017'
p737
tp738
a(S'Has Mueller Abandoned The Trump/Russia Collusion Investigation? https://www.investors.com/politics/editorials/trump-russia-dossier-robert-mueller-investigation/\xc2\xa0\xe2\x80\xa6 via @IBDeditorials'
p739
S'9:42 AM - 21 Nov 2017'
p740
tp741
a(S".@lukeharding1968 on @nprfreshair today - Absolutely fascinating! His book '#COLLUSION: How Russia helped @realDonaldTrump' here:https://www.amazon.com/Collusion-Secret-Meetings-Russia-Helped/dp/0525562516/ref=sr_1_1?ie=UTF8&qid=1511286023&sr=8-1&keywords=collusion\xc2\xa0\xe2\x80\xa6"
p742
S'9:41 AM - 21 Nov 2017'
p743
tp744
a(S'FBI was headed by director Robert Mueller, who is now the Special Counsel investigating allegations of Trump Russia collusion. Also involved was current Deputy Attorney General Rod Rosenstein, who then was  U.S. Attorney for Maryland.'
p745
S'9:39 AM - 21 Nov 2017'
p746
tp747
a(S'https://www.yahoo.com/news/ukraine-putin-testing-ground-hybrid-151844675.html\xc2\xa0\xe2\x80\xa6 North Korea, China & Russia are in collusion against the USA.   we are in trouble.  PRAY to the Triune God'
p748
S'9:39 AM - 21 Nov 2017'
p749
tp750
a(S"Come 2020 let's kick Hillary's butt worse than we did this time. Trump won 30 States and electors.  We voted him in and they want him removed cause the Clinton Democratic party is over. No Russia Trump collusion"
p751
S'9:32 AM - 21 Nov 2017'
p752
tp753
a(S"Shame on all of you for colluding w/ Hillary Clinton's effort to unseat a sitting President! You are all seditious traitors. End the faux Trump/Russia collusion hoax investigation charade NOW! #TuesdayThoughtshttps://twitter.com/ByronYork/status/932417705881296896\xc2\xa0\xe2\x80\xa6"
p754
S'9:30 AM - 21 Nov 2017'
p755
tp756
a(S'The guy that has Trump / Russia collusion story all over his TL is lecturing me about facts   Enjoy.'
p757
S'9:30 AM - 21 Nov 2017'
p758
tp759
a(S'Oh nooooo. Collusion... Here come Russia again'
p760
S'9:29 AM - 21 Nov 2017'
p761
tp762
a(S'President Trump\'s supporters argue that the real Russian "collusion" scandal is Democratic funding of the Trump Russia "dossier." But that\'s just a smokescreen.  https://buff.ly/2B9lkuB\xc2\xa0'
p763
S'9:25 AM - 21 Nov 2017'
p764
tp765
a(S'@VP North Korea is not going to do anything that will mean the End of them as a nation. What are You going to do about Russia meddling in our elections? Not about collusion stuff, just about Attacking our Country through cyberspace. This is just Crazy that we do Nothing!'
p766
S'9:24 AM - 21 Nov 2017'
p767
tp768
a(S'snif..So sorry to interrupt your Wet Dreams of"Trump Collusion"w/facts about BO/HC #InfluencePeddling #UraniumOne to #Russia&Covering it up! And w/the fact that HC indirectly paid big $ to Kremlin\'s Disinfo-Intel Ops for*both*to try to*Defeat*DT via their #FakeSexDossier!'
p769
S'9:23 AM - 21 Nov 2017'
p770
tp771
a(S'@FoxNews Working/middle class Americans need to focus on #GOPTaxHeist currently being debated in Congress. And they economic the consequences. Mueller is investigating the collusion btw Trump & Russia, which shouldn\xe2\x80\x99t be dismissed or accepted. https://www.washingtonpost.com/blogs/plum-line/wp/2017/11/21/the-trump-tax-plan-is-much-worse-than-you-thought-a-new-analysis-confirms-it/?utm_term=.6d92e52fb03d\xc2\xa0\xe2\x80\xa6https://twitter.com/foxbusiness/status/933008039329914882\xc2\xa0\xe2\x80\xa6'
p772
S'9:23 AM - 21 Nov 2017'
p773
tp774
a(S"There's no Russia collusion that's why he's on a fishing Expedition all the millions and interviews that he's done he's got to prosecute somebody"
p775
S'9:23 AM - 21 Nov 2017'
p776
tp777
a(S'Yes and very similar to how it was idiotic to promote Russian collusion fairytales when they was very real scandals involved with Uranium One, Democrats and Russia'
p778
S'9:22 AM - 21 Nov 2017'
p779
tp780
a(S'America let\xe2\x80\x99s not be distracted from the truth regarding Russia involvement and collusion by the Republicans and the Trump\xe2\x80\x99s campaign people! We must not allow this administration to destroy our democracy and way of life as we have grown to know it...IMPEACH TRUMP!!'
p781
S'9:17 AM - 21 Nov 2017'
p782
tp783
a(S"Stick with the Trump Russia collusion story.  I'm sure you will get what you're hoping for "
p784
S'9:16 AM - 21 Nov 2017'
p785
tp786
a(S'(UPDATED) The Case For Trump\xe2\x80\x99s Russia Collusion Is Made; We\xe2\x80\x99re Just Filling In The Details https://goo.gl/gPYeEM\xc2\xa0'
p787
S'9:16 AM - 21 Nov 2017'
p788
tp789
a(S'It is just so gratifying seeing what I knew would happen, the vindication of Judge Roy Moore, just like what happened to #PresidentTrump & the whole faux Trump/Russia collusion hoax! https://twitter.com/Sissy_USMC/status/933017869968912385\xc2\xa0\xe2\x80\xa6'
p790
S'9:15 AM - 21 Nov 2017'
p791
tp792
a(S'Evidence indicates that sources say the investigation into President Donald Trump suggests that alleged collusion with Russia may possibly have happened according to this report. http://ift.tt/2jdXO7U\xc2\xa0'
p793
S'9:15 AM - 21 Nov 2017'
p794
tp795
a(S"Trying to make sense of the #Trump #Russia scandal? Who isn't? @lukeharding1968 sat down with us to demystify the context and conflicts that his new book, #COLLUSION, investigates. http://ow.ly/pLcr30gIUTV\xc2\xa0"
p796
S'9:15 AM - 21 Nov 2017'
p797
tp798
a(S'#RUSSIA #COLLUSION #COVERUPhttps://twitter.com/SethAbramson/status/933019235810410496\xc2\xa0\xe2\x80\xa6'
p799
S'9:15 AM - 21 Nov 2017'
p800
tp801
a(S'Amazing the conspiracy passionistas of the right, who imagine nefarious Hillary back-channel links everywhere, still turn a deliberate blind eye towards fully documented evidence of blatant Russia|Trump collusion. MSNBC lays it out plainly. https://twitter.com/InvestigateRU/status/932993820735823872\xc2\xa0\xe2\x80\xa6'
p802
S'9:15 AM - 21 Nov 2017'
p803
tp804
a(S'Clinton moved on? That\xe2\x80\x99s a side slapper. Dems moved on? Hardly. They keep picking at nothing burgers hoping to find Trump collusion with Russia. So, if you\xe2\x80\x99re being fair don\xe2\x80\x99t say everyone else has moved on.'
p805
S'9:13 AM - 21 Nov 2017'
p806
tp807
a(S'Meanwhile FoxNews still breaking new bombshell evidence of collusion btw Clinton Foundation and Russia and the Uranium deal'
p808
S'9:11 AM - 21 Nov 2017'
p809
tp810
a(S'Are you saying that MSM are not reporting enough the fake Trump-Russia collusion? \n'
p811
S'9:08 AM - 21 Nov 2017'
p812
tp813
a(S'When Democrats started their sexual harassment smear campaigns just like Russia collusion it\xe2\x80\x99s boomeranging back. Pots calling the kettles black #UnsealtheDeals #RoyMoore'
p814
S'9:07 AM - 21 Nov 2017'
p815
tp816
a(S'Has Mueller Abandoned The Trump/Russia Collusion Investigation? https://www.investors.com/politics/editorials/trump-russia-dossier-robert-mueller-investigation/\xc2\xa0\xe2\x80\xa6 via @IBDeditorials'
p817
S'9:06 AM - 21 Nov 2017'
p818
tp819
a(S'I believe that. So, what about Roy Moore & trump. What about Russia. What about collusion. What about tax cuts 4 rich. See, not distracted https://twitter.com/barbn1943/status/932998233198092288\xc2\xa0\xe2\x80\xa6'
p820
S'9:05 AM - 21 Nov 2017'
p821
tp822
a(S"Remember collusion/ Russia? N hell,  you're so uninformed you don't even know who colluded.  Only one side is under investigation and had had people arrested and it wasn't the dems.  Get educated."
p823
S'9:05 AM - 21 Nov 2017'
p824
tp825
a(S'Get rid of this guy! All he\xe2\x80\x99s doing is looking in all the wrong places (to stir up trouble) because there is No!Donald Trump Russia Collusion! https://twitter.com/kamvtv/status/932776111393476608\xc2\xa0\xe2\x80\xa6'
p826
S'9:04 AM - 21 Nov 2017'
p827
tp828
a(S'How ironic that the Russia collusion has actually been with Obama Admin all along!\n\nJournalist Sara Carter Slams DOJ Attempt To Discredit FBI Informant And Stonewall Uranium One Investigation | Zero Hedge http://www.zerohedge.com/news/2017-11-21/journalist-sara-carter-slams-doj-attempt-discredit-fbi-informant-and-stonewall-urani\xc2\xa0\xe2\x80\xa6'
p829
S'9:01 AM - 21 Nov 2017'
p830
tp831
a(S'via @afbranco Nothing is off limits to Mueller in the Russia collusion investigation, not even a pardoned turkey. http://fb.me/2nkwANsEg\xc2\xa0'
p832
S'9:00 AM - 21 Nov 2017'
p833
tp834
a(S'The deep state is considering a cyber false flag to blame on Russia to salvage the anti-Trump \xe2\x80\x9cRussian collusion\xe2\x80\x9d narrative,'
p835
S'9:00 AM - 21 Nov 2017'
p836
tp837
a.