(lp0
(S'Listen, there is no COLLUSION between #POTUS & Putin/Russia!'
p1
S'4:58 PM - 7 Oct 2017'
p2
tp3
a(S'Deport treasonous Trumpers, NO TO  collusion with RUSSIA'
p4
S'4:54 PM - 7 Oct 2017'
p5
tp6
a(S'@POTUS should fire him.  All the focus is on Russia collusion and nothing found so far.  We all know what Hillary did and it gets ignored.'
p7
S'4:43 PM - 7 Oct 2017'
p8
tp9
a(S'If DJT and his campaign are guilty of collusion with Russia in undermining our democratic process, DJT surely will be removed by impeachment'
p10
S'4:41 PM - 7 Oct 2017'
p11
tp12
a(S'BWAHAHAAAA. .9 mos. Investigating the HUGE Russia collusion and not a shred of evidence!  Fake news! Keep pipe dreaming.'
p13
S'4:26 PM - 7 Oct 2017'
p14
tp15
a(S"Investigate Hillary's Uranium One Collusion with Russia http://dlvr.it/PVk07j\xc2\xa0 http://ow.ly/PHx1N\xc2\xa0 #MAGA #PJNETpic.twitter.com/Jt0UhgxP4F"
p16
S'4:26 PM - 7 Oct 2017'
p17
tp18
a(S"Gregg Jarrett: The Trump-Russia 'collusion' and other great hoaxes http://fxn.ws/2xniLSJ\xc2\xa0 #FoxNews"
p19
S'4:25 PM - 7 Oct 2017'
p20
tp21
a(S'You clearly want a nuclear war so you can play president & divert attention from collusion with Russia. Desperation showing'
p22
S'4:25 PM - 7 Oct 2017'
p23
tp24
a(S"You can't negotiate. You can't push through your crappy agenda. And you can't distract from your treasonous collusion with Russia. Failure."
p25
S'4:21 PM - 7 Oct 2017'
p26
tp27
a(S'1: Obstruction of Justice,being investigated by the Feds.2: Collusion with Russia 3: Money laundering  4: Violations of emalumants  clause.'
p28
S'4:16 PM - 7 Oct 2017'
p29
tp30
a(S'I read just fine. But, if you continue to resist even after collusion of Russia is disproved your resist movement is based on a lie.'
p31
S'4:12 PM - 7 Oct 2017'
p32
tp33
a(S"How @ trump Russia collusion? Careful what u post. Don't want 2 catch #Mueller 'a attention.https://twitter.com/seanspicer/status/916391810276184064\xc2\xa0\xe2\x80\xa6"
p34
S'4:10 PM - 7 Oct 2017'
p35
tp36
a(S'Burr already stated in the press briefing that there is ABSOLUTELY NO EVIDENCE OF COLLUSION BETWEEN RUSSIA AND TRUMP CAMPAIGN.'
p37
S'4:09 PM - 7 Oct 2017'
p38
tp39
a(S"EXACTLY!Nixon tried it Post VietNam war,but did work for him,&wont work for Trumpster either;He is GUILTY as hell for collusion with Russia&for doing MASS business with an enemy of the state;Dems/Indies should seize on rift between GOP&Bannon's Insurgency;Trump doesnt care Rslose https://twitter.com/fraowe/status/916800166216241158\xc2\xa0\xe2\x80\xa6"
p40
S'4:08 PM - 7 Oct 2017'
p41
tp42
a(S'Trump \xe2\x80\x9cDossier\xe2\x80\x9d & Russia Collusion Investigation | National Review http://www.nationalreview.com/article/452427/trump-dossier-russia-collusion-investigation?utm_source=PANTHEON_STRIPPED&utm_medium=PANTHEON_STRIPPED?utm_source=PANTHEON_STRIPPED&utm_medium=PANTHEON_STRIPPED\xc2\xa0\xe2\x80\xa6'
p43
S'4:04 PM - 7 Oct 2017'
p44
tp45
a(S"Russia is great. Y don't u ask the clintons?  Russian collusion investigation for almost a year now. LMFAO. Loser libtards have nothing"
p46
S'4:02 PM - 7 Oct 2017'
p47
tp48
a(S'How is he making #MAGA? Collusion with Russia? Throwing paper towels at Puerto Ricans after failing them? Bragging about grabbing pussy? https://twitter.com/spec3939/status/916699731497312262\xc2\xa0\xe2\x80\xa6'
p49
S'3:55 PM - 7 Oct 2017'
p50
tp51
a(S'Fox news is being investigated, rightly so, for anti-American collusion with Russia. This station is a tool to destroy democracy with lies.'
p52
S'3:52 PM - 7 Oct 2017'
p53
tp54
a(S"Opinion: Gregg Jarrett: The Trump-Russia 'collusion' and other great hoaxes - Fox News https://apple.news/AMHmMVqVpR6aa7Kazi-IAbQ\xc2\xa0\xe2\x80\xa6"
p55
S'4:05 PM - 7 Oct 2017'
p56
tp57
a(S'Just deactivated my Facebook and they wanted a reason why .... I told them that it was because of their collusion with Russia'
p58
S'3:51 PM - 7 Oct 2017'
p59
tp60
a(S'The Russia Collusion You Should Care About http://fb.me/1BjoPhCXb\xc2\xa0'
p61
S'3:51 PM - 7 Oct 2017'
p62
tp63
a(S"On Muller's Russia collusion investigation.... But you are a Neanderthal, you can't understand progress that makes Americans lives better https://twitter.com/realDonaldTrump/status/916780428253687808\xc2\xa0\xe2\x80\xa6"
p64
S'3:50 PM - 7 Oct 2017'
p65
tp66
a(S"Going back to tapes because Russia collusion isn't catching any fire? You're a #NeverTrump cc @realDonaldTrump"
p67
S'3:49 PM - 7 Oct 2017'
p68
tp69
a(S"Speier: No 'Specific Evidence' of Collusion Between Trump and Russia https://youtu.be/614sXvpnn0c\xc2\xa0 via @YouTube"
p70
S'3:48 PM - 7 Oct 2017'
p71
tp72
a(S"What has this to do w investigation into obstruction, & collusion w Russia to undermine America's democracy?\nDon't you care about the truth?"
p73
S'3:45 PM - 7 Oct 2017'
p74
tp75
a(S"Trump would start nuclear war just to keep more evidence of Russia/collusion becoming public; the pee tapes alone ... he's insane."
p76
S'3:44 PM - 7 Oct 2017'
p77
tp78
a(S'That\xe2\x80\x99s true Mr Robert Mueller is making great progress in his investigation concerning your collusion with Russia crossing t\xe2\x80\x99s dotting i\xe2\x80\x99s pic.twitter.com/90WSqdRRtL'
p79
S'3:42 PM - 7 Oct 2017'
p80
tp81
a(S"So guy who was US Ambassador to Russia when they planned 'imaginary collusion' has advice, and the @washingtonpost printed it. #ShockedFace"
p82
S'3:42 PM - 7 Oct 2017'
p83
tp84
a(S'Collusion with Russia too.'
p85
S'3:41 PM - 7 Oct 2017'
p86
tp87
a(S'Guilty of obstruction, beneficiary of collusion with Russia, at the very least. https://nyti.ms/2y2VGXo\xc2\xa0'
p88
S'3:38 PM - 7 Oct 2017'
p89
tp90
a(S"@msnbc I don't trust Richard Burr,Republican Senate Intel Chair. I don't believe he wants evidence of Trump's collusion with Russia revealed"
p91
S'3:37 PM - 7 Oct 2017'
p92
tp93
a(S'Your Trump Russia collusion isnt going to go anywhere!  Sorry buddy'
p94
S'3:37 PM - 7 Oct 2017'
p95
tp96
a(S"I suspect investigation is ruse to ignore civil rights of individuals! Don't believe ANY collusion between Trump campaign and Russia."
p97
S'3:36 PM - 7 Oct 2017'
p98
tp99
a(S"a number of what exactly? The CIA knew about WMD in Iraq but can't find collusion between Trump and Russia in 11 months "
p100
S'3:34 PM - 7 Oct 2017'
p101
tp102
a(S'Well worth your time.   Trump \xe2\x80\x9cDossier\xe2\x80\x9d & Russia Collusion Investigation | National Review http://www.nationalreview.com/article/452427/trump-dossier-russia-collusion-investigation?utm_source=PANTHEON_STRIPPED&utm_medium=PANTHEON_STRIPPED?utm_source=PANTHEON_STRIPPED&utm_medium=PANTHEON_STRIPPED\xc2\xa0\xe2\x80\xa6'
p103
S'3:31 PM - 7 Oct 2017'
p104
tp105
a(S'Must be why the investigative team reported so far they have ZERO collusion between Trump n Russia, looks like you have to find new fantasy'
p106
S'3:30 PM - 7 Oct 2017'
p107
tp108
a(S"Been over a year the Russia collusion theory is dead. Even Mueller's team came out & said recently Russia did not impact election by votes"
p109
S'3:28 PM - 7 Oct 2017'
p110
tp111
a(S'He was elected BY THE PEOPLE. Even after voter fraud by DNC, Hillary claiming false Russia Collusion (Seth Rich was leaker)help by Obama etc'
p112
S'3:27 PM - 7 Oct 2017'
p113
tp114
a(S'Peters is a nut job and believes the Russia collusion bs'
p115
S'3:23 PM - 7 Oct 2017'
p116
tp117
a(S'Because they\xe2\x80\x99re busy investigating your Russia Collusion and corrupt Cabinet.'
p118
S'3:21 PM - 7 Oct 2017'
p119
tp120
a(S"How can one not question the FBI's competence in light of Comey, Benghazi, HRC and alleged Russia collusion? I have zero confidence. https://twitter.com/SpecialKMB1969/status/916678560844337154\xc2\xa0\xe2\x80\xa6"
p121
S'3:21 PM - 7 Oct 2017'
p122
tp123
a(S'Now, back to your collusion with Russia.'
p124
S'3:21 PM - 7 Oct 2017'
p125
tp126
a(S"Let's see...FBI declares no ISIS link within 72 hours!! But still looking for Russia collusion!! Ok, we're screwed. Doesn't add up!!"
p127
S'3:18 PM - 7 Oct 2017'
p128
tp129
a(S"Investigate Hillary's Uranium One Collusion with Russia http://dlvr.it/PVk07j\xc2\xa0 http://ow.ly/PHx1N\xc2\xa0 #MAGA #PJNETpic.twitter.com/JQwACi8X4O"
p130
S'3:15 PM - 7 Oct 2017'
p131
tp132
a(S'#TrumpTrain we need signatures 2 END the Russia/Trump collusion investigation.\nPlease sign & RT!\n#MAGA\n#AmericaFirst\nhttps://petitions.whitehouse.gov/petition/shut-down-mueller-witch-hunt-president-trump-and-his-associates-it-unconstitutional-and-unsupervised\xc2\xa0\xe2\x80\xa6'
p133
S'3:14 PM - 7 Oct 2017'
p134
tp135
a(S'It was a great interview. Wikileaks release was held in abeyance for when they needed-access hollywood/russia. collusion.'
p136
S'3:14 PM - 7 Oct 2017'
p137
tp138
a(S'Just heard on mews that intel says trump russia collusion claim remains open. Must be fake news too eh Tony?'
p139
S'3:14 PM - 7 Oct 2017'
p140
tp141
a(S'The Russia collusion you should care about is not on Facebook https://www.bloomberg.com/view/articles/2017-10-06/the-russia-collusion-you-should-care-about\xc2\xa0\xe2\x80\xa6 via @bv'
p142
S'3:13 PM - 7 Oct 2017'
p143
tp144
a(S'@smerconish russia has been meddling for years. punish russia. pls stop ur obsession w/ russia collusion (not even a crime)-fake news. nothing there. or it would have been leaked already. let mueller do his job, n pls be fair n report real news. election over. get over it. pls'
p145
S'3:12 PM - 7 Oct 2017'
p146
tp147
a(S'Looks like big progress made in Russia collusion investigation! #ImpeachTrump'
p148
S'3:10 PM - 7 Oct 2017'
p149
tp150
a(S'YES! BIG PROGRESS ON TRUMP-RUSSIA COLLUSION FRONT! \n\n#ItsMuellerTime\n#TheColluderInChief\n#CryBabyDon\n#DonTheCon\n#DonTheConMan\n#Impeach'
p151
S'3:07 PM - 7 Oct 2017'
p152
tp153
a(S"Senate panel chief calls Russia-Trump campaign collusion an 'open' issue http://ref.gl/\xc2\xa0"
p154
S'3:04 PM - 7 Oct 2017'
p155
tp156
a(S'Senator Richard Burr said Wednesday CNN, Brian Stelter _ MSNBC, etc have been lying or using lying sources on the Russia/ Collusion story.'
p157
S'2:57 PM - 7 Oct 2017'
p158
tp159
a(S'Yes Trump a "TEXTBOOK RACIST" and most Dangerous Person on the Planet! He needs WARS to make Russia Collusion go away. No one to stop him!'
p160
S'2:56 PM - 7 Oct 2017'
p161
tp162
a(S'Senator Burr said Wednesday on CNN that Liberal media got the Russia collusion story wrong & the final report will call them out on it.'
p163
S'2:52 PM - 7 Oct 2017'
p164
tp165
a(S'Oh of course: Russia. Even though after a year they still have 0 evidence of collusion. Not even a hint of it. Keep hanging on to that. pic.twitter.com/9WYBXYQgyQ'
p166
S'2:52 PM - 7 Oct 2017'
p167
tp168
a(S"They've already been exposed for their corruption in the Russia collusion investigation.  Scum of the highest order in cahoots w/deep state."
p169
S'2:44 PM - 7 Oct 2017'
p170
tp171
a(S'How about the $Millions she stole from Haitian Relief Fund? Or the $145 Million she got for trading 20% of US uranium to Russia?!Collusion! https://twitter.com/cernovich/status/916779888786280448\xc2\xa0\xe2\x80\xa6'
p172
S'2:43 PM - 7 Oct 2017'
p173
tp174
a(S'No Russia collusion, so a partisan witch hunt, searching for a crime to investigate by a bunch of Clinton donor attorneys! Fire Mueller now!'
p175
S'2:39 PM - 7 Oct 2017'
p176
tp177
a(S'The Russia Collusion You Should Care About https://www.bloomberg.com/view/articles/2017-10-06/the-russia-collusion-you-should-care-about\xc2\xa0\xe2\x80\xa6'
p178
S'2:38 PM - 7 Oct 2017'
p179
tp180
a(S'Trump \xe2\x80\x9cDossier\xe2\x80\x9d & Russia Collusion Investigation | National Review http://www.nationalreview.com/article/452427/trump-dossier-russia-collusion-investigation?utm_source=PANTHEON_STRIPPED&utm_medium=PANTHEON_STRIPPED?utm_source=PANTHEON_STRIPPED&utm_medium=PANTHEON_STRIPPED\xc2\xa0\xe2\x80\xa6'
p181
S'2:37 PM - 7 Oct 2017'
p182
tp183
a(S"200 tweets gathered together: @SethAbramson's Trump Tower Moscow theory. #RUSSIA #COLLUSION #COVERUPhttps://twitter.com/SethAbramson/status/916737060970647552\xc2\xa0\xe2\x80\xa6"
p184
S'2:37 PM - 7 Oct 2017'
p185
tp186
a(S'Senate Russia Probe Expanded, Looking Into Possible Collusion http://podcasts.c-spanvideo.org/trimmed/program/048/488218/program.488218.MP3-STD.mp3\xc2\xa0\xe2\x80\xa6 #podcasts #feedly'
p187
S'2:33 PM - 7 Oct 2017'
p188
tp189
a(S"FBI won't allow Las Vegas to distract from Trump's Russia collusion investigation. https://twitter.com/tabertronic/status/916718763462053890\xc2\xa0\xe2\x80\xa6"
p190
S'2:31 PM - 7 Oct 2017'
p191
tp192
a(S"The Trump-Russia 'Collusion' and Other Great Hoaxes\nBy Gregg Jarrett http://fb.me/3XB3YM7OQ\xc2\xa0"
p193
S'2:25 PM - 7 Oct 2017'
p194
tp195
a(S'Y is this Russian nonissue still out there? At least tell ppl DJT/Russia collusion never happened & that Putin tried 2 disrupt process'
p196
S'2:21 PM - 7 Oct 2017'
p197
tp198
a(S'That made me laugh out loud. All I can say is Russia, Mueller, Russia, Collusion, Golden Showers, Russia!'
p199
S'2:19 PM - 7 Oct 2017'
p200
tp201
a(S'To be clear: RNC nominated an admitted sexual assaulter and now pays his legal bills to fight allegations of collusion with Russia. https://twitter.com/gopchairwoman/status/916422817142460417\xc2\xa0\xe2\x80\xa6'
p202
S'2:17 PM - 7 Oct 2017'
p203
tp204
a(S'Your FEARMONGERING will NEVER DIVERT us fr investigating yr TREASONOUS COLLUSION with RUSSIA.\nYOU & CORRUPT FAMILY belong IN JAIL. IMPEACH!'
p205
S'2:15 PM - 7 Oct 2017'
p206
tp207
a(S'Don\xe2\x80\x99t you have your own troubles to worry about? #BobMueller #Investigation #Perjury #Collusion #Russia #TrumpGatehttps://twitter.com/donaldjtrumpjr/status/916639351425126400\xc2\xa0\xe2\x80\xa6'
p208
S'2:11 PM - 7 Oct 2017'
p209
tp210
a(S"Investigate Hillary's Uranium One Collusion with Russia http://dlvr.it/PVk07j\xc2\xa0 http://ow.ly/PHx1N\xc2\xa0 #MAGA #PJNETpic.twitter.com/7HU3A5VnkZ"
p211
S'2:09 PM - 7 Oct 2017'
p212
tp213
a(S"I like the idea Mr. VP but we can't get out of the atmosphere without the Russians. Opps is that collusion with Russia?"
p214
S'2:05 PM - 7 Oct 2017'
p215
tp216
a(S'What exactly was mueller hired to do? Find trump/Russia collusion or find any Russian interference with our elections.Can we read his orders https://twitter.com/patriotpowermom/status/916712464334561280\xc2\xa0\xe2\x80\xa6'
p217
S'2:05 PM - 7 Oct 2017'
p218
tp219
a(S'Yes but worth it if it distracts us from his treasonous collusion with Russia, right?'
p220
S'2:04 PM - 7 Oct 2017'
p221
tp222
a(S"To destroy the world in a nuclear war because you're too much of a coward to admit collusion with Russia? #MoronInChief"
p223
S'2:03 PM - 7 Oct 2017'
p224
tp225
a(S'Week in Trump\nMORE NEWS ON:\n-charter jet scandals\n-Trump-Russia collusion\n-Kushner-Ivanka private email\n-Trump conflicts of interest'
p226
S'2:00 PM - 7 Oct 2017'
p227
tp228
a(S'Because nothing is funnier than death & mass destruction. Gotta luv that @GOP #Russia #Collusion #Obstruction #ImpeachTrumpPenceNow'
p229
S'1:59 PM - 7 Oct 2017'
p230
tp231
a(S'Well, he\'s mentally unstable and unfit for office; would rather have nuclear war than be exposed as "Putin\'s Bitch" Russia/collusion'
p232
S'1:56 PM - 7 Oct 2017'
p233
tp234
a(S"@realDonaldTrump Save your breath Trump, you're going down. They have already verified most of the Dossier, & collusion w Russia. Too late"
p235
S'1:54 PM - 7 Oct 2017'
p236
tp237
a(S'Yo Republicans , that the huge Russia collusion boil on his ass is about to pop & you will drown in the pustulence if you keep kissing it '
p238
S'1:54 PM - 7 Oct 2017'
p239
tp240
a(S'The President should be in jail, sexual assault...grabbing P_$$\xc2\xa5, NEVER paying taxes, fraud-failing biz & Russia collusion'
p241
S'1:53 PM - 7 Oct 2017'
p242
tp243
a(S'NASA is teaming up with Russia to put a new space station near the moon**YOU BELIEVE THE LIES WE ARE TOLD ABOUT RUSSIA COLLUSION? TRY NASA, https://twitter.com/RepMaxineWaters/status/842392085168824320\xc2\xa0\xe2\x80\xa6'
p244
S'1:52 PM - 7 Oct 2017'
p245
tp246
a(S'More collusion with FSu and the Refs than Trump and Russia! #MIAvsFSU'
p247
S'1:52 PM - 7 Oct 2017'
p248
tp249
a(S'What happened to Trump/Russia collusion stories? Have they run out of made-up stories leaked by unnamed sources? No imagination on the Left.'
p250
S'1:51 PM - 7 Oct 2017'
p251
tp252
a(S'After 45 yrs FBI closes a "REAL" unsolved DB Cooper case. I wonder if they\'ll waste another 45 years on "FAKE" Trump/Russia Collusion case?'
p253
S'1:48 PM - 7 Oct 2017'
p254
tp255
a(S'America needs to know every Detail of the collusion between Russia and #OrangeHitler if we are to prevent corruption in future electionshttps://twitter.com/tribelaw/status/916495496549687297\xc2\xa0\xe2\x80\xa6'
p256
S'1:45 PM - 7 Oct 2017'
p257
tp258
a(S'NYT and its journalists should focus on the larger picture which is trumps Russia collusion/conspiracy and his constant threats to world'
p259
S'1:44 PM - 7 Oct 2017'
p260
tp261
a(S"Bargaining w. China, AND Trump doesn't have a clue! \nBut that wouldn't distract anyone from his collusion with Russia...."
p262
S'1:38 PM - 7 Oct 2017'
p263
tp264
a(S'12 hours FBI determined #LasVegasShooter was not affiliated with ISIS. Over a year wasting money on DJT collusion with Russia. No evidence.'
p265
S'1:37 PM - 7 Oct 2017'
p266
tp267
a(S"removing comey wasn't ab obstruction of justice - it was removing someone who wasnt doing his job - no collusion w russia found"
p268
S'1:34 PM - 7 Oct 2017'
p269
tp270
a(S'White House: Senate found \xe2\x80\x98zero\xe2\x80\x99 evidence of Trump-Russia collusion, time to do \xe2\x80\x98other things\xe2\x80\x99 \xe2\x80\x93 VIDEO https://prophecyinthenews.com/world_news/white-house-senate-found-zero-evidence-of-trump-russia-collusion-time-to-do-other-things-video/\xc2\xa0\xe2\x80\xa6'
p271
S'1:32 PM - 7 Oct 2017'
p272
tp273
a(S'But #Trump said there was no collusion with our enemies, not dealings with Russia, the best people'
p274
S'1:31 PM - 7 Oct 2017'
p275
tp276
a(S'Obstruction of justice, collusion w Russia, sabotaging ACA, removing contraceptive coverage, removal of LGBT protections, off top of head.'
p277
S'1:29 PM - 7 Oct 2017'
p278
tp279
a(S'Lou Dobbs Tonight 10/06/17 Fox Business October 6, 2017 MUELLER LEAKS, RUSSIA COLLUSION, TILLERSON http://fb.me/1igUgepJE\xc2\xa0'
p280
S'1:28 PM - 7 Oct 2017'
p281
tp282
a(S'.@POTUS is a Sexual Predator so why don\xe2\x80\x99t you Shut Up & think of more lies to tell to Cover up Russia Trump ties & your Collusion. https://twitter.com/donaldjtrumpjr/status/916639351425126400\xc2\xa0\xe2\x80\xa6'
p283
S'1:27 PM - 7 Oct 2017'
p284
tp285
a(S'You realize the future has a special counsel investigating a Russia collusion?'
p286
S'1:22 PM - 7 Oct 2017'
p287
tp288
a(S'Like your collusion w/ Russia to get elected, except the N. Korea bullshit your pinning on past admin. Is false. #TrumpRussia #TrumpIsAMoron'
p289
S'1:22 PM - 7 Oct 2017'
p290
tp291
a(S"I'm amazed police investigators determine not related to terrorism within hrs but FBI still investigating Trump-Russia collusion almost a yr"
p292
S'1:20 PM - 7 Oct 2017'
p293
tp294
a(S'frankly, found this article very weak, The Russia collusion you should care about is not on Facebook https://www.bloomberg.com/view/articles/2017-10-06/the-russia-collusion-you-should-care-about\xc2\xa0\xe2\x80\xa6 via @bv'
p295
S'1:18 PM - 7 Oct 2017'
p296
tp297
a(S"It's funny how you create your own little fake news stories even know there has been zero evidence of any Russia collusion. Sad"
p298
S'1:16 PM - 7 Oct 2017'
p299
tp300
a(S"How is the Russia's collusion with the elections taking you?"
p301
S'1:16 PM - 7 Oct 2017'
p302
tp303
a(S'Late night hosts and the world MOCKS you because your are INSANE and immoral! Russia collusion will be proved soon and u will be impeached!'
p304
S'1:03 PM - 7 Oct 2017'
p305
tp306
a(S'While Looking For Collusion #Russia And @realDonaldTrump Interfering With Our Democracy \nIgnore Hillary Obama Soros Collusion And #Islamist'
p307
S'1:02 PM - 7 Oct 2017'
p308
tp309
a(S"Gregg Jarrett: The Trump-Russia 'collusion' and other great hoaxes http://fxn.ws/2xniLSJ\xc2\xa0 #FoxNews"
p310
S'12:58 PM - 7 Oct 2017'
p311
tp312
a(S"I know what it is & it's not what I'm doing. You're the one claiming FACTS that are opinion, like you're SO sure of Trump/Russia collusion."
p313
S'12:46 PM - 7 Oct 2017'
p314
tp315
a(S'and what are you donating to your victims?  Start with the American people and your collusion with Russia!  Corrupt Thief'
p316
S'12:42 PM - 7 Oct 2017'
p317
tp318
a(S'Facebook has become a corrupt platform. Used by Trump and Russia in collusion. And all the time it was known to zuckerberg.'
p319
S'12:40 PM - 7 Oct 2017'
p320
tp321
a(S'Seems like this Russia/Trump collusion is just a means to keep Trump from draining the criminal swamp Sessions/Rosenstein are deep in it too'
p322
S'12:35 PM - 7 Oct 2017'
p323
tp324
a(S'.@realDonaldTrump\n#Treason\n#Russia\n#Usery\n#MoneyLaundering\n#Panderer\n#Collusion\n#Obstruction\n#Nepotism\n#Mueller\n#A$$hole\n#Numbskull'
p325
S'12:34 PM - 7 Oct 2017'
p326
tp327
a(S'Because you\xe2\x80\x99re the equivalent of a snake-oil salesman. What we hear: I did not have #Collusion with that #Russia #SelfDealing'
p328
S'12:32 PM - 7 Oct 2017'
p329
tp330
a(S'50+ years of Chicago segregation = no evidence of change\n__ years of Russia redbaiting = no evidence of collusion\n\nFill in the blank for me'
p331
S'12:30 PM - 7 Oct 2017'
p332
tp333
a(S'Really?! Russia?! After 10 months of the Senate Intelligence Hearings, NOTHING! NO evidence of any Trump/Russian collusion! Hate=Ignorance!'
p334
S'12:30 PM - 7 Oct 2017'
p335
tp336
a(S'Wow you are a sad uninformed person. But I guess it\xe2\x80\x99s similar to my belief that trump was helped by russia and he was involved in collusion'
p337
S'12:26 PM - 7 Oct 2017'
p338
tp339
a(S"What's in the Trump-Russia Dossier? Damning evidence of corruption, collusion and treason! https://www.yahoo.com/news/apos-trump-russia-dossier-120002477.html?.tsrc=fauxdal\xc2\xa0\xe2\x80\xa6"
p340
S'12:24 PM - 7 Oct 2017'
p341
tp342
a(S'What new facts about President Trump have there been on Russia collusion?'
p343
S'12:22 PM - 7 Oct 2017'
p344
tp345
a(S'America has way more white supremacists than was previously known and they all voted for orange buffoon!  Then there was Russia collusion. pic.twitter.com/I9ZcrwaDos'
p346
S'12:20 PM - 7 Oct 2017'
p347
tp348
a(S'All laid bare: Trump/Russia collusion started in 2013, continued for years https://www.dailykos.com/story/2017/9/1/1695427/-All-laid-bare-Trump-Russia-collusion-started-in-2013-continued-for-years\xc2\xa0\xe2\x80\xa6'
p349
S'12:20 PM - 7 Oct 2017'
p350
tp351
a(S'Kinda looks like it to me but enlighten me Mr. Muh Trump-Russia Collusion'
p352
S'12:19 PM - 7 Oct 2017'
p353
tp354
a(S'Wait Hillary gave a speech to a former ambassador to Russia?! COLLUSION!!!!!'
p355
S'12:14 PM - 7 Oct 2017'
p356
tp357
a(S'Yeah, remember all of those breathless Russia Collusion stories?  And they wonder why they get called "Fake News"! http://www.foxnews.com/opinion/2017/10/06/gregg-jarrett-trump-russia-collusion-and-other-great-hoaxes.html\xc2\xa0\xe2\x80\xa6'
p358
S'12:14 PM - 7 Oct 2017'
p359
tp360
a(S"Story of collusion w/ Russia and Trump was fabricated by Cryin' Chuck Schumer as an excuse for killing jobs!"
p361
S'12:11 PM - 7 Oct 2017'
p362
tp363
a(S'Course he doesn\xe2\x80\x99t. Nor, does he have any shame for his collusion with Russia or his illegal money laundering on behalf of Russian oligarchs'
p364
S'12:05 PM - 7 Oct 2017'
p365
tp366
a(S'Everything is leaked...everything!  \nIf there was collusion by Trump campaign it would have been leaked!!! Russia been doing this for 50yrs'
p367
S'12:05 PM - 7 Oct 2017'
p368
tp369
a(S'Why don\xe2\x80\x99t the FBI do there job with Clintons. Russia collusion with the Uranium Deal. 145 million Collusion deal for 20% of American Uranium'
p370
S'12:02 PM - 7 Oct 2017'
p371
tp372
a(S'There is no collusion or meddling from Russia.  Leave Trump alone or their will be civil war.'
p373
S'11:56 AM - 7 Oct 2017'
p374
tp375
a(S'GOP wants control of the masses of stupid, mindless people.....pawns. How do we stop this? Trump/GOP/Russia collusion. We vote against GOP https://twitter.com/sensanders/status/916351515555590145\xc2\xa0\xe2\x80\xa6'
p376
S'11:49 AM - 7 Oct 2017'
p377
tp378
a(S"There'll be a collusion BTW Nigeria & Russia through footballing activities  just to win the Fifa World Cup. #Russia2018 @NGSuperEagles!"
p379
S'11:48 AM - 7 Oct 2017'
p380
tp381
a(S"...it is easy 2 see that Trump association w/Russia is easily believed, if not we'll documented. Treasonous collusion aside, the $$ leaving"
p382
S'11:43 AM - 7 Oct 2017'
p383
tp384
a(S"Believed or not they're investigating Trump's collusion with Russia. Oblivious that we're loosing our country to foreign powers. GET SOROS."
p385
S'11:40 AM - 7 Oct 2017'
p386
tp387
a(S'@realDonaldTrump hey Sasse, why u been so quiet on Russia collusion? U pushed that crap for months but i guess that was a scam too'
p388
S'11:39 AM - 7 Oct 2017'
p389
tp390
a(S'Evidence is growing -The @Republican @POTUS conspired with @VladimiPutin #Russia to #RigTheElection #Collusion #RussiaGate #Impeach #Sick'
p391
S'11:36 AM - 7 Oct 2017'
p392
tp393
a(S'Soon I hope.... he will be imprisoned. Trump/Russia collusion impeach trump https://twitter.com/sarahtrumpmoron/status/916710744011370496\xc2\xa0\xe2\x80\xa6'
p394
S'11:33 AM - 7 Oct 2017'
p395
tp396
a(S'Guilt by association is the same argument the left makes for their Russia collusion delusion.\nNot surprising though, Jack is p much a RWSJW'
p397
S'11:32 AM - 7 Oct 2017'
p398
tp399
a(S"I've been telling people for months that the Democrats would regret the Russia collusion investigation even before the Special Counsel."
p400
S'11:22 AM - 7 Oct 2017'
p401
tp402
a(S"Gregg Jarrett: The scary Trump-Russia 'collusion' and other great political hoaxes\n http://www.tapwires.com/2017/10/07/gregg-jarrett-the-scary-trump-russia-collusion-and-other-great-political-hoaxes\xc2\xa0\xe2\x80\xa6"
p403
S'11:20 AM - 7 Oct 2017'
p404
tp405
a(S'Trump will make sharp CUTS for the Rich. Corruption Collusion Russia Taxes HealthCare Obstruction of Justice Hacking of the DNC. DACA.'
p406
S'11:18 AM - 7 Oct 2017'
p407
tp408
a(S"I'm just saying the focus of Assange always seems to be anti H, which is fine, but Russia hacked DNC in order to help Trump, intell has said. And they're connecting the dots to ppl in T campaign who met w Russians re possible collusion. T did tell them to hack H on live TV"
p409
S'11:08 AM - 7 Oct 2017'
p410
tp411
a(S'... and possible collusion with Russia within the Trump campaign. https://twitter.com/jerigo1stuart/status/916724347942985729\xc2\xa0\xe2\x80\xa6'
p412
S'11:08 AM - 7 Oct 2017'
p413
tp414
a(S'Trump to this day denies the Information from ALL our Intel Agencies stating that RUSSIA did Attack&Hack our Electoral system! COLLUSION! https://twitter.com/LochnerWalter/status/916725218609106945\xc2\xa0\xe2\x80\xa6'
p415
S'11:08 AM - 7 Oct 2017'
p416
tp417
a(S"No. Another lie. Well, unless it's to confess your collusion with Russia, then yes i want to see you in cuffs led away."
p418
S'11:08 AM - 7 Oct 2017'
p419
tp420
a(S'Not to mention spending those donations on his legal defense because of Russia collusion'
p421
S'11:07 AM - 7 Oct 2017'
p422
tp423
a(S'What about your treasonous relationship w/ RUSSIA?\nRUSSIA COLLUSION \nRUSSIAN LOYALIST\nOBSTRUCTIONIST \nCON MAN pic.twitter.com/5hYeWHvCJr'
p424
S'11:06 AM - 7 Oct 2017'
p425
tp426
a(S'Love to see all this proof on how Russia made any difference in the election much less proof of any collusion. I\xe2\x80\x99ll wait....'
p427
S'11:02 AM - 7 Oct 2017'
p428
tp429
a(S'Nice! Get got Drumpf! He needs to go back to Russia where that Nazi belongs! Haha stupid Drumpf #collusion #putin #gaypride '
p430
S'11:02 AM - 7 Oct 2017'
p431
tp432
a(S'Bobble-Head #Schiff Distortions - Everything Always Spells #TrumpRussia Collusion #WitchHunt #Russia #CCOT #PJNet https://rickwells.us/bobble-head-schiff-trump-russia/\xc2\xa0\xe2\x80\xa6'
p433
S'11:02 AM - 7 Oct 2017'
p434
tp435
a(S'WATCH: Judge Napolitano Nukes Russia-Collusion Narrative With @GatewayPeople & @PsRobertMorris!'
p436
S'11:01 AM - 7 Oct 2017'
p437
tp438
a(S'Yes!! Nigeria is going to Russia!!!!!!!!\n\nThe Democrats will not like this.\n\nNa for world cup o. No collusion here \n#Russia2018'
p439
S'10:56 AM - 7 Oct 2017'
p440
tp441
a(S'I believe Facebook plays a part in the Trump-Russia Collusion to throw the election & as such should be held liable! Boycott FB!!! #RESISThttps://twitter.com/juddlegum/status/916685256136318976\xc2\xa0\xe2\x80\xa6'
p442
S'10:55 AM - 7 Oct 2017'
p443
tp444
a(S'@20committee So my guess is your friends in the IC world would not regard Mollie Hemingway as a reliable source on the Russia collusion story?? Trumpbots keep citing her as if she is some authority on this matter??'
p445
S'10:54 AM - 7 Oct 2017'
p446
tp447
a(S'What\xe2\x80\x99s your point? You\xe2\x80\x99re a conspiracy theorist attempting to distract from the real issue-Trump\xe2\x80\x99s collusion with Russia.  Pathetic, comrade'
p448
S'10:54 AM - 7 Oct 2017'
p449
tp450
a(S"It's depressing to hear you think there may not be criminal charges brought from the Russia/Trump collusion investigation. Where's justice?"
p451
S'10:51 AM - 7 Oct 2017'
p452
tp453
a(S'Hidden Agenda - @RepAdamSchiff - Everything Always Spells Trump Russia Collusion\nhttps://rickwells.us/bobble-head-schiff-trump-russia/\xc2\xa0\xe2\x80\xa6'
p454
S'10:46 AM - 7 Oct 2017'
p455
tp456
a(S'I think they might be too busy looking into your administration\'s collusion with Russia. A "bit" more important.'
p457
S'10:44 AM - 7 Oct 2017'
p458
tp459
a(S'they stand for fake news, collusion with media & Russia, abortion including late birth and identity politics, just no policies 2 help us!'
p460
S'10:42 AM - 7 Oct 2017'
p461
tp462
a(S"The 2016 election was fraudulent in many ways, from @GOP voter suppression and gerrymandering to Trump's collusion w/ Russia. What do we do?"
p463
S'10:41 AM - 7 Oct 2017'
p464
tp465
a(S'Then what\xe2\x80\x99s up with the report that they are still looking for a \xe2\x80\x9chint\xe2\x80\x9d\nOf Trump/Russia collusion?'
p466
S'10:41 AM - 7 Oct 2017'
p467
tp468
a(S'Interesting: Trump \xe2\x80\x9cDossier\xe2\x80\x9d & Russia Collusion Investigation | National Review http://www.nationalreview.com/article/452427/trump-dossier-russia-collusion-investigation?utm_source=PANTHEON_STRIPPED&utm_medium=PANTHEON_STRIPPED?utm_source=PANTHEON_STRIPPED&utm_medium=PANTHEON_STRIPPED\xc2\xa0\xe2\x80\xa6'
p469
S'10:40 AM - 7 Oct 2017'
p470
tp471
a(S'Great to be on with @AlexWitt talking about the latest in the Trump Russia collusion investigation.  http://snpy.tv/2yyguZO\xc2\xa0'
p472
S'10:40 AM - 7 Oct 2017'
p473
tp474
a(S'finally, though rarely cited, Steele Dossier was an act of collusion with Russia in itself'
p475
S'10:36 AM - 7 Oct 2017'
p476
tp477
a(S'It must be hard to hear how you and the whole Trump gang will end up in jail for collusion with Russia and other illegal acts.'
p478
S'10:36 AM - 7 Oct 2017'
p479
tp480
a(S'The Russia Collusion You Should Care About: The West s/be more interested in Russia\'s "deoffshorization" than Putin https://www.bloomberg.com/view/articles/2017-10-06/the-russia-collusion-you-should-care-about\xc2\xa0\xe2\x80\xa6'
p481
S'10:35 AM - 7 Oct 2017'
p482
tp483
a(S'Its growing because SESSIONS allowed it!\nWhite House rips Senate panel over Russia collusion probe https://youtu.be/8uNhQeCavJ8\xc2\xa0 via @YouTube'
p484
S'10:34 AM - 7 Oct 2017'
p485
tp486
a(S'Everyone I know is saying you should be sentenced to equal time in prison when you look at your one-sided collusion with Russia!'
p487
S'10:33 AM - 7 Oct 2017'
p488
tp489
a(S"That's because there are no facts regarding Trump and Russia collusion. Mueller is looking to make something out of nothing to pin on Trump"
p490
S'10:32 AM - 7 Oct 2017'
p491
tp492
a(S'Bobble-Head Schiff Distortions - Everything Always Spells Trump Russia Collusion https://rickwells.us/bobble-head-schiff-trump-russia/\xc2\xa0\xe2\x80\xa6'
p493
S'10:28 AM - 7 Oct 2017'
p494
tp495
a(S'Like Russia collusion? '
p496
S'10:25 AM - 7 Oct 2017'
p497
tp498
a(S'Worst case scenario for Facebook: Congress finds evidence of collusion between Trump campaign and Russia in ad buys https://www.buzzfeed.com/alexkantrowitz/facebooks-nightmare-scenario-is-unfolding-in-washington?bftwnews&utm_term=4ldqpgc#4ldqpgc\xc2\xa0\xe2\x80\xa6'
p499
S'10:24 AM - 7 Oct 2017'
p500
tp501
a(S"Senate Intel Chair: Trump-Russia Collusion Question \xe2\x80\x98Remains Open\xe2\x80\x99 https://www.nbcnews.com/video/senate-intel-chair-russia-trump\xc2\xa0\xe2\x80\xa6 THEIR isn't any the whole country knows it !!"
p502
S'10:23 AM - 7 Oct 2017'
p503
tp504
a(S'Wow!  45 totally incompetent, corrupt; FLOTUS enabled him to cheat; ppl around him disappear; Prez thanks to Russia., prob collusion'
p505
S'10:21 AM - 7 Oct 2017'
p506
tp507
a(S'There is more truth & evidence to support this than your Russia collusion story. LV shooter was wearing pussy hat at anti Trump protest pic.twitter.com/WfI4x9tIhG'
p508
S'10:15 AM - 7 Oct 2017'
p509
tp510
a(S'Even without proof of collusion with Russia, trump is not worthy of the title or the job of being the president of the United States.'
p511
S'10:03 AM - 7 Oct 2017'
p512
tp513
a(S'Krassenstein: "Mueller will find collusion between Russia and Donald J Trump"\nImpeach_D_Trump, DELETE YOUR ACCOUNT!!'
p514
S'9:59 AM - 7 Oct 2017'
p515
tp516
a(S'And yet, we can show several examples of proof of collusion with Russia, just for starters.'
p517
S'9:57 AM - 7 Oct 2017'
p518
tp519
a(S"Chris Matthews: Trump-Russia collusion theory 'came apart' with Comey testimony http://ref.gl/2ioRLO8Y\xc2\xa0"
p520
S'9:56 AM - 7 Oct 2017'
p521
tp522
a(S"Gregg Jarrett: The Trump-Russia 'collusion' and other great hoaxe http://www.foxnews.com/opinion/2017/10/06/gregg-jarrett-trump-russia-collusion-and-other-great-hoaxes.html\xc2\xa0\xe2\x80\xa6"
p523
S'9:54 AM - 7 Oct 2017'
p524
tp525
a(S"#NewTrumpTwitterBio\nIt wasn't Russia who interfered in the election, it was the Obama administration in collusion with a corrupt media."
p526
S'9:53 AM - 7 Oct 2017'
p527
tp528
a(S"Trump \xe2\x80\x9cDossier\xe2\x80\x9d & Russia Collusion Investigation | National Review EVEN Conserves know Trump's in trouble. http://amp.nationalreview.com/article/452427/trump-dossier-russia-collusion-investigation?utm_source=PANTHEON_STRIPPED&utm_medium=PANTHEON_STRIPPED\xc2\xa0\xe2\x80\xa6"
p529
S'9:53 AM - 7 Oct 2017'
p530
tp531
a(S'Yes, we almost lost the country to communist/Antifa/Dems who R violent & endanger our country. Sessions is NOT doing enough. Demand him to investigate Obama/Clinton Spying & collusion with Russia by Clinton. He must wake up to save our country. Antifa=a Terrorist group. #MAGA'
p532
S'9:52 AM - 7 Oct 2017'
p533
tp534
a(S'Winning, winning and more winning!\nJobs, PR aid, healthcare, tax reform, the wall, Russia collusion. I can\xe2\x80\x99t take all this winning!!'
p535
S'9:49 AM - 7 Oct 2017'
p536
tp537
a(S'How about you explaining your denial about there being no evidence of Trump collusion w/Russia etc B4 you demand ANYTHING from Stranahan'
p538
S'9:44 AM - 7 Oct 2017'
p539
tp540
a(S'After 100K documents, 11 hearings &  100+ witnesses, Senate Intel Committee has no evidence of collusion between Trump campaign & Russia.'
p541
S'9:42 AM - 7 Oct 2017'
p542
tp543
a(S"It's not just T's collusion at issue; it's that Russia clearly has a campaign aimed at destabilizing US. Why so imp http://wapo.st/2y279rP?tid=ss_tw&utm_term=.b4d6649a7db3\xc2\xa0\xe2\x80\xa6"
p544
S'9:40 AM - 7 Oct 2017'
p545
tp546
a(S'To be clear: You are paying the Russia collusion legal bills for the puss grabbing braggart that you elected POTUS. https://twitter.com/gopchairwoman/status/916422817142460417\xc2\xa0\xe2\x80\xa6'
p547
S'9:39 AM - 7 Oct 2017'
p548
tp549
a(S'BREAKING:  After Four Years, Mueller Will Confirm There Was No Collusion Between Russia And President Trump\nIt Was Just More DEM FAKE News!'
p550
S'9:35 AM - 7 Oct 2017'
p551
tp552
a(S'no evidence of "Russian Collusion" And relationship with Russia has been pretty bad lately, so idk wtf ur saying.  Trump is pres of all .'
p553
S'9:34 AM - 7 Oct 2017'
p554
tp555
a(S"Investigate Hillary's Uranium One Collusion with Russia http://dlvr.it/PVk07j\xc2\xa0 http://ow.ly/PHx1N\xc2\xa0 #MAGA #PJNETpic.twitter.com/tGrXQcz4yt"
p556
S'9:34 AM - 7 Oct 2017'
p557
tp558
a(S"I like Russia vodka too. I think now that's considered collusion. Lol lol I'm a colluder"
p559
S'9:33 AM - 7 Oct 2017'
p560
tp561
a(S"There's an abundance of proof. Only part yet to be proven is direct collusion. It's a  fact that Russia ran a massive interference campaign."
p562
S'9:28 AM - 7 Oct 2017'
p563
tp564
a(S'Your and Mueller inability to see the collusion between Russia and Facebook is the obstruction of justice in which you all are guilty...'
p565
S'9:27 AM - 7 Oct 2017'
p566
tp567
a(S"The corrupt FBI's been working Russia collusion for 1 yr & still can't find evidence. Don't expect them to tell truth on Vegas."
p568
S'9:27 AM - 7 Oct 2017'
p569
tp570
a(S'White House rips Senate panel over Russia collusion probe https://youtu.be/8uNhQeCavJ8\xc2\xa0 via @YouTube'
p571
S'9:24 AM - 7 Oct 2017'
p572
tp573
a(S'Senate Intel Heads Say Trump-Russia Collusion Is Still an Open Question http://www.nbcnews.com/politics/national-security/senate-intel-heads-say-trump-russia-collusion-still-open-question-n807401?cid=public-rss_20171005\xc2\xa0\xe2\x80\xa6'
p574
S'9:24 AM - 7 Oct 2017'
p575
tp576
a(S"Let's see so boring from the left . Hmm racist collusion with Russia, all the phobes ! Oh yeah Hitler !"
p577
S'9:23 AM - 7 Oct 2017'
p578
tp579
a(S'Full of crap   , Russia\xe2\x80\x99s collusion , fake news hater white people only signs #NewTrumpTwitterBio'
p580
S'9:21 AM - 7 Oct 2017'
p581
tp582
a(S"The people boycotting the NFL are also ignoring Trump's likely collusion with Russia. Since when is treason patriotic? #ImpeachTrump"
p583
S'9:18 AM - 7 Oct 2017'
p584
tp585
a(S'They\xe2\x80\x99re too busy looking into Trump/Russia collusion allegations'
p586
S'9:17 AM - 7 Oct 2017'
p587
tp588
a(S'"Magnitsky Act" "Trump Tower" "Trump Jr" "Steele dossier" #Clinton #Veselnitsakya "Trump/Russia" #collusion https://www.theguardian.com/us-news/2017/oct/07/trump-russia-steele-dossier-moscow?CMP=share_btn_tw\xc2\xa0\xe2\x80\xa6pic.twitter.com/8Wewi0ZN74'
p589
S'9:16 AM - 7 Oct 2017'
p590
tp591
a(S'Thoughts on Trump Tower Meeting back in June 2016, Russia Collusion, Failed Trump Tower Russia Project?  #askingforafriend'
p592
S'9:15 AM - 7 Oct 2017'
p593
tp594
a(S'The things 45 will do to keep the words Russia collusion Mueller out of the news cycle. WTF! https://twitter.com/DeviousPrez/status/916696494178054146\xc2\xa0\xe2\x80\xa6'
p595
S'9:15 AM - 7 Oct 2017'
p596
tp597
a(S"Hill Russia investigators: Committee still searching for 'any hint of collusion' http://www.localmemphis.com/news/politics/hill-russia-investigators-committee-still-searching-for-any-hint-of-collusion/825516506\xc2\xa0\xe2\x80\xa6"
p598
S'9:15 AM - 7 Oct 2017'
p599
tp600
a(S'Moron dotard @realDonaldTrump in this century Putin/Russia will never be an ally. You will be charged with obstruction/collusion with them. https://twitter.com/PuestoLoco/status/916668146609741826\xc2\xa0\xe2\x80\xa6'
p601
S'9:12 AM - 7 Oct 2017'
p602
tp603
a(S"Even if Russia hacked the vote  tallies, that's not collusion with Trump."
p604
S'9:10 AM - 7 Oct 2017'
p605
tp606
a(S'Trump \xe2\x80\x9cDossier\xe2\x80\x9d & Russia Collusion Investigation | National Review http://www.nationalreview.com/article/452427/trump-dossier-russia-collusion-investigation?utm_source=PANTHEON_STRIPPED&utm_medium=PANTHEON_STRIPPED?utm_source=PANTHEON_STRIPPED&utm_medium=PANTHEON_STRIPPED\xc2\xa0\xe2\x80\xa6'
p607
S'9:07 AM - 7 Oct 2017'
p608
tp609
a(S'Russia tells Trump Jr we have information that will hurt Clinton lets meet Jr says back I love it they meet this is collusion & both confess'
p610
S'9:06 AM - 7 Oct 2017'
p611
tp612
a(S'You should be given full time in prison for TREASON with RUSSIA for COLLUSION. Soon a Trump family member in every Federal prison.'
p613
S'9:04 AM - 7 Oct 2017'
p614
tp615
a(S'50-Page Bombshell Report Releasing That Proves Trump\xe2\x80\x99s Russia Collusion - http://www.bluedotdaily.com/report-releasing-that-proves-trumps-russia-collusion-trump/\xc2\xa0\xe2\x80\xa6'
p616
S'9:02 AM - 7 Oct 2017'
p617
tp618
a(S'Good luck, suckers! Oh, don\'t forget Mueller\'s investigation of possible financial crimes apart from "collusion" (not a legal term) w/Russia'
p619
S'8:59 AM - 7 Oct 2017'
p620
tp621
a(S'Exactly on point. He is going to keep at it so the words Russia, Collusion, involvement, ethics, Mueller are not in the news cycle.'
p622
S'8:55 AM - 7 Oct 2017'
p623
tp624
a(S'There is no evidence of Trump Russia collusion however the WITCH HUNT continues at taxpayers expense. Why is that? Double Standard'
p625
S'8:50 AM - 7 Oct 2017'
p626
tp627
a(S"Gregg Jarrett: The Trump-Russia 'collusion' and other great hoaxe http://www.foxnews.com/opinion/2017/10/06/gregg-jarrett-trump-russia-collusion-and-other-great-hoaxes.html\xc2\xa0\xe2\x80\xa6"
p628
S'8:49 AM - 7 Oct 2017'
p629
tp630
a(S'...collusion, investigation, Russia, settling fraud lawsuits against you, ripping off contractors, ruing businesses, administrative turnover'
p631
S'8:45 AM - 7 Oct 2017'
p632
tp633
a(S'White House rips Senate panel over Russia collusion probe https://youtu.be/8uNhQeCavJ8\xc2\xa0 via @YouTube'
p634
S'8:44 AM - 7 Oct 2017'
p635
tp636
a(S"Russia. Collusion. Yep, we get it-you're going down. #MuellerIsComingForYou #ImpeachTrumpANDPenceNow"
p637
S'8:43 AM - 7 Oct 2017'
p638
tp639
a(S"It's been months. Have you read Seth's thread? The lewd stuff is ultimately not that important. The cultivating / collusion components  are"
p640
S'8:43 AM - 7 Oct 2017'
p641
tp642
a(S"You sound like Trump, judging a woman by her appearance. The only voter fraud was Trump's collusion with Russia."
p643
S'8:42 AM - 7 Oct 2017'
p644
tp645
a(S"Sessions needs to save Taxpayers $ and end this Russia Collusion B'S Fire special counsel Muellner and his cronies Indict them for robbery"
p646
S'8:41 AM - 7 Oct 2017'
p647
tp648
a(S'@POTUS @realDonaldTrump \xe2\x80\x9cDossier\xe2\x80\x9d & #Russia Collusion Investigation | National Review by @AndrewCMcCarthyhttp://www.nationalreview.com/article/452427/trump-dossier-russia-collusion-investigation?utm_source=PANTHEON_STRIPPED&utm_medium=PANTHEON_STRIPPED?utm_source=PANTHEON_STRIPPED&utm_medium=PANTHEON_STRIPPED\xc2\xa0\xe2\x80\xa6'
p649
S'8:35 AM - 7 Oct 2017'
p650
tp651
a(S'Obama was president at the time and did nothing to stop Russia from interfering in our election.   Collusion on him'
p652
S'8:32 AM - 7 Oct 2017'
p653
tp654
a(S'Collusional lying a** Donald Trump is president, world! He got that seat in collusion with Russia and been lying from day one is his legacy'
p655
S'8:31 AM - 7 Oct 2017'
p656
tp657
a(S'Conspiracy theorists on @MSNBC are raving lunatics crying about Trump Russia collusion. What sad pathetic people making it up as they go.'
p658
S'8:28 AM - 7 Oct 2017'
p659
tp660
a(S'#AmJoy@JoyAnnReid@NaveedJamali@SarahKendzior,Senate intel.chair: trump-Russia collusion claim "remains open" #TheResistance!'
p661
S'8:26 AM - 7 Oct 2017'
p662
tp663
a(S'It\'s nothing short of unspeakable when u find out theyre STILL putting millions in2 "Russia collusion" case. #DNC u have NE insight? #liars'
p664
S'8:26 AM - 7 Oct 2017'
p665
tp666
a(S"Gregg Jarrett: The Trump-Russia 'collusion' and other great hoaxe http://www.foxnews.com/opinion/2017/10/06/gregg-jarrett-trump-russia-collusion-and-other-great-hoaxes.html\xc2\xa0\xe2\x80\xa6"
p667
S'8:25 AM - 7 Oct 2017'
p668
tp669
a(S'Donnie Jr, your going to jail. Russia collusion.'
p670
S'8:24 AM - 7 Oct 2017'
p671
tp672
a(S'@realDonaldTrump Yep...there\xe2\x80\x99s a whole lot of there there to the Russia collusion! https://twitter.com/sethabramson/status/916500629564084224\xc2\xa0\xe2\x80\xa6'
p673
S'8:23 AM - 7 Oct 2017'
p674
tp675
a(S"The FBI is undoubtedly using the Dossier as it should - as a roadmap to Trump/Russia collusion. It's none of your business Grassley."
p676
S'8:22 AM - 7 Oct 2017'
p677
tp678
a(S'American Democracy is tottering Under Trump/ Russia /GOP Collusion and Leadership. 2018 Kick Them Out! pic.twitter.com/jtefT4e7QT'
p679
S'8:18 AM - 7 Oct 2017'
p680
tp681
a(S'Collusion, Trump Russia https://twitter.com/thehill/status/916494802992226304\xc2\xa0\xe2\x80\xa6'
p682
S'8:16 AM - 7 Oct 2017'
p683
tp684
a(S'Noone is talking abt Puerto Rico Vegas murders Russia collusion Pee tapes NK Iran Steele Dossier Jobs & poll drop Troops killed in Niger WTF pic.twitter.com/xpkxdnOGAO'
p685
S'8:14 AM - 7 Oct 2017'
p686
tp687
a(S'Do you think NBC is going to drop a story on Trump collusion with Russia?'
p688
S'8:14 AM - 7 Oct 2017'
p689
tp690
a(S"1 year ago: Russia-linked @Wikileaks began releasing stolen info on Trump's opponents after a Trump aide previewed they would. \n\n#Collusion"
p691
S'8:12 AM - 7 Oct 2017'
p692
tp693
a(S'They\xe2\x80\x99re still looking for #Trump #Russia collusion instead of doing their job!'
p694
S'8:12 AM - 7 Oct 2017'
p695
tp696
a(S'The president does not control the FBI. If that were the case then there would be no Mueller investigation into Russia collusion.'
p697
S'8:11 AM - 7 Oct 2017'
p698
tp699
a(S'After 100 witness interviews and 100K pages of documents, still no decision on all the Trump-Russia collusion... http://fb.me/4rOEQhHTx\xc2\xa0'
p700
S'8:07 AM - 7 Oct 2017'
p701
tp702
a(S'Bobble-Head Schiff Distortions - Everything Always Spells Trump Russia Collusion https://rickwells.us/bobble-head-schiff-trump-russia/\xc2\xa0\xe2\x80\xa6'
p703
S'8:06 AM - 7 Oct 2017'
p704
tp705
a(S'They donate and the GOP uses the money to pay lawyers to hide the Russia collusion crimes.'
p706
S'8:05 AM - 7 Oct 2017'
p707
tp708
a(S'Stop deflecting.  Address your collusion with Russia & release your taxes #resist #RacistTrump #TrumpRussia #ImpeachTrump #ImpeachTrump'
p709
S'8:04 AM - 7 Oct 2017'
p710
tp711
a(S"Only if you're coming out clean on Russia Collusion"
p712
S'8:02 AM - 7 Oct 2017'
p713
tp714
a(S'Can tell President Trump had a very good week when MSNBC is back to talking about Russia collusion all morning.'
p715
S'8:00 AM - 7 Oct 2017'
p716
tp717
a(S'you do know , the further the investigation goes the more it looks like a possible collusion.  NO DOUBT RUSSIA WANTED TRUMP FOR PRESIDENT'
p718
S'7:59 AM - 7 Oct 2017'
p719
tp720
a(S'Want to END MUELER WITCH HUNT @realDonaldTrump MEET @DanaRohrabacher & talk about @JulianAssange #WIKILEAKS HAS PROOF NO RUSSIA COLLUSION'
p721
S'7:58 AM - 7 Oct 2017'
p722
tp723
a(S"Gregg Jarrett: The Trump-Russia 'collusion' and other great hoaxe http://www.foxnews.com/opinion/2017/10/06/gregg-jarrett-trump-russia-collusion-and-other-great-hoaxes.html\xc2\xa0\xe2\x80\xa6"
p724
S'7:56 AM - 7 Oct 2017'
p725
tp726
a(S'You\xe2\x80\x99ve been really quiet about your Russia collusion. https://twitter.com/donaldjtrumpjr/status/916639351425126400\xc2\xa0\xe2\x80\xa6'
p727
S'7:55 AM - 7 Oct 2017'
p728
tp729
a(S'Hopefully the crime of collusion with Russia will be much easier to prove.'
p730
S'7:50 AM - 7 Oct 2017'
p731
tp732
a(S'pls stop ur russia collusion (not even a crime)-fake news. we the people r sick n tired of it. let mueller do his job. there is nothing there, or it would have been leaked already. americans r smart, n they dont vote based on fb or twitter.'
p733
S'7:50 AM - 7 Oct 2017'
p734
tp735
a(S'Top senators investigating Trump-Russia connections say \xe2\x80\x9cthe issue of collusion is still open\xe2\x80\x9d #TrumpRussiaCollusion http://qklnk.co/u7JcKd\xc2\xa0'
p736
S'7:49 AM - 7 Oct 2017'
p737
tp738
a(S"Also has the FBI come out & said there is collusion with Russia so stop the bullshit just cause CNN said it doesn't necessarily make it true"
p739
S'7:47 AM - 7 Oct 2017'
p740
tp741
a(S'Resign and write your book: \xe2\x80\x9cProfiles in Collusion\xe2\x80\x9d. Then move to Russia where your ratings are higher! @realDonaldTrumphttps://twitter.com/thehill/status/916671725596762112\xc2\xa0\xe2\x80\xa6'
p742
S'7:43 AM - 7 Oct 2017'
p743
tp744
a(S"This whole 'fake news' is attempt by democrats to muddy the real facts of THEIR collusion and corruption with Russia."
p745
S'7:41 AM - 7 Oct 2017'
p746
tp747
a(S"Ummmm, wasn't Obama Admin listening??? You know wiretapping?? Poof shot down. Hillary was in collusion with Russia for years. Wake up!!!"
p748
S'7:38 AM - 7 Oct 2017'
p749
tp750
a(S'There\xe2\x80\x99s plenty of coverage about you... Russia collusion ring any bells?'
p751
S'7:37 AM - 7 Oct 2017'
p752
tp753
a(S'50-Page Bombshell Report Releasing That Proves Trump\xe2\x80\x99s Russia Collusion - http://www.bluedotdaily.com/report-releasing-that-proves-trumps-russia-collusion-trump/\xc2\xa0\xe2\x80\xa6'
p754
S'7:34 AM - 7 Oct 2017'
p755
tp756
a(S'DO U DENY REVOKING GUN CONTROL TO ALLOW MENTALLY ILL PEOPLE TO PURCHASE WEAPONS?  DO U DENY DOMESTIC TERRORISM? DO U DENY RUSSIA COLLUSION?'
p757
S'7:34 AM - 7 Oct 2017'
p758
tp759
a(S'Trump \xe2\x80\x9cDossier\xe2\x80\x9d & Russia Collusion Investigation | National Review http://www.nationalreview.com/article/452427/trump-dossier-russia-collusion-investigation?utm_source=PANTHEON_STRIPPED&utm_medium=PANTHEON_STRIPPED?utm_source=PANTHEON_STRIPPED&utm_medium=PANTHEON_STRIPPED\xc2\xa0\xe2\x80\xa6'
p760
S'7:34 AM - 7 Oct 2017'
p761
tp762
a(S"Wow. You've been really quiet about your collusion with Russia. Guess you're taking the 5th."
p763
S'7:33 AM - 7 Oct 2017'
p764
tp765
a(S'What will you do when all the evidence actually points to democrats collusion with Russia? You are being deceived and made a fool of.'
p766
S'7:33 AM - 7 Oct 2017'
p767
tp768
a(S"Sessions is conflicted and won't touch investigation of Russia collusion, DNC emails hack, unmasking, Mueller or Congress investigations"
p769
S'7:32 AM - 7 Oct 2017'
p770
tp771
a(S'Not RATS dirty laundry. .nooo just any tiny sliver of dirt on Conservatives & it runs 24/7 4 mos I.e. Russia collusion NOTHING BURGER!'
p772
S'7:31 AM - 7 Oct 2017'
p773
tp774
a(S'Bobble-Head Schiff Distortions - Everything Always Spells Trump Russia Collusion https://rickwells.us/bobble-head-schiff-trump-russia/\xc2\xa0\xe2\x80\xa6'
p775
S'7:27 AM - 7 Oct 2017'
p776
tp777
a(S'We do get it... The news is accurate. You were in collusion with Russia? You are white supremacist? You hate women? We get it alright!'
p778
S'7:27 AM - 7 Oct 2017'
p779
tp780
a(S'Weird, you\xe2\x80\x99ve been really quiet about Mueller\xe2\x80\x99s Russia collusion investigation.'
p781
S'7:23 AM - 7 Oct 2017'
p782
tp783
a(S'#FakePotus desperate attempt to distract from Russia collusion. Doomed felon. Tick tock.'
p784
S'7:22 AM - 7 Oct 2017'
p785
tp786
a(S'Can\'t we say the same of all the "unnamed" sources and leakers. Their careers more important than providing Russia Collusion evidence.'
p787
S'7:20 AM - 7 Oct 2017'
p788
tp789
a(S'The Russia collusion you should care about is not on Facebook https://www.bloomberg.com/view/articles/2017-10-06/the-russia-collusion-you-should-care-about\xc2\xa0\xe2\x80\xa6 (Via @gabriel_zucman)'
p790
S'7:18 AM - 7 Oct 2017'
p791
tp792
a(S'@WhiteHouse @NancyPelosi @SpeakerRyan 3)Fake Media in collusion profit from Fake Russia scandal & steal Jobs+Growth from US Economy'
p793
S'7:17 AM - 7 Oct 2017'
p794
tp795
a(S'The Russia Collusion the West Should Care About https://www.bloomberg.com/view/articles/2017-10-06/the-russia-collusion-you-should-care-about\xc2\xa0\xe2\x80\xa6'
p796
S'7:12 AM - 7 Oct 2017'
p797
tp798
a(S"Yeah but how's that Russia collusion thing going? pic.twitter.com/VzoPRsnoHc"
p799
S'7:11 AM - 7 Oct 2017'
p800
tp801
a(S'The Russia collusion you should care about is not on Facebook https://www.bloomberg.com/view/articles/2017-10-06/the-russia-collusion-you-should-care-about\xc2\xa0\xe2\x80\xa6 via @bv'
p802
S'7:07 AM - 7 Oct 2017'
p803
tp804
a(S'But... he is saying this to distract from his real problem... collusion with Russia'
p805
S'7:06 AM - 7 Oct 2017'
p806
tp807
a(S'Hey Retard, no russia, nazi or ws collusion. I think you are afraid Trump is actually going to be better for the US than Reagan. Go cry MAGA'
p808
S'7:06 AM - 7 Oct 2017'
p809
tp810
a(S"Where's the probe on Clinton-Russia collusion? https://youtu.be/5aYdZlLD95w\xc2\xa0 via @YouTube This is the real Russia collusion and its with DNC."
p811
S'6:57 AM - 7 Oct 2017'
p812
tp813
a(S"What reporting? You mean RUSSIA RUSSIA RUSSIA? COLLUSION? Your daughter and Jared's private emails? Flynn, Manafort, Sessions and Jared?"
p814
S'6:57 AM - 7 Oct 2017'
p815
tp816
a(S'Between #DonaldTrump, the #PeeTape, #Collusion with #Russia and this, the #RepublicanParty is now officially dead. #GOPDOA #RIPGOPpic.twitter.com/Nlca6VuG79'
p817
S'6:55 AM - 7 Oct 2017'
p818
tp819
a(S'Special counsel so his buddy mueller & his gang of Hillary supporters 2 investigate the desperate claims of Trump / Russia collusion by 2/3'
p820
S'6:53 AM - 7 Oct 2017'
p821
tp822
a(S'Russia Russia Russia! You are a bot! No evidence of Russian collusion heres Obama with bill ayers. Known for terrorist bombings on us soil! pic.twitter.com/5Q1evmMfzE'
p823
S'6:52 AM - 7 Oct 2017'
p824
tp825
a(S"& by Hillary's & dnc's manipulation of the Democratic Nomination. The only collusion proven.  Russia didn't influence my vote.Just an excuse"
p826
S'6:46 AM - 7 Oct 2017'
p827
tp828
a(S"Name one thing he's done? Except get away with obvious treason and collusion with Russia."
p829
S'6:36 AM - 7 Oct 2017'
p830
tp831
a(S'Do they mean all the campaign contributions that are being used to pay your legal bills, for defense of your collusion with Russia?'
p832
S'6:36 AM - 7 Oct 2017'
p833
tp834
a(S'Or the Trump collusion with Russia. They have become a joke, and have lost all credibility with the public. Corruption runs rampant in WD.'
p835
S'6:32 AM - 7 Oct 2017'
p836
tp837
a(S'SHE GOT BIGGER FISH TO FRY LIKE YOUR COLLUSION WITH RUSSIA AND STEALING THE PRESIDENCY! Now you are destroying this country'
p838
S'6:30 AM - 7 Oct 2017'
p839
tp840
a(S'they accuse Trump of collusion with Russia, dig in to H and their foundation over last 8 years you will see a bit of Russian money there.'
p841
S'6:30 AM - 7 Oct 2017'
p842
tp843
a(S'Orange brat man is in collusion with Russia been a fact. Who taking a year to figure it out?'
p844
S'6:29 AM - 7 Oct 2017'
p845
tp846
a(S'Why is Soros still allowed to do this? He\xe2\x80\x99s anti American and yet we r spending $ on Russia/Trump collusion? WTF is going on in my country?'
p847
S'6:29 AM - 7 Oct 2017'
p848
tp849
a(S"You're getting plenty of coverage: your collusion with Russia, your tax breaks for billionaires, your white supremacy, your draft dodging."
p850
S'6:27 AM - 7 Oct 2017'
p851
tp852
a(S'Arrest all the criminals in the swamp orange brat man is the leader in collusion with Russia is a fact he the one keep hollering fake news'
p853
S'6:26 AM - 7 Oct 2017'
p854
tp855
a(S"is Sessions recusal just on Russia collusion? she had involment with Russia, hope that's not a problem."
p856
S'6:24 AM - 7 Oct 2017'
p857
tp858
a(S'WRONG! 9 months and NOTHING NOT A THING  about Trump and collusion with Russia.... Try again Loser....'
p859
S'6:23 AM - 7 Oct 2017'
p860
tp861
a(S'Any news on russia collusion? Interesting how that just vanished. So the left  only thing they got on trump is phone tapping Flynn illegally'
p862
S'6:22 AM - 7 Oct 2017'
p863
tp864
a(S"Arrest orange brat man 4 collusion with Russia hell of lies, & inciting a race war cause that's what they fake news he keeps hollering about"
p865
S'6:22 AM - 7 Oct 2017'
p866
tp867
a(S'Bobble-Head Schiff Distortions - Everything Always Spells Trump Russia Collusion https://rickwells.us/bobble-head-schiff-trump-russia/\xc2\xa0\xe2\x80\xa6'
p868
S'6:20 AM - 7 Oct 2017'
p869
tp870
a(S'Interesting Andrew McCarthy piece: \xe2\x80\x9cTrump \xe2\x80\x9cDossier\xe2\x80\x9d & Russia Collusion Investigation\xe2\x80\x9d | National Review http://www.nationalreview.com/article/452427/trump-dossier-russia-collusion-investigation?utm_source=PANTHEON_STRIPPED&utm_medium=PANTHEON_STRIPPED?utm_source=PANTHEON_STRIPPED&utm_medium=PANTHEON_STRIPPED\xc2\xa0\xe2\x80\xa6'
p871
S'6:17 AM - 7 Oct 2017'
p872
tp873
a(S'Duh! The Trump dossier is Fake just like the fake Russia collusion investigation! #FireMuellerhttps://twitter.com/politico/status/916646297465245696\xc2\xa0\xe2\x80\xa6'
p874
S'6:17 AM - 7 Oct 2017'
p875
tp876
a(S'Russian collusion and the Trump Dossier.\n\n@SenJohnMcCain \n\nWhat say You? You in cahoots w Russia? https://twitter.com/MichellePiper18/status/916436246775377920\xc2\xa0\xe2\x80\xa6'
p877
S'6:16 AM - 7 Oct 2017'
p878
tp879
a(S'Arrest orange brat man for being in collusion with Russia and inciting a race war'
p880
S'6:16 AM - 7 Oct 2017'
p881
tp882
a(S"After 9mo there's still no evidence that @POTUS colluded with Russia. The Trump-Russia 'collusion' hoax http://fxn.ws/2xniLSJ\xc2\xa0 #FoxNews"
p883
S'6:09 AM - 7 Oct 2017'
p884
tp885
a(S'Yes, if he is "really" concerned about a "Russia Collusion," apparently the NSA was breached by Russia in 2016. WTH???'
p886
S'6:07 AM - 7 Oct 2017'
p887
tp888
a(S"Gregg Jarrett: The Trump-Russia 'collusion' and other great hoaxes http://fxn.ws/2xniLSJ\xc2\xa0 #FoxNews"
p889
S'6:07 AM - 7 Oct 2017'
p890
tp891
a(S'Hows the Russia collusion investigation going? Or nar? Ill check back in a few months'
p892
S'6:06 AM - 7 Oct 2017'
p893
tp894
a(S'I\xe2\x80\x99d love to see the coverage when your collusion with Russia is exposed. BTW.. I\xe2\x80\x99m still waiting on those taxes you LIED ABOUT TURNING OVER'
p895
S'6:03 AM - 7 Oct 2017'
p896
tp897
a(S"Just more money they taking in to pay for yours and your son's lawyer over the collusion with Russia taxpayers paying your lawyers fees"
p898
S'6:01 AM - 7 Oct 2017'
p899
tp900
a(S"If you get on Jimmy Kimmel's late night show are you going to answer questions about your taxes about your collusion with Russia"
p901
S'6:01 AM - 7 Oct 2017'
p902
tp903
a(S'RULE #5: After selling USA to RUSSIA , the numerous collusion evidence amounting EVERYDAY,  corruption & robbing taxpayers. YOU ARE A LIAR.'
p904
S'5:59 AM - 7 Oct 2017'
p905
tp906
a(S'More and more people = YOU / Schizophrenic raving mad lunatic / You are covered ALL DAY long for your idiotic behavior, stupidity, corruption, lack of empathy, and the collusion with Russia.'
p907
S'5:56 AM - 7 Oct 2017'
p908
tp909
a(S"That's what raccoon Orange wanted to incite a race war in collusion with Russia and both of their fake news social media accounts all over"
p910
S'5:52 AM - 7 Oct 2017'
p911
tp912
a(S'Evidence of Russia collusion.'
p913
S'5:41 AM - 7 Oct 2017'
p914
tp915
a(S'The only Treason here is @realDonaldTrump\xe2\x80\x99s collusion with Russia.'
p916
S'5:41 AM - 7 Oct 2017'
p917
tp918
a(S"I'd focus more on the Russia collusion investigation and less on Hillary. You can worry about her when you're in prison"
p919
S'5:41 AM - 7 Oct 2017'
p920
tp921
a(S"I've known this all along. trump,in collusion with Russia,stole the election. Recount or better yet recite with paper ballots! Save America!"
p922
S'5:38 AM - 7 Oct 2017'
p923
tp924
a(S'Your morning MUST READ\n\nTrump \xe2\x80\x9cDossier\xe2\x80\x9d & Russia Collusion Investigation | National Review http://www.nationalreview.com/article/452427/trump-dossier-russia-collusion-investigation?utm_source=PANTHEON_STRIPPED&utm_medium=PANTHEON_STRIPPED?utm_source=PANTHEON_STRIPPED&utm_medium=PANTHEON_STRIPPED\xc2\xa0\xe2\x80\xa6'
p925
S'5:36 AM - 7 Oct 2017'
p926
tp927
a(S"Mueller's lame team got on TV the other day to update us. No Collusion between Trump Russia  yet after 9 months of soft\ncoup attempts "
p928
S'5:36 AM - 7 Oct 2017'
p929
tp930
a(S'Russia collusion is at your back! Resign, Clown '
p931
S'5:34 AM - 7 Oct 2017'
p932
tp933
a(S'@POTUS here are a few topics we can talk about on TV. Oh, let\xe2\x80\x99s not forget Mueller is closing in. Lots of Russia collusion to talk about pic.twitter.com/VWc6ypTTv1'
p934
S'5:31 AM - 7 Oct 2017'
p935
tp936
a(S"We hear Muller's focus is migrating over to the Hillary, Democrats and DNC collusion with Russia. Found no Trump/Russia collusion. @cspanwj"
p937
S'5:26 AM - 7 Oct 2017'
p938
tp939
a(S'Russia Facebook Collusion- Lt. Col. Tony Shaffer: Facebook suppressed conservative posts during 2016\xc2\xa0election http://thedailypotus.com/russia-facebook-collusion-lt-col-tony-shaffer-facebook-suppressed-conservative-posts-2016-election/\xc2\xa0\xe2\x80\xa6'
p940
S'5:26 AM - 7 Oct 2017'
p941
tp942
a(S'"First Russia was accused of hacking, now it\xe2\x80\x99s collusion, what\xe2\x80\x99s next \xe2\x80\x93 telepathy?!" https://youtu.be/meWkjrYpTfI\xc2\xa0'
p943
S'5:23 AM - 7 Oct 2017'
p944
tp945
a(S'What is @GOP doing with the collusion money from Russia? https://twitter.com/GOP/status/916336507476168704\xc2\xa0\xe2\x80\xa6'
p946
S'5:23 AM - 7 Oct 2017'
p947
tp948
a(S'...or Hillary as the head of the SD facilitated the sale of 22% of US strategic uranium reserves 2 Putin & Russia...real collusion. @cspanwj'
p949
S'5:23 AM - 7 Oct 2017'
p950
tp951
a(S"Speier: No 'Specific Evidence' of Collusion Between Trump and Russia https://youtu.be/614sXvpnn0c\xc2\xa0 via @YouTube"
p952
S'5:22 AM - 7 Oct 2017'
p953
tp954
a(S'Trump \xe2\x80\x9cDossier\xe2\x80\x9d & Russia Collusion Investigation | National Review http://www.nationalreview.com/article/452427/trump-dossier-russia-collusion-investigation?utm_source=PANTHEON_STRIPPED&utm_medium=PANTHEON_STRIPPED?utm_source=PANTHEON_STRIPPED&utm_medium=PANTHEON_STRIPPED\xc2\xa0\xe2\x80\xa6'
p955
S'5:22 AM - 7 Oct 2017'
p956
tp957
a(S'Mueller investigating Russia collusion for 8 months with no evidence and still nothing. 36hrs after shooting, concluded no Isis connection'
p958
S'5:19 AM - 7 Oct 2017'
p959
tp960
a(S'Poor Baby Donnie gets plenty of coverage. Russia collusion, chaos in WH, being called a moron, insulting PR, 6 using pvt servers & so on'
p961
S'5:15 AM - 7 Oct 2017'
p962
tp963
a(S'I see a lot of REAL stories about your collusion with Russia and your attempts to erase Obama\xe2\x80\x99s legacy.'
p964
S'5:12 AM - 7 Oct 2017'
p965
tp966
a(S"Does anyone believe this amoebic sub-human didn't steal the election using every means including collusion with Russia? #Trump #Impeach"
p967
S'5:12 AM - 7 Oct 2017'
p968
tp969
a(S"No there never was Russia collusion. But DNC Obama Hillary Comey Lynch Rice Brennan colluded with each other and it's coming out."
p970
S'5:07 AM - 7 Oct 2017'
p971
tp972
a(S"Compulsive reading. Doesn't the Trump campaign's collusion with Russia to fix the US election amount to treason?   https://twitter.com/justinhendrix/status/916618978822426625\xc2\xa0\xe2\x80\xa6"
p973
S'5:05 AM - 7 Oct 2017'
p974
tp975
a(S'Did you miss the Russian #CollusionDelusion press conference 3 days ago? After 9 months no evidence of Collusion between POTUS & Russia'
p976
S'5:04 AM - 7 Oct 2017'
p977
tp978
a(S"Yeah but how's that Russia collusion thing going? pic.twitter.com/6tsKhkbfe7"
p979
S'5:04 AM - 7 Oct 2017'
p980
tp981
a(S"@ricardorossello @SecondLady  But how's that Russia collusion thing going? pic.twitter.com/h1Z6qNzONM"
p982
S'5:01 AM - 7 Oct 2017'
p983
tp984
a(S'Majority of Americans vote biggest coverup is Russia collusion covered up by GOP, Trump family & Cabinet members. #ImpeachTRUMP #RUSSIA&45'
p985
S'4:59 AM - 7 Oct 2017'
p986
tp987
a(S'GOPis complicit with Trump/Russia in collusion to hack the election and illegally place Trump as President.Not starting impeachment is worse https://twitter.com/u3Y4BDE/status/916631834779443202\xc2\xa0\xe2\x80\xa6'
p988
S'4:57 AM - 7 Oct 2017'
p989
tp990
a(S'In recent TV interview HRC said she plans to challenge election results WHEN Mueller finishes proving Trump-Russia collusion. Not "if."'
p991
S'4:55 AM - 7 Oct 2017'
p992
tp993
a(S"Worse collusion than non-existent B.S. of Trump & Russia.\nAnd WE're paying millions 2 SCUMBAG Mueller when Barney Fife could find dirty Dems"
p994
S'4:55 AM - 7 Oct 2017'
p995
tp996
a(S"No indication that McCain's loss was aided by collusion with Russia."
p997
S'4:54 AM - 7 Oct 2017'
p998
tp999
a(S'#Muller investigation was started to look into Collusion between Trump and Russia in 2016 election, there is no Collusion should END!!!'
p1000
S'4:53 AM - 7 Oct 2017'
p1001
tp1002
a(S'FB worked with the campaign AND Russia to turn the election and elect Trump. Sounds like collusion to me. https://twitter.com/aepotter/status/916576336449241089\xc2\xa0\xe2\x80\xa6'
p1003
S'4:52 AM - 7 Oct 2017'
p1004
tp1005
a(S"It's false.\n\nThe media pushed a narrative of Trum Campaign collusion with Russia, pratically all the media acusations was debunked."
p1006
S'4:49 AM - 7 Oct 2017'
p1007
tp1008
a(S'Russia, Russia, Russia. No proof no Collusion they still haven\xe2\x80\x99t & will never find anything because there\xe2\x80\x99s nothing to find. Waste of money.'
p1009
S'4:47 AM - 7 Oct 2017'
p1010
tp1011
a(S'Still using the money from your "wonderful small donors" to pay for your legal defense in your collusion with Russia?'
p1012
S'4:44 AM - 7 Oct 2017'
p1013
tp1014
a(S"Speier: No 'Specific Evidence' of Collusion Between Trump and Russia https://youtu.be/614sXvpnn0c\xc2\xa0 via @YouTube"
p1015
S'4:44 AM - 7 Oct 2017'
p1016
tp1017
a(S'Limbaugh: FBI Quick to Rule Out ISIS Link to Vegas Shooting - Slow to Rule Out Russia-Trump Election Collusion http://bit.ly/2xWuQlB\xc2\xa0'
p1018
S'4:43 AM - 7 Oct 2017'
p1019
tp1020
a(S'So then why r u watching CNN? U do realize when it comes out there is no Russia/Trump collusion, CNN will b responsible for Trump 2020 win'
p1021
S'4:42 AM - 7 Oct 2017'
p1022
tp1023
a(S'The news media covered all of those, plus @realDonaldTrump lies, failure to repeal Obamacare, WH firings, Russia collusion, etc @PressSec'
p1024
S'4:41 AM - 7 Oct 2017'
p1025
tp1026
a(S"That's the stupidest reply ever. Only collusion w Russia was Clinton and Podesta to sell uranium! Uneducated look-aid drinkin Libs! "
p1027
S'4:31 AM - 7 Oct 2017'
p1028
tp1029
a(S'Russia Collusion investigation is running aground Zero evidence so far @nytimes @ABC @washingtonpost @DNC @CNN @MSNBC @CBSNews @TheDemocratshttps://twitter.com/dcexaminer/status/916433158232592385\xc2\xa0\xe2\x80\xa6'
p1030
S'4:30 AM - 7 Oct 2017'
p1031
tp1032
a(S'Trump is the evil. Trump/Russia collusion impeach trump'
p1033
S'4:15 AM - 7 Oct 2017'
p1034
tp1035
a(S'Note: The "Russia collusion" arc is dragging out. Let\'s finish it up and put a series wrap on all the Trumps.'
p1036
S'4:15 AM - 7 Oct 2017'
p1037
tp1038
a(S"GOP senator says it's time to 'move on' from probe of Russia collusion, Trump obstruction - Politics News - ABC ... http://ref.gl/4E5LyQaf\xc2\xa0"
p1039
S'4:12 AM - 7 Oct 2017'
p1040
tp1041
a(S"Gregg Jarrett: The Trump-Russia 'collusion' and other great hoaxes via the @FoxNews apphttp://www.foxnews.com/opinion/2017/10/06/gregg-jarrett-trump-russia-collusion-and-other-great-hoaxes.html\xc2\xa0\xe2\x80\xa6"
p1042
S'4:02 AM - 7 Oct 2017'
p1043
tp1044
a(S"Also don't forget the media should be focused on tRump for treason and collusion with Russia. Something else you supported"
p1045
S'3:50 AM - 7 Oct 2017'
p1046
tp1047
a(S'Russia used the core of Hatred to enable Trump to become President. There is definitely collusion and guaranteed nepotism in Administration'
p1048
S'3:50 AM - 7 Oct 2017'
p1049
tp1050
a(S"#Yates & #Bharara: Don't Pin Hopes on Mueller Indicting #Trump |..et al on collusion w/#Russia.\n#aaSpinRussiahttp://thehill.com/blogs/blog-briefing-room/news/353975-yates-bharara-it-will-be-hard-for-mueller-to-prove-crimes-in\xc2\xa0\xe2\x80\xa6"
p1051
S'3:32 AM - 7 Oct 2017'
p1052
tp1053
a(S'Collusion and Control: Russia and Donald Trump http://russiatrumpcollusion.com/\xc2\xa0 #HoldTrumpAccountable'
p1054
S'3:26 AM - 7 Oct 2017'
p1055
tp1056
a(S'Full marks to The Guardian for its efforts keeping the Trump-Russia collusion narrative alive. http://gu.com/p/7beef\xc2\xa0'
p1057
S'3:24 AM - 7 Oct 2017'
p1058
tp1059
a.