(lp0
(S"Democrats was never gonna agree to a spending bill on Trump's one year anniversary of being sworn in. \n\nDemocrats still bitter about the election and that there was no Russia collusion to explain the landslide loss"
p1
S'2:59 PM - 20 Jan 2018'
p2
tp3
a(S'It\xe2\x80\x99s not against the law for Trump\xe2\x80\x99s campaign to be in direct contact with Russia during the election. It\xe2\x80\x99s common practice for candidates. \xe2\x80\x9cCollusion\xe2\x80\x9d a federal crime, conspiracy is. Get a clue.'
p4
S'3:59 PM - 20 Jan 2018'
p5
tp6
a(S"We have a Special Prosecutor and have paid millions pursuing a Fake Trump Russia collusion to explain his victory based on zero evidence. The only evidence we've seen of corruption and crimes lead back to Obama and Clinton. #ReleaseTheMemo"
p7
S'3:59 PM - 20 Jan 2018'
p8
tp9
a(S'Collusion 3.0: Russia and the NRA http://bit.ly/2DSm35n\xc2\xa0'
p10
S'3:59 PM - 20 Jan 2018'
p11
tp12
a(S'I expect Mueller knows what\xe2\x80\x99s coming. He\xe2\x80\x99ll get out in front of it by charging Trump\xe2\x80\x99s 3rd cousin on his moms side with having unpaid parking tickets from 2009 & those charges will have as much to do with the Trump/Russia collusion investigation as the ones against Manafort'
p13
S'3:55 PM - 20 Jan 2018'
p14
tp15
a(S"There is absolutely zero proof of any Trump - Russia collusion or even Trump's campaign meeting with Russians. Anyone still pushing this fake story is the real traitor.  \nBtw there is amply evidence of the dnc meeting with Russians & paying them for information on Trump"
p16
S'3:53 PM - 20 Jan 2018'
p17
tp18
a(S'Please tell us more about how Trump is \xe2\x80\x9cmisguided\xe2\x80\x9d as you support the party that said EVERYTHING trump has done this past year would kill us, wasn\xe2\x80\x99t beneficial to American citizens & you also screamed Trump/Russia collusion for over a year to only find out it was a big ass sham!'
p19
S'3:52 PM - 20 Jan 2018'
p20
tp21
a(S'Poor you say? You know nothing of me Libwack  Look at how you spent precious minutes of your life to analyze a person you know nothing of. RUSSIA collusion much? By the way Mc Donalds is never on my menu #Soyboys  P.S. I live very comfortable'
p22
S'3:52 PM - 20 Jan 2018'
p23
tp24
a(S'@DrDenaGrayson  NO COLLUSION - TRUMP DOESN`T KNOW ANY RUSSIANS- DOESN`T DO ANY BUSINESS IN RUSSIA-unicorns are pretty and live next door'
p25
S'3:52 PM - 20 Jan 2018'
p26
tp27
a(S"New York Daily News A rundown of strange scandals and key players in Trump's first year New York Daily News Allegations of collusion with Russia won't be dissappearing any time soon for President Trump. (Andrew Harnik/AP). NEW YORK DAILY NEWS. Saturday,\xe2\x80\xa6 http://dlvr.it/QC4PWn\xc2\xa0pic.twitter.com/jUjZrekUM4"
p28
S'3:51 PM - 20 Jan 2018'
p29
tp30
a(S'I would say that "shithole" cover up is no different from "Russia collusion" cover up!\nRepublicans always defend their leader regardless how despicable he is & what terrible things he says & does. Republicans defended Iraq invasion, & blamed Obama 4 it. That\'s what Republicans do'
p31
S'3:49 PM - 20 Jan 2018'
p32
tp33
a(S'I\'m not sure if Russia meddled in our election, the US does it ALL THE TIME. The proof is not there yet, I\'m still waiting. And until I see actual PROOF and not just "collusion" I will be skeptical. But the 2016 Democratic Primary was FOR DAMN SURE RIGGED FOR HILLARY CLINTON!!!!'
p34
S'3:49 PM - 20 Jan 2018'
p35
tp36
a(S'OK, @FoxNews, now for the fair and balanced part of the news.  Crickets....   Did @DonaldJTrumpJr get asked about his Russia collusion, or @realDonaldTrump paying off the porn star that spanked him with a @FortuneMagazine?'
p37
S'3:48 PM - 20 Jan 2018'
p38
tp39
a(S"So. Trump response to evidence of his broad, long-term collusion with Russia is to shut down the government & accuse the Dems of murder. Take the nuclear button away from him, because it's only going to get worse. https://twitter.com/JuddLegum/status/954856483358953473\xc2\xa0\xe2\x80\xa6"
p40
S'3:48 PM - 20 Jan 2018'
p41
tp42
a(S'As part of our pathetic, desperate attempt to create some inkling of a glimmer of a shred of evidence that there was collusion between the Trump campaign and Russia...'
p43
S'3:48 PM - 20 Jan 2018'
p44
tp45
a(S"Nothing related to RUSSIA at all. It was money from the Ukrain and their failure to disclose as agents... And yeah Flynn told a lie so there's that  NOTHING abt collusion even @SenFeinstein has admitted to that"
p46
S'3:46 PM - 20 Jan 2018'
p47
tp48
a(S'It has already been proved that Hillary has Russia. Collusion'
p49
S'3:46 PM - 20 Jan 2018'
p50
tp51
a(S'Classified Memo May Destroy Trump-Russia Collusion Narrative https://www.libertyheadlines.com/classified-memo-may-destroy-trump-russia-collusion-narrative/\xc2\xa0\xe2\x80\xa6 via @LibertyHeadline'
p52
S'3:45 PM - 20 Jan 2018'
p53
tp54
a(S'Democrats have proven to be a cancer to this country.  You want to find a case on collusion with Trump and Russia but look no further in the mirror my friend the Democrats have been colluding with Russia for years and arming the DOJ and FBI Against your own citizens. Sickening.'
p55
S'3:39 PM - 20 Jan 2018'
p56
tp57
a(S"The only two charges have been abt a lie told to the FBI and money crimes.... No Russia collusion... So again you're wrong ok"
p58
S'3:39 PM - 20 Jan 2018'
p59
tp60
a(S"You think this whole time investigating Trump by Mueller et al was looking for Trump/ Russia collusion...wrong. The time spent was making sure all of their asses incl HRC was covered. Talk about this country's biggest cover up!"
p61
S'3:37 PM - 20 Jan 2018'
p62
tp63
a(S'The phony Russia collusion investigation is not defunded in the shutdown but military families and widows and their kids don\xe2\x80\x99t get paid. Chuckle doesn\xe2\x80\x99t care he is doing this for illegals.  https://constitution.com/schumers-shutdown-congress-scrambling-reopen-swamp/\xc2\xa0\xe2\x80\xa6'
p64
S'3:36 PM - 20 Jan 2018'
p65
tp66
a(S'DEMOCRAT - RUSSIA COLLUSION BY FAR,\n\nIS WHAT WILL PUT DEMOCRATS & OBAMA ADMIN BEHIND BARS!\n\nWE CAN NO LONGER TRUST DEMOCRATS TO DO THE RIGHT THING,\n\nBECAUSE OBAMA, THE DEMOCRAT \xe2\x80\x9cCOMMUNIST KING\xe2\x80\x9d,\n\nCONTINUALLY DID THE WRONG THING!\n\n#SchumerShutdown\n#ReleaseTheMemopic.twitter.com/fHACfUPoFa'
p67
S'3:35 PM - 20 Jan 2018'
p68
tp69
a(S'Seems to me I\xe2\x80\x99ve heard this before.  And then you Lost the election and instead of blaming your own Bullshit.. you blamed Russia and Collusion.. All lies & Manipulation - which is why you can\xe2\x80\x99t win unless you have a White Minority.'
p70
S'3:29 PM - 20 Jan 2018'
p71
tp72
a(S'How about @DNC propaganda efforts re Russia "collusion"? \n\n"You\'ve been retweeting accounts associated with Trump Derangement Syndrome."\n\nCc: @ScottAdamsSays'
p73
S'3:28 PM - 20 Jan 2018'
p74
tp75
a(S"And yet the GOP does nothing. He spends all of 2017 lying through his teeth about Russia collusion and leaking information and he's not censured, not punished in any way. It's disgusting."
p76
S'3:27 PM - 20 Jan 2018'
p77
tp78
a(S'#TrumpRussia The evidence is definitely mounting. I think the proper word to use moving forward is "conspiracy" though versus "collusion." The parties may not have coordinated a lot but Trump & some Republicans knew Russia was facilitating a Trump/GOP win & they were AOK with it.'
p79
S'3:27 PM - 20 Jan 2018'
p80
tp81
a(S"Since day 1 of the Russia bullshit we've been calling for the immediate release of any evidence of trump collusion. #ReleaseTheMemo is no different. If there's something untoward going on, we want to know. #Obamagate"
p82
S'3:26 PM - 20 Jan 2018'
p83
tp84
a(S"They are not going to accept the info in the memo's without a bloody fight as the media's credibility is tied up in the success of the Russia Collusion story. They have spent months defending and pushing that narrative to protect their queen Hillary & it is all unraveling on them"
p85
S'3:26 PM - 20 Jan 2018'
p86
tp87
a(S'Funny!!!  @CNN you will all be old dead stiffs dust of the earth trying to make the collusion with @POTUS & Russia STICK LOL https://twitter.com/IsraelUSAforevr/status/954791071673999361\xc2\xa0\xe2\x80\xa6'
p88
S'3:26 PM - 20 Jan 2018'
p89
tp90
a(S"Blame it on the Russia collusion  bs. That hasn't eorkedwellfor the morons on the left has it."
p91
S'3:24 PM - 20 Jan 2018'
p92
tp93
a(S'Dear Senator @JohnCornyn,\nIt would be helpful to all of us, especially our @POTUS, if you acknowledged you knew & understood our primary adversary is Russia & their meddling(collusion...etc..) is tantamount to a declaration of war & a grave danger to our democracy & sovereignty. https://twitter.com/JohnCornyn/status/954739322388930562\xc2\xa0\xe2\x80\xa6'
p94
S'3:23 PM - 20 Jan 2018'
p95
tp96
a(S'Unprecedented larceny for our Country, in so many ways. Collusion with Russia, obstruction of justice, violation of the emoluments clause, lying - and so much more. Big 2018! pic.twitter.com/iPdKjIuyVW'
p97
S'3:18 PM - 20 Jan 2018'
p98
tp99
a(S"You know of course this is not your grandfather's Democratic Party right? There is Russian collusion but it was between Obama and Clinton and other Communists within our government. What does it matter who signed off it just means they also colluded with Russia over Uranium deal."
p100
S'3:18 PM - 20 Jan 2018'
p101
tp102
a(S'Fire Robert Mueller Now!\n\nand Shut Down This\xc2\xa0FakeTrump-Russia Collusion Scandal!\n\nSign the Petition Online http://www.majoritynext.com/\xc2\xa0'
p103
S'3:16 PM - 20 Jan 2018'
p104
tp105
a(S'This is the real collusion McCabe and Ohr had a direct contact to Russia https://twitter.com/thomas1774paine/status/954833414250577921\xc2\xa0\xe2\x80\xa6'
p106
S'3:14 PM - 20 Jan 2018'
p107
tp108
a(S'This week in Trump-Russia news: Shutdown won\xe2\x80\x99t stop Mueller probe - Mic #TrumpShutdown #TrumpRussia #Russiagate #Collusion #Treason #Resistancehttps://apple.news/Aqz3dZWBARaOTODp9gJaQCg\xc2\xa0\xe2\x80\xa6'
p109
S'3:12 PM - 20 Jan 2018'
p110
tp111
a(S'And none of it has anything to do with collusion with Russia to alter the outcome of an election, which is what he was hired to do.  Then he shifted to obstruction of justice, which produced another dead end.  But be careful what you wish for, are you sure you want a Pres Pence?'
p112
S'3:10 PM - 20 Jan 2018'
p113
tp114
a(S'Dems about to be arrested because if Russia collusion haha'
p115
S'3:09 PM - 20 Jan 2018'
p116
tp117
a(S'Disgusting exhibit of collusion with Russia. The whole bunch is Dossier-ready.\n\nBarrel-o-traitors. pic.twitter.com/8jpJcKDUTj'
p118
S'3:07 PM - 20 Jan 2018'
p119
tp120
a(S'do you think if there was a top secret intel report with evidence of trump/russia collusion the dirty dems wouldnt have leaked it all over the media and the media would run it all day/night?  @HouseGOP #ReleaseTheMemo'
p121
S'3:07 PM - 20 Jan 2018'
p122
tp123
a(S'#MoscowMark  (AKA @RepMarkMeadows ) is carrying water for Vladimir Putin, trying to shut down the investigation into the collusion between @realDonaldTrump and Russia. One has to ask why: what is #MoscowMark hiding? His fingerprints are all over this obstruction of justice.https://twitter.com/RepMarkMeadows/status/954199802790768644\xc2\xa0\xe2\x80\xa6'
p124
S'3:05 PM - 20 Jan 2018'
p125
tp126
a(S'Russia.. collusion..selling the United States of America..Liar.. How ya doin?'
p127
S'3:01 PM - 20 Jan 2018'
p128
tp129
a(S'Please learn that there is a difference between IMMIGRANTS and ILLEGAL immigrants. Tell me.  After a year and a half, NOTHING on collusion. Nothing.  In a year, what has been handed over to Russia? Who the hell cares about Russia? They have no power.  Their GDP is HALF of CA.'
p130
S'3:00 PM - 20 Jan 2018'
p131
tp132
a(S'#ReleaseTheMemo We the people, have a right to know what this memo says after spending the last year listening to all the MSM and Democrat hacks haranguing non stop about President Trump and a Russia collusion conspiracy! RELEASE THE MEMO NOW!'
p133
S'3:00 PM - 20 Jan 2018'
p134
tp135
a(S'@realDonaldTrump @SethAbramson\nNo Collusion? Sure Donny.\nAmid Trump\xe2\x80\x99s inaugural festivities, members of Russia\xe2\x80\x99s elite anticipated a thaw between Moscow and Washington\nhttp://wapo.st/2mXKKW6\xc2\xa0'
p136
S'3:00 PM - 20 Jan 2018'
p137
tp138
a(S'RUSSIA COLLUSION WAS A SETUP from Obama brown shirt Govt.. https://twitter.com/SebGorka/status/954725858517929985\xc2\xa0\xe2\x80\xa6'
p139
S'2:59 PM - 20 Jan 2018'
p140
tp141
a(S'Republicans and the #shitholepresident sounds like a broken record i guess ya think if repeated enough we will believe it just like no russia collusion and the 16 women that alleged he molested them'
p142
S'2:56 PM - 20 Jan 2018'
p143
tp144
a(S'You forgot to include collusion with Russia, sex with porn stars, your despicable to your wife, disrespects women, and all the corruption that your families involved in.'
p145
S'2:55 PM - 20 Jan 2018'
p146
tp147
a(S'Still waiting for the russia collusion evidence..'
p148
S'2:52 PM - 20 Jan 2018'
p149
tp150
a(S"I'm betting if Hillary ,Obama among others like FBI Comey get put in jail CNN and CNBC will never cover it 2 yrs later they will still be talking about Trump Russia collusion."
p151
S'2:50 PM - 20 Jan 2018'
p152
tp153
a(S" the only collusion is between Russia and usa is through  Dem's and HRC AND OBAMA!"
p154
S'2:49 PM - 20 Jan 2018'
p155
tp156
a(S'We have #TrumpShutDown and had 365 days of chaos. Your approval rating is the lowest of any president in history. You tell 5-6 lies every day. Your collusion with Russia will come to light and Dems will win lots of seats in November.'
p157
S'2:48 PM - 20 Jan 2018'
p158
tp159
a(S'But Teddy if he is working for Putin this wouldn\xe2\x80\x99t be happening, and he wouldn\xe2\x80\x99t give Ukraine anti tank weapons. So I guess you now concede there is no Trump - Russia collusion. Took you long enough but welcome  to reality'
p160
S'2:48 PM - 20 Jan 2018'
p161
tp162
a(S'@SenSchumer seems desperate. Mueller probe stalling and proving no Russia Collusion has failed. All he can do to stop Trump Making America First again is to shut down the government. This is treason. #SchumerShutdown #DrainTheSwamp #TRUMP #MAGA @realDonaldTrump'
p163
S'2:46 PM - 20 Jan 2018'
p164
tp165
a(S"#Trey Gowdy Just REVEALED Adam Schiff's Plans To Proove Fake Trump-Russia Collusion - #https://youtu.be/vte6jhkMPDg pic.twitter.com/yCdMTkwdFR"
p166
S'2:44 PM - 20 Jan 2018'
p167
tp168
a(S'Try to keep up.  Russia was bogus.  Only Russian collusion was Hillary & Obama.  \nFISA memo news snubbed by Mainstream Media\nhttps://constitution.com/fbis-fisa-memo-scandal-is-big-news-but-snubbed-by-mainstream-media/\xc2\xa0\xe2\x80\xa6'
p169
S'2:43 PM - 20 Jan 2018'
p170
tp171
a(S'How\xe2\x80\x99s that \xe2\x80\x9cresistance\xe2\x80\x9d tour going for ya? Trump/Russia collusion *FAIL, not fit for office *FAIL, he\xe2\x80\x99s a misogynist *FAIL, it\xe2\x80\x99s a \xe2\x80\x9ctax scam\xe2\x80\x9d *FAIL, etc etc etc FAIL FAIL FAIL'
p172
S'2:42 PM - 20 Jan 2018'
p173
tp174
a(S'Hey @DemocratSoldier you may need to update your BIO from @POTUS Russia collusion to @HillaryClinton @BarackObama #Comey @FBI @HouseDemocrats committed #HighCrimes possibly #Treason    soon we will know it all when they #ReleaseTheMemopic.twitter.com/LQYEhLKXBn'
p175
S'2:42 PM - 20 Jan 2018'
p176
tp177
a(S'What collusion with Russia?  Never mind that we are colluding with Russia in real-time and in broad daylight!  '
p178
S'2:40 PM - 20 Jan 2018'
p179
tp180
a(S'The Russia-collusion witch hunt was the pretext to get legal access to Trump\xe2\x80\x99s financial records. He\xe2\x80\x99s been laundering dirty Russian money for 20 years.'
p181
S'2:40 PM - 20 Jan 2018'
p182
tp183
a(S'All the evidence the FBI has produce says others that there was collusion with Russia'
p184
S'2:39 PM - 20 Jan 2018'
p185
tp186
a(S'Government Shutdown, racist comments, extra-marital affairs, offending gold star families, waging a war on black NFL Players, record number of people leaving your administration, Russia collusion, endorsing white supremacist, Mueller investigation etc'
p187
S'2:35 PM - 20 Jan 2018'
p188
tp189
a(S'Collusion and Control: Russia and Donald Trump http://russiatrumpcollusion.com/\xc2\xa0 #HoldTrumpAccountable'
p190
S'2:34 PM - 20 Jan 2018'
p191
tp192
a(S"Bullshit! My account didn't exist in 2016 and I got exact the same email. I am yet to see a Russian bot along with a proof of that Muh Russia collusion. You can find my first tweet. It's easily verifiable. pic.twitter.com/TuyJUFk0Qc"
p193
S'2:34 PM - 20 Jan 2018'
p194
tp195
a(S'while that isn\xe2\x80\x99t good and needs to be addressed if true, what does this have to do with anything related to the Mueller \xe2\x80\x9cRussia Collusion\xe2\x80\x9d investigation?  this is smoke you are letting off to take away from the real collusion the HRC campaign lived in as well as the FISA scandal.'
p196
S'2:34 PM - 20 Jan 2018'
p197
tp198
a(S'Let me show you how to spend all the money on a wall and give America away in tax money to millionaires, piss the world off, start a war befriend Russia while I give Putin a blow job not getting impeached no collusion\nhttps://twitter.com/chavezglen1755/status/954842996331048960\xc2\xa0\xe2\x80\xa6'
p199
S'2:33 PM - 20 Jan 2018'
p200
tp201
a(S'Dear @Twitter and @jack , there\xe2\x80\x99s no Russia collusion. It is a conspiracy. So it\xe2\x80\x99s time to stop.'
p202
S'2:31 PM - 20 Jan 2018'
p203
tp204
a(S'Yea, a government shutdown, investigations on Trump- Russia collusion, multiple failures to end the ACA, paying of your largest donors with a tax cut, taking healthcare away from 9 million children... you must be so proud...'
p205
S'2:30 PM - 20 Jan 2018'
p206
tp207
a(S'Let them protest thats all they have done for over a year why are we paying them not one vote on the tax plan from a dem  Russia collusion Racist Sexism is there platform they have made there choices illegals before citizens just look at the West cost Sanctuary state  $ 4 illegal https://twitter.com/thehill/status/954837209680699392\xc2\xa0\xe2\x80\xa6'
p208
S'2:28 PM - 20 Jan 2018'
p209
tp210
a(S'Btw are you even following the news? Can your baby hands please reach for real information? The Russia collusion are via democrats. I will accept your apology later once you reach the age of reasoning.'
p211
S'2:28 PM - 20 Jan 2018'
p212
tp213
a(S"I think the Dems are in such a hurry to do a DACA deal because they no that soon the Russia collusion thing is going to be off the table... lol their running out of ammo to smoke screen bad stuff against the President... they can't just get over they LOST... geeze"
p214
S'2:26 PM - 20 Jan 2018'
p215
tp216
a(S'Lol so pretty much all liberal agenda news outlets whom all pushed Russia collusion for over a year and a half. '
p217
S'2:25 PM - 20 Jan 2018'
p218
tp219
a(S'And there never was any Trump/Russia collusion. That\xe2\x80\x99s all bullshitt too.'
p220
S'2:25 PM - 20 Jan 2018'
p221
tp222
a(S'FACEBOOK COLLUSION WITH SOCIALIST OLIGARCHS IS WAY WORSE THAN ALL THE RUSSIA MEDDLING IN OUR SYSTEM. WE NEED TO FIGHT FACEBBOOK'
p223
S'2:25 PM - 20 Jan 2018'
p224
tp225
a(S'In the crowd at Trump\xe2\x80\x99s inauguration, members of Russia\xe2\x80\x99s elite anticipated a thaw between Moscow and Washington http://wapo.st/2mXKKW6?tid=ss_tw&utm_term=.43d2ba15cb0e\xc2\xa0\xe2\x80\xa6\nThe evidence of collusion grows and grows and Trumps arrogance is going to be his downfall.\nLet us hope Mueller will take him down.'
p226
S'2:24 PM - 20 Jan 2018'
p227
tp228
a(S'Conjecture re collusion.. Of course! We are in bed with Russia, and England and Germany. Everybody polka!'
p229
S'2:22 PM - 20 Jan 2018'
p230
tp231
a(S"That's what y'all said when he won election too. And I'm pretty sure your news channel has done nothing but push Russia collusion... Turns out it's looking like the only collusion and felonies committed where by the DNC. So please explain to me how cnn got that wrong for a year?"
p232
S'2:22 PM - 20 Jan 2018'
p233
tp234
a(S'Nick, I totally agree. There is no comedy with Russia. Which is why the House should release the documents showing Clinton/Obama/DOJ/FBI/Fushion GPS/Christopher Steele/RUSSIA collusion\n#ReleaseTheMemo'
p235
S'2:20 PM - 20 Jan 2018'
p236
tp237
a(S'Going to State prison for his collusion with Russia we going to shut him down!!!!!'
p238
S'2:18 PM - 20 Jan 2018'
p239
tp240
a(S'Can you get the millions of taxpayers money returned for the bogus Trump/Russia collusion?'
p241
S'2:18 PM - 20 Jan 2018'
p242
tp243
a(S'It means the FBI isn\'t working (including the investigation of the "Russia Hacking/Collusion"), it means the CIA isn\'t working, it means practically anything related to the government isn\'t working. 2018 will have a rocky start and you\'ll feel it on the economy soon enough.'
p244
S'2:14 PM - 20 Jan 2018'
p245
tp246
a(S'Classified Memo May Destroy Trump-Russia Collusion Narrative http://bit.ly/2mWokVc\xc2\xa0'
p247
S'2:10 PM - 20 Jan 2018'
p248
tp249
a(S'JULY 11, 2015 Maria Butina head of the Russian public organization of gun rights asks About Sanctions at Trump Rally - Collusion 3.0: Russia and the NRA\nhttp://www.nationalreview.com/article/455614/russia-national-rifle-association-trump-campaign-alexander-torshin-maria-butina-organized-crime\xc2\xa0\xe2\x80\xa6\n\nCheck overall timeline:http://billmoyers.com/story/trump-russia-timeline/\xc2\xa0\xe2\x80\xa6'
p250
S'2:09 PM - 20 Jan 2018'
p251
tp252
a(S'Amid Trump\xe2\x80\x99s inaugural festivities, members of Russia\xe2\x80\x99s elite anticipated... - The Washington Post\n\nCollusion!\n"...members of Russia\xe2\x80\x99s elite at Trump\xe2\x80\x99s inauguration was evidence of the...Trump stunned U.S... by repeatedly praising Russian President..." https://apple.news/AR22FcogZSK6AP5YwpBLBXg\xc2\xa0\xe2\x80\xa6'
p253
S'2:08 PM - 20 Jan 2018'
p254
tp255
a(S'Lol!  Wake up!  Only collusion is with HRC, Dems on Russia.  #ObamaGate #ReleaseTheMemo #GreatAwakening #QAnon'
p256
S'2:06 PM - 20 Jan 2018'
p257
tp258
a(S'Americans are as a nation responsible. The political structure has failed, Trump is a traitor,  GOP collusion with POTUS to hide treason is obvious!  This government is illegitimate and should stay shut down till all GOP is out or in jail for working with Russia! Obstruction GOP!'
p259
S'2:04 PM - 20 Jan 2018'
p260
tp261
a(S"I still don't understand the Russia hysteria. What did they do? Collusion? How? Wikileaks? Nothing to do with Russia, but did expose widespread corruption of the democratic candidate. Someone please explain this to me."
p262
S'2:01 PM - 20 Jan 2018'
p263
tp264
a(S"The governments of all the s##thole countries are open for business today. Ours, is not. The protest you're seeing today is the tip of the iceberg. Wait till Americans learn about your parties collusion with russia."
p265
S'2:00 PM - 20 Jan 2018'
p266
tp267
a(S'They are terrified that the depths of the corruption of the FBI + Intelligence services under the Obama administration will be revealed. #ReleaseTheMemo and expose the facts of the Russia Collusion strategy of Podesta+Dems. #tcot #tlot #tgdnhttps://twitter.com/LeahR77/status/954835276911792128\xc2\xa0\xe2\x80\xa6'
p268
S'2:00 PM - 20 Jan 2018'
p269
tp270
a(S"Wow, the propaganda is strong in these muddy times of Our Lord 2018. I don't think Russia had much to do with anything. There is no proof of collusion and there likely never will be. Russia did not make me vote for Trump. Not wanting to elect criminals on the left did!"
p271
S'1:57 PM - 20 Jan 2018'
p272
tp273
a(S'It\'s amazing Democrats care about "Russia collusion" when they "helped trump" win, but when it comes to Democratic Party allegedly working with foreign intelligence and Russian actors to frame a president candidate, all of a sudden they don\'t care anymore.. '
p274
S'1:57 PM - 20 Jan 2018'
p275
tp276
a(S'Andy McCarhy: \xe2\x80\x9cCollusion 3\xe2\x80\xa40: Russia and the NRA\xe2\x80\x9d http://www.nationalreview.com/article/455614/russia-national-rifle-association-trump-campaign-alexander-torshin-maria-butina-organized-crime\xc2\xa0\xe2\x80\xa6 via @NRO'
p277
S'1:56 PM - 20 Jan 2018'
p278
tp279
a(S'The shutdown stopped the Russia collusion investigation and when Mueller was furloughed he lost chain of custody of his work product. It no longer has any value.  Heh, heh, heh'
p280
S'1:55 PM - 20 Jan 2018'
p281
tp282
a(S'Wrong..what\xe2\x80\x99s fake are tired leftists promising a Russia and Trump collusion explosion that will put Hillary into the White House..it\xe2\x80\x99s been a year..where\xe2\x80\x99s your evidence..'
p283
S'1:54 PM - 20 Jan 2018'
p284
tp285
a(S"@IngrahamAngle  Did you get your Russia collusion letter from Twitter ? They want to attack conservatives than it's time for our own social media platform.  #MAGA"
p286
S'1:54 PM - 20 Jan 2018'
p287
tp288
a(S"After 1 year of Trump:\n- Russia collusion is still unproven.\n- Trump did a few good things like tax cuts and deregulation.\n- Although he has done some very stupid things, Trump hasn't made any yuge mistakes yet.\nConclusion: Trump hasn't been as bad as expected."
p289
S'1:53 PM - 20 Jan 2018'
p290
tp291
a(S"How's that Russia Collusion going Demonrats? https://twitter.com/CajunJarhead/status/954817385537695746\xc2\xa0\xe2\x80\xa6"
p292
S'1:53 PM - 20 Jan 2018'
p293
tp294
a(S'Memo release, russia probe over, DNC corruption exposed, DNC went all in for DACA=shutdown, media collusion likelyexposed, obama off the campaign trail2018. You fell for the #trumptrap#didit2urselfs'
p295
S'1:52 PM - 20 Jan 2018'
p296
tp297
a(S"F that..stop waste in my money...unless u wanna put hillary..obama..lynch...all higher ups in the cia..fbi..nsa...in chains...and or stop the idiotic Russia collusion witch hunt...who do u work for sessions...I'm not thinkn it's we the people...wth http://www.foxnews.com/politics/2018/01/19/feds-to-retry-senator-bob-menendez-in-bribery-case.amp.html?__twitter_impression=true\xc2\xa0\xe2\x80\xa6"
p298
S'1:52 PM - 20 Jan 2018'
p299
tp300
a(S'So you were happy with Obama stealing the nomination from Hillary. 2. The Russia collusion had little to do with the Syria conflict and everything to do with Hillary calling out Putin\'s sham "elections" in Russia back in 2011. Of course, you don\'t care about what Russia did in'
p301
S'1:51 PM - 20 Jan 2018'
p302
tp303
a(S"Shiff is still planning the realize of his Russia collusion proof. I think it's day 343 now. Any second now!"
p304
S'1:48 PM - 20 Jan 2018'
p305
tp306
a(S"Isn't a government shutdown an effective distraction from the continuing revelations about Russian collusion? We're not fooled, @realDonaldTrump. In crowd at Trump\xe2\x80\x99s inauguration, members of Russia\xe2\x80\x99s elite anticipated a thaw between Moscow and Washington http://wapo.st/2mXKKW6?tid=ss_tw&utm_term=.bcc7b2478891\xc2\xa0\xe2\x80\xa6"
p307
S'1:47 PM - 20 Jan 2018'
p308
tp309
a(S'Patience. The arrests won\'t happen all at once, or even particularly quickly. Have you dropped into the replies in "muh Russia collusion" tweets from journos? Trump needs to be very careful not to be seen as acting like a "dictator"'
p310
S'1:47 PM - 20 Jan 2018'
p311
tp312
a(S'So Mueller is investigating possible collusion between our longtime adversary Russia and the Trump campaign/ Administration. Then Trump aides in the shutdown of the government in 1 yr flat. @realDonaldTrump, this was the plan  all along huh?  #shutdown2018'
p313
S'1:43 PM - 20 Jan 2018'
p314
tp315
a(S'No sanctuary cities, NO voter Fraud, No Chain immigrants, NO Lotery Visa, Stop all pay for Congress for next 10 months, Build Wall, Prosecute All crooks, Hillary and DNC for collusion w/Russia interfering in election, fake dossier, bribes, lies, cheating on DNC nomination https://twitter.com/VETERAN_UP/status/954825833377681408\xc2\xa0\xe2\x80\xa6'
p316
S'1:39 PM - 20 Jan 2018'
p317
tp318
a(S'@realDonaldTrump Collusion!! Amid Trump\xe2\x80\x99s inaugural festivities, members of Russia\xe2\x80\x99s elite anticipated a thaw between Moscow and Washingt https://www.washingtonpost.com/politics/amid-trumps-inaugural-festivities-members-of-russias-elite-anticipated-a-thaw-between-moscow-and-washington/2018/01/20/0d767f46-fb9f-11e7-ad8c-ecbb62019393_story.html\xc2\xa0\xe2\x80\xa6pic.twitter.com/sCLfCEPohq'
p319
S'1:38 PM - 20 Jan 2018'
p320
tp321
a(S"Trump has been a target to the FSB even before it changed it's name from the KGB. The amount of kompromat they have on him has got to be staggering! #collusion: how Russia helped Trump win the white house @lukeharding1968"
p322
S'1:37 PM - 20 Jan 2018'
p323
tp324
a(S'It\xe2\x80\x99s easy to say things without proof , but it\xe2\x80\x99s been proven that Clinton not only let Americans die but had collusion with Russia, plus she was great for the women movement being married to such a gentleman!'
p325
S'1:34 PM - 20 Jan 2018'
p326
tp327
a(S'Unmmm I hate to break this to you but that\xe2\x80\x99s not at all why people are marching today. They are protesting your administration and failed policies,your bullying tactics, racist comments,  your collusion with Russia, treatment of women to name a few. #TrumpShutdown'
p328
S'1:32 PM - 20 Jan 2018'
p329
tp330
a(S'Yes, #ReleaseTheMemo then what? It\xe2\x80\x99s Democrats in collusion w/ Russia? \n\nWell then damn, trump just watching out for HRC by trying to lift sanctions, and having drinks w/ Russia in the Oval Office huh? \n\nWhere\xe2\x80\x99s a#Dotard\xe2\x80\x99s Logic?'
p331
S'1:32 PM - 20 Jan 2018'
p332
tp333
a(S'I must commend President Trump, he is right when he said there was no collusion between Russia and him. However he never said there was no money laundering going on. @realDonaldTrump'
p334
S'1:31 PM - 20 Jan 2018'
p335
tp336
a(S'"THERE IS NO COLLUSION WITH RUSSIA!"\n\n*colludes with Russia to spread message.'
p337
S'1:30 PM - 20 Jan 2018'
p338
tp339
a(S"Let's highlight the crimes this Administration has committed collusion with a foreign power lying to FBI Hush money for porn stars money laundering obstruction of justice trying to stop sanction against Russia still hasn't signed that under investigation from day one"
p340
S'1:22 PM - 20 Jan 2018'
p341
tp342
a(S"It's peculiar how all of these vacuous accusations of *Russia Collusion* are never presented with any citations of proof. Why is that @funder ?"
p343
S'1:22 PM - 20 Jan 2018'
p344
tp345
a(S'Hey dumb-ass prez, no one is marching to celebrate you.  You are so desperate for accolades that you try to make this a celebration about you.  You are delusional and pathetic.  Just shut up already. \n#TrumpShutdown\n#Collusion\n#Russia\n#WomensMarch2018https://twitter.com/realDonaldTrump/status/954788467069870081\xc2\xa0\xe2\x80\xa6'
p346
S'1:20 PM - 20 Jan 2018'
p347
tp348
a(S'Collusion?, no, Conspiracy! Republicans conspired with Russia to put trump in the WH!'
p349
S'1:19 PM - 20 Jan 2018'
p350
tp351
a(S'@realDonaldTrump \n\nNo bills passed. Government shutdown. Russia collusion. Divided America. Fights with NFL, NBA, NHL. Pornstar and pee tape sex...  declaring holidays that were ALREADY holidays and taking credit. Golfing every weekend.  \n\nYup...winning!\n\n#ThingsObamaNeverDid'
p352
S'1:15 PM - 20 Jan 2018'
p353
tp354
a(S'Word restriction is 10 max. But I think most people now connect the concept of "collusion" with Russia. If not then hopefully a billboard like this one will prompt them to ask. Billboards like these should be generating questions and discussion.'
p355
S'1:15 PM - 20 Jan 2018'
p356
tp357
a(S'Schiff denounces the memo stating it is full of falsehoods. Sounds like he is talking about Russia collusion to me.'
p358
S'1:14 PM - 20 Jan 2018'
p359
tp360
a(S'God you people and your fucking horribly photoshopped memes. Aren\xe2\x80\x99t you guys supposed to be computer savvy in Russia? I guess not fluent in Adobe just collusion and election interfering.'
p361
S'1:12 PM - 20 Jan 2018'
p362
tp363
a(S"Oh & add Benghazi & Haiti to possible HC allegations/scandals/investigations. Apart from the now debunked Trump-Russia collusion & few 'tenuous' harassment claims, the Dems have got 0 impeachable dirt on Trump. Hence their obvious panic/desperation. "
p364
S'1:11 PM - 20 Jan 2018'
p365
tp366
a(S'Funny how the Democrats were leaking left and right to the press about the Russia \xe2\x80\x98collusion\xe2\x80\x99 investigation, but now that there\xe2\x80\x99s an incriminating information about Obama\xe2\x80\x99s FISA program the leaks stopped cold. #ReleaseTheMemo'
p367
S'1:09 PM - 20 Jan 2018'
p368
tp369
a(S'Arch-conservative McCarthy is shocked by the NRA\xe2\x80\x99s massive funding from Russia. Note also that he feels he has to warn his fellow-Republicans that Putin is an ENEMY, not a friend. (You can simply read past his Trump campaign collusion denials.) http://tinyurl.com/ya8zerpy\xc2\xa0'
p370
S'1:07 PM - 20 Jan 2018'
p371
tp372
a(S'Collusion: Secret Meetings, Dirty Money, and How Russia Helped Donald Trump Win http://amzn.to/2DttNe1\xc2\xa0pic.twitter.com/0j6s8bam2w'
p373
S'1:06 PM - 20 Jan 2018'
p374
tp375
a(S'Collusion 3.0: Russia and the NRA http://bit.ly/2DSm35n\xc2\xa0'
p376
S'1:06 PM - 20 Jan 2018'
p377
tp378
a(S"There weren't as many lawyers employed before your collusion with Russia, either. Of course govt wasn't shut down, Puerto Ricans had roofs over their heads and electricity, you weren't in Mar-A-Lago, and US had morals.\n#AmericanDisgrace\n#unfitforoffice\n#resist"
p379
S'1:06 PM - 20 Jan 2018'
p380
tp381
a(S"@SenFeinstein  racist ,Russia, collusion. Now we're gonna die again. As long as your wallet is filled\nRight?Hypocrite your lies are everywhere! No Daca!! pic.twitter.com/LmIvDFoQEY"
p382
S'1:04 PM - 20 Jan 2018'
p383
tp384
a(S"Democrat's transparency crusader Rep Adam Schiff who leaked started Russia Collusion Suddenly Does NOT want to #ReleaseTheMemo on FISA https://twitchy.com/dougp-3137/2018/01/20/rep-adam-schiff-election-transparency-crusader-does-not-want-to-releasethememo/\xc2\xa0\xe2\x80\xa6 via @twitchyteam"
p385
S'1:03 PM - 20 Jan 2018'
p386
tp387
a(S'Classified FISA Abuse Memo May Kill Media\xe2\x80\x99s Trump-Russia Collusion Narrative https://www.lifezette.com/polizette/classified-fisa-abuse-memo-may-kill-medias-trump-russia-collusion-narrative/\xc2\xa0\xe2\x80\xa6 via @LifeZettepic.twitter.com/YsugaQZQjA'
p388
S'1:02 PM - 20 Jan 2018'
p389
tp390
a(S'Russia collusion didn\xe2\x80\x99t work, saying he isn\xe2\x80\x99t of sound mind didn\xe2\x80\x99t work so shut down government and hurt our military and  deplorables. What will the Dems think of next. How about using some of that hate and work to make America the best ever not focused on your pockets and votes'
p391
S'12:59 PM - 20 Jan 2018'
p392
tp393
a(S'Ted, I know that you are a real Patriot. Did you view the report from house Intel relating 2 FBI, fisa, Russia collusion?'
p394
S'12:58 PM - 20 Jan 2018'
p395
tp396
a(S'And Trump won regardless of what you and the other crybabies think, and did it without collusion with Russia like Hillary did ....'
p397
S'12:58 PM - 20 Jan 2018'
p398
tp399
a(S"It's 43rd dimensional underwater backgammon. If there is no evidence, no trails, no money, and nobody who is doing Russian collusion, and then we have military threats against Russia and sanctions and we give money to israel, then no one will know that Russia is behind it all."
p400
S'12:56 PM - 20 Jan 2018'
p401
tp402
a(S'The Russia Collusion Investigation Was A Scam. #Trump Will Pardon @GenFlynn!!!\n\n#FreeFlynnhttps://twitter.com/Thomas1774Paine/status/954639689671172096\xc2\xa0\xe2\x80\xa6'
p403
S'12:55 PM - 20 Jan 2018'
p404
tp405
a(S'I got the same and replied \n\nAre you doing the same for accounts that are pushing the "Fake" Russia Collusion that never existed and that the Dems paid for and used our NIA\'s to spy on President Trump? \n\nSincerely,\nConcerned Twitter User'
p406
S'12:53 PM - 20 Jan 2018'
p407
tp408
a(S'The women are marching all over the world to PROTEST YOU and your xenophobia, your lies, your racism, your obstruction of justice, collusion with Russia, attacks on healthcare, and your unneeded border wall.'
p409
S'12:53 PM - 20 Jan 2018'
p410
tp411
a(S'@RepAdamSchiff @BradSherman Oh hey Adam & Brad it sure is odd for both of you to come out against making #ReleaseTheMemos public. Why whatever have you to hide? Oh we know there definitely was #Collusion with DEMOCRATS AND RUSSIA. You\xe2\x80\x99re so #FullOfShiff , uR both wide vagainas'
p412
S'12:52 PM - 20 Jan 2018'
p413
tp414
a(S'The #NeverTrump Russia collusion conspiracy fantasy is a religion of its own. No evidence, just faith.'
p415
S'12:52 PM - 20 Jan 2018'
p416
tp417
a(S'Sounds like twatter is trying to manipulate accounts to make it seem like the Russians affected the election more than the actual facts..to be able to extend Russia collusion investigation'
p418
S'12:52 PM - 20 Jan 2018'
p419
tp420
a(S'The only collusion was Hillary,Democrats, Fusion GPS, Russia, & FBI trying to keep Trump from getting elected.  Where Hillary campaign paid for the fake Trump Dossier which was used to get FISA approved spying on Trump campaign.  This is worse than watergate.  Will media cover?'
p421
S'12:52 PM - 20 Jan 2018'
p422
tp423
a(S'and this means what?   There was never any Trump/Russia collusion regarding the election.'
p424
S'12:49 PM - 20 Jan 2018'
p425
tp426
a(S'Elite Russians "donated" $145 million to the Clinton Foundation.\n\nBy the way, why did "donations" suddenly dry up in November 2016? Could it be these globalist racketeers suddenly realized they had been bribing the wrong person?\n\nThe only proven collusion is CLINTON/DNC/RUSSIA'
p427
S'12:48 PM - 20 Jan 2018'
p428
tp429
a(S'You MSM indoctrination of lies is showing. Anybody with sense knows even the Dems are saying there is no evidence of Trump-Russia collusion. Wake up!'
p430
S'12:48 PM - 20 Jan 2018'
p431
tp432
a(S'Will The Russian Collusion Investigation End By June 1. -  https://www.betmoose.com/bet/will-the-russian-collusion-investigation-end-by-june-1_-4011#bets-1\xc2\xa0\xe2\x80\xa6 #BetMoose #Russia #Collusion #Trump #Mueller #Bitcoin'
p433
S'12:48 PM - 20 Jan 2018'
p434
tp435
a(S'Collusion 3.0: Russia and the NRA http://natl.io/ZYGHY3\xc2\xa0 via @AndrewCMcCarthypic.twitter.com/vAUgBSDJl5'
p436
S'12:47 PM - 20 Jan 2018'
p437
tp438
a(S'the kardashians would\xe2\x80\x99ve pulled off collusion with russia without a hitch'
p439
S'12:47 PM - 20 Jan 2018'
p440
tp441
a(S'The evidence is the lack of proof of Trump/Russia collusion. The NSA director felt strongly enough about the abusive wiretapping of Trump Tower by the FBI led by Comey and Obama DOJ that he warned Trump of it at Trump Tower and the next day they relocated their office.'
p442
S'12:46 PM - 20 Jan 2018'
p443
tp444
a(S'THE ONLY RUSSIA COLLUSION WAS BANANA REPUBLIC DEMOCRATS!\n\nHRC & URANIUM 1\n\nOBAMA ADMIN SPYING ON AMERICAN CITIZENS UNLAWFULLY\n\nDNC (BRAZILLE) GIVING DEBATE QUESTIONS TO HILLARY\n\nWEAPONIZING IRS VS CITIZENS\n\n#ReleaseTheMemo\n#SchumerShutdown\n#BoycottTheSuperBowlpic.twitter.com/TQAC6OaBGJ'
p445
S'12:44 PM - 20 Jan 2018'
p446
tp447
a(S'@ChuckGrassley please declassify the document so that we, the people can know the real truth about what happened!\n\nThere was no Trump collusion with Russia!'
p448
S'12:43 PM - 20 Jan 2018'
p449
tp450
a(S"You're living a fantasy.  Whose your source that there is no such Trump/Russia collusion?"
p451
S'12:43 PM - 20 Jan 2018'
p452
tp453
a(S'#PotusOperandi is Trump :\n\nLying\nNepotism\nProfiteering\nCollusion with Russia - Putin \nRussian prostitute activities ( KGB )\n"Bone spur" excuse to dodge Vietnam War draft\nCheating on wife with porn star $130,000.00 payment\nRigging the US tax code for his own benefit & rich donors'
p454
S'12:42 PM - 20 Jan 2018'
p455
tp456
a(S'There are no other reliable sources that can indicate Trump - Russian collusion is real. You brought up mueller when I questioned you. You literally have ZERO real sources. There is no such thing as Trump Russia collusion. Its a fairtale.'
p457
S'12:41 PM - 20 Jan 2018'
p458
tp459
a(S"But he had no connections to Russia, no business deals in Russia, didn't know any Russians. There was no collusion! Sorry, but forgive us if we fail to take tRUmp's  word for anything."
p460
S'12:41 PM - 20 Jan 2018'
p461
tp462
a(S'#ReleaseTheMemo\nNext let\xe2\x80\x99s move on to Uranium One fraud. The real Russia Collusion stories are just now coming to light .'
p463
S'12:38 PM - 20 Jan 2018'
p464
tp465
a(S'DEMOCRATS HIDING FROM THE TRUTH THEIR BAG OF TRICKS GETTING OLD @realDonaldTrump declassification of documents would help show all AMERICAN PEOPLE who was in collusion with Russia @DNC @HillaryClinton FBI AND DOJ TIME TO SHOW ALL AMERICA WHO IS CORRECT TRUMP STRONG AMERICA FIRST'
p466
S'12:37 PM - 20 Jan 2018'
p467
tp468
a(S'Well, I have lost faith in cannot, because they were spreading lies about the (fake) Trump Russia collusion, and most of the big news outlets are biased against Trump.'
p469
S'12:36 PM - 20 Jan 2018'
p470
tp471
a(S'Classified FISA Abuse Memo May Kill Media\xe2\x80\x99s Trump-Russia Collusion Narrative https://www.lifezette.com/polizette/classified-fisa-abuse-memo-may-kill-medias-trump-russia-collusion-narrative/\xc2\xa0\xe2\x80\xa6 via @LifeZette'
p472
S'12:35 PM - 20 Jan 2018'
p473
tp474
a(S'Collusion 3.0: Russia and the NRA http://bit.ly/2DSm35n\xc2\xa0'
p475
S'12:34 PM - 20 Jan 2018'
p476
tp477
a(S'#SchumerShutdown is only a distraction from the Russia Collusion false narrative breaking news of the FISA Memo. #ReleaseTheMemohttps://twitter.com/PressSec/status/954698098978246656\xc2\xa0\xe2\x80\xa6'
p478
S'12:34 PM - 20 Jan 2018'
p479
tp480
a(S'He\'s not stopping the investigation with Mueller. Get ur facts straight B4 u look stupid. He said Mueller wouldn\'t find anything on him. The only collusion with "Russia" is w/ sweetie cakes Hillary.  Funny how you guys never talk about how she sold 25% of the U.S. Uranium.'
p481
S'12:32 PM - 20 Jan 2018'
p482
tp483
a(S"every thing that they did to Trump was criminal.It's all in the fisa memo.It was Obama and Hillary who started the Russian collusion after Trump became president.They abused there power using a fake dossier to get a wire tap on trump towers.Russia probe is dead"
p484
S'12:28 PM - 20 Jan 2018'
p485
tp486
a(S"Go away, little buttercup. I'm fully educated and I understand there has been no proof. You might want to look into the indictments on the GPS Fusion case which clearly shows collusion between Hillary  Rotten Clinton  the FBI and Russia."
p487
S'12:28 PM - 20 Jan 2018'
p488
tp489
a(S'Don\xe2\x80\x99t worry, there is more evidence of this so far that Trump/Russia \xe2\x80\x9ccollusion. Just #releasethememo.'
p490
S'12:26 PM - 20 Jan 2018'
p491
tp492
a(S'No the one Rosenstein beg Ryan not to show Congress. The Democrats do not want to release.... Worse than Watergate and this is only the beginning. You have not heard a word about Russia collusion have you?'
p493
S'12:24 PM - 20 Jan 2018'
p494
tp495
a(S'The Real Russian Collusion:\nThey sold our Uranium to Russia+HIllary Deposited $145 Million.\nThey Brokered Boeing Deal to build Jets for Russia+Hillary Deposited Millions.\nThey Paid Russia $12.4 Million for dirt on Trump+got Nothing! Russia ripped them off.\nObama Lied in your face pic.twitter.com/4mKXetj9Di'
p496
S'12:24 PM - 20 Jan 2018'
p497
tp498
a(S'Starting to stink like COLLUSION to me!!!! Amid Trump\xe2\x80\x99s inaugural festivities, members of Russia\xe2\x80\x99s elite anticipated a thaw between Moscow and Washington http://wapo.st/2mXKKW6?tid=ss_tw-amp\xc2\xa0\xe2\x80\xa6'
p499
S'12:23 PM - 20 Jan 2018'
p500
tp501
a(S'I live that you have fallen for the false Russia Collusion. \n\n#artidiot'
p502
S'12:23 PM - 20 Jan 2018'
p503
tp504
a(S'Stable enough to know that he was going to win, and stable enough to be proven right on the russia collusion, and stable enough to keep his campaign promise and clean up the Messiah Obama\xe2\x80\x99s mess, so yes, VERY stable, much to your disappointment'
p505
S'12:23 PM - 20 Jan 2018'
p506
tp507
a(S'Hey idiot in chief, the March is protesting YOU and your corrupt government. \n\nImmigration\nWomen\xe2\x80\x99s healthcare\nDACA\nChip\nMedicare\nMedicaid\nCommunity Healthcare\nVeterans Affairs\nAid for Peurto Rico\nGovernment Waste (golf trips)\nRussia Collusion\n\nWe care about ALL of these things.'
p508
S'12:21 PM - 20 Jan 2018'
p509
tp510
a(S'Keep dreaming.  No indictments to this day re Russia/Trump collusion. https://twitter.com/on_point_prg/status/954804121072107520\xc2\xa0\xe2\x80\xa6'
p511
S'12:21 PM - 20 Jan 2018'
p512
tp513
a(S'This is complete bs. There was NO Russia collusion'
p514
S'12:20 PM - 20 Jan 2018'
p515
tp516
a(S'Please list your facts of Russia collusion. Trump has done more for women within his corporation then Hillary and Obama combined.'
p517
S'12:19 PM - 20 Jan 2018'
p518
tp519
a(S'But look at the bright side... we have a strong loyal #Resistance opposition, one of the most deep red states was flipped to Blue in the Senate, the Russia collusion investigation which was first laughed at is getting more serious and believable day by day and of course SNL '
p520
S'12:18 PM - 20 Jan 2018'
p521
tp522
a(S'Since government is on shut down does that mean Muller Investigation into Trump Russia election collusion  has been shut down too?  Hummm, that can explain WH interest.'
p523
S'12:17 PM - 20 Jan 2018'
p524
tp525
a(S"Oh how cute, that bigoted misogynistic rapist @realDonaldTrump is pretending these protests aren't about him or his party's decimation of our country in the name of white supremacy, tax giveaways for the 1%, treason & collusion with Russia! #TrumpShutdown #GovermentShutdownhttps://twitter.com/realdonaldtrump/status/954788467069870081\xc2\xa0\xe2\x80\xa6"
p526
S'12:15 PM - 20 Jan 2018'
p527
tp528
a(S'Mueller has nothing on him and has already statues that! There was no collusion and trump only made ties to Russia after he was elected which is normal for new administrations to do with foreign governments.  You are hanging onto this like republicans on Obama\xe2\x80\x99s birth cert'
p529
S'12:15 PM - 20 Jan 2018'
p530
tp531
a(S'\xe2\x80\x9cI don\xe2\x80\x99t Know any Russians! No Collusion No Collusion I Say!\xe2\x80\x9d  Amid Trump\xe2\x80\x99s inaugural festivities, members of Russia\xe2\x80\x99s elite anticipated a thaw between Moscow and Washington - The Washington Post https://apple.news/AR22FcogZSK6AP5YwpBLBXg\xc2\xa0\xe2\x80\xa6'
p532
S'12:10 PM - 20 Jan 2018'
p533
tp534
a(S'Email from @timkaine email still believes in Trump-Russia collusion, falsely implies @realDonaldTrump "very fine people" referred to white supremacists, and hides Trump\'s willingness to approve DACA in return for stopping illegal immigration.  Time for  a new senator!'
p535
S'12:09 PM - 20 Jan 2018'
p536
tp537
a(S'Maureen please put on your tin foil hat while you talk about the ridiculous claim of Russian collusion. Keep up your dream if you want, but you\xe2\x80\x99ll see soon that Hillary Clinton and her campaign were the only ones ACTUALLY colluding with Russia.'
p538
S'12:09 PM - 20 Jan 2018'
p539
tp540
a(S'Does Trump gain an advantage in the Russia Collusion investigation to #TrumpShutdown government?! #TrumpRussia #FirstAmendment'
p541
S'12:07 PM - 20 Jan 2018'
p542
tp543
a(S'There\xe2\x80\x99s no way anyone from my generation can sit there and say that the current President has been presidential in the way he\xe2\x80\x99s conducted himself.  And all of the collusion with Russia? As to what depth we still don\xe2\x80\x99t know, but any dealings with those red commies is too much.'
p544
S'12:06 PM - 20 Jan 2018'
p545
tp546
a(S'Another missed shot at cleverness. 16 months and no proof of collusion between the President and Russia but more and more keeps being revealed about the corruption and collusion on the left. How does it feel being a supporter of criminals?'
p547
S'12:04 PM - 20 Jan 2018'
p548
tp549
a(S'This is the collusion! Putin funneled almost 100 mil to nra to help elect Trump and congressmen. That\xe2\x80\x99s why the repub congressmen and Trump are trying to undermine the FBI and the Russia probe. This bigger than Watergate. Always follow the money. https://www.rollingstone.com/politics/news/the-trump-russia-nra-connection-heres-what-you-need-to-know-w515615\xc2\xa0\xe2\x80\xa6'
p550
S'12:04 PM - 20 Jan 2018'
p551
tp552
a(S"Why do you keep spouting made up fake news? The only russia collusion was between Obama, Hillary, and russia.  You're going to be mighty sad when Mueller's investigation locks up those 2 for their corruption and treason, and Trump gets his 2nd term..."
p553
S'12:02 PM - 20 Jan 2018'
p554
tp555
a(S"Oh you mean the Schumer Shutdown that prioritized 700K illegals over our troops and 9 million impoverished children? Yea that's a winning message. Good luck with that and the fake Russia collusion fantasy. Just wait until the memo is released that exposes the real Dem collusion."
p556
S'12:02 PM - 20 Jan 2018'
p557
tp558
a(S'Collusion 3.0: Russia and the NRA http://bit.ly/2DSm35n\xc2\xa0'
p559
S'12:01 PM - 20 Jan 2018'
p560
tp561
a(S'American Patriot Daily \xe2\x80\x93 The Russia Collusion Investigation Took A Horrible Turn For The Worse http://www.americanpatriotdaily.com/featured/russia-collusion-investigation/\xc2\xa0\xe2\x80\xa6'
p562
S'12:01 PM - 20 Jan 2018'
p563
tp564
a(S'@1RonnieD Twitter sent me an email about Russia collusion, I told them Liberals spread Fake news not Republican sites'
p565
S'11:56 AM - 20 Jan 2018'
p566
tp567
a(S"Doesn't mean Obama & Hillary are not going to pay for there collusion with Russia & interfering in a presidential election,this is not going to be swept under the rug & our future is looking fabulous thanks to Trump. #401k #Stocks #Rockin #LovingIt "
p568
S'11:56 AM - 20 Jan 2018'
p569
tp570
a(S'Give me an example that shows collusion between the GOP and Russia. An example that has been proven to be true. Not just speculation.'
p571
S'11:54 AM - 20 Jan 2018'
p572
tp573
a(S'Because obama put sanctions on Russia and kicked out their diplomats in order to keep up the Russian collusion narrative.'
p574
S'11:53 AM - 20 Jan 2018'
p575
tp576
a(S'@AdamSchiffCA #ReleaseTheMemo \nLet\xe2\x80\x99s Get To The Bottom Of This Fake Russia Collusion Narrative and show America how @HillaryClinton @DNC @TheDemocrats @FBI @TheJusticeDept @NSAGov Colluded to Undermine #Trump @realDonaldTrumphttps://twitter.com/donaldjtrumpjr/status/954393918241681409\xc2\xa0\xe2\x80\xa6'
p577
S'11:53 AM - 20 Jan 2018'
p578
tp579
a(S'\xe2\x80\x9cIn the Trump-Russia collusion story, you don\xe2\x80\x99t find any Russians.  Where you find the Russians is with the Clintons.  Where you find the Russians is with the Democrats.\xe2\x80\x9d - Rush Limbaugh pic.twitter.com/BObuiRbUwO'
p580
S'11:52 AM - 20 Jan 2018'
p581
tp582
a(S'Adam #Schiff Must Be Impeached! He Lied to the American People Continually About Trump & Russia Collusion Without Proof. How California Continues to Re-Elect Him Is Stunning. It Demonstrates How Screwed Up California Is When Continue to Re-Elect Waters, Pelosi & Schiff.'
p583
S'11:52 AM - 20 Jan 2018'
p584
tp585
a(S"What do you think everyone will do an say if it turns out that what trumps been saying all along is true .Wire tapping at trump tower .Clinton collusion,What do you think they'll say ? I bet this is what will be said . Trumps lying , their protecting him . Russia's protecting him"
p586
S'11:50 AM - 20 Jan 2018'
p587
tp588
a(S"Imagine how his voters will describe their support for him when Trump's collusion with Russia, his self-dealings, emoluments, and treason lead to his removal from office in disgrace, and hard prison time..."
p589
S'11:50 AM - 20 Jan 2018'
p590
tp591
a(S'Classified FISA Abuse Memo May Kill Media\xe2\x80\x99s Trump-Russia Collusion Narrative https://www.lifezette.com/polizette/classified-fisa-abuse-memo-may-kill-medias-trump-russia-collusion-narrative/\xc2\xa0\xe2\x80\xa6 via @LifeZette'
p592
S'11:46 AM - 20 Jan 2018'
p593
tp594
a(S'Yea your right kinda like the whole Russia collusion thing right. Go with peace bra!'
p595
S'11:44 AM - 20 Jan 2018'
p596
tp597
a(S'What\xe2\x80\x99s not there is any evidence of Russia/Trump collusion or obstruction of justice yet the Dems are wasting millions on the bogus investigation.  Another thing the do best, waste money.'
p598
S'11:42 AM - 20 Jan 2018'
p599
tp600
a(S'What difference does that make? Many people in this story have been in direct contact with Russia including Mueller.  Only collusion is paying for a false dossier and illegally spying on the Trump campaign.'
p601
S'11:41 AM - 20 Jan 2018'
p602
tp603
a(S'Agreed. You think what Comey did was wrong. I agree the issue should be settled in courts. And hopefully it will be with Sessions. But don\'t "be the Comey" for supporting Trump. Let the Russia collusion investigation continue and issue will be settled in court.'
p604
S'11:41 AM - 20 Jan 2018'
p605
tp606
a(S'If memo is released now, after shut down, the Dems will get what is due. I just want to see MSM forced to report on fake Russia collusion & see them squirm!'
p607
S'11:41 AM - 20 Jan 2018'
p608
tp609
a(S'Bill says: With the various and sundry scandals, FBI investigations, grand jury hearings, the Uranium One bribery arrest, the Fusion GPS Dossier conspiracy, and the Hillary-Russia collusion, it is very hard to get enough recreational healthy sex like the good old days. pic.twitter.com/Z1CWrTcj9x'
p610
S'11:40 AM - 20 Jan 2018'
p611
tp612
a(S'Over a year it has been investigated without any evidence or proof that there was so called Russia collusion. None. But yet we are still talking about it? This memo has evidence from the intel community in it. So, let\xe2\x80\x99s talk about that.?'
p613
S'11:39 AM - 20 Jan 2018'
p614
tp615
a(S'Are we still talking about collusion and Russia? #democratcollusion #democratsrussia #releasethememohttps://www.reddit.com/r/The_Donald/comments/7rs5du/are_we_still_talking_about_collusion_and_russia/?st=JCNRBSFW&sh=d0be42a3\xc2\xa0\xe2\x80\xa6'
p616
S'11:39 AM - 20 Jan 2018'
p617
tp618
a(S'A nothing news item about Trump when set against the flurry of lies the media has spewed forth on Russia collusion, dossier, racism, mental instability, finances...you name it.'
p619
S'11:36 AM - 20 Jan 2018'
p620
tp621
a(S'#ReleaseTheMemo\n#SchumerShutdown is Distraction\n#ObamaGate\n#governmentshutdown2018\n#MAGA\n#GreatAwakening\n#CriminalComey\n#Democrats acted like KGB\n#TwitterShadowbanning\n#Russia Collusion w/HRC\n#DrainTheSwamppic.twitter.com/1T9lr8gLj5'
p622
S'11:32 AM - 20 Jan 2018'
p623
tp624
a(S"@maddow Why is that the majority of your broadcast is about Trump and Russia when you don't have any evidence of any collusion? The Earth is a very big planet with many people and issues. Yet, you only focus on Trump. Did you sell out. I heard that you were a good reporter once."
p625
S'11:27 AM - 20 Jan 2018'
p626
tp627
a(S'WHAT SOURCE, OH YES, THE SAME SOURCE THAT OUTED TRUMP\xe2\x80\x99S COLLUSION WITH RUSSIA?????'
p628
S'11:24 AM - 20 Jan 2018'
p629
tp630
a(S'Who needs the Russia-Trump Collusion Fairytale when we have evidence that the FBI & DOJ actually colluded with sitting President Obama & Democrat Presidential candidate Kim Jong Hillary abetted by the entire MSM to influence the election against Trump?'
p631
S'11:21 AM - 20 Jan 2018'
p632
tp633
a(S"Oh yeah, Schiff is denying it. He said the memo is from notes Nunes took from the original documents and twisted the truth. Exactly what one would expect from Schiff, especially since he's the only one saying there is evidence of Trump/Russia collusion!"
p634
S'11:21 AM - 20 Jan 2018'
p635
tp636
a(S'Seems it\xe2\x80\x99s the Democrats that have some splaining to do. Collusion with Russia to influence an election.  FBI giving Democrats information to spy on a Presidential candidate. FBI trying to overthrow an election. Its a failed Coup and the arrests are coming.'
p637
S'11:21 AM - 20 Jan 2018'
p638
tp639
a(S'#ReleasetheMemo the democrats have forced us to believe the Russia Investigation when they are guilty of collusion. #schumer shutdown'
p640
S'11:20 AM - 20 Jan 2018'
p641
tp642
a(S"Why aren't you condemning Russia for interfering with the presidential election?  Just how much compromising material do they have on you?  You may be the first president in history who has committed not just collusion, but treason."
p643
S'11:14 AM - 20 Jan 2018'
p644
tp645
a(S"Why is the partisan @BobSMueller screwing around with Russia collusion wasting tax payers' money and getting rich in the process when there is  no there and Is keeping mum about the actual Russia collusion w/ crooked @HillaryClinton @DNC @BarrackObamaUS @AGLynch and their #DOJ"
p646
S'11:14 AM - 20 Jan 2018'
p647
tp648
a(S'Collusion w/ Russia, conflict of interest (1st pres. since Ford to not sell off commercial assets & put them in a blind trust), & prob. harder to show, but money laundering for Russian mob.'
p649
S'11:13 AM - 20 Jan 2018'
p650
tp651
a(S'Collusion 3.0: Russia and the NRA Dems & Allies, the media, Were Back at Collusion Reclamation Project this Week New Version: NRA did it #ReleaseTheDocshttp://bit.ly/2DSm35n\xc2\xa0'
p652
S'11:11 AM - 20 Jan 2018'
p653
tp654
a(S"We've been watching that unfold with the whole Russia collusion witch hunt. It's not about the fact she was a political opponent. That bitch never should have tried to run. We have wanted her prosecuted long before she ran and we won't excuse her crimes because she did."
p655
S'11:10 AM - 20 Jan 2018'
p656
tp657
a(S"Hahaha, you are seriously delusional!\n\nThe popular vote doesn't mean anything, Trump won the election fair and square.\n\nThere was/is no collusion, unless you're taking about collusion between democrats and Russia.\n\n#UraniumOne\n#ReleaseTheMemo"
p658
S'11:09 AM - 20 Jan 2018'
p659
tp660
a(S"The Dems don't want to see the \nmemo so they can keep pushing their \nnarrative that there's  nothing \nthere & this is simply a way for \nRepublicans to divert away from \nthe Trump-Russia collusion investigation. I think the Dems \nknow what is in the memo. \n#ReleaseTheMemo"
p661
S'11:09 AM - 20 Jan 2018'
p662
tp663
a(S'Lol...first, Russia Collusion, oops...no proof...then Obstruction of Justice....oops not working...now, Money Laundering,...yeah, yeah,... #ReleaseTheMemo'
p664
S'11:08 AM - 20 Jan 2018'
p665
tp666
a(S"You are joking right? Headlines are what are sensationalizing and All Liberal Media Op-eds\nStill waiting on ANYTHING from Mueller, and I've been patient..\nNone- of the indicted have any relation to any Trump/Russia collusion and it is becoming Transparent as to the Dem motives."
p667
S'11:08 AM - 20 Jan 2018'
p668
tp669
a(S'Only Russian bots are dnc paid pushing lib agenda, just like only collusion with Russia in 2016 was dnc/obama/hillary re: fraud dossier.\n\nTurn on the light, alyssa.'
p670
S'11:08 AM - 20 Jan 2018'
p671
tp672
a(S'Funny how a simple line between DT and Russia can\'t be proven, even after a year of deep state efforts and "insurance policy" incase he was elected. Yet some still think there is collusion. Such a waste of effort and emotion.'
p673
S'11:07 AM - 20 Jan 2018'
p674
tp675
a(S"Oh yes we live in USA and just love being a Russian bot. Don't you all have any new material to throw out there. Russia collusion is over with. You all are beating a dead horse smh"
p676
S'10:56 AM - 20 Jan 2018'
p677
tp678
a(S"Classified FISA Abuse Memo May Kill Media's Trump-#Russia Collusion Narrative #Intel http://russia.trendolizer.com/2018/01/classified-fisa-abuse-memo-may-kill-medias-trump-russia-collusion-narrative.html\xc2\xa0\xe2\x80\xa6pic.twitter.com/dQsfTZbxQK"
p679
S'10:53 AM - 20 Jan 2018'
p680
tp681
a(S"If it was about Trump/Russia collusion they would vote for it in a heartbeat. We don't need a vote. Just have the President okay its release. It's simple."
p682
S'10:51 AM - 20 Jan 2018'
p683
tp684
a(S"Free and fair elections was about Russia... and if they want to prove that they aren't Russian pawns... spend more time calling for to step aside in the upcoming election and less time trying to feed uncertainty into the Trump Russia collusion"
p685
S'10:50 AM - 20 Jan 2018'
p686
tp687
a(S'@PattiArnold12 These are the reasons I think the Russia collusion narrative is false. When they #releasethememo we will find out who was treasonous and who broke the law. Please read with an open mind. God Bless America.https://threadreaderapp.com/thread/954725748757204993.html\xc2\xa0\xe2\x80\xa6'
p688
S'10:50 AM - 20 Jan 2018'
p689
tp690
a(S"D's claim there is Trump-Russia collusion. R's claim there is abuse by FBI of FISA. 18 mnths is LONG enough. The answer is VERY simple! Let\xe2\x80\x99s ALL call for #ReleaseTheMemo & see what they do or don\xe2\x80\x99t have. Time to #putuporshutup #RussianCollusion"
p691
S'10:49 AM - 20 Jan 2018'
p692
tp693
a(S"More evidence of collusion with Russia.  It is increasingly apparent that Russia fomented the UK's Brexit mess.  Putin remains determined to sow chaos in the West as revenge for sanctions placed on Russia and its moneyed gangsters."
p694
S'10:49 AM - 20 Jan 2018'
p695
tp696
a(S'#pettition #p2 Republicans in Congress Are Traitors for Covering Up Russian Allegations - There seems to be no end to leaked details about Donald Trump and his campaign\xe2\x80\x99s collusion with Russia. On top of everything else, this week we learned that Trum... http://ow.ly/JB8U50gc40n\xc2\xa0'
p697
S'10:45 AM - 20 Jan 2018'
p698
tp699
a(S'And Russia collusion, and racism, and yada yada. Over it. Nothing Dems say or do makes any sense. AMERICA FIRST https://twitter.com/Craftmastah/status/954729153072377858\xc2\xa0\xe2\x80\xa6'
p700
S'10:40 AM - 20 Jan 2018'
p701
tp702
a(S'So #Twitter emails me #Propaganda warning me about #RussianCollusion and propaganda.\n\nThey are all in on the #Collusion and help #DemocRats to destroy #America from within doing nothing to help strengthen our country while #Russia strengthens their power with other countries. pic.twitter.com/AlSelmZHOF'
p703
S'10:40 AM - 20 Jan 2018'
p704
tp705
a(S"with in the democrats it's all corruption that is coming out once the fisa memo comes out.Meuller will be shut down for good.Obama and Hillary started the Russia collusion and it will show in the fisa memo.It will show the abuse of power by Obama.This will be worst them watergate"
p706
S'10:38 AM - 20 Jan 2018'
p707
tp708
a(S"Twitter Sends Users Creepy 'Big Brother' Email Regarding Secret 'Russian Influence' Online http://www.thegatewaypundit.com/2018/01/twitter-sends-users-creepy-big-brother-email-regarding-secret-russian-influence-online/\xc2\xa0\xe2\x80\xa6 Thanks, #releasethememo #deepstate collusion w/ Russia.."
p709
S'10:37 AM - 20 Jan 2018'
p710
tp711
a(S'Did anyone else receive an email from twitter informing you all about the \xe2\x80\x9cRussian propaganda?\xe2\x80\x9d \n\nNo, twitter, russia didn\xe2\x80\x99t hack the election. I dare you to check the origin of many accounts linked to other countries. It isn\xe2\x80\x99t collusion\n#WomensMarch2018 #governmentshutdown2018'
p712
S'10:36 AM - 20 Jan 2018'
p713
tp714
a(S"Pelosi on Clapper's 'No Evidence' of Trump-Russia 'Collusion' -- We Still Need an Investigation http://sumo.ly/2rEH\xc2\xa0 via @cnsnews"
p715
S'10:34 AM - 20 Jan 2018'
p716
tp717
a(S'Somehow the conversation switched from Trump / Russia collusion to obstructing Muller investigation....this memo...may truly show this whole investigation was flawed from beginning...showing Hillary using our governments finest weapons against Trump. That\xe2\x80\x99s what it\xe2\x80\x99s gonna show.'
p718
S'10:32 AM - 20 Jan 2018'
p719
tp720
a(S'Says someone on the left screaming russia and collusion for the last year plus. Its the left that needs mental help.'
p721
S'10:32 AM - 20 Jan 2018'
p722
tp723
a(S'You do realize that Bill Clinton went to Russia to avoid the draft dont you. So keep up with your russian collusion. when the clintons have closer ties to russia.'
p724
S'10:30 AM - 20 Jan 2018'
p725
tp726
a(S'Name a story that Fox News has gotten wrong and I will list 10 that CNN has gotten wrong, beginning with this bogus Trump-Russia collusion story. #ReleaseTheMemo'
p727
S'10:29 AM - 20 Jan 2018'
p728
tp729
a(S'Wanna know if you\xe2\x80\x99re being #shadowbanned \nGo say something to a liberal about @POTUS @realDonaldTrump #DACA \nThey can\xe2\x80\x99t help themselves. They have to call you a BOT or say something about Russia collusion or just straight out call you nasty names. \nThen you will know '
p730
S'10:29 AM - 20 Jan 2018'
p731
tp732
a(S'#ReleaseTheMemo\nClassified FISA Abuse Memo May Kill Media\xe2\x80\x99s Trump-Russia Collusion Narrative https://www.lifezette.com/polizette/classified-fisa-abuse-memo-may-kill-medias-trump-russia-collusion-narrative/\xc2\xa0\xe2\x80\xa6 via @LifeZette'
p733
S'10:26 AM - 20 Jan 2018'
p734
tp735
a(S"Russia didn't want to help just Trump. Thru the GOP, they wanted it all.\n\nIs This the Collusion We Were Waiting For? https://nyti.ms/2FTJtYI\xc2\xa0"
p736
S'10:26 AM - 20 Jan 2018'
p737
tp738
a(S"The memo wasn't written by stuffers. WTH is a stuffer? It was written by the House Intelligence Committee. They've been investigating Trump/Russia before Mueller. They found collusion and obstruction of justice. Between Hillary Obama FBI DOJ. Its over. Trump wins. Suck it BAHAHA pic.twitter.com/CZWEstqJNc"
p739
S'10:24 AM - 20 Jan 2018'
p740
tp741
a(S'Collusion 3\xe2\x80\xa40: Russia and the NRA http://www.nationalreview.com/article/455614/russia-national-rifle-association-trump-campaign-alexander-torshin-maria-butina-organized-crime\xc2\xa0\xe2\x80\xa6 via @NRO'
p742
S'10:22 AM - 20 Jan 2018'
p743
tp744
a(S"There never WAS any evidence of Trump/Russia collusion or real Russian interference in the election.The plotters knew all along the #SteeleDossier was bogus & that Mike Flynn hadn't done anything illegal in making those phone calls.pic.twitter.com/DnLutyRfhP"
p745
S'10:21 AM - 20 Jan 2018'
p746
tp747
a(S'@realDonaldTrump your tweets this morning are a joke. #GOPshutdown #GOPCantGovern #RESIGN #Russia #Collusion #TrumpRussia #TrumpShutdown #GOPdownInFlames #BlueWave2018 #PeePeeTape'
p748
S'10:21 AM - 20 Jan 2018'
p749
tp750
a(S'Oh let me count the ways. The nature of Trump. Health care. The tax bill. Collusion with Russia. Trickle down economics inflation. Deficit spending. Alan Furst. Charlottville. Zabars. A worthy winner of the Nobel. Admits his mistakes. Decent human.'
p751
S'10:18 AM - 20 Jan 2018'
p752
tp753
a(S"The Russian Collusion fairytale is done.  There's been no evidence and once they #ReleaseTheMemo, everyone will know it was a sham to begin with.\n\nBannon's an epic fall from grace. But I'm not concerned about him either... Trump didn't collude w/ Russia."
p754
S'10:18 AM - 20 Jan 2018'
p755
tp756
a(S'The problem with the rape allegations is that there have been enough bogus allegations made against controversial politicians that its extremly hard to trust any of them. As for treasonous, no collusion between him and Russia has been proven. Its a distraction. https://twitter.com/Trump_Bedbug/status/954778700142301185\xc2\xa0\xe2\x80\xa6'
p757
S'10:16 AM - 20 Jan 2018'
p758
tp759
a(S'Let\xe2\x80\x99s see if we have it right. Trump helped Russian buy and sell property there by laundering Russia money ( laundering), trump tried to stop Russia investigation by firing coney (obstruction) & trump family helped Russia to mess with election (collusion)!  Trumps a traitor'
p760
S'10:15 AM - 20 Jan 2018'
p761
tp762
a(S"More broken laws, more evidence the law doesn't apply to the Clintons, more evidence of collusion.\n\nDems - PLEASE keep on the Russia BS, the definition of unintended consequences...\n\n#lockheruphttps://twitter.com/TomFitton/status/954463400964382721\xc2\xa0\xe2\x80\xa6"
p763
S'10:14 AM - 20 Jan 2018'
p764
tp765
a(S'Let\xe2\x80\x99s wait and have Mueller tell us about it in detail. I don\xe2\x80\x99t think there was collusion, but Russia definitely helped. That\xe2\x80\x99s simply a fact. Money laundering is indeed a crime. Decriminalization would end the game as far as drugs go.'
p766
S'10:14 AM - 20 Jan 2018'
p767
tp768
a(S'I think the Russia Collusion is a conspiracy- why do you think you deserve the moral high ground. NewsFlash you don\xe2\x80\x99t!  You\xe2\x80\x99re not superior and you\xe2\x80\x99re obviously not  impartial'
p769
S'10:11 AM - 20 Jan 2018'
p770
tp771
a(S'RUSSIAN COLLUSION\nUSA ELECTION FRAUD\nTREASON\nGUILTY PARTYS INVOLVED\nOBAMA\nCLINTONS\nDNC\nLORETTA LYNCH\nJAMES COMEY\nSOME FBI AGENTS\nSOME DOJ AGENTS\nSOME CIA AGENTS\nDNC CONGRESS MEMBERS\nTRYING TO RIG 2016 ELECTION\nTO COVER UP TREASON WITH\nRUSSIA BY DEMOCRATS'
p772
S'10:10 AM - 20 Jan 2018'
p773
tp774
a(S'The New Democrat strategy is Trump is an idiot Manchurian Candidate controlled by underlings in a post Russia collusion. #BraveNewWorld #PostRussiaCollusion'
p775
S'10:09 AM - 20 Jan 2018'
p776
tp777
a(S"#SchumerShutdown\nIf Sarah Palin opens a window in the\nhouse from which she can see Russia,\n\nWill she hear the Russians laughing at the Democrat Senators today?\n\nThey voted to not fund the US Military\nThey voted for Govt. Shutdown\n\nIsn't this what the Russian's want?\n#Collusion"
p778
S'10:07 AM - 20 Jan 2018'
p779
tp780
a(S'Yup been excellent ! 401k /Stocks through the roof , ISIS finished , Russia Collusion one big failed hoax, Black and Hispanic unemployment lowest rate in decades and 10,000 pedophiles locked up so far !! What a great year ;)'
p781
S'10:05 AM - 20 Jan 2018'
p782
tp783
a(S'Classified FISA Abuse Memo May Kill Media\xe2\x80\x99s Trump-Russia Collusion Narrative https://www.lifezette.com/polizette/classified-fisa-abuse-memo-may-kill-medias-trump-russia-collusion-narrative/\xc2\xa0\xe2\x80\xa6 via @LifeZette'
p784
S'9:58 AM - 20 Jan 2018'
p785
tp786
a(S'You are not hearing what I am hearing. Even some committee members are saying no Trump-Russia collusion, but plenty of dirt on democrats.  There is a memo that directly proves democratic corruption and they are felonies... treason.'
p787
S'9:57 AM - 20 Jan 2018'
p788
tp789
a(S'Today the Daily Telegraph reported the NRA is complicit in the Russia collusion story.'
p790
S'9:56 AM - 20 Jan 2018'
p791
tp792
a(S"THE TRUMP PRESIDENCY:An investigation of his campaign 4 collusion w/Russia, denigrating the press, FBI, the AG, past Presidents, Mueller, & our allies, provoking N. Korea, tax relief 4 the wealthy, reversing DACA,shutting down the gov't. Can\xe2\x80\x99t wait to see where we\xe2\x80\x99ll be in 3 yrs."
p793
S'9:56 AM - 20 Jan 2018'
p794
tp795
a(S'New blog: After Collusion With Russia  and Mental Deterioration Have Failed, What\xe2\x80\x99s Next at http://www.docdemo.blogspot.com\xc2\xa0.'
p796
S'9:56 AM - 20 Jan 2018'
p797
tp798
a(S'Rep @SteveKingIA #IA04 is part of this GOP effort to run interference for White House on Trump/Russia collusion. https://twitter.com/ryanjreilly/status/954523194110726144\xc2\xa0\xe2\x80\xa6'
p799
S'9:55 AM - 20 Jan 2018'
p800
tp801
a(S'Long term, #Russiagate is gonna be immeasurably more damaging to civil liberties than any actual collusion with Russia would be.'
p802
S'9:54 AM - 20 Jan 2018'
p803
tp804
a(S'Amazing how Dems cover up the #Mueller #Memo investigation?\nOnly 1 Dem cared about the whole origin of the RUSSIA COLLUSION, the MEMO! #distraction'
p805
S'9:53 AM - 20 Jan 2018'
p806
tp807
a(S"I think it's pretty much accepted Russia handed out bribes for the WC. Dont understand why nothing is being done about it? #collusion https://twitter.com/newfifanow/status/954758678174986240\xc2\xa0\xe2\x80\xa6"
p808
S'9:52 AM - 20 Jan 2018'
p809
tp810
a(S"The Left is already  discrediting the memo when they haven't even read it. They are saying it is right propaganda from Nunes. After all their hype of Russia collusion in our 2016 election, they do not even want to know if there were FISA abuses."
p811
S'9:52 AM - 20 Jan 2018'
p812
tp813
a(S'Republicans Claim Surveillance Power Abuses in Russia Inquiry https://nyti.ms/2FZ3ihl\xc2\xa0.  House GOP, Hannity, Wikileaks, Russians push for release of sham report. NO COLLUSION!!!'
p814
S'9:52 AM - 20 Jan 2018'
p815
tp816
a(S'AMEN TO THAT Mr. Schiff! Please continue your fight on the @realDonaldTrump Collusion with Russia investigation. Please expose and expose some more. Thank you for your tireless efforts.'
p817
S'9:52 AM - 20 Jan 2018'
p818
tp819
a(S'Couldn\xe2\x80\x99t it be said ur doing the same thing by assuming his guilt of Russia collusion without any facts or proof??'
p820
S'9:50 AM - 20 Jan 2018'
p821
tp822
a(S'The only collusion Americans see is with the Crooked Hillary. -Uranium one w/ Russia -Deleted 33k+ government emails -Rigged primaries w/ DNC against Bernie -Interfered w/ FBI regarding her OWN investigation We are fed up with the law not applying to all.'
p823
S'9:50 AM - 20 Jan 2018'
p824
tp825
a(S'If Nunez \xe2\x80\x9cmade it up\xe2\x80\x9d explain the memo and other concrete documentation of their corruption. Early on I remember posting that democrats should be careful what they asked for.  No Trump-Russia collusion, plenty of evidence for democratic crimes.  Stay tuned.'
p826
S'9:50 AM - 20 Jan 2018'
p827
tp828
a(S'That\'s right, we just watched  collusion with Russia in real-time and in broad daylight. \n\nAnd yet they\'ll still try to say it "just a hoax".  \n\nLike climate change. '
p829
S'9:49 AM - 20 Jan 2018'
p830
tp831
a(S'This is bogus!! Its unfortunate Nunes re-election is not up yet in CA! He\xe2\x80\x99s a disgrace! He puts so much time&energy to cover up his part & wrong doing! He was there behind the scenes of the Trump/Russia collusion during the campaign & transition! https://twitter.com/kengude/status/954718805112049664\xc2\xa0\xe2\x80\xa6'
p832
S'9:49 AM - 20 Jan 2018'
p833
tp834
a(S'Collusion 3.0: #Russia and the NRA #presidentialelection #tangentialforeign-policyadviser #mediaallies http://gunrights.trendolizer.com/2018/01/collusion-30-russia-and-the-nra.html\xc2\xa0\xe2\x80\xa6pic.twitter.com/qXaXZduKO7'
p835
S'9:47 AM - 20 Jan 2018'
p836
tp837
a(S'Collusion 3.0: Russia and the NRA (#Marxicrats are pathetic.)\n\nhttp://bit.ly/2DwgPOU\xc2\xa0 #MAGA #FusionGPS #NRA #2A #TCOT\n\nPathetic #Democrats hope to take out Trump & the National Rifle Association, another arch-nemesispic.twitter.com/00p9nfsWDd'
p838
S'9:46 AM - 20 Jan 2018'
p839
tp840
a(S'The thought that our  tax dollars were used by Democrats and FAKE NEWS  against @realDonaldTrump in a Bullshit investigation of Russia Collusion has me pissed! Think about it! Our Money used to go after Trump and cover Obama & Hillary!! How can 1 dem vote be cast after this?'
p841
S'9:44 AM - 20 Jan 2018'
p842
tp843
a(S"The GOP can release it anytime because REPUBLICAN STAFFERS WROTE THE MEMO. Russia is pushing the hashtag. They're collectively trying to shut down the #MuellerInvestigation . #Propaganda #distraction #Collusion"
p844
S'9:44 AM - 20 Jan 2018'
p845
tp846
a(S"During this shutdown, don't forget these important points: #ReleaseTheMemo and it's 2018 and we still have found no Trump/Russia Collusion and don't forget DACA isn't up for a decision until MARCH, so why do it now...?"
p847
S'9:42 AM - 20 Jan 2018'
p848
tp849
a(S'#ReleaseTheMemo Classified FISA Abuse Memo May Kill Media\xe2\x80\x99s Trump-Russia Collusion Narrative https://www.lifezette.com/polizette/classified-fisa-abuse-memo-may-kill-medias-trump-russia-collusion-narrative/\xc2\xa0\xe2\x80\xa6 via @LifeZette'
p850
S'9:40 AM - 20 Jan 2018'
p851
tp852
a(S'Twitter found more than 50,000 Russia-linked accounts actively sharing election-related material \xe2\x80\x94 and Trump interacted with them hundreds of times. DA! NYET COLLUSION! ENTIRELY UNSUSPICIOUS!  http://read.bi/2EVxcBu\xc2\xa0'
p853
S'9:39 AM - 20 Jan 2018'
p854
tp855
a(S'I got it too. 1) comes ahead of possible 4-pg doc reveal of REAL Russia collusion 2) further proof of "creepy big brother" i.e. @Project_Veritashttps://twitter.com/Corrynmb/status/954502772665344000\xc2\xa0\xe2\x80\xa6'
p856
S'9:36 AM - 20 Jan 2018'
p857
tp858
a(S'Russia \xe2\x80\x98Collusion\xe2\x80\x99 Took Up One-Fifth of Media\xe2\x80\x99s 90 Percent Negative Trump Coverage in 2017 | Nwo Report https://nworeport.me/2018/01/18/russia-collusion-took-up-one-fifth-of-medias-90-percent-negative-trump-coverage-in-2017/\xc2\xa0\xe2\x80\xa6'
p859
S'9:34 AM - 20 Jan 2018'
p860
tp861
a(S'#GlobalWarming effects the US ? But it does not effect #Russia ? (See pic) Oh, I forgot, #Trump and #Russia are in #Collusion. #Idiots are running the #Asylum.pic.twitter.com/fQ5heAJW5n'
p862
S'9:34 AM - 20 Jan 2018'
p863
tp864
a(S'Another #Wikileaks collusion #Russia\nhttps://www.businessinsider.nl/release-the-memo-campaign-russia-linked-twitter-accounts-2018-1/?international=true&r=US\xc2\xa0\xe2\x80\xa6'
p865
S'9:33 AM - 20 Jan 2018'
p866
tp867
a(S'It won\xe2\x80\x99t collapse - it\xe2\x80\x99ll just morph into something else (my bet from months ago is shady business dealings nothing to do w Russia) and the media will gloss over the original ridiculous collusion plot https://twitter.com/ludwitt/status/867876334760062976\xc2\xa0\xe2\x80\xa6'
p868
S'9:32 AM - 20 Jan 2018'
p869
tp870
a(S'Ya but the Memo though. you know the one thats going to blow your Fake News Russia collusion out of the water.'
p871
S'9:32 AM - 20 Jan 2018'
p872
tp873
a(S'"Misleading". No, he and the entire GOP are completely corrupt liars who are covering up for Trump\'s collusion with Russia'
p874
S'9:31 AM - 20 Jan 2018'
p875
tp876
a(S'@neeratanden getting away from Trump/Russia collusion theory outliers like Mensch. You will see more of this occurring in next few months'
p877
S'9:28 AM - 20 Jan 2018'
p878
tp879
a(S'. Gowdy ANNIHILATES Suspected Leaker Adam Schiff  Over His Outrageous Trump-Russia Collusion Claims \nhttps://bb4sp.com/trey-gowdy-suspected-leaker-adam-schiff/\xc2\xa0\xe2\x80\xa6 #JeffSessions #Russia #TreyGowdy via @BarracudaMama'
p880
S'9:26 AM - 20 Jan 2018'
p881
tp882
a(S'Russia Russia Russia!! 1 billion dollars of tax payers money n 1 year later and not a single piece of proof of collusion but whatever helps u cope w Trump derangement syndrome it\xe2\x80\x99s just comical at this point to believe that nonsense'
p883
S'9:25 AM - 20 Jan 2018'
p884
tp885
a(S'@SpeakerRyan @SenateGOP @SenateDems Liar Liar Pants on Fire...Your Reputation precedes you...#Misinformation #Exaggerations #Collusion #Russia  Sound Familiar'
p886
S'9:25 AM - 20 Jan 2018'
p887
tp888
a(S'What Trey Gowdy Revealed About Collusion With Russia Will Leave You Speechless http://greatamericandaily.com/trey-gowdy-collusion-with-russia/\xc2\xa0\xe2\x80\xa6'
p889
S'9:25 AM - 20 Jan 2018'
p890
tp891
a(S"But....if it's true about what I said about fusion gps and the whole Russia/ Trump thing was made up to justify spying....how would Mueller find collusion???  It would prove that was a lie...ending the investigation. If the Russian narrative is not true..how will you react?"
p892
S'9:24 AM - 20 Jan 2018'
p893
tp894
a(S'Let me get this right. Liberals and dems can take an entire year setting up and executing a narrative of Trump/Russia collusion and you want Republicans to blow their load in 48 hours. I want this to take 2 months so that people make mistakes, lies are on the record.'
p895
S'9:21 AM - 20 Jan 2018'
p896
tp897
a(S'Except for that he has to actually get re-elected in 2020, that is, if he is not already taken out by the ongoing Russia collusion scandal. Are you that out of touch w/reality as a partisan ideologue that you will just disingenuously claim Trump has one a future election already?'
p898
S'9:21 AM - 20 Jan 2018'
p899
tp900
a(S"Casual reminder that the current POTUS 'won' his position by committing 1. Fraud and 2. Treason in collusion with Russia, the latter of which is punishable by death. #governmentshutdown"
p901
S'9:19 AM - 20 Jan 2018'
p902
tp903
a(S'#RUSSIA #COLLUSION #COVERUPhttps://twitter.com/PattyArquette/status/954430981145952256\xc2\xa0\xe2\x80\xa6'
p904
S'9:19 AM - 20 Jan 2018'
p905
tp906
a(S'But Rex huppke @chicagotribune columnist blames trump/ Russia collusion? LOLOLOL #SchumerShutdwon #DemocRATSShutdown #releasethememohttps://twitter.com/rmhenry1henry/status/954746397273735168\xc2\xa0\xe2\x80\xa6'
p907
S'9:18 AM - 20 Jan 2018'
p908
tp909
a(S'Yet you push and push and push for over a year that there is collusion with Russia with ZERO facts. Your media is much more powerful than mine. That\xe2\x80\x99s what\xe2\x80\x99s frustrating.'
p910
S'9:14 AM - 20 Jan 2018'
p911
tp912
a(S"Karma is a bitch! Remember when you held Obama hostage? You deny him everything,all the good he wanted to do! You,speaker Ryan,GOP republicans and trumpis DOTARD have divided the country! You have betray our constitution, you're complicit of trumps collusion with Russia ! pic.twitter.com/OAKV14IFed"
p913
S'9:11 AM - 20 Jan 2018'
p914
tp915
a(S'The Democrats have no interest to view the classified report from House Intel relating to the FBI, FISA abuses, proving that they are not interested in the truth. They are committed to their phony Russia collusion narrative. #ReleaseTheMemo'
p916
S'9:06 AM - 20 Jan 2018'
p917
tp918
a(S"Here's my latest for @Streamdotorg on this bombshell coming out of Washington. This could end Mueller's entire investigation into Russia collusion. DOJ\xe2\x80\x99s Russian Probe Tainted With FISA Abuse, May Have Involved Retaliation Against Flynn https://stream.org/dojs-russian-probe-tainted-with-fisa-abuse/?utm_source=dlvr.it&utm_medium=twitter\xc2\xa0\xe2\x80\xa6"
p919
S'9:05 AM - 20 Jan 2018'
p920
tp921
a(S'These things are all right now in the White @HouseDemocrats  Rape,butt  spanking with Forbes,  collusion with Russia. Giving yourself a tax break, deporting hard workers, this is all OK now. Republicans say this is all normal. #nomorerepublicans18'
p922
S'9:03 AM - 20 Jan 2018'
p923
tp924
a(S"He can't negotiate with imposters & posers. Y'all want him to walk on water or turn water to wine. He isn't God @POTUS is a man. @MSNBC has never given him credit for anything he's done. Even if he did walk on water, you will call it a stunt and look for collusion w/Russia."
p925
S'9:03 AM - 20 Jan 2018'
p926
tp927
a(S"So let's see if I have this correct. 2,140 Lies, #TrumpShutdown , paid-off pornstars, Russia collusion, US lowest rating ever in world, UK ppl don't want him to viist the UK and that is where we are https://twitter.com/washingtonpost/status/954759708476362752\xc2\xa0\xe2\x80\xa6"
p928
S'9:03 AM - 20 Jan 2018'
p929
tp930
a(S"You know you can't say anything to Trumps massive list of failures so you keep pressing the collusion.When I said I'd rather focus on the here and now. Again.I can infer from all the other lies that his campaign did work with Russia. I don't care.That's what I think.We shall see."
p931
S'9:02 AM - 20 Jan 2018'
p932
tp933
a(S'The @DNC has chosen illegal aliens  over hard working American citizens and shut down the government simultaneously telling me Russia is to blame for collusion and interference. Think about that for a second (before Twitter tries to shut my account down again)  #GovtShutdownFacts'
p934
S'9:02 AM - 20 Jan 2018'
p935
tp936
a(S'@jaredkushner @realDonaldTrump @IvankaTrump @DonaldJTrumpJr #treason #traitors #moneylaundering #666fifthavenue #Russia #collusion Throw these #Criminal in #jail where they belong'
p937
S'9:01 AM - 20 Jan 2018'
p938
tp939
a(S"Come on Run Mouth Schiff release the documents. You like running your mouth for Russia collusion how come I have a feeling you're the one Democrat that read the memo and your name is mentioned in there. That would be so funny. release the memo or you should step down"
p940
S'9:00 AM - 20 Jan 2018'
p941
tp942
a(S"ISN'T IT FUNNY THAT IN 2008 SENATOR MCCAIN COMPLAINED ABOUT RUSSIA HACKING HIS COMPUTER, ETC AND TOLD WORTHLESS OBAMA AND THE WORLD AND NOTHING WAS EVER DONE AFTER 8 YEARS! HELLO AMERICA LOOKS LIKE THE DEMKCRATS R IN COLLUSION WITH THE RUSSIANS, REMEMBER THERE HYPOCRITES "
p943
S'8:59 AM - 20 Jan 2018'
p944
tp945
a(S'I was there when Trump said " I found the crock of gold that the leprechaun left at the end of the rainbow. I can prove it. Here is the picture I took . Believe me, it was hughe" No Russia collusion.\nFake news from loser Dems and CNN. pic.twitter.com/jbMjz8IIoL'
p946
S'8:59 AM - 20 Jan 2018'
p947
tp948
a(S'Answer to collusion with Russia? Why hold #ProDACA hostage? #ReleaseTheMemo #FISAmemo\n@RandPaul @RepMattGaetz @LaraLeaTrump @realDonaldTrump\n@HurdOnTheHill @RepMiaLove @WayneDupreeShow @ANTHONYBLOGAN @handymayhemhttps://twitter.com/jeffmyers01/status/954592668029513730\xc2\xa0\xe2\x80\xa6'
p949
S'8:58 AM - 20 Jan 2018'
p950
tp951
a(S'Media Smother Indictment in Clinton-Obama Uranium One Russia Deal http://bit.ly/2mYxZeu\xc2\xa0 - A genuine investigation/prosecution of the real \xe2\x80\x9cRussiagate\xe2\x80\x9d collusion, conspiracy, & treason would put not only B.&H. Clinton. . . behind bars, but also . . . R. Mueller & Rod Rosenstein.'
p952
S'8:57 AM - 20 Jan 2018'
p953
tp954
a(S'Release the memo,democrat dreams of 2018 election gains are gone!People are going to jail over Russia collusion i.e. FBI,DOJ,Obama Administration employees.'
p955
S'8:57 AM - 20 Jan 2018'
p956
tp957
a(S'Hey Tuck,Trump is to blame.oh by the way there was collusion.Russia was involved'
p958
S'8:56 AM - 20 Jan 2018'
p959
tp960
a(S'Trump and his White Supremacists are not only destroying the lives of all people with many ethnicities within our country, they are allowing Russia to destroy us also. All while they deny there was no collusion, even though the writing is on the wall that there was.'
p961
S'8:56 AM - 20 Jan 2018'
p962
tp963
a(S'We need to be tougher on the #TrumpCrimeFamily. #treason, #Collusion, #Russia, #MoneyLaundering, #TrumpShutdown'
p964
S'8:56 AM - 20 Jan 2018'
p965
tp966
a(S'One year and Trump haters still investigating a non-existent Russia collusion. Dead horse meet stick.'
p967
S'8:56 AM - 20 Jan 2018'
p968
tp969
a(S'5) The Dossier is DECIMATED, DEBUNKED #FAKENEWS, Russian collusion is DEAD. No Russia collusion means no Russian bots. \n\nENTIRE RUSSIA DOSSIER, COLLUSION, BOTS NARRATIVE #DOA #RIPRUSSIANARRATIVE #CORRUPTOCRATS #DEMOGEDDON\n#RELEASETHEMEMO'
p970
S'8:55 AM - 20 Jan 2018'
p971
tp972
a(S"This deadline indecision and continuous stalling\n(oxy.moron) is work as usual for our Gov.\nStupidity at its definedness..\nHey.. nobody's talking about Russia..\nCollusion is a conversation..\nnegatively"
p973
S'8:55 AM - 20 Jan 2018'
p974
tp975
a(S'#ReleaseTheMemos  This will nuke the Trump Russia collusion story. pic.twitter.com/w9wcj4OXWP'
p976
S'8:55 AM - 20 Jan 2018'
p977
tp978
a(S"For the love of Christ there isn't any evidence of collusion with Russia by trump NONE!!!!!. Stop and start thinking for yourself."
p979
S'8:54 AM - 20 Jan 2018'
p980
tp981
a(S"What still pisses me off to this day,obvious back then MSM in collusion-debate moderator asked HC about relations w Russia. She chucked,said complicated. That was it,moderator did not pursue. We didn't need Russia 2 show us what was going on."
p982
S'8:53 AM - 20 Jan 2018'
p983
tp984
a(S"Gowdy Calls Out Schiff: He 'Found Collusion' Before Russia Investigation Even Started http://insider.foxnews.com/2018/01/17/trey-gowdy-house-intelligence-committee-trump-russia-collusion-probe-adam-schiff\xc2\xa0\xe2\x80\xa6"
p985
S'8:53 AM - 20 Jan 2018'
p986
tp987
a(S"Everyone knows the Russia collusion was invented by DNC, it's ironic now that actual collusion is pointing to: ahh THE DNC! #releasethememo"
p988
S'8:53 AM - 20 Jan 2018'
p989
tp990
a(S"'NO COLLUSION w/Russia'? Then why'd I get THIS? We're STILL under ATTACK BY RUSSIA/Putin. @Twitter's finding>removing NEW RUSSIAN-ORIG. tweets & accts! Russia's FLOODING Trending Topics. #RobertMueller's investigation=top priority! @MSNBC @GOP @amjoyshowhttps://blog.twitter.com/official/en_us/topics/company/2018/2016-election-update.html\xc2\xa0\xe2\x80\xa6"
p991
S'8:52 AM - 20 Jan 2018'
p992
tp993
a(S'So the democrats deal with Russia, pay money that ultimately goes to Russians and its called \xe2\x80\x9copposition research\xe2\x80\x9d Jr. goes to talk to a Russian lawyer who said she had dirt on Clinton, payed no money or gave away any US uranium and that\xe2\x80\x99s collusion.  Got it!'
p994
S'8:52 AM - 20 Jan 2018'
p995
tp996
a(S'actually sounds great to me seeing how the Russia collusion started way before then as we are finding out and it started with Hillary Clinton and the DNC. You guys are desperate lol'
p997
S'8:48 AM - 20 Jan 2018'
p998
tp999
a(S"You don't understand #ReleaseTheMemo.  The memo & backup info will negate the entire foundation and justification that Russia collusion accusations are based on, which will end Mueller's hoax investigation.  DEMS colluded w/ Russia to get dossier to affect the election - period."
p1000
S'8:47 AM - 20 Jan 2018'
p1001
tp1002
a(S"Unemployment-18 yr low, over 3 mil bonuses/raises given from big co's due 2 tax plan, stock market all time high-dow over 26,000, ISIS 98% defeated, 2 mil new jobs-all this with 90% negative lies from MSM. FAKE Russia collusion-when memo released 2 public Trump will be vidicated."
p1003
S'8:45 AM - 20 Jan 2018'
p1004
tp1005
a(S'Republicans demand declassification of \xe2\x80\x9cdeeply troubling\xe2\x80\x9d report on Obama DOJ/FBI Russia collusion investigation https://legalinsurrection.com/2018/01/republicans-demand-declassification-of-deeply-troubling-report-on-obama-doj-fbi-russia-collusion-investigation/\xc2\xa0\xe2\x80\xa6'
p1006
S'8:43 AM - 20 Jan 2018'
p1007
tp1008
a(S'Collusion 3.0: Russia and the NRA | National Review https://www.themoderatedmedia.com/2018/01/20/collusion-3-0-russia-and-the-nra-national-review/\xc2\xa0\xe2\x80\xa6'
p1009
S'8:43 AM - 20 Jan 2018'
p1010
tp1011
a(S'@nytimes @deanbaquet @nytpolitics are worse than useless.  They have now become untruthful.   Akin to their 2016 horrendous track record 1) but... her emails and 2) no collusion between Russia and Trump.   They should be ashamed and yet... they continue.... with this crap. https://twitter.com/TopherSpiro/status/954753661770616833\xc2\xa0\xe2\x80\xa6'
p1012
S'8:43 AM - 20 Jan 2018'
p1013
tp1014
a(S'McClatchy News: The FBI is investigating whether Russia funneled money to the National Rifle Association to help Donald Trump win the presidency @ \xe2\x80\xa6https://thisweekinthetrumprussiainvestigation.blogspot.com/2018/01/trump-russia-investigation-week-in_20.html\xc2\xa0\xe2\x80\xa6\n#nra #guns #news #donaldtrump #russia #politics #robertmueller #blog #collusion #usa #liberal #progressive'
p1015
S'8:41 AM - 20 Jan 2018'
p1016
tp1017
a(S"Let's see, Muller has wasted inordinate amounts of time and tax payers dollars for the past year and there is STILL NO EVIDENCE OF RUSSIAN COLLUSION by Trump. But you guys are still like Russia! Russia! Russia!  #PlayedOutpic.twitter.com/NM8NYDaRYs"
p1018
S'8:40 AM - 20 Jan 2018'
p1019
tp1020
a(S'Russia Trump Collusion Debunked\n\nFISA-Dossier, used as proof by Schiff, denied release to public\n\nLeveraged Dreamers / DACA (exp 3/3/18) against budget (exp 1/20/18) to #shutdown govt. \n\nThrew our military, govt workers under the immigrant bus'
p1021
S'8:40 AM - 20 Jan 2018'
p1022
tp1023
a(S'Bosnia is an ally of Russia, right?  So this all part of the Russian collusion story.'
p1024
S'8:38 AM - 20 Jan 2018'
p1025
tp1026
a(S'That is a wonderful idea. Man that would be the most exciting thing to happen on TV since, well, since never. You think @CNN and @MSNBC and all of the other MSM will cut the feed and say they are having technical difficulties.Then show @brianstelter talking about Russia collusion'
p1027
S'8:37 AM - 20 Jan 2018'
p1028
tp1029
a(S'Schiff only wants transparency when it applies to anything that might fit the Democrats\xe2\x80\x99 \xe2\x80\x9cTrump/Russia collusion\xe2\x80\x9d narrative. #ReleaseTheMemohttps://twitter.com/seanmdav/status/954503303509012481\xc2\xa0\xe2\x80\xa6'
p1030
S'8:37 AM - 20 Jan 2018'
p1031
tp1032
a(S'Born in Russia, became a proud U.S. citizen two days ago, no collusion here! via /r/The_Donald http://ift.tt/2Dl2nWL\xc2\xa0'
p1033
S'8:37 AM - 20 Jan 2018'
p1034
tp1035
a(S'Remember when you admitted collusion with Russia on Twitter? That was cool. https://twitter.com/donaldjtrumpjr/status/954355926470930434\xc2\xa0\xe2\x80\xa6'
p1036
S'8:36 AM - 20 Jan 2018'
p1037
tp1038
a(S'Yep!! The COLLUSION was between HRC, BHO, GSFusion & Russia. Get used to it.'
p1039
S'8:33 AM - 20 Jan 2018'
p1040
tp1041
a(S'More proof than any Russia collusion story.'
p1042
S'8:32 AM - 20 Jan 2018'
p1043
tp1044
a(S'Yes! That\xe2\x80\x99s why we\xe2\x80\x99re sending you to prison for collusion with Russia.'
p1045
S'8:30 AM - 20 Jan 2018'
p1046
tp1047
a(S'This idea of collusion amongst Russia and Trump/supporters is pure fantasy and your article demonstrates it perfectly. "Hashtag trending the Borg doesn\'t support.. hmm, bring me a 3rd party outfit willing to call them Russian bots."'
p1048
S'8:30 AM - 20 Jan 2018'
p1049
tp1050
a(S'Who cares? He is stealing from our Treasury not just now by funneling $ to his businesses, but also keeps making foreign \xe2\x80\x9cdeals\xe2\x80\x9d \xe2\x80\x94 violating the #EmolumentsClause & commits treasonous collusion with #Russia to eek out an 80,000 vote (total: MI, PA, WI) illegitimate \xe2\x80\x9cwin\xe2\x80\x9d ...'
p1051
S'8:29 AM - 20 Jan 2018'
p1052
tp1053
a(S"Second, and more important, the @cjcmichel piece seems wilfully oblivious to the evidence of coordination, and collusion, with Russia that coming forth every day. We're taking our eye off the ball here, and have to understand this is what Russia wants."
p1054
S'8:28 AM - 20 Jan 2018'
p1055
tp1056
a(S'Maybe you are so stupid to get it. Because there is no Russia collusion. Hillary was the corrupt politician. They want to expose the Dems.'
p1057
S'8:25 AM - 20 Jan 2018'
p1058
tp1059
a(S'The 63 GOP & 1 #Democrat members of Congress that have read the #FISA Memo know that there never was any Russian Collusion betweenThe Trump Campaign and Russia. America knows it as well. #AGSessions should unrecuse himself immediately. There never was a basis for a recusal.pic.twitter.com/9srUdYnrc5'
p1060
S'8:24 AM - 20 Jan 2018'
p1061
tp1062
a(S'Mueller was appointed in May - after Comey firing, because of \xe2\x80\x9cthe Russia thing\xe2\x80\x9d (per DJT).  Mueller has 4 indictments we know about and maybe more unsealed. He has flipped at least 2 indictees who are cooperating. There is no proof of Dem collusion.  Your entire tweet is untrue.'
p1063
S'8:23 AM - 20 Jan 2018'
p1064
tp1065
a(S'They have evidence of Hilary Russia collusion, but yet the Dems dont want to #ReleaseTheMemos'
p1066
S'8:22 AM - 20 Jan 2018'
p1067
tp1068
a(S'It seems you got duped by #FakeNews. The only Russia collusion was with Hillary and the uranium scam. pic.twitter.com/S5FUfkn1jX'
p1069
S'8:22 AM - 20 Jan 2018'
p1070
tp1071
a(S"There never WAS any evidence of Trump/Russia collusion or real Russian interference in the election. The plotters knew all along the #SteeleDossier was bogus & that Mike Flynn hadn't done anything illegal in making those phone calls.pic.twitter.com/VLkGlYRNns"
p1072
S'8:22 AM - 20 Jan 2018'
p1073
tp1074
a(S"'Collusion' is not a legal term, but 'Aiding and Abetting a Computer Crime' is. Russia hacked the DNC and leaked embarrassing emails to help Trump. In exchange, Trump offered to unilaterally drop sanctions on Russia. (although congress prevented him from doing so after he won)"
p1075
S'8:16 AM - 20 Jan 2018'
p1076
tp1077
a(S'WRONG! The @POTUS was never under investigation, and there is NO evidence of Russia collusion (except with the Democrats & their Uranium scam) Try getting informed! HAHAHAHAHAHAA!!'
p1078
S'8:15 AM - 20 Jan 2018'
p1079
tp1080
a(S'#NoAgendaShow! Its the PANACEA to RUSSIAN MEDDLING :) thanks! i LOVE the sound of that! #m5m #itm #tech #mediabias #podcasting #podcast #Mainstreammedia #russia #collusion #nwo #conspiracy #deepstate #trump #putinhttps://twitter.com/Synopsis1066/status/954745830841479168\xc2\xa0\xe2\x80\xa6'
p1081
S'8:14 AM - 20 Jan 2018'
p1082
tp1083
a(S'The only narrative the Dems have is Russia influence/collusion to try & rationalize election losses that were really abt poor candidates & a platform of, well, nothing.'
p1084
S'8:13 AM - 20 Jan 2018'
p1085
tp1086
a(S'Collusion 3.0: Russia and the NRA http://bit.ly/2DSm35n\xc2\xa0'
p1087
S'8:10 AM - 20 Jan 2018'
p1088
tp1089
a(S'For those obsessed with the Russia collusion and how it has been developing (I resemble that!), here are two... https://fb.me/5pkePM9uz\xc2\xa0'
p1090
S'8:10 AM - 20 Jan 2018'
p1091
tp1092
a(S'@AdamSchiffCA how about the Russia collusion now???? Oh how the tables turn quickly!!'
p1093
S'8:10 AM - 20 Jan 2018'
p1094
tp1095
a.