(lp0
(S'http://thehill.com/policy/national-security/355749-fbi-uncovered-russian-bribery-plot-before-obama-administration\xc2\xa0\xe2\x80\xa6 #RussiaClinton #Collusion #CrookedHillary #Russia #Clinton #HillaryClinton'
p1
S'4:59 PM - 17 Oct 2017'
p2
tp3
a(S'The Clintons:\n\nMultiple murders\nRape & enabling\nRussia collusion\nVote rigging\nLarge scale corruption\nSedition\nJournalist threats pic.twitter.com/vJh0V0OoAQ'
p4
S'4:56 PM - 17 Oct 2017'
p5
tp6
a(S'Wow, @BarackObama @HillaryClinton & @EricHolder were deep into illegal collusion w Russia! WTF?  https://conservativetribune.com/russian-scandal-hillary-holder/\xc2\xa0\xe2\x80\xa6'
p7
S'4:55 PM - 17 Oct 2017'
p8
tp9
a(S'Plenty of examples of Clinton/Russia collusion though!!! pic.twitter.com/Q2oD4kOI17'
p10
S'4:53 PM - 17 Oct 2017'
p11
tp12
a(S'Where is the news on Vegas massacre?? Weinstein and Clinton Russia collusion old news.'
p13
S'4:53 PM - 17 Oct 2017'
p14
tp15
a(S'I\xe2\x80\x99m a lot more curious about the Collusion between Obama/ Clinton\xe2\x80\x99s and Russia over selling Uranium???'
p16
S'4:52 PM - 17 Oct 2017'
p17
tp18
a(S'And that this case happens to have vague ties to all the folks investigating Trump for Russia collusion.'
p19
S'4:50 PM - 17 Oct 2017'
p20
tp21
a(S'BOMBSHELL: Hillary, Obama, Holder, Comey, Leading Trump-Russia Collusion Investigation Are All Linked To HUGE Secret Russian NUCLEAR Deal.'
p22
S'4:50 PM - 17 Oct 2017'
p23
tp24
a(S'Bombshell: FBI found Russia bribery, extortion plot in US nuclear industry \xe2\x80\x94 in 2009 #Russia #collusion https://hotair.com/archives/2017/10/17/bombshell-fbi-found-russia-bribery-extortion-plot-us-nuclear-industry-2009/\xc2\xa0\xe2\x80\xa6'
p25
S'4:49 PM - 17 Oct 2017'
p26
tp27
a(S'the Mueller who covered up the Russia-Clinton bribe is the same Mueller investigating the Russia-Trump collusion. Unbelievable'
p28
S'4:49 PM - 17 Oct 2017'
p29
tp30
a(S'Let\xe2\x80\x99s guess...\xe2\x80\x99I don\xe2\x80\x99t recall\xe2\x80\x99 \xe2\x80\x98I didn\xe2\x80\x99t have collusion with that Russia\xe2\x80\x99 \xe2\x80\x98What difference does it make now\xe2\x80\x99 \xe2\x80\x98It\xe2\x80\x99s Russia\xe2\x80\x99s fault\xe2\x80\x99 etc etc'
p31
S'4:49 PM - 17 Oct 2017'
p32
tp33
a(S'There\xe2\x80\x99s ur Russia Collusion! @CNN @maddow @MSNBC @NBCNews ... liberal liars #MAGA #russiaclinton #LiberalismIsAMentalDisorderhttps://twitter.com/seanhannity/status/920254530666795009\xc2\xa0\xe2\x80\xa6'
p34
S'4:49 PM - 17 Oct 2017'
p35
tp36
a(S'What happened?\nHillary broke her toe in London while peddling a book. Today-Uranium One Russia collusion exposed her-will she return to USA?'
p37
S'4:49 PM - 17 Oct 2017'
p38
tp39
a(S'I heard that he was a 2nd cousin of an elevator operator at the NYC Trump Tower! NO doubt there is a Russia collusion here, @realDonaldTrump'
p40
S'4:48 PM - 17 Oct 2017'
p41
tp42
a(S'Where\xe2\x80\x99s Mueller. Investigate this collusion add to it the FB Ads for HRC for President by Russia. It\xe2\x80\x99s right in front of you. https://twitter.com/seanhannity/status/920254530666795009\xc2\xa0\xe2\x80\xa6'
p43
S'4:47 PM - 17 Oct 2017'
p44
tp45
a(S'#Collusion can be a jolly activity. #TRUMP #Russia pic.twitter.com/8My2YQ4wWC'
p46
S'4:46 PM - 17 Oct 2017'
p47
tp48
a(S"There's never been any collusion between .@POTUS and Russia.  The ONLY collusion has ALWAYS been #ClintonRussianCollusion! https://twitter.com/KORANISBURNING/status/920418582911176705\xc2\xa0\xe2\x80\xa6"
p49
S'4:46 PM - 17 Oct 2017'
p50
tp51
a(S"Here is the evidence of HILLARY'S collusion with Russia. http://fb.me/Ro8o6I6q\xc2\xa0"
p52
S'4:46 PM - 17 Oct 2017'
p53
tp54
a(S'Media desperate to find Russian collusion should be more interested in this story. Weirdly they\xe2\x80\x99re not? #Russia http://thehill.com/policy/national-security/355749-fbi-uncovered-russian-bribery-plot-before-obama-administration\xc2\xa0\xe2\x80\xa6'
p55
S'4:45 PM - 17 Oct 2017'
p56
tp57
a(S'Hillary, Obama, Holder, Comey, Mueller and 2 Key Leading Trump-Russia Collusion Investigation Are All Linked To HUGE Secret Russian NUCLEAR'
p58
S'4:45 PM - 17 Oct 2017'
p59
tp60
a(S'Who\xe2\x80\x99s in collusion with Russia now?'
p61
S'4:44 PM - 17 Oct 2017'
p62
tp63
a(S'The evidence of Russia collusion is mounting.....against Hillary and Obama. Talk about irony'
p64
S'4:43 PM - 17 Oct 2017'
p65
tp66
a(S'VERY CONVENIENT ! Just when RUSSIA COLLUSION surfaces on her, runs back into the woods with her bottle of Vodka !  https://twitter.com/true_pundit/status/920300904741470209\xc2\xa0\xe2\x80\xa6'
p67
S'4:42 PM - 17 Oct 2017'
p68
tp69
a(S'RUSSIA BRIBERY W/CLINTONS should B FRONT PAGE OF EVERY PAPER! COLLUSION BETWEEN FBI/CLINTONS/RUSSIA/MUELLER/FBI/HOLDER!!! R U KIDDING ME!!! https://twitter.com/_POTUSTRUMPNEWS/status/920431807421665280\xc2\xa0\xe2\x80\xa6'
p70
S'4:40 PM - 17 Oct 2017'
p71
tp72
a(S'Who has Russia collusion connections again?\nhttps://www.wsj.com/articles/the-clinton-foundation-state-and-kremlin-connections-1469997195\xc2\xa0\xe2\x80\xa6'
p73
S'4:40 PM - 17 Oct 2017'
p74
tp75
a(S'Looks like the collusion with Russia in hacking for GOP still underway.Irony is Russians know what GOP do, can reveal anytime for leverage!'
p76
S'4:40 PM - 17 Oct 2017'
p77
tp78
a(S'CLINTON COLLUSION WITH RUSSIA: FBI uncovered Russian bribery plot: Obama administration STILL approved nuclear deal! http://thehill.com/policy/national-security/355749-fbi-uncovered-russian-bribery-plot-before-obama-administration#.WeaUDXbHyXc.twitter\xc2\xa0\xe2\x80\xa6'
p79
S'4:38 PM - 17 Oct 2017'
p80
tp81
a(S'Mueller, Comey, McCabe And Rosenstein Buried Clinton Russia Collusion An... https://youtu.be/80ovWYOaPfA\xc2\xa0 via @YouTube'
p82
S'4:37 PM - 17 Oct 2017'
p83
tp84
a(S'Of course this is why the leftist Clinton hacks throughout government and media are pushing the Trump /Russia collusion propaganda. https://twitter.com/BrentBozell/status/920393397583712257\xc2\xa0\xe2\x80\xa6'
p85
S'4:36 PM - 17 Oct 2017'
p86
tp87
a(S'She is the Russia collusion. pic.twitter.com/oV4Tm6zM7S'
p88
S'4:34 PM - 17 Oct 2017'
p89
tp90
a(S'Hillary, Bi;ll, Mueller & Obama Linked 2 Russian Bribery & Collusion Sending Uranium 2 Russia https://www.redstate.com/streiff/2017/10/17/new-investigation-links-hillary-mueller-others-russia/\xc2\xa0\xe2\x80\xa6'
p91
S'4:34 PM - 17 Oct 2017'
p92
tp93
a(S'nothing burger. if there is something there, it would have been leaked already. let mueller do his job, n stop reporting russia collusion (not even a crime)-fake news. we the ppl r sick n tired of this fake news. pls'
p94
S'4:34 PM - 17 Oct 2017'
p95
tp96
a(S'The Democrats waiting for proof of the Russia collusion pic.twitter.com/JPoyP7meAo'
p97
S'4:33 PM - 17 Oct 2017'
p98
tp99
a(S'@CNN Russia! Collusion! Where was the coverage? https://twitter.com/dogz4liberty/status/920428933069312000\xc2\xa0\xe2\x80\xa6'
p100
S'4:32 PM - 17 Oct 2017'
p101
tp102
a(S'Trump lies:\nHighest taxed nation in the world,\nGuts insurance payments to ACA, now @GOP owns ACA aka Trumpcare\nRussia collusion\nHis taxes'
p103
S'4:32 PM - 17 Oct 2017'
p104
tp105
a(S'After the report of a Clinton collusion with Russia? This is laughable! https://twitter.com/DLoesch/status/920408124166737920\xc2\xa0\xe2\x80\xa6'
p106
S'4:28 PM - 17 Oct 2017'
p107
tp108
a(S'The Russia collusion was from HRC. They gave $150 million to Clinton Foundation, she gave them 20% of US uranium production.'
p109
S'4:28 PM - 17 Oct 2017'
p110
tp111
a(S'Most concerned with Uranium resources sold by Hillary to Russia; Nat. Security more important than her toe! Russia Collusion'
p112
S'4:26 PM - 17 Oct 2017'
p113
tp114
a(S'Bribery!  Russia!  Collusion!  And Tru---oh, wait.  Obama Admin knew..\n\nhttp://bit.ly/2yoZeWr\xc2\xa0\n\nNo story.  No sweat.  Return to be #Woke'
p115
S'4:25 PM - 17 Oct 2017'
p116
tp117
a(S"Hillary Boiling After FBI Scandal Exposes Her Collusion With Russia - It's Worse Than We Thought http://russia.trendolizer.com/2017/10/hillary-boiling-after-fbi-scandal-exposes-her-collusion-with-russia---its-worse-than-we-thought.html\xc2\xa0\xe2\x80\xa6pic.twitter.com/6yjn5PvUFp"
p118
S'4:25 PM - 17 Oct 2017'
p119
tp120
a(S"Yeah I am. I'll be perfectly happy if Mueller and Schneiderman conclude there was no collusion with Russia. That there might have been is really terrifying! That so many Trump campaign people and family had so many contacts (which they forgot about) is troubling."
p121
S'4:25 PM - 17 Oct 2017'
p122
tp123
a(S'Trump, you are EXACTLY what America needs! Long live freedom! MSM is hi-lighting the Clinton Muler Russia collusion like the rags they are.'
p124
S'4:24 PM - 17 Oct 2017'
p125
tp126
a(S'American people need to keep their uranium resources, national security tells us that! What do you think? Russia Collusion!'
p127
S'4:24 PM - 17 Oct 2017'
p128
tp129
a(S'They also demand a much higher degree of proof for trumps russia collusion than ANYTHING Hillary. With Hillary, they dont need any proof'
p130
S'4:23 PM - 17 Oct 2017'
p131
tp132
a(S'Read the @thehill report on FBI exposing Russia collusion today!'
p133
S'4:23 PM - 17 Oct 2017'
p134
tp135
a(S'Leave it to #Crooked @hillaryclinton to be the one in collusion with Russia. #Shameful #metoo #youtoo #lockheruphttps://twitter.com/thehill/status/920413879003381767\xc2\xa0\xe2\x80\xa6'
p136
S'4:22 PM - 17 Oct 2017'
p137
tp138
a(S'Fredo desperately tries to distract from his Russia collusion -'
p139
S'4:22 PM - 17 Oct 2017'
p140
tp141
a(S'So far only collusion was proven to be w Russia and Hillary and dnc and CNN et al lol pic.twitter.com/tHDweD9aFI'
p142
S'4:21 PM - 17 Oct 2017'
p143
tp144
a(S'Sorry but nope! Zero proof of Trump/Russia collusion! Try again!'
p145
S'4:21 PM - 17 Oct 2017'
p146
tp147
a(S'PRAY that POTUS goes after the REAL collusion with russia under obama/hillary! THAT is where all the collusion had always been; & MORE!'
p148
S'4:20 PM - 17 Oct 2017'
p149
tp150
a(S"Still on the propaganda thing. Joe Goebbels would be impressed.Won't work though, to hide the Russia collusion!Hear hounds? #fascistPlaybook"
p151
S'4:20 PM - 17 Oct 2017'
p152
tp153
a(S'What if collusion were discovered with a party or ...Russia that tends to taint news to become Propoganda? So..not independent'
p154
S'4:17 PM - 17 Oct 2017'
p155
tp156
a(S'Real Russia collusion is corrupt lying SheDevil #CrookedHillary & Obama. \n1/5 of US Uranium to Russia, resulted in national security breach. pic.twitter.com/KrYxIHVOax'
p157
S'4:17 PM - 17 Oct 2017'
p158
tp159
a(S'They found collusion with Russia. Turns out it is with @BillClinton and @HillaryClintonpic.twitter.com/taSgYJPfEA'
p160
S'4:17 PM - 17 Oct 2017'
p161
tp162
a(S'Mueller, Comey, McCabe And Rosenstein Buried Clinton Russia Collusion An... https://www.youtube.com/watch?v=80ovWYOaPfA&feature=share\xc2\xa0\xe2\x80\xa6'
p163
S'4:16 PM - 17 Oct 2017'
p164
tp165
a(S'FYI: the story that broke today about the Obama admin & Russia collusion is NOT old news. Yes, we knew they were i\xe2\x80\xa6 http://ift.tt/2grriS5\xc2\xa0'
p166
S'4:16 PM - 17 Oct 2017'
p167
tp168
a(S'If this is real, we need answers from muller or file treason charges on him. Talk about collusion with Russia !clinton cartel and the justice dept  and the ex president making money under the table in Washington DC ,caught with their pants down. https://twitter.com/jackposobiec/status/920368223765352449\xc2\xa0\xe2\x80\xa6'
p169
S'4:15 PM - 17 Oct 2017'
p170
tp171
a(S"Here's your Russia collusion you liberal mental patients... https://twitter.com/PrisonPlanet/status/920273664192466945\xc2\xa0\xe2\x80\xa6"
p172
S'4:14 PM - 17 Oct 2017'
p173
tp174
a(S'at least Trump try to hide his collusion with Russia. Jr. just tweets the emails confirming he colluded.'
p175
S'4:14 PM - 17 Oct 2017'
p176
tp177
a(S'\xe2\x80\x9cIt\xe2\x80\x99s going to be a hum-dinger.\xe2\x80\x9d~.@SebGorka just now on .@SaraCarterDC & John Solomon BHO-HRC-Mueller-Holder-Comey-Lynch Russia collusion.'
p178
S'4:14 PM - 17 Oct 2017'
p179
tp180
a(S". only those on #TrumpTrain #MAGA will see this - #MSM #NYT #washingtonpost won't run it - #Russia #Clinton #collusion #Mueller #BOOM #Comey"
p181
S'4:13 PM - 17 Oct 2017'
p182
tp183
a(S'CNN where is your story on the new Russia collusion with obama and Hillary? Will Hillary allow you too post'
p184
S'4:12 PM - 17 Oct 2017'
p185
tp186
a(S'THERE IS YOUR "COLLUSION"\nAll of these people should be in prison and anyone toting the Trump Russia narrative needs self evaluation. Sick.'
p187
S'4:12 PM - 17 Oct 2017'
p188
tp189
a(S"But that's impossible! Our Dear Leader has made it clear that collusion between Russia & his campaign is a hoax.\nOr is it?"
p190
S'4:12 PM - 17 Oct 2017'
p191
tp192
a(S'Officials Leading Trump-Russia Collusion Investigation Are Linked To Secret Russian NUCLEAR Deal https://100percentfedup.com/breaking-bombshell-hillary-obama-holder-comey-mueller-2-key-officials-leading-trump-russia-collusion-investigation-linked-huge-secret-russian-nuclear-deal/\xc2\xa0\xe2\x80\xa6 via @100percFEDUP'
p193
S'4:12 PM - 17 Oct 2017'
p194
tp195
a(S"Real russian collusion \n\nReport:FBI Uncovers Conf. of Hillary's Corrupt Uranium Deal with Russia http://bit.ly/2xNN5uZ\xc2\xa0 via @BreitbartNews"
p196
S'4:12 PM - 17 Oct 2017'
p197
tp198
a(S'Real collusion with Russia #ClintonRussianCollusion'
p199
S'4:11 PM - 17 Oct 2017'
p200
tp201
a(S'The Collusion of Russia and Trump is a joke--Russia was already working with Clinton and Obama http://bit.ly/2yyh9tJ\xc2\xa0'
p202
S'4:10 PM - 17 Oct 2017'
p203
tp204
a(S"Levin is correct, you hardly hear about Hillary/Russia Collusion News on Facebook. \n\nIt's almost like Zuckerdouche is hiding it."
p205
S'4:10 PM - 17 Oct 2017'
p206
tp207
a(S'This is the ammo that Trump will use to destroy Mueller\'s credibility and throw "Russia collusion" back in the Democrats\' faces.'
p208
S'4:10 PM - 17 Oct 2017'
p209
tp210
a(S'Russia. Clinton. Collusion. OH MY!'
p211
S'4:09 PM - 17 Oct 2017'
p212
tp213
a(S"Throw the Comey-nist in jail. He's covering for DNC Russia collusion the whole way & that's pretty sad for the friggin' FBI Director!"
p214
S'4:08 PM - 17 Oct 2017'
p215
tp216
a(S"Yes that's the truth! But were expected ti believe Mueller when he claims Russia collusion!"
p217
S'4:08 PM - 17 Oct 2017'
p218
tp219
a(S'Forget Russia collusion...this is Comey collusion.'
p220
S'4:08 PM - 17 Oct 2017'
p221
tp222
a(S"Obama IC Director, still hasn't seen any collusion with Russia."
p223
S'4:07 PM - 17 Oct 2017'
p224
tp225
a(S'But will \xe2\x80\x9cjournalists\xe2\x80\x9d report FBI findings of the Clinton Russia Uranium bribery and collusion scandal or is \xe2\x80\x9cjournalism\xe2\x80\x9d on hold again?\xe2\x80\x9d'
p226
S'4:07 PM - 17 Oct 2017'
p227
tp228
a(S'#he collusion was with #CrookedHillary & Russia beta boy. #ElectoralCollege is what counts in our REPUBLIC.'
p229
S'4:06 PM - 17 Oct 2017'
p230
tp231
a(S"Trump-Russia collusion=Fake Conspiracy\nMenedez, Uranium One, Seth Rich, Awan=Real News\n\nMSM wonders why we don't trust them. Try honesty."
p232
S'4:06 PM - 17 Oct 2017'
p233
tp234
a(S'R U going 2 have the balls 2 talk about Obama/Clinton bribery collusion with Russia for Uranium or R U afraid of HRC?'
p235
S'4:06 PM - 17 Oct 2017'
p236
tp237
a(S'Nope. His Russia recusal has nothing to do with this.  That was strictly in determining if Trump colluded, not the Obama/Clinton collusion.'
p238
S'4:06 PM - 17 Oct 2017'
p239
tp240
a(S'Boy the tables have really turned in this Russia drama. \nTrump collusion = 0\nClinton collusion = 1 big one  pic.twitter.com/Fba1VBOkao'
p241
S'4:05 PM - 17 Oct 2017'
p242
tp243
a(S'The case needs to be re-opened. Clinton/Uranium/Russia =real collusion.'
p244
S'4:05 PM - 17 Oct 2017'
p245
tp246
a(S'@realDonaldTrump @FoxNews Not one word from CNN on Obama Administration collusion with Russia on Uranium Deal.FBI knew.Did Congress know??'
p247
S'4:04 PM - 17 Oct 2017'
p248
tp249
a(S'Wouldn\xe2\x80\x99t it be a coup if Mueller\xe2\x80\x99s report actually contains ALL of the Clinton & Obama corruption & collusion with Russia-Putin-Uranium One?'
p250
S'4:04 PM - 17 Oct 2017'
p251
tp252
a(S'NOT ONE of the liberal MSM outlets are reporting on the Clinton-Russia collusion story. NOT ONE.'
p253
S'4:04 PM - 17 Oct 2017'
p254
tp255
a(S'Why just biased vs Trump, are you missing all the illegal collusion going on from Dems with Russia?'
p256
S'4:03 PM - 17 Oct 2017'
p257
tp258
a(S'Russia collusion and  bragging about sexual assault.  All you.   Your gonna look great in orange!0'
p259
S'4:03 PM - 17 Oct 2017'
p260
tp261
a(S'Mueller, Comey, McCabe And Rosenstein Buried Clinton Russia Collusion An... https://youtu.be/80ovWYOaPfA\xc2\xa0 via @YouTube'
p262
S'4:03 PM - 17 Oct 2017'
p263
tp264
a(S"#NFLBoycott #NFL Trump's collusion with Russia & rigging of the election is far worse than NFL players protesting racial injustice."
p265
S'4:03 PM - 17 Oct 2017'
p266
tp267
a(S'DT Jr desparately tries to distract from his father\xe2\x80\x99s collusion with Russia'
p268
S'4:02 PM - 17 Oct 2017'
p269
tp270
a(S'just looked... "Hillary Clinton and the Russia collusion narrative." is the tease/.'
p271
S'4:02 PM - 17 Oct 2017'
p272
tp273
a(S'Trump denies collusion with Russia again http://www.msnbc.com/hardball/watch/trump-denies-collusion-with-russia-again-1074657347788\xc2\xa0\xe2\x80\xa6 via @msnbc'
p274
S'4:02 PM - 17 Oct 2017'
p275
tp276
a(S'He is charged with investigating collusion with Russia. The election will not be nullified. It just is not going to happen.#25thAmendment'
p277
S'4:02 PM - 17 Oct 2017'
p278
tp279
a(S"Also interesting, Muller's fake investigation of Russian collusion, when he himself may have colluded with Russia \nhttps://twitter.com/jackposobiec/status/920368223765352449\xc2\xa0\xe2\x80\xa6"
p280
S'4:02 PM - 17 Oct 2017'
p281
tp282
a(S'The Hill bombshell article about Obama/Clinton collusion with Russia broke at 6amEST, yet nothing related trended all day on twitter. '
p283
S'4:02 PM - 17 Oct 2017'
p284
tp285
a(S'To Russia With Collusion #RepublicanAMoviehttps://twitter.com/TheRickyDavila/status/920404098087882752\xc2\xa0\xe2\x80\xa6'
p286
S'4:02 PM - 17 Oct 2017'
p287
tp288
a(S"Didn't it already? Russia Collusion Clinton Kickbacks proof? If so - too confusing for most to care about and zero #MSM so it will die fast."
p289
S'4:01 PM - 17 Oct 2017'
p290
tp291
a(S'\xe2\x80\x9cWait... so this whole Trump Russia collusion thing was a manufactured distraction; a Machiavellian propaganda war waged by @johnpodesta @HillaryClinton to explain to their donors how they spent $2B and lost to a gameshow host, all while taking bribes from Putin?\xe2\x80\x9d-CNN, probably'
p292
S'4:00 PM - 17 Oct 2017'
p293
tp294
a(S"At long last and many taxpayer $ we finally have proof of the Russia collusion you've been hunting for mueller! Now go home without pay."
p295
S'4:00 PM - 17 Oct 2017'
p296
tp297
a(S'Wouldn\xe2\x80\x99t it be a coup if Mueller\xe2\x80\x99s report actually contains ALL of the Clinton & Obama corruption & collusion with Russia-Putin-Uranium One?'
p298
S'4:00 PM - 17 Oct 2017'
p299
tp300
a(S'Mueller, Comey, McCabe And Rosenstein Buried Clinton Russia Collusion And Bribes Investigation: http://youtu.be/80ovWYOaPfA?a\xc2\xa0 via @YouTube'
p301
S'4:00 PM - 17 Oct 2017'
p302
tp303
a(S'The Russia collusion involving HRC is nice and all, but it will never amount to anything. No conviction, no indictment.'
p304
S'3:58 PM - 17 Oct 2017'
p305
tp306
a(S'proof? Share article. No doubt Russia tries to F with USA. But Trump Collusion? NOPE NOPE. Zzzzzzzz'
p307
S'3:57 PM - 17 Oct 2017'
p308
tp309
a(S'COLLUSION: Timeline Reveals Transfer of Half of US Uranium Output to Russia as Clinton Foundation Bags $145 Million http://bit.ly/1Fk1WLi\xc2\xa0'
p310
S'3:56 PM - 17 Oct 2017'
p311
tp312
a(S"If Trump is impeached/removed for collusion/obstruction re: Russia & 2016, doesn't ticket-mate Pence go down with him? President Ryan? Ugh."
p313
S'3:56 PM - 17 Oct 2017'
p314
tp315
a(S'Tell me more about collusion with Russia, your party seems to be in the know. http://thehill.com/policy/national-security/355749-fbi-uncovered-russian-bribery-plot-before-obama-administration\xc2\xa0\xe2\x80\xa6'
p316
S'3:56 PM - 17 Oct 2017'
p317
tp318
a(S'President Trump Desperately Tries to Distract From Russia Collusion Stating All News Agencies, Magazines, Newspapers Spread Fake News!'
p319
S'3:56 PM - 17 Oct 2017'
p320
tp321
a(S"@LesterHoltNBC no mention of veg as #notahero Jesus who used another San or Hillary's collusion with Russia concerning uranium- #FakeNews"
p322
S'3:55 PM - 17 Oct 2017'
p323
tp324
a(S'I want to hear more about the Russia collusion story. http://thehill.com/policy/national-security/355749-fbi-uncovered-russian-bribery-plot-before-obama-administration\xc2\xa0\xe2\x80\xa6'
p325
S'3:55 PM - 17 Oct 2017'
p326
tp327
a(S'Are you talking about your roll in the Trump Russia collusion?'
p328
S'3:55 PM - 17 Oct 2017'
p329
tp330
a(S"Someone is under investigation for collusion with Russia in order to win the election. Hint: It's not Hillary. #TrumpRussiapic.twitter.com/uPUXYxn78L"
p331
S'3:54 PM - 17 Oct 2017'
p332
tp333
a(S"Clearly a whole lot of people on this thread did not see the news today. Wow.The only collusion with Russia occurred during Obama's 1st term"
p334
S'3:53 PM - 17 Oct 2017'
p335
tp336
a(S"I would like to see Hillary election meltdown interview news media won't show it. \nLooks like Russia collusion was with Clinton's not TRUMP"
p337
S'3:52 PM - 17 Oct 2017'
p338
tp339
a(S'Have kept on saying for 2 yrs-only collusion is Russia & the clintons !!!! Taxpayer $$ wasted on phony BS Trump- Russia collusion !!!!!'
p340
S'3:52 PM - 17 Oct 2017'
p341
tp342
a(S'The investigation of Trump-Russia gets closer and closer to the pres. Collusion? Obstruction? Self dealing? Lots for Mueller to consider.'
p343
S'3:50 PM - 17 Oct 2017'
p344
tp345
a(S'Shapiro, check out the @thehill DEVASTATING invs. journalism regarding FBI investigation into HRC/Russia collusion for Uranium?! corruption!'
p346
S'3:49 PM - 17 Oct 2017'
p347
tp348
a(S'Wouldn\xe2\x80\x99t it be a coup if Mueller\xe2\x80\x99s report actually contains ALL of the Clinton & Obama corruption & collusion with Russia-Putin-Uranium One?'
p349
S'3:49 PM - 17 Oct 2017'
p350
tp351
a(S'Just like your stupid father likes to call the Russia collusion fake.'
p352
S'3:49 PM - 17 Oct 2017'
p353
tp354
a(S'Hopefully to talk about the uranium deal with Russia but I doubt it. That\xe2\x80\x99s the real Russian collusion'
p355
S'3:48 PM - 17 Oct 2017'
p356
tp357
a(S'#Marfa is the real Russia collusion. pic.twitter.com/mNA3YUerjU'
p358
S'3:48 PM - 17 Oct 2017'
p359
tp360
a(S'Why is it Obama & Hillary let Russia get access to OUR NUCLEAR BOMB MAKING URANIUM but @BobSMueller investigates @POTUS for collusion?'
p361
S'3:48 PM - 17 Oct 2017'
p362
tp363
a(S"Breaking: new evidence sheds light on Obama Admin & Hillary Clinton's collusion with Russia.  http://nation.foxnews.com/2017/10/17/report-russians-used-bribes-sought-pad-clinton-charity-amid-obama-era-push-expand-us\xc2\xa0\xe2\x80\xa6"
p364
S'3:48 PM - 17 Oct 2017'
p365
tp366
a(S"Just don't... you're the one being investigated by the FBI for collusion with Russia... Don't try to desperately distract from that"
p367
S'3:48 PM - 17 Oct 2017'
p368
tp369
a(S'Time for Mueller, Rosenstein, McCabe 2 B canned and investigated for their own Russia collusion w/ O and Clintons. Enuf of this crap! #MAGAhttps://twitter.com/marykissel/status/920365782776737792\xc2\xa0\xe2\x80\xa6'
p370
S'3:47 PM - 17 Oct 2017'
p371
tp372
a(S'There is absolutely no coverage of this from the mainstream media. Funny I remember the media only talking about Russia collusion???? https://twitter.com/jordanchariton/status/920307678181838853\xc2\xa0\xe2\x80\xa6'
p373
S'3:46 PM - 17 Oct 2017'
p374
tp375
a(S'Now it\xe2\x80\x99s tomorrow?  We already knew about the Russia collusion.'
p376
S'3:46 PM - 17 Oct 2017'
p377
tp378
a(S'https://youtu.be/3EFXSHhonq8\xc2\xa0\nCollusion and bribery by Russians...to Killer-y, McCabe and Rosenstein in order to give Russia 20% of our URANIUM!'
p379
S'3:44 PM - 17 Oct 2017'
p380
tp381
a(S"Hope you'll say that when he indicts Clinton and Obama for Russia collusion!"
p382
S'3:44 PM - 17 Oct 2017'
p383
tp384
a(S'Wouldn\xe2\x80\x99t it be a coup if Mueller\xe2\x80\x99s report actually contains ALL of the Clinton & Obama corruption & collusion with Russia-Putin-Uranium One?'
p385
S'3:42 PM - 17 Oct 2017'
p386
tp387
a(S'Donald Trump Jr. desperately tries to distract from his bombshell collusion with Russia to interfere in the U.S. election.'
p388
S'3:42 PM - 17 Oct 2017'
p389
tp390
a(S"Did you even read the news today? Only Russia collusion is now Obama and the Clinton's sorry Resistance Liberal you lose  https://twitter.com/teapainusa/status/920399982188007424\xc2\xa0\xe2\x80\xa6"
p391
S'3:41 PM - 17 Oct 2017'
p392
tp393
a(S'Jake, there was bribery and collusion with Russia, but it was Hillary Clinton\n\n@realDonaldTrump\n#breitbart\n#pjnetpic.twitter.com/pWf1gR5oiG'
p394
S'3:40 PM - 17 Oct 2017'
p395
tp396
a(S'@JimAcostta Did you report on this?!?! Clinton Russia Collusion?! https://twitter.com/hotfunkytown/status/920385255177011200\xc2\xa0\xe2\x80\xa6'
p397
S'3:40 PM - 17 Oct 2017'
p398
tp399
a(S'Where is Matt Drudge?? Breaking news about Obama admin collusion with Russia and nothing in Report. Is he going to the other side!!'
p400
S'3:39 PM - 17 Oct 2017'
p401
tp402
a(S'@realDonaldTrump Why don\xe2\x80\x99t you demand to know about the collusion between Russia, Soro\xe2\x80\x99s & Antifa?These communists need to be stopped.'
p403
S'3:39 PM - 17 Oct 2017'
p404
tp405
a(S'Any chance we can investigate the Russia-Clinton collusion?'
p406
S'3:38 PM - 17 Oct 2017'
p407
tp408
a(S'yo @seanhannity, check out @thehill DEVASTATING invs. journalism regarding FBI investigation into HRC/Russia collusion for Uranium!'
p409
S'3:38 PM - 17 Oct 2017'
p410
tp411
a(S'Thank you Senator @ChuckGrassley-- Maybe @SenateGOP needs to focus on this & wind up these committees on Russia collusion'
p412
S'3:38 PM - 17 Oct 2017'
p413
tp414
a(S'yo PJW, nothing about the @thehill DEVASTATING invs. journalism regarding FBI investigation into HRC/Russia collusion for Uranium?!'
p415
S'3:36 PM - 17 Oct 2017'
p416
tp417
a(S'Sigh. These idiots; what Russia collusion & what happened to "Accept the results of the election?" They\'re causing discord & costing us $$.'
p418
S'3:35 PM - 17 Oct 2017'
p419
tp420
a(S"We're you asking for evidence with this whole Trump/Russia collusion narrative?"
p421
S'3:35 PM - 17 Oct 2017'
p422
tp423
a(S'Missed the @thehill story about the FBI uncovering bribery plot RUSSIA. Before Obama administration approved Uranium deal in 2010? Collusion'
p424
S'3:34 PM - 17 Oct 2017'
p425
tp426
a(S'BOOM BOOM BOOM BOOM!!! LET IT FALL!! RUSSIA BRIBERY W/CLINTONS AND COLLUSION BETWEEN FBI/CLINTONS/RUSSIA/MUELLER/FBI/HOLDER!!! https://twitter.com/ReneeCarrollPhx/status/920261435321597953\xc2\xa0\xe2\x80\xa6'
p427
S'3:34 PM - 17 Oct 2017'
p428
tp429
a(S'@CNN @POTUS \nWolf if you want to prevent Russia from hacking in the future stop the BS on Trump collusion and focus on the problem .. MORON'
p430
S'3:34 PM - 17 Oct 2017'
p431
tp432
a(S'Tell us about RUSSIA COLLUSION\nRUSSIA COLLUSION \nWe want to know about TRUMP / RUSSIA COLLUSION pic.twitter.com/EVqd8IdPkF'
p433
S'3:34 PM - 17 Oct 2017'
p434
tp435
a(S'yo Cernovitch, nothing about  @thehill DEVASTATING inv. journalism regarding FBI investigstion into HRC/Russia collusion for Uranium??? wtf!'
p436
S'3:33 PM - 17 Oct 2017'
p437
tp438
a(S'RT every Clinton Russia bribery collusion tweet u get over and over again! Help Trump to #MAGAhttps://twitter.com/americanhotlips/status/920252281437777920\xc2\xa0\xe2\x80\xa6'
p439
S'3:33 PM - 17 Oct 2017'
p440
tp441
a(S'RUSSIA BRIBERY W/CLINTONS should B FRONT PAGE OF EVERY PAPER! COLLUSION BETWEEN FBI/CLINTONS/RUSSIA/MUELLER/FBI/HOLDER!!! R U KIDDING ME!!!'
p442
S'3:32 PM - 17 Oct 2017'
p443
tp444
a(S"Look at todays news. collusion between Obama HRC Clinton foundation Bill Clinton and Russia! Let's see how the libs try and spin this!"
p445
S'3:32 PM - 17 Oct 2017'
p446
tp447
a(S'But, Russia,Russia,Russia! Ohhhh, nevermind, Russia collusion is Hillary, Holder, Obama.'
p448
S'3:32 PM - 17 Oct 2017'
p449
tp450
a(S"So true! She's a loser. She's pushing Russia collusion, and she should be under investigation.   Above the law! https://twitter.com/starcrosswolf/status/920348191492423680\xc2\xa0\xe2\x80\xa6"
p451
S'3:31 PM - 17 Oct 2017'
p452
tp453
a(S'No. The collusion between Clinton/Obama and Russia.\n\nhttp://thehill.com/policy/national-security/355749-fbi-uncovered-russian-bribery-plot-before-obama-administration\xc2\xa0\xe2\x80\xa6'
p454
S'3:30 PM - 17 Oct 2017'
p455
tp456
a(S'I thought you folks wanted to get to the bottom of this Russia Collusion? http://thehill.com/policy/national-security/355749-fbi-uncovered-russian-bribery-plot-before-obama-administration\xc2\xa0\xe2\x80\xa6'
p457
S'3:30 PM - 17 Oct 2017'
p458
tp459
a(S'Yes but they were NOT Trump supporters that were being PAIND by the RUSSIANS! Only COLLUSION was between the LEFT and RUSSIA!'
p460
S'3:30 PM - 17 Oct 2017'
p461
tp462
a(S"Still plugging the Russia Trump collusion narrative after today's revelations?"
p463
S'3:28 PM - 17 Oct 2017'
p464
tp465
a(S'Here we go - #Russia #Collusion by #Obama administration; #Bribery #Graft in #Nuke deal headed by @HillaryClinton : http://thehill.com/policy/national-security/355749-fbi-uncovered-russian-bribery-plot-before-obama-administration\xc2\xa0\xe2\x80\xa6'
p466
S'3:28 PM - 17 Oct 2017'
p467
tp468
a(S'Bot bot bot Russia Russia Russia collusion collusion collusion do you realize how stupid you people sound'
p469
S'3:27 PM - 17 Oct 2017'
p470
tp471
a(S"Hey joe what happened to the russia collusion story or the one about russia trying to help trump win?  Don't you look like a fool?"
p472
S'3:27 PM - 17 Oct 2017'
p473
tp474
a(S'How is it that Mueller can still credibly serve as special counsel to anything, much less special counsel to Russia collusion investigation? https://twitter.com/RepStevenSmith/status/920415163622313986\xc2\xa0\xe2\x80\xa6'
p475
S'3:26 PM - 17 Oct 2017'
p476
tp477
a(S'@SavannahGuthrie @megynkelly @emmajade12news MONTHS of wasting your lives reporting Trump/Russia Collusion&Old Lady Neuroses is the guilty 1 https://twitter.com/polNewsInfinity/status/920271066622291968\xc2\xa0\xe2\x80\xa6'
p478
S'3:26 PM - 17 Oct 2017'
p479
tp480
a(S'Collusion with Russia...emails deleted.. COME ON IN HILLARY pic.twitter.com/NG4jrqof3p'
p481
S'3:25 PM - 17 Oct 2017'
p482
tp483
a(S'She did win by 3 MILLION.  The polls didn\xe2\x80\x99t factor in the Russia collusion sport.'
p484
S'3:25 PM - 17 Oct 2017'
p485
tp486
a(S"@CNNPolitics HEY STUPID LIBTARDS there is real collusion  (O'Bozo, Crooked Hillary Billy,  FBI, ERIC,  LORETTA AND RUSSIA) CNN"
p487
S'3:22 PM - 17 Oct 2017'
p488
tp489
a(S"Yeah, that's why there are 2 congressional investigations and a special prosecutor looking into Hillary's collusion with Russia."
p490
S'3:21 PM - 17 Oct 2017'
p491
tp492
a(S'at the very least it kills the russia collusion story and SHOULD end the Mueller investigation'
p493
S'3:20 PM - 17 Oct 2017'
p494
tp495
a(S'what about the clinton comey obahma collision with the uranium to russia?finally hard evidence of collusion with putin special investigation'
p496
S'3:20 PM - 17 Oct 2017'
p497
tp498
a(S'Here you going!  The real collusion story with Russia. http://www.foxnews.com/politics/2017/10/17/report-russians-used-bribes-sought-to-pad-clinton-charity-amid-obama-era-push-to-expand-us-nuclear-footprint.html\xc2\xa0\xe2\x80\xa6'
p499
S'3:19 PM - 17 Oct 2017'
p500
tp501
a(S'Not only them but Mueller too! https://wikileaks.org/plusd/cables/09STATE85588_a.html\xc2\xa0\xe2\x80\xa6 Mueller delivered uranium to Russia but he\xe2\x80\x99s investigating Trump collusion? pic.twitter.com/HQYKSCPdgH'
p502
S'3:19 PM - 17 Oct 2017'
p503
tp504
a(S'Read this Mary. This is stone cold evidence of DEMOCRATS collusion w Russia.\n\nhttp://thehill.com/policy/national-security/355749-fbi-uncovered-russian-bribery-plot-before-obama-administration\xc2\xa0\xe2\x80\xa6'
p505
S'3:17 PM - 17 Oct 2017'
p506
tp507
a(S'@JoyAnnReid did you hear about Hillary and her deal with the uranium? Russia? Now that is collusion.'
p508
S'3:17 PM - 17 Oct 2017'
p509
tp510
a(S'We need a special counsel on this! Mueller is only goig to find Clintons with Russia collusion!'
p511
S'3:17 PM - 17 Oct 2017'
p512
tp513
a(S'Trying to prep us for upcoming Russia collusion, family grifting & impeachment stories, thinking we\xe2\x80\x99ll believe your deceitful buffoonery?'
p514
S'3:16 PM - 17 Oct 2017'
p515
tp516
a(S'Funny how the actual collusion was done by the Dems with Russia. Per @FBI. Wonder what will happen?? Anything?? Anything??'
p517
S'3:15 PM - 17 Oct 2017'
p518
tp519
a(S'Hill BO Holder Comey Mueller & 2 Key Officials Russia Collusion Invest. R Linked 2 HUGE Secret Russian NUCLEAR Deal https://100percentfedup.com/hill-BO-holder-comey-mueller-2-key-officials-leading-trump-russia-collusion-investigation-linked-huge-secret-russian-nuclear-deal/\xc2\xa0\xe2\x80\xa6'
p520
S'3:14 PM - 17 Oct 2017'
p521
tp522
a(S"Holder/Lynch perjured oath>PanamaPapers show collusion between Clintons & Russia's largest bank>Sberbank @T_S_P_O_O_K_Y @jerome_corsi @Circa"
p523
S'3:14 PM - 17 Oct 2017'
p524
tp525
a(S'Looks like collusion to me!\n\n#HillaryClinton Desperately Tries to Distract From Bombshell Russia-#UraniumOneReport http://www.thegatewaypundit.com/2017/10/hillary-clinton-desperately-tries-distract-bombshell-russia-uranium-one-report/\xc2\xa0\xe2\x80\xa6'
p526
S'3:14 PM - 17 Oct 2017'
p527
tp528
a(S'Those that shout the loudest usually have the most to hide.\n Russia Collusion = Obama & Hillary'
p529
S'3:13 PM - 17 Oct 2017'
p530
tp531
a(S'There is real Russia Collusion! A MUST READ! http://thehill.com/policy/national-security/355749-fbi-uncovered-russian-bribery-plot-before-obama-administration\xc2\xa0\xe2\x80\xa6'
p532
S'3:13 PM - 17 Oct 2017'
p533
tp534
a(S'Thread  read & rejoice! \n#Clinton #DNC #Russia #Obama #FBI #Collusion https://twitter.com/drawandstrike/status/920366758522966017\xc2\xa0\xe2\x80\xa6'
p535
S'3:12 PM - 17 Oct 2017'
p536
tp537
a(S'https://youtu.be/CpQDk8vb2ukte\xc2\xa0 truth comes out about Collusion with Russia'
p538
S'3:12 PM - 17 Oct 2017'
p539
tp540
a(S"They're covering the real story. The Trump family collusion with Russia"
p541
S'3:12 PM - 17 Oct 2017'
p542
tp543
a(S"https://www.nytimes.com/2015/04/24/opinion/candidate-clinton-and-the-foundation.html?_r=0\xc2\xa0\xe2\x80\xa6 Waiting to hear what @nytimes editorialized after today's revelations re Clinton collusion w Russia. @BretBaier"
p544
S'3:11 PM - 17 Oct 2017'
p545
tp546
a(S'@TheLeadCNN where\xe2\x80\x99s the story on Hillary, Clinton Foundation and FBI colluding with Russia????? The real collusion.'
p547
S'3:11 PM - 17 Oct 2017'
p548
tp549
a(S"Yeah but how's that Russia collusion thing going? pic.twitter.com/VWtZkRUecn"
p550
S'3:11 PM - 17 Oct 2017'
p551
tp552
a(S'While the left has been crying about fake #collusion #Obama covered up massive #Russia #corruption scandal! #RussiaGate'
p553
S'3:10 PM - 17 Oct 2017'
p554
tp555
a(S"Looking for Russian collusion? How about Shrieking Shrillary's sale of 20% of America's uranium to Russia? http://fb.me/1vt7N8zBY\xc2\xa0"
p556
S'3:10 PM - 17 Oct 2017'
p557
tp558
a(S'Clinton  Criminal Cartel Russia Collusion'
p559
S'3:10 PM - 17 Oct 2017'
p560
tp561
a(S'Omg, there would be a serious issue n america if that happened, what a stretch, how about how she had true proven collusion w/ russia'
p562
S'3:09 PM - 17 Oct 2017'
p563
tp564
a(S'Can\xe2\x80\x99t wait to hear you speak on the Hill report regarding bribes, Clinton\xe2\x80\x99s, collusion, and Russia!  #SeanHannity'
p565
S'3:09 PM - 17 Oct 2017'
p566
tp567
a(S'Note: this is the "orphans" law that placed restrictions on Russia, the one Putin used as the basis for collusion with @realDonaldTrump.https://twitter.com/Billbrowder/status/920382279913963522\xc2\xa0\xe2\x80\xa6'
p568
S'3:09 PM - 17 Oct 2017'
p569
tp570
a(S"Hoping they talk about Breaking Hill article on Clinton Russia collusion. If not, heres @JordanChariton's https://youtu.be/OfdLZCMsrzs\xc2\xa0\n#tytlive"
p571
S'3:08 PM - 17 Oct 2017'
p572
tp573
a(S'Interesting how r/all has nothing about Clinton/Russia collusion http://ift.tt/2x3O7yA\xc2\xa0'
p574
S'3:06 PM - 17 Oct 2017'
p575
tp576
a(S'Donald Trump day so far:\n\n-proof of Clinton Fdn / Russia collusion\n-FBI says Comey drafted memo months ago\n-stock market hits 23K\n\n#WINNING'
p577
S'3:06 PM - 17 Oct 2017'
p578
tp579
a(S'BREAKING BOMBSHELL: Hillary, Obama, Holder, Comey, Mueller and 2 Key Officials Leading Trump-Russia Collusion... http://fb.me/2f9XYIkga\xc2\xa0'
p580
S'3:05 PM - 17 Oct 2017'
p581
tp582
a(S'Hey guy.   BOOM THIS IS HUGE!!!! THE FBI JUST PROVED COLLUSION BETWEEN OBAMA /HITLARY AND RUSSIA....LOOK IT UP DUDE !!!!!DOOOO IT!!!!!'
p583
S'3:05 PM - 17 Oct 2017'
p584
tp585
a(S".@NancySinatra month ago I sent u info on the REAL #Russia collusion. Looks like the schumer's about 2 hit the fan. http://bit.ly/2yvHsjS\xc2\xa0"
p586
S'3:04 PM - 17 Oct 2017'
p587
tp588
a(S'RUSSIA RUSSIA RUSSIA....the real collusion facts are coming out. LOCK HER UP! https://twitter.com/ChristiChat/status/920315562798075904\xc2\xa0\xe2\x80\xa6'
p589
S'3:03 PM - 17 Oct 2017'
p590
tp591
a(S'If someone in congress doesn\'t have the balls to end the Trump/Russia "Collusion" investigation, then they all should get the F out! https://twitter.com/3lectric5heep/status/920370099399380992\xc2\xa0\xe2\x80\xa6'
p592
S'3:02 PM - 17 Oct 2017'
p593
tp594
a(S'@ChelseaClinton, The truth about #Clinton #Russia collusion & #Huma #Weiner emails is coming out. I hear Qatar is nice this time of year.'
p595
S'3:01 PM - 17 Oct 2017'
p596
tp597
a(S'Steps of collusion:\n1. Russia helped elect Trump\n2. Sanction approved for Russia\n3. Trump refuses to enforce them http://www.businessinsider.com/trump-russia-sanctions-mccain-cardin-letter-2017-10\xc2\xa0\xe2\x80\xa6'
p598
S'3:01 PM - 17 Oct 2017'
p599
tp600
a(S'#RussiaClinton http://thehill.com/policy/national-security/355749-fbi-uncovered-russian-bribery-plot-before-obama-administration\xc2\xa0\xe2\x80\xa6\n\nSo the people leading the Russia collusion investigation are guilty of... colluding with Russia. Shocking I tell you.'
p601
S'3:01 PM - 17 Oct 2017'
p602
tp603
a(S'#foxnews is totally corrupt. Absolutely nothing on the Clinton Russia collusion.'
p604
S'3:00 PM - 17 Oct 2017'
p605
tp606
a(S"You're so pathetic. \n#russia\n#MoneyLaundering\n#Collusion\n#Mueller\n#Corruption"
p607
S'3:00 PM - 17 Oct 2017'
p608
tp609
a(S'The whole world knows she is guilty Get rid of Mueller and arrest the Democratic traitors, Clinton, Obama, Biden and Kerry. Russia collusion'
p610
S'2:59 PM - 17 Oct 2017'
p611
tp612
a(S'How Clinton Can Become President After Mueller\xe2\x80\x99s Trump-Russia Investigation Proves Collusion: Lawrence Lessig. http://google.com/newsstand/s/CBIwndnWrjY\xc2\xa0\xe2\x80\xa6'
p613
S'2:59 PM - 17 Oct 2017'
p614
tp615
a(S'The is the real Russia collusion story, not the fake news about Pres Trump. https://twitter.com/JackPosobiec/status/920368223765352449\xc2\xa0\xe2\x80\xa6'
p616
S'2:59 PM - 17 Oct 2017'
p617
tp618
a(S'Collusion alright but Trump and Russia not it! Beautiful work @Imperator_Rex3 , knew the Clintons dirty but wow! No wonder so many "Suicideshttps://twitter.com/Imperator_Rex3/status/920249421131952129\xc2\xa0\xe2\x80\xa6'
p619
S'2:57 PM - 17 Oct 2017'
p620
tp621
a(S"Senate presses #MikeFlynn's son for documents in Russia probe: source. #TrumpRussia #treason #Collusion #LockHimUp https://a.msn.com/r/2/AAtELUl\xc2\xa0pic.twitter.com/Y9S4MynFWx"
p622
S'2:57 PM - 17 Oct 2017'
p623
tp624
a(S"Go read the article. That's about Hillary's collusion with Russia and almost a trillion dollar payout. And it's all fact suck it up."
p625
S'2:56 PM - 17 Oct 2017'
p626
tp627
a(S"contacts and trips aren't collusion to change votes. Find me ONE electorial vote that was changed by Trump-Russia collusion"
p628
S'2:56 PM - 17 Oct 2017'
p629
tp630
a(S'What happened?\nHillary broke her toe in London while peddling a book. Today-Uranium One Russia collusion exposed her-will she return to USA? pic.twitter.com/douPKot6ZF'
p631
S'2:56 PM - 17 Oct 2017'
p632
tp633
a(S'When will CNN and NBC talk about the bombshell that the FBI has on The Clintons and Obama administration and the real collusion into Russia'
p634
S'2:55 PM - 17 Oct 2017'
p635
tp636
a(S'FBI Proves Russian Collusion. Obama/Clinton Busted! https://youtu.be/CpQDk8vb2uk\xc2\xa0 via @YouTube#FBI COLLUSION WITH RUSSIA'
p637
S'2:54 PM - 17 Oct 2017'
p638
tp639
a(S"Take the time to read the article. There was no collusion for the election. The Clinton's have been in bed with Russia for years. For money"
p640
S'2:54 PM - 17 Oct 2017'
p641
tp642
a(S'I bet we\xe2\x80\x99ll see more fake news tweets the more we find out about Russia collusion info https://twitter.com/realdonaldtrump/status/920406959320371200\xc2\xa0\xe2\x80\xa6'
p643
S'2:53 PM - 17 Oct 2017'
p644
tp645
a(S'Exactly! Now your talkin @RepSwalwell Now that the Real Russia Collusion has been exposed, We can Protect from "44" http://thehill.com/policy/national-security/355749-fbi-uncovered-russian-bribery-plot-before-obama-administration\xc2\xa0\xe2\x80\xa6https://twitter.com/RepSwalwell/status/920402531917889536\xc2\xa0\xe2\x80\xa6'
p646
S'2:52 PM - 17 Oct 2017'
p647
tp648
a(S'Hopefully, DOJ is properly handling Russia Collusion, Election 2016, Hillary Emails, Clinton Foundation, Ru Ur'
p649
S'2:49 PM - 17 Oct 2017'
p650
tp651
a(S'DPTY Rosenstein appears to have a conflict in the Russia Collusion investigation.'
p652
S'2:49 PM - 17 Oct 2017'
p653
tp654
a(S'Question: Did you ask this when they kept pushing the Trump/Russia collusion narrative?'
p655
S'2:48 PM - 17 Oct 2017'
p656
tp657
a(S'So THAT was the Russia collusion MSM was talking about... https://twitter.com/mitchellvii/status/920270070114406402\xc2\xa0\xe2\x80\xa6'
p658
S'2:48 PM - 17 Oct 2017'
p659
tp660
a(S'@seanhannity I heard U talking today on uranium 1 HRC($$$$) russan collusion.also HRC was trying to make $$$$ on high tech.give to russia'
p661
S'2:48 PM - 17 Oct 2017'
p662
tp663
a(S"Mueller interviewed cybersecurity expert who said he was 'recruited to collude' with Russia http://read.bi/2yv8mrK\xc2\xa0 via #Collusion"
p664
S'2:46 PM - 17 Oct 2017'
p665
tp666
a(S'@realDonaldTrump what is wrong with Jeff Sessions with the latest Russia collusion of Clintons, Podesta, Muellar, And Rosinstein.'
p667
S'2:46 PM - 17 Oct 2017'
p668
tp669
a(S"Yeah why would we give Russia 20% of our nation's uranium to build nukes  now that's collusion I don't care what anyone says"
p670
S'2:45 PM - 17 Oct 2017'
p671
tp672
a(S'We know there was collusion between Russia and Clinton over uranium transfer $$$. It\xe2\x80\x99s in the just released FBI memos. Feel stupid Vice?'
p673
S'2:43 PM - 17 Oct 2017'
p674
tp675
a(S'"Trump is in collusion with Russia!" https://twitter.com/seanhannity/status/920254530666795009\xc2\xa0\xe2\x80\xa6'
p676
S'2:42 PM - 17 Oct 2017'
p677
tp678
a(S'Problem is Kai she did win! I can\xe2\x80\x99t believe for one moment that Trump was not elected, but part of a horrible collusion with Russia. Can\xe2\x80\x99t'
p679
S'2:42 PM - 17 Oct 2017'
p680
tp681
a(S'Collusion w/Russia was real. But it waste Trump @EdFolsomlaw @Brendy438 @LarryS500 @infocyde @sea_me3 @beninmaitlandhttp://thehill.com/policy/national-security/355749-fbi-uncovered-russian-bribery-plot-before-obama-administration?amp\xc2\xa0\xe2\x80\xa6'
p682
S'2:42 PM - 17 Oct 2017'
p683
tp684
a(S'He always Projects what he knows. If he accuses someone of something it is because he would act that way. If he says something that makes no sense about those opposed to him, it is about the Alt Right Freaks, or The Collusion with Russia.'
p685
S'2:42 PM - 17 Oct 2017'
p686
tp687
a(S'CLINTON/Russia REAL collusion ?https://twitter.com/thehill/status/920278741313556480\xc2\xa0\xe2\x80\xa6'
p688
S'2:41 PM - 17 Oct 2017'
p689
tp690
a(S'How Clinton Can Become President After Mueller\xe2\x80\x99s Trump-Russia Investigation Proves Collusion: Lawrence Lessig http://inquisitr.to/QUpZsZP\xc2\xa0'
p691
S'2:41 PM - 17 Oct 2017'
p692
tp693
a(S"Sounds like the Dem's tale of Trump/Russia collusion is just a cover-up for their actual collusion w Russia. https://twitter.com/seanhannity/status/920254530666795009\xc2\xa0\xe2\x80\xa6"
p694
S'2:40 PM - 17 Oct 2017'
p695
tp696
a(S'How dare Mueller & Comey accuse DJT of collusion w/ Russia when they both knew full well of the crimes under Obama & HRC on the\nuranium deal'
p697
S'2:39 PM - 17 Oct 2017'
p698
tp699
a(S'@joshdcaplan #ClintonFoundation #Russia The cries of collusion serving as diversion adding to their litany of atrocities #uranium'
p700
S'2:39 PM - 17 Oct 2017'
p701
tp702
a(S'It looks like the real collusion was between Russia and #HillaryClinton. #CrookedHillary #RussiaCollusion #tcot http://thehill.com/policy/national-security/355749-fbi-uncovered-russian-bribery-plot-before-obama-administration?amp\xc2\xa0\xe2\x80\xa6'
p703
S'2:38 PM - 17 Oct 2017'
p704
tp705
a(S"ALSO, wait for the truth to come out about Hillary, Obama, Russia and Uranium. It'll be BIG news tonight but it's going to let everyone of us say 'RUSSIA RUSSIA RUSSIA....collusion!'"
p706
S'2:38 PM - 17 Oct 2017'
p707
tp708
a(S'Irony: Mueller investigating Russia collusion with Trump while covering up Obama/Clinton collusion with Russia! Fox in the henhouse! Madness'
p709
S'2:38 PM - 17 Oct 2017'
p710
tp711
a(S'@CivilRights @TheJusticeDept \n\nHow can a special prosecutor with links to Russia be investigating Russian collusion? You have to step in!'
p712
S'2:37 PM - 17 Oct 2017'
p713
tp714
a(S"@EdWGillespie Despite the media's protestations, richard burr and mark warner have found NO evidence of trump team collusion with russia."
p715
S'2:37 PM - 17 Oct 2017'
p716
tp717
a(S'Trump N The HouseReal Russian Collusion?Hillary Selling Uranium 2 Russia & Tons Of Money Was Fed N2 The Clinton Foundation!Tick Tock!'
p718
S'2:35 PM - 17 Oct 2017'
p719
tp720
a(S'Do you still have blueprints for the Moscow Trump Tower?  Do you plan to move there if possible?  When will Russia gate be over?  Collusion?'
p721
S'2:34 PM - 17 Oct 2017'
p722
tp723
a(S'No shit!\nAG Sessions\xe2\x80\x99 asst\nRod Rosenstein & FBI Comey\xe2\x80\x99s asst Andrew McCabe investigated & KNEW about Clinton & Obama collusion with RUSSIA.'
p724
S'2:33 PM - 17 Oct 2017'
p725
tp726
a(S'Hillary Obama Holder Comey Mueller & Officials on Russia Collusion Investigation Linked To Russian NUKE Deal  https://100percentfedup.com/breaking-bombshell-hillary-obama-holder-comey-mueller-2-key-officials-leading-trump-russia-collusion-investigation-linked-huge-secret-russian-nuclear-deal/\xc2\xa0\xe2\x80\xa6'
p727
S'2:32 PM - 17 Oct 2017'
p728
tp729
a(S'Democrats collusion with Russia https://youtu.be/UkcxeJCPgz0\xc2\xa0'
p730
S'2:32 PM - 17 Oct 2017'
p731
tp732
a(S'@realDonaldTrump HRC,Obama,Holder,Comey, Mueller& 2 Officials leading TRUMP-Russia collusion R ALL LINKED to Huge Secret Russia NUCLEAR deal'
p733
S'2:32 PM - 17 Oct 2017'
p734
tp735
a(S'The collusion between Trump and Russia is HILLARY!!\n'
p736
S'2:32 PM - 17 Oct 2017'
p737
tp738
a(S"@seanhannity Hillary/Russia collusion and reset button and Obama's mic gaffe, FBI looking the other way...indict"
p739
S'2:31 PM - 17 Oct 2017'
p740
tp741
a(S'And an election tampered with by Russia in collusion with trump and his team. Mueller has the facts and they will soon be revealed.'
p742
S'2:30 PM - 17 Oct 2017'
p743
tp744
a(S'Real Russia collusion. Lock her up!\n#RussiaClintonhttp://thehill.com/policy/national-security/355749-fbi-uncovered-russian-bribery-plot-before-obama-administration\xc2\xa0\xe2\x80\xa6'
p745
S'2:30 PM - 17 Oct 2017'
p746
tp747
a(S'Wouldn\xe2\x80\x99t it be a coup if Mueller\xe2\x80\x99s report actually contains ALL of the Clinton & Obama corruption & collusion with Russia-Putin-Uranium One?'
p748
S'2:29 PM - 17 Oct 2017'
p749
tp750
a(S'No comment? Looks like the ppl investigating(pushing) Trump/Russia actually R the 1s who covered-up REAL collusion -Clinton, Podesta/Russia'
p751
S'2:26 PM - 17 Oct 2017'
p752
tp753
a(S'I wonder why Twitter is not trending the RUSSIA CLINTON collusion... I wonder why '
p754
S'2:26 PM - 17 Oct 2017'
p755
tp756
a(S'The REAL Russia collusion! \n\nhttp://thehill.com/policy/national-security/355749-fbi-uncovered-russian-bribery-plot-before-obama-administration\xc2\xa0\xe2\x80\xa6\n#RussiaClinton'
p757
S'2:25 PM - 17 Oct 2017'
p758
tp759
a(S'What about the Russian collusion breaking in which Bill Hillary and Holder got huge payouts from Russia to sell our uranium to them'
p760
S'2:25 PM - 17 Oct 2017'
p761
tp762
a(S'Uh oh...\nIn real news: REAL evidence of collusion & bribery involving Clintons, Holder & Barry-n-friends and Russia "IS" coming to light'
p763
S'2:24 PM - 17 Oct 2017'
p764
tp765
a(S'Another Trump-Russia collusion narrative bites the dust https://youtu.be/ZuHPAOkRZWE\xc2\xa0 via @YouTube'
p766
S'2:23 PM - 17 Oct 2017'
p767
tp768
a(S'@HillaryClinton @realDonaldTrump So this is the Russia collusion Hitlery has been referring to...now I get it.  #OrangePajamashttps://twitter.com/Thomas1774Paine/status/920314327378296833\xc2\xa0\xe2\x80\xa6'
p769
S'2:23 PM - 17 Oct 2017'
p770
tp771
a(S'Trump: no collusion with Russia; Russiagate investigations should end http://theduran.com/trump-no-collusion-russia-russiagate-investigations-end/\xc2\xa0\xe2\x80\xa6'
p772
S'2:23 PM - 17 Oct 2017'
p773
tp774
a(S'RT truth_pray: The "COLLUSION" \nHas Always been with the #ClintonFoundation #Russia\nDineshDSouza Is Right Called "\xe2\x80\xa6 https://twitter.com/truth_pray/status/920341900988530688\xc2\xa0\xe2\x80\xa6'
p775
S'2:21 PM - 17 Oct 2017'
p776
tp777
a(S'All the FBI Agents investigating TRUMP on False Collusion w/Russia covered up the people that are guilty for colluding with Russia inc them https://twitter.com/DTrumpTrain_/status/920380606613278720\xc2\xa0\xe2\x80\xa6'
p778
S'2:20 PM - 17 Oct 2017'
p779
tp780
a(S'As if they would# cover it anyway having gotten so close to uncovering the #clinton #FBI #obama #Russia #uranium story of Trump collusion'
p781
S'2:20 PM - 17 Oct 2017'
p782
tp783
a(S"Democrats' Real, Pervasive Collusion With Russia  Lost In Media's Hysterical Anti-Trump Campaign http://www.investors.com/politics/editorials/democrats-real-pervasive-collusion-with-russia-somehow-lost-in-medias-hysterical-anti-trump-campaign/\xc2\xa0\xe2\x80\xa6 via @IBDeditorials"
p784
S'2:20 PM - 17 Oct 2017'
p785
tp786
a(S'Evidence for Russia collusion: the Facebook ads, trump tower meeting.'
p787
S'2:20 PM - 17 Oct 2017'
p788
tp789
a(S"Ur refusing to report it doesn't mean it didn't happen,this is ur Russia collusion smoking gun,oh.no, it's a fcuking nuclear bomb!! pic.twitter.com/VwadadytW5"
p790
S'2:19 PM - 17 Oct 2017'
p791
tp792
a(S'Senate Intelligence Committee still investigating possible collusion between Trump campaign and Russia http://ref.gl/CEs7uAVl\xc2\xa0'
p793
S'2:19 PM - 17 Oct 2017'
p794
tp795
a(S'@maryugogirl well well well looky here look who has the collusion with Russia how many tweets did you make about Trump and Russia Mary? https://twitter.com/Trumpfan1995/status/920344451020656640\xc2\xa0\xe2\x80\xa6'
p796
S'2:17 PM - 17 Oct 2017'
p797
tp798
a(S'Sounds fishy. Another person killed them selves in the Russia collusion. Remember Seth? Bet someone paid money for a hack to say stuff'
p799
S'2:16 PM - 17 Oct 2017'
p800
tp801
a(S'Just tell them Trump/russia collusion evidence to be discovered with this investigation and they will be "all over it". '
p802
S'2:16 PM - 17 Oct 2017'
p803
tp804
a(S"That's why the Mueller Russia investigation into Trump will never stop. Only then will the real perpetrators of collusion be exposed."
p805
S'2:14 PM - 17 Oct 2017'
p806
tp807
a(S'#collusion #russia #crookedhillary #FBI #ClintonRussia https://twitter.com/polNewsInfinity/status/920271066622291968\xc2\xa0\xe2\x80\xa6'
p808
S'2:13 PM - 17 Oct 2017'
p809
tp810
a(S'There indeed has been ENORMOUS collusion with Russia.....by Hillary Clinton. https://twitter.com/julianassange/status/919760540662157312\xc2\xa0\xe2\x80\xa6'
p811
S'2:09 PM - 17 Oct 2017'
p812
tp813
a(S'Hitler? Mussolini? How abt OBama? Or Hillary? Latest blowout/ Russia collusion & corruption between OBama/ Hillary/holder. Now THAT is evil!'
p814
S'2:07 PM - 17 Oct 2017'
p815
tp816
a(S'BREAKING BOMBSHELL: Hillary, Obama, Holder, Comey, Mueller and 2 Key Officials Leading Trump-Russia Collusion... http://fb.me/znnhRfxi\xc2\xa0'
p817
S'2:07 PM - 17 Oct 2017'
p818
tp819
a(S"Trump knows exactly what he's doing. It's obvious by things he lies about. Remember he knew to keep his business & collusion w/Russia secret"
p820
S'2:06 PM - 17 Oct 2017'
p821
tp822
a(S'Have they issued one for Mueller regarding his hand in the HRC / Russia collusion of the Uranium disgrace? Mueller DELIVEREDthe uranium!'
p823
S'2:04 PM - 17 Oct 2017'
p824
tp825
a(S'FBI Uncovered Hillary/Russia Collusion Bribery Plot..Then Obama Approved Controversial U Sale  https://www.weaselzippers.us/360802-russia-collusion-fbi-uncovered-russian-bribery-plot-before-obama-admin-approved-controversial-nuclear-deal-with-moscow/\xc2\xa0\xe2\x80\xa6 via @weaselzippers'
p826
S'2:03 PM - 17 Oct 2017'
p827
tp828
a(S'FBI Bribery Uncovered\nClinton<-&gt;Russia Collusion\nhttp://thehill.com/policy/national-security/355749-fbi-uncovered-russian-bribery-plot-before-obama-administration\xc2\xa0\xe2\x80\xa6'
p829
S'2:03 PM - 17 Oct 2017'
p830
tp831
a(S'Oh nice! I read collusion and immediately thought the libs were insinuating that he colluded with Russia lmao'
p832
S'2:03 PM - 17 Oct 2017'
p833
tp834
a(S'@POTUS @seanhannity @Lrihendry Hey! Where is everybody!! Russia collusion. https://twitter.com/jordanchariton/status/920306473284063234\xc2\xa0\xe2\x80\xa6'
p835
S'2:03 PM - 17 Oct 2017'
p836
tp837
a(S'Collusion has been confirmed by the FBI! But since it was Hillary, Bill & The Clinton Foundation and Russia, do... http://fb.me/6CKJNDlOG\xc2\xa0'
p838
S'2:02 PM - 17 Oct 2017'
p839
tp840
a(S'nothing to say today #OldLady about @HillaryClinton Russia uranium collusion with @FBI Cover??https://twitter.com/NancyPelosi/status/920391761721163777\xc2\xa0\xe2\x80\xa6'
p841
S'2:01 PM - 17 Oct 2017'
p842
tp843
a(S'@HillaryClinton \nHey Hillary- there was Russia collusion- with you\nU really are like herpes- keep returning& destroying'
p844
S'2:01 PM - 17 Oct 2017'
p845
tp846
a(S'The Real Russian Collusion Story. Clinton/Russia https://twitter.com/thehill/status/920390485826469888\xc2\xa0\xe2\x80\xa6'
p847
S'2:00 PM - 17 Oct 2017'
p848
tp849
a(S'Obamas people repeatedly took the 5th, in far more awful matters than the FAKE  nothingburger of a Russia probe. COLLUSION leads to HILLARY'
p850
S'2:00 PM - 17 Oct 2017'
p851
tp852
a(S'DNC hacking, weaponized info releases, tRUmp campaign collusion, facebook/twitter voter targeting, organizing rallies/protests, and PAYING to fund the protests? Anything Im missing? Russia put together an epic influence operation. POTUS cant rub 2 sticks together to save his life https://twitter.com/kylegriffin1/status/920385517971214338\xc2\xa0\xe2\x80\xa6'
p853
S'2:00 PM - 17 Oct 2017'
p854
tp855
a(S'@cnn@nbc hey any news stories about Clinton Obama Russia collusion.'
p856
S'1:59 PM - 17 Oct 2017'
p857
tp858
a(S'So if you believe Russia, here is your collusion! https://twitter.com/NatashaBertrand/status/919895450613944321\xc2\xa0\xe2\x80\xa6'
p859
S'1:59 PM - 17 Oct 2017'
p860
tp861
a(S'When will Comey be brought up on charges\n#Comey #Hillary #Clinton #Collusion #Russia #ClintonFoundation #UraniumOnehttps://twitter.com/SarahPalinUSA/status/920355039331454976\xc2\xa0\xe2\x80\xa6'
p862
S'1:57 PM - 17 Oct 2017'
p863
tp864
a(S'It\'s called "crowd strike"\nThe only firm to ever investigate the DNC server, happens to be funded by Soros & retracted the Russia collusion'
p865
S'1:57 PM - 17 Oct 2017'
p866
tp867
a(S'Smoking gun in Russian Collusion found? #Russia #FeloniaVonPantsuit #Crime @TheDiplomad http://angry.net/blog2/?p=25134\xc2\xa0pic.twitter.com/4au4Y618o9'
p868
S'1:56 PM - 17 Oct 2017'
p869
tp870
a(S'How you doing on Clinton Obama collusion with Russia?  You could care less about this country.'
p871
S'1:56 PM - 17 Oct 2017'
p872
tp873
a(S'You want to know immediately what the Democrats are up to themselves?  Just look at what they are accusing Republicans of (Russia Collusion)'
p874
S'1:55 PM - 17 Oct 2017'
p875
tp876
a(S'Have you ever heard of miss typing a word. So glad I have you for my teacher. Maybe you can now go get a job. Only collusion was Hillary and the obama administration with Russia.'
p877
S'1:54 PM - 17 Oct 2017'
p878
tp879
a(S'Why else do you think @HillaryClinton was so fervent about some imaginary Trump / Russia collusion? All projection / distraction. #LockHerUp'
p880
S'1:53 PM - 17 Oct 2017'
p881
tp882
a(S"RUSSIA COLLUSION FOUND...Clinton's, & top Obama Officials Involved while FBI & Obama's Justice Dept. provided cover. http://evansnewsreport.com\xc2\xa0"
p883
S'1:53 PM - 17 Oct 2017'
p884
tp885
a(S'Oh yes... fine man. Speaking of fine men, hows it feel to be on the run from your obvious collusion with Russia etc & sexual misconduct?'
p886
S'1:52 PM - 17 Oct 2017'
p887
tp888
a(S'BINGO COLLUSION RUSSIA GOP.  @realDonaldTrump @CNN @FoxNewsInsider @MSNBChttps://twitter.com/agep777/status/920391568338575360\xc2\xa0\xe2\x80\xa6'
p889
S'1:51 PM - 17 Oct 2017'
p890
tp891
a(S'The Russia-Trump collusion story is not about Mr. Khan, who is totally rigged!'
p892
S'1:49 PM - 17 Oct 2017'
p893
tp894
a(S'Looks like @hillaryclinton and obama administration had some collusion with RUSSIA . https://twitter.com/SebGorka/status/920272269884231681\xc2\xa0\xe2\x80\xa6'
p895
S'1:49 PM - 17 Oct 2017'
p896
tp897
a(S'AG Sessions, Hillary & Russia collusion for OUR Uranium, what are doing about it? For GOD sake DO your damn job! @POTUS @WhiteHouse #MAGA'
p898
S'1:47 PM - 17 Oct 2017'
p899
tp900
a(S'I have said many times their push of the Russia collusion will come back at them and be their undoing'
p901
S'1:46 PM - 17 Oct 2017'
p902
tp903
a(S'#MAGA #POTUS #SwampWatch  Need to get to the bottom of this Russia Collusion story under Obama. https://twitter.com/CarmineZozzora/status/920389371345301504\xc2\xa0\xe2\x80\xa6'
p904
S'1:46 PM - 17 Oct 2017'
p905
tp906
a(S'.@JoeProShow on #Periscope: BREAKING NEWS: The Hill details Clinton/Russia collusion while McCabe and Rosenstein sa\xe2\x80\xa6 https://www.pscp.tv/w/bLUR-DFEWktvWUJKV3F6RWF8MURYR3lFZ2JBWmdHTQDeg25uc2UmNbmSQELuZZXCzvW6QaddrZ37-IkJ_l9m\xc2\xa0\xe2\x80\xa6'
p907
S'1:46 PM - 17 Oct 2017'
p908
tp909
a(S'How about reporting on the Clinton Russia collusion???'
p910
S'1:45 PM - 17 Oct 2017'
p911
tp912
a(S"'This will go over like a turd in a punch bowl. Poorly. Second, NO Russia collusion by Trump. Hillary? You bet she did! https://twitter.com/jays2629/status/920383809673195520\xc2\xa0\xe2\x80\xa6"
p913
S'1:45 PM - 17 Oct 2017'
p914
tp915
a(S'There was Russia collusion, by the Obama administration & Hillary.'
p916
S'1:44 PM - 17 Oct 2017'
p917
tp918
a(S'@Toure @ThunderHawk33 The real Russia bribery, collusion story has been uncovered. http://thehill.com/policy/national-security/355749-fbi-uncovered-russian-bribery-plot-before-obama-administration\xc2\xa0\xe2\x80\xa6 #LockHerUp'
p919
S'1:43 PM - 17 Oct 2017'
p920
tp921
a(S'Now we know... Dems faked Trump/Russia collusion to hide real collusion between Hillary, Obama and Mueller.'
p922
S'1:43 PM - 17 Oct 2017'
p923
tp924
a(S'Hillary and hypocrite Clintons | @CNN #democrats #liberals #FBI Russia Collusion http://www.foxnews.com/politics/2017/10/17/report-russians-used-bribes-sought-to-pad-clinton-charity-amid-obama-era-push-to-expand-us-nuclear-footprint.html\xc2\xa0\xe2\x80\xa6'
p925
S'1:43 PM - 17 Oct 2017'
p926
tp927
a(S"Let's not forget Russia,their interference with our election,and their collusion with trump candidacy!Trump-Russia's puppet!"
p928
S'1:42 PM - 17 Oct 2017'
p929
tp930
a(S'@maddow Collusion with russia  and its Hillary  http://www.foxnews.com/politics/2017/10/17/report-russians-used-bribes-sought-to-pad-clinton-charity-amid-obama-era-push-to-expand-us-nuclear-footprint.html\xc2\xa0\xe2\x80\xa6'
p931
S'1:41 PM - 17 Oct 2017'
p932
tp933
a(S'The real Russia collusion #FakeNews CNN is covering up:https://social.newsinc.com/media/json/69017/33126722/singleVideoOG.html?type=VideoPlayer%2FSingle&widgetId=2&trackingGroup=69017&videoId=33126722#.WeZqB8WbeYE.twitter\xc2\xa0\xe2\x80\xa6'
p934
S'1:41 PM - 17 Oct 2017'
p935
tp936
a(S'When will Congress have the courage to remove Trump from office for his inability to function as President and collusion with Russia?  https://twitter.com/tedlieu/status/920347383577305088\xc2\xa0\xe2\x80\xa6'
p937
S'1:41 PM - 17 Oct 2017'
p938
tp939
a(S'Russia collusion to thee but not me. https://twitter.com/noahcrothman/status/920320230777376769\xc2\xa0\xe2\x80\xa6'
p940
S'1:41 PM - 17 Oct 2017'
p941
tp942
a(S'The Obama-Clinton-Russia uranium bribery collusion scandal is getting hot.'
p943
S'1:41 PM - 17 Oct 2017'
p944
tp945
a(S'Clinton Russia Collusion | @cnn reports http://www.foxnews.com/politics/2017/10/17/report-russians-used-bribes-sought-to-pad-clinton-charity-amid-obama-era-push-to-expand-us-nuclear-footprint.html\xc2\xa0\xe2\x80\xa6'
p946
S'1:40 PM - 17 Oct 2017'
p947
tp948
a(S"Where is Hillary's statement on Bill raping women, or her collusion with Russia"
p949
S'1:40 PM - 17 Oct 2017'
p950
tp951
a(S'Collusion by @FBI fmr dr Mueller, Obama, DOJ, Clinton covered up extortion, bribes 4 Russia 2 get U.S. uranium needed 4 nuclear bombs! pic.twitter.com/0WrOA2BT3d'
p952
S'1:39 PM - 17 Oct 2017'
p953
tp954
a(S'.@qlifemagazine Trump Son-in-Law Kushner Denies Collusion with Russia http://bit.ly/2uT4lN8\xc2\xa0'
p955
S'1:39 PM - 17 Oct 2017'
p956
tp957
a(S'When u guys going 2 report on the scandal that is the real Russian collusion between Russia & Clintons & Mueller/Comey/Rosenstein covered up https://twitter.com/thehill/status/920291571282726914\xc2\xa0\xe2\x80\xa6'
p958
S'1:39 PM - 17 Oct 2017'
p959
tp960
a(S'The real Russian collusion... Obama Admin colluded with Russia on sale of U.S. Uranium; Click here for details: http://www.independentsentinel.com/bombshell-obama-admin-colluded-with-russia-on-sale-of-u-s-uranium-mine/\xc2\xa0\xe2\x80\xa6'
p961
S'1:39 PM - 17 Oct 2017'
p962
tp963
a(S'Is it too much to ask that\nthe resistance #ImWithHer lemmings follow Hillary Clinton to prison for her REAL Russia collusion? \n#LockHerUp'
p964
S'1:39 PM - 17 Oct 2017'
p965
tp966
a(S'The REAL Russian Collusion\nObama, HRC, Bill, Mueller, Holder, Lynch,  Rosenstein, Comey, FBI, McCabe Russia $ laundering, bribery'
p967
S'1:38 PM - 17 Oct 2017'
p968
tp969
a(S'Meanwhile MSM virtually silent on the real Russia collusion story involving Hillary/the Clinton Gobal initiative and the sale of US uranium.'
p970
S'1:37 PM - 17 Oct 2017'
p971
tp972
a(S'@HillaryClinton how could you compare the two things 9/11 and Russia nothing Collusion. #ShutUp and #GoAway '
p973
S'1:35 PM - 17 Oct 2017'
p974
tp975
a(S"So there is Russian collusion. But surprise! It's with the Clintons. No big surprise. So we can stop the Trump -Russia invest. Right?"
p976
S'1:34 PM - 17 Oct 2017'
p977
tp978
a(S'For months Dem,MSM have been  trying to find the smoking gun of Russia collusion,now this is a nuclear bomb!! https://twitter.com/thehill/status/920382942303592449\xc2\xa0\xe2\x80\xa6'
p979
S'1:34 PM - 17 Oct 2017'
p980
tp981
a(S'And, yet, this corrupt POS is investigating Russia collusion and other delusions. Awesome. Soooooo happy!'
p982
S'1:33 PM - 17 Oct 2017'
p983
tp984
a(S"@RepAdamSchiff @RepSwalwell @ChuckGrassley So, why aren't you guys screaming 'Russia! Russia! Russia!' over this obvious collusion scandal? https://twitter.com/Thomas1774Paine/status/920336834764386305\xc2\xa0\xe2\x80\xa6"
p985
S'1:32 PM - 17 Oct 2017'
p986
tp987
a(S"Now we know why Hellywood has erupted. It's to keep MSM a reason to avoid the Clinton/Russia Collusion!  http://thehill.com/policy/national-security/355749-fbi-uncovered-russian-bribery-plot-before-obama-administration#.WeZoQkI4lUA.twitter\xc2\xa0\xe2\x80\xa6"
p988
S'1:32 PM - 17 Oct 2017'
p989
tp990
a(S"Articles: Investigate Hillary's Uranium One Collusion with Russia http://www.americanthinker.com/articles/2017/07/investigate_hillarys_uranium_one_collusion_with_russia.html?utm_source=dlvr.it&utm_medium=twitter#.WdYBGrGsYBF.twitter\xc2\xa0\xe2\x80\xa6pic.twitter.com/HiBrn5pHT5"
p991
S'1:31 PM - 17 Oct 2017'
p992
tp993
a(S'Orwellian rewrites as we live it. don\xe2\x80\x99t think he will last till the next year. Hideous collusion with Russia. he is grossly out of shape'
p994
S'1:30 PM - 17 Oct 2017'
p995
tp996
a(S'#UraniumOne The real Russia collusion story pic.twitter.com/2eCELfawqq'
p997
S'1:30 PM - 17 Oct 2017'
p998
tp999
a(S'This gets stranger and more corrupt by the minute... Now he is investigating Trump for Russia collusion!!! https://twitter.com/wikileaks/status/891431096688271365\xc2\xa0\xe2\x80\xa6'
p1000
S'1:27 PM - 17 Oct 2017'
p1001
tp1002
a(S'Not only that-HE PICKED Meuller 4Trump collusion w/Russia hunt when Mueller Rosenstein&McCabe involved w/Russsia Uranium&investigation! OMG!'
p1003
S'1:27 PM - 17 Oct 2017'
p1004
tp1005
a(S"ruh roh\n\nMueller has some 'splainin' to do....\n\nRussia Collusion with Clinton Foundation\nBribes\nKickbacks\nMoney Laundering\n\n#coveruphttps://twitter.com/JackPosobiec/status/920283900232065024\xc2\xa0\xe2\x80\xa6"
p1006
S'1:27 PM - 17 Oct 2017'
p1007
tp1008
a(S'Hillary AND Russia corruption collusion and traitor\nhttps://conservativeforever.com/fbi-evidence-russia-bribed-clinton-foundation-obama-approved-uranium-deal/\xc2\xa0\xe2\x80\xa6'
p1009
S'1:27 PM - 17 Oct 2017'
p1010
tp1011
a(S"Can't wait to get @maddow 's take on the new Russia collusion findings released tonight!"
p1012
S'1:26 PM - 17 Oct 2017'
p1013
tp1014
a(S'Ok guys...Ready? CNN is blaming Russia collusion on ... ... Putin\xe2\x80\x99s ... Chef!!! I just can\xe2\x80\x99t  https://apple.news/AJcHkyPYNQSuT6ZiGAHZl1Q\xc2\xa0\xe2\x80\xa6'
p1015
S'1:26 PM - 17 Oct 2017'
p1016
tp1017
a(S'Here is your collusion, Clinton took bribes and kickbacks from Russia in exchange for uranium, she sold us out.\nhttp://thehill.com/policy/national-security/355749-fbi-uncovered-russian-bribery-plot-before-obama-administration\xc2\xa0\xe2\x80\xa6'
p1018
S'1:25 PM - 17 Oct 2017'
p1019
tp1020
a(S"Mueller and his witch hunt. What does records from 2010 have to do with supposed Russia collusion claim? Wasting tax payers' money."
p1021
S'1:24 PM - 17 Oct 2017'
p1022
tp1023
a(S"Frickin' trolls are out in full denial Cardillo! They are still hanging onto Trump/Russia collusion "
p1024
S'1:24 PM - 17 Oct 2017'
p1025
tp1026
a(S'@HillaryClinton so tell us about the collusion and kick back Russia Uranium deal. Who knew what when ? You, Bill need jail time for this'
p1027
S'1:24 PM - 17 Oct 2017'
p1028
tp1029
a(S'Is this why dems were so desperate to win election? Obama spying, Clinton campaign election rigging, Trump Russia collusion lies?'
p1030
S'1:23 PM - 17 Oct 2017'
p1031
tp1032
a(S'@CNN what about Clinton/Russia collusion w uranium veal per Wikileaks. Hello'
p1033
S'1:23 PM - 17 Oct 2017'
p1034
tp1035
a(S'So there was Russia collusion by a 2016 presidential candidate, however, it was not Trump. Hillary is dirty!  http://thehill.com/policy/national-security/355749-fbi-uncovered-russian-bribery-plot-before-obama-administration\xc2\xa0\xe2\x80\xa6'
p1036
S'1:23 PM - 17 Oct 2017'
p1037
tp1038
a(S"I see Resist Wear hasn't seen the most recent news of the day.... They found a Russia Collusion... however it was with Hillary Clinton pic.twitter.com/Kuh1csYFNo"
p1039
S'1:22 PM - 17 Oct 2017'
p1040
tp1041
a(S"@ABC @CBSNews @NBCNews Per @Circa, Russian collusion exists! Only it's between Russia & @HillaryClinton and @ClintonFdn!"
p1042
S'1:22 PM - 17 Oct 2017'
p1043
tp1044
a(S'BREAKING BOMBSHELL: Hillary, Obama, Holder, Comey, Mueller and 2 Key Officials Leading Trump-Russia Collusion... http://fb.me/wm2plrA1\xc2\xa0'
p1045
S'1:22 PM - 17 Oct 2017'
p1046
tp1047
a(S"If the US House & Senate, the Trump FBI & Dept of Justice doesn't clean up this Russia collusion that involves the Clintons & Obama Administration, then the GOP elected officials are no different than the corrupt who need jailtime. #DRAINTHESWAMPpic.twitter.com/D0wrwzEUwD"
p1048
S'1:21 PM - 17 Oct 2017'
p1049
tp1050
a(S'Russia Collusion money laundering bribery Uranium1 Hillary and Clinton. foundation'
p1051
S'1:21 PM - 17 Oct 2017'
p1052
tp1053
a(S'Deflection from the Obama/Clinton collusion with Russia bombshell that just got released? Figures.'
p1054
S'1:21 PM - 17 Oct 2017'
p1055
tp1056
a(S'#CNN is no longer considered a viable news source by the American people. They should be investigated for collusion, instead of Russia.'
p1057
S'1:20 PM - 17 Oct 2017'
p1058
tp1059
a(S'#UraniumOne Russia, Obama, Hillary Clinton, Robert Mueller collusion @CNN @MSNBC @ABC @ABCPolitics @nbc @NBCNews @CBS @CBSNews @DNChttps://twitter.com/RealSaavedra/status/920367106201288704\xc2\xa0\xe2\x80\xa6'
p1060
S'1:20 PM - 17 Oct 2017'
p1061
tp1062
a(S'@AdamSchiffCA here is ur collusion with Russia!  It involves uranium and hoardes of cash to Clintons via bribes! https://twitter.com/foxnewspolitics/status/920309031478194176\xc2\xa0\xe2\x80\xa6'
p1063
S'1:20 PM - 17 Oct 2017'
p1064
tp1065
a(S'@ac360 @maddow @JimmyKimmelLive @charlierose @lesterholt @davidmuir News? Russia collusion. Ok if democrats? https://twitter.com/mediaite/status/920297937086963713\xc2\xa0\xe2\x80\xa6'
p1066
S'1:19 PM - 17 Oct 2017'
p1067
tp1068
a(S'@seanhannity So, we have PROOF of HRC/Russia collusion.  Now what?  How can Americans push for prosecution?  We are being trampled.'
p1069
S'1:17 PM - 17 Oct 2017'
p1070
tp1071
a(S'And the lunatics are blaming President Trump for Russia Collusion????'
p1072
S'1:16 PM - 17 Oct 2017'
p1073
tp1074
a(S'Wonder if he was also offered $500,000 for his "story" like that woman was...  "RUSSIA"... check on real Russian collusion story @thehill'
p1075
S'1:16 PM - 17 Oct 2017'
p1076
tp1077
a(S'#Collusion between #Democrats & #Russia made public! @realamymholmes @RepAdamSchiff @chuckschumer @DevinNunes @SenBlumenthal @ChrisMurphyCThttps://twitter.com/roreee/status/920374951491796995\xc2\xa0\xe2\x80\xa6'
p1078
S'1:15 PM - 17 Oct 2017'
p1079
tp1080
a(S'Another reason for her to delete 33,000 emails? Collusion with Russia. #ClintonFoundation'
p1081
S'1:15 PM - 17 Oct 2017'
p1082
tp1083
a(S"True. But, back to collusion with Russia, tax returns and impeachment. Let's not be distracted."
p1084
S'1:15 PM - 17 Oct 2017'
p1085
tp1086
a(S'Russia collusion may not be what many think http://thehill.com/policy/national-security/355749-fbi-uncovered-russian-bribery-plot-before-obama-administration\xc2\xa0\xe2\x80\xa6'
p1087
S'1:15 PM - 17 Oct 2017'
p1088
tp1089
a(S'called gop and trump Russia collusion alsow called TREASON https://twitter.com/InvestigateRU/status/920381481251475456\xc2\xa0\xe2\x80\xa6'
p1090
S'1:14 PM - 17 Oct 2017'
p1091
tp1092
a(S'If there was a coverup in 2010 by the FBI to hide Clinton/Russia collusion, then Mueller is a suspect. He was FBI director! https://twitter.com/1ClickBiz/status/920381935951712256\xc2\xa0\xe2\x80\xa6'
p1093
S'1:14 PM - 17 Oct 2017'
p1094
tp1095
a(S'#RepublicanAMovie \n\nFrom Russia With Collusion pic.twitter.com/OdNRmhEN4h'
p1096
S'1:14 PM - 17 Oct 2017'
p1097
tp1098
a(S'Holy cow finally the real Russia collusion  hrc n bill and heck all of the liberal insects probing @poutus  tomi. A superb final thought.'
p1099
S'1:13 PM - 17 Oct 2017'
p1100
tp1101
a.